ARM GAS  C:\Users\Kiwi\AppData\Local\Temp\ccOpXoqO.s 			page 1


   1              		.syntax unified
   2              		.cpu cortex-m3
   3              		.fpu softvfp
   4              		.eabi_attribute 20, 1
   5              		.eabi_attribute 21, 1
   6              		.eabi_attribute 23, 3
   7              		.eabi_attribute 24, 1
   8              		.eabi_attribute 25, 1
   9              		.eabi_attribute 26, 1
  10              		.eabi_attribute 30, 4
  11              		.eabi_attribute 34, 1
  12              		.eabi_attribute 18, 4
  13              		.thumb
  14              		.syntax unified
  15              		.file	"cyfitter_cfg.c"
  16              		.text
  17              	.Ltext0:
  18              		.cfi_sections	.debug_frame
  19              		.section	.text.SetAnalogRoutingPumps,"ax",%progbits
  20              		.align	1
  21              		.global	SetAnalogRoutingPumps
  22              		.thumb
  23              		.thumb_func
  24              		.type	SetAnalogRoutingPumps, %function
  25              	SetAnalogRoutingPumps:
  26              	.LFB7:
  27              		.file 1 "Generated_Source\\PSoC5\\cyfitter_cfg.c"
   1:Generated_Source\PSoC5/cyfitter_cfg.c **** 
   2:Generated_Source\PSoC5/cyfitter_cfg.c **** /*******************************************************************************
   3:Generated_Source\PSoC5/cyfitter_cfg.c **** * File Name: cyfitter_cfg.c
   4:Generated_Source\PSoC5/cyfitter_cfg.c **** * 
   5:Generated_Source\PSoC5/cyfitter_cfg.c **** * PSoC Creator  4.4
   6:Generated_Source\PSoC5/cyfitter_cfg.c **** *
   7:Generated_Source\PSoC5/cyfitter_cfg.c **** * Description:
   8:Generated_Source\PSoC5/cyfitter_cfg.c **** * This file contains device initialization code.
   9:Generated_Source\PSoC5/cyfitter_cfg.c **** * Except for the user defined sections in CyClockStartupError(), this file should not be modified.
  10:Generated_Source\PSoC5/cyfitter_cfg.c **** * This file is automatically generated by PSoC Creator.
  11:Generated_Source\PSoC5/cyfitter_cfg.c **** *
  12:Generated_Source\PSoC5/cyfitter_cfg.c **** ********************************************************************************
  13:Generated_Source\PSoC5/cyfitter_cfg.c **** * Copyright (c) 2007-2020 Cypress Semiconductor.  All rights reserved.
  14:Generated_Source\PSoC5/cyfitter_cfg.c **** * You may use this file only in accordance with the license, terms, conditions, 
  15:Generated_Source\PSoC5/cyfitter_cfg.c **** * disclaimers, and limitations in the end user license agreement accompanying 
  16:Generated_Source\PSoC5/cyfitter_cfg.c **** * the software package with which this file was provided.
  17:Generated_Source\PSoC5/cyfitter_cfg.c **** ********************************************************************************/
  18:Generated_Source\PSoC5/cyfitter_cfg.c **** 
  19:Generated_Source\PSoC5/cyfitter_cfg.c **** #include <string.h>
  20:Generated_Source\PSoC5/cyfitter_cfg.c **** #include "cytypes.h"
  21:Generated_Source\PSoC5/cyfitter_cfg.c **** #include "cydevice_trm.h"
  22:Generated_Source\PSoC5/cyfitter_cfg.c **** #include "cyfitter.h"
  23:Generated_Source\PSoC5/cyfitter_cfg.c **** #include "CyLib.h"
  24:Generated_Source\PSoC5/cyfitter_cfg.c **** #include "cyfitter_cfg.h"
  25:Generated_Source\PSoC5/cyfitter_cfg.c **** #include "cyapicallbacks.h"
  26:Generated_Source\PSoC5/cyfitter_cfg.c **** 
  27:Generated_Source\PSoC5/cyfitter_cfg.c **** #define CY_NEED_CYCLOCKSTARTUPERROR 1
  28:Generated_Source\PSoC5/cyfitter_cfg.c **** 
  29:Generated_Source\PSoC5/cyfitter_cfg.c **** 
  30:Generated_Source\PSoC5/cyfitter_cfg.c **** #if defined(__GNUC__) || defined(__ARMCC_VERSION)
ARM GAS  C:\Users\Kiwi\AppData\Local\Temp\ccOpXoqO.s 			page 2


  31:Generated_Source\PSoC5/cyfitter_cfg.c ****     #define CYPACKED 
  32:Generated_Source\PSoC5/cyfitter_cfg.c ****     #define CYPACKED_ATTR __attribute__ ((packed))
  33:Generated_Source\PSoC5/cyfitter_cfg.c ****     #define CYALIGNED __attribute__ ((aligned))
  34:Generated_Source\PSoC5/cyfitter_cfg.c ****     #define CY_CFG_UNUSED __attribute__ ((unused))
  35:Generated_Source\PSoC5/cyfitter_cfg.c ****     #ifndef CY_CFG_SECTION
  36:Generated_Source\PSoC5/cyfitter_cfg.c ****         #define CY_CFG_SECTION __attribute__ ((section(".psocinit")))
  37:Generated_Source\PSoC5/cyfitter_cfg.c ****     #endif
  38:Generated_Source\PSoC5/cyfitter_cfg.c ****     
  39:Generated_Source\PSoC5/cyfitter_cfg.c ****     #if defined(__ARMCC_VERSION)
  40:Generated_Source\PSoC5/cyfitter_cfg.c ****         #define CY_CFG_MEMORY_BARRIER() __memory_changed()
  41:Generated_Source\PSoC5/cyfitter_cfg.c ****     #else
  42:Generated_Source\PSoC5/cyfitter_cfg.c ****         #define CY_CFG_MEMORY_BARRIER() __sync_synchronize()
  43:Generated_Source\PSoC5/cyfitter_cfg.c ****     #endif
  44:Generated_Source\PSoC5/cyfitter_cfg.c ****     
  45:Generated_Source\PSoC5/cyfitter_cfg.c **** #elif defined(__ICCARM__)
  46:Generated_Source\PSoC5/cyfitter_cfg.c ****     #include <intrinsics.h>
  47:Generated_Source\PSoC5/cyfitter_cfg.c **** 
  48:Generated_Source\PSoC5/cyfitter_cfg.c ****     #define CYPACKED __packed
  49:Generated_Source\PSoC5/cyfitter_cfg.c ****     #define CYPACKED_ATTR 
  50:Generated_Source\PSoC5/cyfitter_cfg.c ****     #define CYALIGNED _Pragma("data_alignment=4")
  51:Generated_Source\PSoC5/cyfitter_cfg.c ****     #define CY_CFG_UNUSED _Pragma("diag_suppress=Pe177")
  52:Generated_Source\PSoC5/cyfitter_cfg.c ****     #define CY_CFG_SECTION _Pragma("location=\".psocinit\"")
  53:Generated_Source\PSoC5/cyfitter_cfg.c ****     
  54:Generated_Source\PSoC5/cyfitter_cfg.c ****     #define CY_CFG_MEMORY_BARRIER() __DMB()
  55:Generated_Source\PSoC5/cyfitter_cfg.c ****     
  56:Generated_Source\PSoC5/cyfitter_cfg.c **** #else
  57:Generated_Source\PSoC5/cyfitter_cfg.c ****     #error Unsupported toolchain
  58:Generated_Source\PSoC5/cyfitter_cfg.c **** #endif
  59:Generated_Source\PSoC5/cyfitter_cfg.c **** 
  60:Generated_Source\PSoC5/cyfitter_cfg.c **** #ifndef CYCODE
  61:Generated_Source\PSoC5/cyfitter_cfg.c ****     #define CYCODE
  62:Generated_Source\PSoC5/cyfitter_cfg.c **** #endif
  63:Generated_Source\PSoC5/cyfitter_cfg.c **** #ifndef CYDATA
  64:Generated_Source\PSoC5/cyfitter_cfg.c ****     #define CYDATA
  65:Generated_Source\PSoC5/cyfitter_cfg.c **** #endif
  66:Generated_Source\PSoC5/cyfitter_cfg.c **** #ifndef CYFAR
  67:Generated_Source\PSoC5/cyfitter_cfg.c ****     #define CYFAR
  68:Generated_Source\PSoC5/cyfitter_cfg.c **** #endif
  69:Generated_Source\PSoC5/cyfitter_cfg.c **** #ifndef CYXDATA
  70:Generated_Source\PSoC5/cyfitter_cfg.c ****     #define CYXDATA
  71:Generated_Source\PSoC5/cyfitter_cfg.c **** #endif
  72:Generated_Source\PSoC5/cyfitter_cfg.c **** 
  73:Generated_Source\PSoC5/cyfitter_cfg.c **** 
  74:Generated_Source\PSoC5/cyfitter_cfg.c **** CY_CFG_UNUSED
  75:Generated_Source\PSoC5/cyfitter_cfg.c **** static void CYMEMZERO(void *s, size_t n);
  76:Generated_Source\PSoC5/cyfitter_cfg.c **** CY_CFG_UNUSED
  77:Generated_Source\PSoC5/cyfitter_cfg.c **** static void CYMEMZERO(void *s, size_t n)
  78:Generated_Source\PSoC5/cyfitter_cfg.c **** {
  79:Generated_Source\PSoC5/cyfitter_cfg.c **** 	(void)memset(s, 0, n);
  80:Generated_Source\PSoC5/cyfitter_cfg.c **** }
  81:Generated_Source\PSoC5/cyfitter_cfg.c **** CY_CFG_UNUSED
  82:Generated_Source\PSoC5/cyfitter_cfg.c **** static void CYCONFIGCPY(void *dest, const void *src, size_t n);
  83:Generated_Source\PSoC5/cyfitter_cfg.c **** CY_CFG_UNUSED
  84:Generated_Source\PSoC5/cyfitter_cfg.c **** static void CYCONFIGCPY(void *dest, const void *src, size_t n)
  85:Generated_Source\PSoC5/cyfitter_cfg.c **** {
  86:Generated_Source\PSoC5/cyfitter_cfg.c **** 	(void)memcpy(dest, src, n);
  87:Generated_Source\PSoC5/cyfitter_cfg.c **** }
ARM GAS  C:\Users\Kiwi\AppData\Local\Temp\ccOpXoqO.s 			page 3


  88:Generated_Source\PSoC5/cyfitter_cfg.c **** CY_CFG_UNUSED
  89:Generated_Source\PSoC5/cyfitter_cfg.c **** static void CYCONFIGCPYCODE(void *dest, const void *src, size_t n);
  90:Generated_Source\PSoC5/cyfitter_cfg.c **** CY_CFG_UNUSED
  91:Generated_Source\PSoC5/cyfitter_cfg.c **** static void CYCONFIGCPYCODE(void *dest, const void *src, size_t n)
  92:Generated_Source\PSoC5/cyfitter_cfg.c **** {
  93:Generated_Source\PSoC5/cyfitter_cfg.c **** 	(void)memcpy(dest, src, n);
  94:Generated_Source\PSoC5/cyfitter_cfg.c **** }
  95:Generated_Source\PSoC5/cyfitter_cfg.c **** 
  96:Generated_Source\PSoC5/cyfitter_cfg.c **** 
  97:Generated_Source\PSoC5/cyfitter_cfg.c **** 
  98:Generated_Source\PSoC5/cyfitter_cfg.c **** 
  99:Generated_Source\PSoC5/cyfitter_cfg.c **** /* Clock startup error codes                                                   */
 100:Generated_Source\PSoC5/cyfitter_cfg.c **** #define CYCLOCKSTART_NO_ERROR    0u
 101:Generated_Source\PSoC5/cyfitter_cfg.c **** #define CYCLOCKSTART_XTAL_ERROR  1u
 102:Generated_Source\PSoC5/cyfitter_cfg.c **** #define CYCLOCKSTART_32KHZ_ERROR 2u
 103:Generated_Source\PSoC5/cyfitter_cfg.c **** #define CYCLOCKSTART_PLL_ERROR   3u
 104:Generated_Source\PSoC5/cyfitter_cfg.c **** #define CYCLOCKSTART_FLL_ERROR   4u
 105:Generated_Source\PSoC5/cyfitter_cfg.c **** #define CYCLOCKSTART_WCO_ERROR   5u
 106:Generated_Source\PSoC5/cyfitter_cfg.c **** 
 107:Generated_Source\PSoC5/cyfitter_cfg.c **** 
 108:Generated_Source\PSoC5/cyfitter_cfg.c **** #ifdef CY_NEED_CYCLOCKSTARTUPERROR
 109:Generated_Source\PSoC5/cyfitter_cfg.c **** /*******************************************************************************
 110:Generated_Source\PSoC5/cyfitter_cfg.c **** * Function Name: CyClockStartupError
 111:Generated_Source\PSoC5/cyfitter_cfg.c **** ********************************************************************************
 112:Generated_Source\PSoC5/cyfitter_cfg.c **** * Summary:
 113:Generated_Source\PSoC5/cyfitter_cfg.c **** *  If an error is encountered during clock configuration (crystal startup error,
 114:Generated_Source\PSoC5/cyfitter_cfg.c **** *  PLL lock error, etc.), the system will end up here.  Unless reimplemented by
 115:Generated_Source\PSoC5/cyfitter_cfg.c **** *  the customer, this function will stop in an infinite loop.
 116:Generated_Source\PSoC5/cyfitter_cfg.c **** *
 117:Generated_Source\PSoC5/cyfitter_cfg.c **** * Parameters:
 118:Generated_Source\PSoC5/cyfitter_cfg.c **** *   void
 119:Generated_Source\PSoC5/cyfitter_cfg.c **** *
 120:Generated_Source\PSoC5/cyfitter_cfg.c **** * Return:
 121:Generated_Source\PSoC5/cyfitter_cfg.c **** *   void
 122:Generated_Source\PSoC5/cyfitter_cfg.c **** *
 123:Generated_Source\PSoC5/cyfitter_cfg.c **** *******************************************************************************/
 124:Generated_Source\PSoC5/cyfitter_cfg.c **** CY_CFG_UNUSED
 125:Generated_Source\PSoC5/cyfitter_cfg.c **** static void CyClockStartupError(uint8 errorCode);
 126:Generated_Source\PSoC5/cyfitter_cfg.c **** CY_CFG_UNUSED
 127:Generated_Source\PSoC5/cyfitter_cfg.c **** static void CyClockStartupError(uint8 errorCode)
 128:Generated_Source\PSoC5/cyfitter_cfg.c **** {
 129:Generated_Source\PSoC5/cyfitter_cfg.c ****     /* To remove the compiler warning if errorCode not used.                */
 130:Generated_Source\PSoC5/cyfitter_cfg.c ****     errorCode = errorCode;
 131:Generated_Source\PSoC5/cyfitter_cfg.c **** 
 132:Generated_Source\PSoC5/cyfitter_cfg.c ****     /* If we have a clock startup error (bad MHz crystal, PLL lock, etc.),  */
 133:Generated_Source\PSoC5/cyfitter_cfg.c ****     /* we will end up here to allow the customer to implement something to  */
 134:Generated_Source\PSoC5/cyfitter_cfg.c ****     /* deal with the clock condition.                                       */
 135:Generated_Source\PSoC5/cyfitter_cfg.c **** 
 136:Generated_Source\PSoC5/cyfitter_cfg.c **** #ifdef CY_CFG_CLOCK_STARTUP_ERROR_CALLBACK
 137:Generated_Source\PSoC5/cyfitter_cfg.c ****     CY_CFG_Clock_Startup_ErrorCallback();
 138:Generated_Source\PSoC5/cyfitter_cfg.c **** #else
 139:Generated_Source\PSoC5/cyfitter_cfg.c ****     /*  If not using CY_CFG_CLOCK_STARTUP_ERROR_CALLBACK, place your clock startup code here. */
 140:Generated_Source\PSoC5/cyfitter_cfg.c ****     /* `#START CyClockStartupError` */
 141:Generated_Source\PSoC5/cyfitter_cfg.c **** 
 142:Generated_Source\PSoC5/cyfitter_cfg.c **** 
 143:Generated_Source\PSoC5/cyfitter_cfg.c **** 
 144:Generated_Source\PSoC5/cyfitter_cfg.c ****     /* `#END` */
ARM GAS  C:\Users\Kiwi\AppData\Local\Temp\ccOpXoqO.s 			page 4


 145:Generated_Source\PSoC5/cyfitter_cfg.c **** 
 146:Generated_Source\PSoC5/cyfitter_cfg.c ****     while(1) {}
 147:Generated_Source\PSoC5/cyfitter_cfg.c **** #endif /* CY_CFG_CLOCK_STARTUP_ERROR_CALLBACK */
 148:Generated_Source\PSoC5/cyfitter_cfg.c **** }
 149:Generated_Source\PSoC5/cyfitter_cfg.c **** #endif
 150:Generated_Source\PSoC5/cyfitter_cfg.c **** 
 151:Generated_Source\PSoC5/cyfitter_cfg.c **** #define CY_CFG_BASE_ADDR_COUNT 38u
 152:Generated_Source\PSoC5/cyfitter_cfg.c **** CYPACKED typedef struct
 153:Generated_Source\PSoC5/cyfitter_cfg.c **** {
 154:Generated_Source\PSoC5/cyfitter_cfg.c **** 	uint8 offset;
 155:Generated_Source\PSoC5/cyfitter_cfg.c **** 	uint8 value;
 156:Generated_Source\PSoC5/cyfitter_cfg.c **** } CYPACKED_ATTR cy_cfg_addrvalue_t;
 157:Generated_Source\PSoC5/cyfitter_cfg.c **** 
 158:Generated_Source\PSoC5/cyfitter_cfg.c **** #define cy_cfg_addr_table ((const uint32 CYFAR *)0x48000000u)
 159:Generated_Source\PSoC5/cyfitter_cfg.c **** #define cy_cfg_data_table ((const cy_cfg_addrvalue_t CYFAR *)0x48000098u)
 160:Generated_Source\PSoC5/cyfitter_cfg.c **** 
 161:Generated_Source\PSoC5/cyfitter_cfg.c **** /* IOPORT_0 Address: CYDEV_PRTDSI_PRT0_BASE Size (bytes): 7 */
 162:Generated_Source\PSoC5/cyfitter_cfg.c **** #define BS_IOPORT_0_VAL ((const uint8 CYFAR *)0x48000E9Cu)
 163:Generated_Source\PSoC5/cyfitter_cfg.c **** 
 164:Generated_Source\PSoC5/cyfitter_cfg.c **** /* IDMUX_IRQ Address: CYREG_IDMUX_IRQ_CTL0 Size (bytes): 8 */
 165:Generated_Source\PSoC5/cyfitter_cfg.c **** #define BS_IDMUX_IRQ_VAL ((const uint8 CYFAR *)0x48000EA4u)
 166:Generated_Source\PSoC5/cyfitter_cfg.c **** 
 167:Generated_Source\PSoC5/cyfitter_cfg.c **** /* UDB_0_2_1_CONFIG Address: CYDEV_UCFG_B0_P4_U0_BASE Size (bytes): 128 */
 168:Generated_Source\PSoC5/cyfitter_cfg.c **** #define BS_UDB_0_2_1_CONFIG_VAL ((const uint8 CYFAR *)0x48000EACu)
 169:Generated_Source\PSoC5/cyfitter_cfg.c **** 
 170:Generated_Source\PSoC5/cyfitter_cfg.c **** /* UCFG_BCTL0 Address: CYREG_BCTL0_MDCLK_EN Size (bytes): 16 */
 171:Generated_Source\PSoC5/cyfitter_cfg.c **** #define BS_UCFG_BCTL0_VAL ((const uint8 CYFAR *)0x48000F2Cu)
 172:Generated_Source\PSoC5/cyfitter_cfg.c **** 
 173:Generated_Source\PSoC5/cyfitter_cfg.c **** /* IOPINS0_0 Address: CYREG_PRT0_DR Size (bytes): 10 */
 174:Generated_Source\PSoC5/cyfitter_cfg.c **** #define BS_IOPINS0_0_VAL ((const uint8 CYFAR *)0x48000F3Cu)
 175:Generated_Source\PSoC5/cyfitter_cfg.c **** 
 176:Generated_Source\PSoC5/cyfitter_cfg.c **** /* IOPINS0_7 Address: CYREG_PRT12_DR Size (bytes): 10 */
 177:Generated_Source\PSoC5/cyfitter_cfg.c **** #define BS_IOPINS0_7_VAL ((const uint8 CYFAR *)0x48000F48u)
 178:Generated_Source\PSoC5/cyfitter_cfg.c **** 
 179:Generated_Source\PSoC5/cyfitter_cfg.c **** /* IOPINS1_7 Address: CYREG_PRT12_DR + 0x0000000Bu Size (bytes): 5 */
 180:Generated_Source\PSoC5/cyfitter_cfg.c **** #define BS_IOPINS1_7_VAL ((const uint8 CYFAR *)0x48000F54u)
 181:Generated_Source\PSoC5/cyfitter_cfg.c **** 
 182:Generated_Source\PSoC5/cyfitter_cfg.c **** /* IOPINS0_8 Address: CYREG_PRT15_DR Size (bytes): 10 */
 183:Generated_Source\PSoC5/cyfitter_cfg.c **** #define BS_IOPINS0_8_VAL ((const uint8 CYFAR *)0x48000F5Cu)
 184:Generated_Source\PSoC5/cyfitter_cfg.c **** 
 185:Generated_Source\PSoC5/cyfitter_cfg.c **** /* IOPINS0_1 Address: CYREG_PRT1_DR Size (bytes): 10 */
 186:Generated_Source\PSoC5/cyfitter_cfg.c **** #define BS_IOPINS0_1_VAL ((const uint8 CYFAR *)0x48000F68u)
 187:Generated_Source\PSoC5/cyfitter_cfg.c **** 
 188:Generated_Source\PSoC5/cyfitter_cfg.c **** /* IOPINS0_2 Address: CYREG_PRT2_DM0 Size (bytes): 8 */
 189:Generated_Source\PSoC5/cyfitter_cfg.c **** #define BS_IOPINS0_2_VAL ((const uint8 CYFAR *)0x48000F74u)
 190:Generated_Source\PSoC5/cyfitter_cfg.c **** 
 191:Generated_Source\PSoC5/cyfitter_cfg.c **** /* IOPINS0_3 Address: CYREG_PRT3_DR Size (bytes): 10 */
 192:Generated_Source\PSoC5/cyfitter_cfg.c **** #define BS_IOPINS0_3_VAL ((const uint8 CYFAR *)0x48000F7Cu)
 193:Generated_Source\PSoC5/cyfitter_cfg.c **** 
 194:Generated_Source\PSoC5/cyfitter_cfg.c **** 
 195:Generated_Source\PSoC5/cyfitter_cfg.c **** /*******************************************************************************
 196:Generated_Source\PSoC5/cyfitter_cfg.c **** * Function Name: cfg_write_bytes32
 197:Generated_Source\PSoC5/cyfitter_cfg.c **** ********************************************************************************
 198:Generated_Source\PSoC5/cyfitter_cfg.c **** * Summary:
 199:Generated_Source\PSoC5/cyfitter_cfg.c **** *  This function is used for setting up the chip configuration areas that
 200:Generated_Source\PSoC5/cyfitter_cfg.c **** *  contain relatively sparse data.
 201:Generated_Source\PSoC5/cyfitter_cfg.c **** *
ARM GAS  C:\Users\Kiwi\AppData\Local\Temp\ccOpXoqO.s 			page 5


 202:Generated_Source\PSoC5/cyfitter_cfg.c **** * Parameters:
 203:Generated_Source\PSoC5/cyfitter_cfg.c **** *   void
 204:Generated_Source\PSoC5/cyfitter_cfg.c **** *
 205:Generated_Source\PSoC5/cyfitter_cfg.c **** * Return:
 206:Generated_Source\PSoC5/cyfitter_cfg.c **** *   void
 207:Generated_Source\PSoC5/cyfitter_cfg.c **** *
 208:Generated_Source\PSoC5/cyfitter_cfg.c **** *******************************************************************************/
 209:Generated_Source\PSoC5/cyfitter_cfg.c **** static void cfg_write_bytes32(const uint32 addr_table[], const cy_cfg_addrvalue_t data_table[]);
 210:Generated_Source\PSoC5/cyfitter_cfg.c **** static void cfg_write_bytes32(const uint32 addr_table[], const cy_cfg_addrvalue_t data_table[])
 211:Generated_Source\PSoC5/cyfitter_cfg.c **** {
 212:Generated_Source\PSoC5/cyfitter_cfg.c **** 	/* For 32-bit little-endian architectures */
 213:Generated_Source\PSoC5/cyfitter_cfg.c **** 	uint32 i, j = 0u;
 214:Generated_Source\PSoC5/cyfitter_cfg.c **** 	for (i = 0u; i < CY_CFG_BASE_ADDR_COUNT; i++)
 215:Generated_Source\PSoC5/cyfitter_cfg.c **** 	{
 216:Generated_Source\PSoC5/cyfitter_cfg.c **** 		uint32 baseAddr = addr_table[i];
 217:Generated_Source\PSoC5/cyfitter_cfg.c **** 		uint8 count = (uint8)baseAddr;
 218:Generated_Source\PSoC5/cyfitter_cfg.c **** 		baseAddr &= 0xFFFFFF00u;
 219:Generated_Source\PSoC5/cyfitter_cfg.c **** 		while (count != 0u)
 220:Generated_Source\PSoC5/cyfitter_cfg.c **** 		{
 221:Generated_Source\PSoC5/cyfitter_cfg.c **** 			CY_SET_REG8((void *)(baseAddr + data_table[j].offset), data_table[j].value);
 222:Generated_Source\PSoC5/cyfitter_cfg.c **** 			j++;
 223:Generated_Source\PSoC5/cyfitter_cfg.c **** 			count--;
 224:Generated_Source\PSoC5/cyfitter_cfg.c **** 		}
 225:Generated_Source\PSoC5/cyfitter_cfg.c **** 	}
 226:Generated_Source\PSoC5/cyfitter_cfg.c **** }
 227:Generated_Source\PSoC5/cyfitter_cfg.c **** 
 228:Generated_Source\PSoC5/cyfitter_cfg.c **** /*******************************************************************************
 229:Generated_Source\PSoC5/cyfitter_cfg.c **** * Function Name: ClockSetup
 230:Generated_Source\PSoC5/cyfitter_cfg.c **** ********************************************************************************
 231:Generated_Source\PSoC5/cyfitter_cfg.c **** *
 232:Generated_Source\PSoC5/cyfitter_cfg.c **** * Summary:
 233:Generated_Source\PSoC5/cyfitter_cfg.c **** *  Performs the initialization of all of the clocks in the device based on the
 234:Generated_Source\PSoC5/cyfitter_cfg.c **** *  settings in the Clock tab of the DWR.  This includes enabling the requested
 235:Generated_Source\PSoC5/cyfitter_cfg.c **** *  clocks and setting the necessary dividers to produce the desired frequency. 
 236:Generated_Source\PSoC5/cyfitter_cfg.c **** *
 237:Generated_Source\PSoC5/cyfitter_cfg.c **** * Parameters:
 238:Generated_Source\PSoC5/cyfitter_cfg.c **** *  void
 239:Generated_Source\PSoC5/cyfitter_cfg.c **** *
 240:Generated_Source\PSoC5/cyfitter_cfg.c **** * Return:
 241:Generated_Source\PSoC5/cyfitter_cfg.c **** *  void
 242:Generated_Source\PSoC5/cyfitter_cfg.c **** *
 243:Generated_Source\PSoC5/cyfitter_cfg.c **** *******************************************************************************/
 244:Generated_Source\PSoC5/cyfitter_cfg.c **** static void ClockSetup(void);
 245:Generated_Source\PSoC5/cyfitter_cfg.c **** static void ClockSetup(void)
 246:Generated_Source\PSoC5/cyfitter_cfg.c **** {
 247:Generated_Source\PSoC5/cyfitter_cfg.c **** 	uint32 timeout;
 248:Generated_Source\PSoC5/cyfitter_cfg.c **** 	uint8 pllLock;
 249:Generated_Source\PSoC5/cyfitter_cfg.c **** 
 250:Generated_Source\PSoC5/cyfitter_cfg.c **** 
 251:Generated_Source\PSoC5/cyfitter_cfg.c **** 	/* Configure Digital Clocks based on settings from Clock DWR */
 252:Generated_Source\PSoC5/cyfitter_cfg.c **** 	CY_SET_XTND_REG16((void CYFAR *)(CYREG_CLKDIST_DCFG0_CFG0), 0x0000u);
 253:Generated_Source\PSoC5/cyfitter_cfg.c **** 	CY_SET_XTND_REG8((void CYFAR *)(CYREG_CLKDIST_DCFG0_CFG0 + 0x2u), 0x19u);
 254:Generated_Source\PSoC5/cyfitter_cfg.c **** 	CY_SET_XTND_REG16((void CYFAR *)(CYREG_CLKDIST_DCFG1_CFG0), 0x0009u);
 255:Generated_Source\PSoC5/cyfitter_cfg.c **** 	CY_SET_XTND_REG8((void CYFAR *)(CYREG_CLKDIST_DCFG1_CFG0 + 0x2u), 0x18u);
 256:Generated_Source\PSoC5/cyfitter_cfg.c **** 	CY_SET_XTND_REG16((void CYFAR *)(CYREG_CLKDIST_DCFG2_CFG0), 0x0055u);
 257:Generated_Source\PSoC5/cyfitter_cfg.c **** 	CY_SET_XTND_REG8((void CYFAR *)(CYREG_CLKDIST_DCFG2_CFG0 + 0x2u), 0x18u);
 258:Generated_Source\PSoC5/cyfitter_cfg.c **** 	CY_SET_XTND_REG16((void CYFAR *)(CYREG_CLKDIST_DCFG3_CFG0), 0x5DBFu);
ARM GAS  C:\Users\Kiwi\AppData\Local\Temp\ccOpXoqO.s 			page 6


 259:Generated_Source\PSoC5/cyfitter_cfg.c **** 	CY_SET_XTND_REG8((void CYFAR *)(CYREG_CLKDIST_DCFG3_CFG0 + 0x2u), 0x19u);
 260:Generated_Source\PSoC5/cyfitter_cfg.c **** 
 261:Generated_Source\PSoC5/cyfitter_cfg.c **** 	/* Configure ILO based on settings from Clock DWR */
 262:Generated_Source\PSoC5/cyfitter_cfg.c **** 	CY_SET_XTND_REG8((void CYFAR *)(CYREG_SLOWCLK_ILO_CR0), 0x06u);
 263:Generated_Source\PSoC5/cyfitter_cfg.c **** 
 264:Generated_Source\PSoC5/cyfitter_cfg.c **** 	/* Configure IMO based on settings from Clock DWR */
 265:Generated_Source\PSoC5/cyfitter_cfg.c **** 	CY_SET_XTND_REG8((void CYFAR *)(CYREG_FASTCLK_IMO_CR), 0x52u);
 266:Generated_Source\PSoC5/cyfitter_cfg.c **** 	CY_SET_XTND_REG8((void CYFAR *)(CYREG_IMO_TR1), (CY_GET_XTND_REG8((void CYFAR *)CYREG_FLSHID_CUST_
 267:Generated_Source\PSoC5/cyfitter_cfg.c **** 
 268:Generated_Source\PSoC5/cyfitter_cfg.c **** 	/* Configure PLL based on settings from Clock DWR */
 269:Generated_Source\PSoC5/cyfitter_cfg.c **** 	CY_SET_XTND_REG16((void CYFAR *)(CYREG_FASTCLK_PLL_P), 0x0D2Eu);
 270:Generated_Source\PSoC5/cyfitter_cfg.c **** 	CY_SET_XTND_REG16((void CYFAR *)(CYREG_FASTCLK_PLL_CFG0), 0x2251u);
 271:Generated_Source\PSoC5/cyfitter_cfg.c **** 	/* Wait up to 250us for the PLL to lock */
 272:Generated_Source\PSoC5/cyfitter_cfg.c **** 	pllLock = 0u;
 273:Generated_Source\PSoC5/cyfitter_cfg.c **** 	for (timeout = 250u / 10u; (timeout > 0u) && (pllLock != 0x03u); timeout--)
 274:Generated_Source\PSoC5/cyfitter_cfg.c **** 	{ 
 275:Generated_Source\PSoC5/cyfitter_cfg.c **** 		pllLock = 0x03u & ((uint8)((uint8)pllLock << 1) | ((CY_GET_XTND_REG8((void CYFAR *)CYREG_FASTCLK_
 276:Generated_Source\PSoC5/cyfitter_cfg.c **** 		CyDelayCycles(10u * 48u); /* Delay 10us based on 48MHz clock */
 277:Generated_Source\PSoC5/cyfitter_cfg.c **** 	}
 278:Generated_Source\PSoC5/cyfitter_cfg.c **** 	/* If we ran out of time the PLL didn't lock so go to the error function */
 279:Generated_Source\PSoC5/cyfitter_cfg.c **** 	if (timeout == 0u)
 280:Generated_Source\PSoC5/cyfitter_cfg.c **** 	{
 281:Generated_Source\PSoC5/cyfitter_cfg.c **** 		CyClockStartupError(CYCLOCKSTART_PLL_ERROR);
 282:Generated_Source\PSoC5/cyfitter_cfg.c **** 	}
 283:Generated_Source\PSoC5/cyfitter_cfg.c **** 
 284:Generated_Source\PSoC5/cyfitter_cfg.c **** 	/* Configure Bus/Master Clock based on settings from Clock DWR */
 285:Generated_Source\PSoC5/cyfitter_cfg.c **** 	CY_SET_XTND_REG16((void CYFAR *)(CYREG_CLKDIST_MSTR0), 0x0100u);
 286:Generated_Source\PSoC5/cyfitter_cfg.c **** 	CY_SET_XTND_REG8((void CYFAR *)(CYREG_CLKDIST_MSTR0), 0x07u);
 287:Generated_Source\PSoC5/cyfitter_cfg.c **** 	CY_SET_XTND_REG8((void CYFAR *)(CYREG_CLKDIST_BCFG0), 0x00u);
 288:Generated_Source\PSoC5/cyfitter_cfg.c **** 	CY_SET_XTND_REG8((void CYFAR *)(CYREG_CLKDIST_BCFG2), 0x48u);
 289:Generated_Source\PSoC5/cyfitter_cfg.c **** 	CY_SET_XTND_REG8((void CYFAR *)(CYREG_CLKDIST_MSTR0), 0x00u);
 290:Generated_Source\PSoC5/cyfitter_cfg.c **** 
 291:Generated_Source\PSoC5/cyfitter_cfg.c **** 	/* Configure USB Clock based on settings from Clock DWR */
 292:Generated_Source\PSoC5/cyfitter_cfg.c **** 	CY_SET_XTND_REG8((void CYFAR *)(CYREG_CLKDIST_UCFG), 0x00u);
 293:Generated_Source\PSoC5/cyfitter_cfg.c **** 	CY_SET_XTND_REG8((void CYFAR *)(CYREG_CLKDIST_LD), 0x02u);
 294:Generated_Source\PSoC5/cyfitter_cfg.c **** 
 295:Generated_Source\PSoC5/cyfitter_cfg.c **** 	CY_SET_XTND_REG8((void CYFAR *)(CYREG_PM_ACT_CFG2), ((CY_GET_XTND_REG8((void CYFAR *)CYREG_PM_ACT_
 296:Generated_Source\PSoC5/cyfitter_cfg.c **** }
 297:Generated_Source\PSoC5/cyfitter_cfg.c **** 
 298:Generated_Source\PSoC5/cyfitter_cfg.c **** 
 299:Generated_Source\PSoC5/cyfitter_cfg.c **** /* Analog API Functions */
 300:Generated_Source\PSoC5/cyfitter_cfg.c **** 
 301:Generated_Source\PSoC5/cyfitter_cfg.c **** 
 302:Generated_Source\PSoC5/cyfitter_cfg.c **** /*******************************************************************************
 303:Generated_Source\PSoC5/cyfitter_cfg.c **** * Function Name: AnalogSetDefault
 304:Generated_Source\PSoC5/cyfitter_cfg.c **** ********************************************************************************
 305:Generated_Source\PSoC5/cyfitter_cfg.c **** *
 306:Generated_Source\PSoC5/cyfitter_cfg.c **** * Summary:
 307:Generated_Source\PSoC5/cyfitter_cfg.c **** *  Sets up the analog portions of the chip to default values based on chip
 308:Generated_Source\PSoC5/cyfitter_cfg.c **** *  configuration options from the project.
 309:Generated_Source\PSoC5/cyfitter_cfg.c **** *
 310:Generated_Source\PSoC5/cyfitter_cfg.c **** * Parameters:
 311:Generated_Source\PSoC5/cyfitter_cfg.c **** *  void
 312:Generated_Source\PSoC5/cyfitter_cfg.c **** *
 313:Generated_Source\PSoC5/cyfitter_cfg.c **** * Return:
 314:Generated_Source\PSoC5/cyfitter_cfg.c **** *  void
 315:Generated_Source\PSoC5/cyfitter_cfg.c **** *
ARM GAS  C:\Users\Kiwi\AppData\Local\Temp\ccOpXoqO.s 			page 7


 316:Generated_Source\PSoC5/cyfitter_cfg.c **** *******************************************************************************/
 317:Generated_Source\PSoC5/cyfitter_cfg.c **** static void AnalogSetDefault(void);
 318:Generated_Source\PSoC5/cyfitter_cfg.c **** static void AnalogSetDefault(void)
 319:Generated_Source\PSoC5/cyfitter_cfg.c **** {
 320:Generated_Source\PSoC5/cyfitter_cfg.c **** 	uint8 bg_xover_inl_trim = CY_GET_XTND_REG8((void CYFAR *)(CYREG_FLSHID_MFG_CFG_BG_XOVER_INL_TRIM +
 321:Generated_Source\PSoC5/cyfitter_cfg.c **** 	CY_SET_XTND_REG8((void CYFAR *)(CYREG_BG_DFT0), (bg_xover_inl_trim & 0x07u));
 322:Generated_Source\PSoC5/cyfitter_cfg.c **** 	CY_SET_XTND_REG8((void CYFAR *)(CYREG_BG_DFT1), ((bg_xover_inl_trim >> 4) & 0x0Fu));
 323:Generated_Source\PSoC5/cyfitter_cfg.c **** 	CY_SET_XTND_REG8((void CYFAR *)CYREG_PUMP_CR0, 0x44u);
 324:Generated_Source\PSoC5/cyfitter_cfg.c **** }
 325:Generated_Source\PSoC5/cyfitter_cfg.c **** 
 326:Generated_Source\PSoC5/cyfitter_cfg.c **** 
 327:Generated_Source\PSoC5/cyfitter_cfg.c **** /*******************************************************************************
 328:Generated_Source\PSoC5/cyfitter_cfg.c **** * Function Name: SetAnalogRoutingPumps
 329:Generated_Source\PSoC5/cyfitter_cfg.c **** ********************************************************************************
 330:Generated_Source\PSoC5/cyfitter_cfg.c **** *
 331:Generated_Source\PSoC5/cyfitter_cfg.c **** * Summary:
 332:Generated_Source\PSoC5/cyfitter_cfg.c **** * Enables or disables the analog pumps feeding analog routing switches.
 333:Generated_Source\PSoC5/cyfitter_cfg.c **** * Intended to be called at startup, based on the Vdda system configuration;
 334:Generated_Source\PSoC5/cyfitter_cfg.c **** * may be called during operation when the user informs us that the Vdda voltage
 335:Generated_Source\PSoC5/cyfitter_cfg.c **** * crossed the pump threshold.
 336:Generated_Source\PSoC5/cyfitter_cfg.c **** *
 337:Generated_Source\PSoC5/cyfitter_cfg.c **** * Parameters:
 338:Generated_Source\PSoC5/cyfitter_cfg.c **** *  enabled - 1 to enable the pumps, 0 to disable the pumps
 339:Generated_Source\PSoC5/cyfitter_cfg.c **** *
 340:Generated_Source\PSoC5/cyfitter_cfg.c **** * Return:
 341:Generated_Source\PSoC5/cyfitter_cfg.c **** *  void
 342:Generated_Source\PSoC5/cyfitter_cfg.c **** *
 343:Generated_Source\PSoC5/cyfitter_cfg.c **** *******************************************************************************/
 344:Generated_Source\PSoC5/cyfitter_cfg.c **** void SetAnalogRoutingPumps(uint8 enabled)
 345:Generated_Source\PSoC5/cyfitter_cfg.c **** {
  28              		.loc 1 345 0
  29              		.cfi_startproc
  30              		@ args = 0, pretend = 0, frame = 0
  31              		@ frame_needed = 0, uses_anonymous_args = 0
  32              		@ link register save eliminated.
  33              	.LVL0:
 346:Generated_Source\PSoC5/cyfitter_cfg.c **** 	uint8 regValue = CY_GET_XTND_REG8((void CYFAR *)CYREG_PUMP_CR0);
  34              		.loc 1 346 0
  35 0000 024A     		ldr	r2, .L2
  36 0002 1378     		ldrb	r3, [r2]	@ zero_extendqisi2
  37 0004 DBB2     		uxtb	r3, r3
  38              	.LVL1:
 347:Generated_Source\PSoC5/cyfitter_cfg.c **** 	if (enabled != 0u)
 348:Generated_Source\PSoC5/cyfitter_cfg.c **** 	{
 349:Generated_Source\PSoC5/cyfitter_cfg.c **** 		regValue |= 0x00u;
 350:Generated_Source\PSoC5/cyfitter_cfg.c **** 	}
 351:Generated_Source\PSoC5/cyfitter_cfg.c **** 	else
 352:Generated_Source\PSoC5/cyfitter_cfg.c **** 	{
 353:Generated_Source\PSoC5/cyfitter_cfg.c **** 		regValue &= (uint8)~0x00u;
 354:Generated_Source\PSoC5/cyfitter_cfg.c **** 	}
 355:Generated_Source\PSoC5/cyfitter_cfg.c **** 	CY_SET_XTND_REG8((void CYFAR *)CYREG_PUMP_CR0, regValue);
  39              		.loc 1 355 0
  40 0006 1370     		strb	r3, [r2]
  41 0008 7047     		bx	lr
  42              	.L3:
  43 000a 00BF     		.align	2
  44              	.L2:
ARM GAS  C:\Users\Kiwi\AppData\Local\Temp\ccOpXoqO.s 			page 8


  45 000c 76580040 		.word	1073764470
  46              		.cfi_endproc
  47              	.LFE7:
  48              		.size	SetAnalogRoutingPumps, .-SetAnalogRoutingPumps
  49              		.section	.text.cyfitter_cfg,"ax",%progbits
  50              		.align	1
  51              		.global	cyfitter_cfg
  52              		.thumb
  53              		.thumb_func
  54              		.type	cyfitter_cfg, %function
  55              	cyfitter_cfg:
  56              	.LFB8:
 356:Generated_Source\PSoC5/cyfitter_cfg.c **** }
 357:Generated_Source\PSoC5/cyfitter_cfg.c **** 
 358:Generated_Source\PSoC5/cyfitter_cfg.c **** 
 359:Generated_Source\PSoC5/cyfitter_cfg.c **** 
 360:Generated_Source\PSoC5/cyfitter_cfg.c **** 
 361:Generated_Source\PSoC5/cyfitter_cfg.c **** /*******************************************************************************
 362:Generated_Source\PSoC5/cyfitter_cfg.c **** * Function Name: cyfitter_cfg
 363:Generated_Source\PSoC5/cyfitter_cfg.c **** ********************************************************************************
 364:Generated_Source\PSoC5/cyfitter_cfg.c **** * Summary:
 365:Generated_Source\PSoC5/cyfitter_cfg.c **** *  This function is called by the start-up code for the selected device. It
 366:Generated_Source\PSoC5/cyfitter_cfg.c **** *  performs all of the necessary device configuration based on the design
 367:Generated_Source\PSoC5/cyfitter_cfg.c **** *  settings.  This includes settings from the Design Wide Resources (DWR) such
 368:Generated_Source\PSoC5/cyfitter_cfg.c **** *  as Clocks and Pins as well as any component configuration that is necessary.
 369:Generated_Source\PSoC5/cyfitter_cfg.c **** *
 370:Generated_Source\PSoC5/cyfitter_cfg.c **** * Parameters:
 371:Generated_Source\PSoC5/cyfitter_cfg.c **** *   void
 372:Generated_Source\PSoC5/cyfitter_cfg.c **** *
 373:Generated_Source\PSoC5/cyfitter_cfg.c **** * Return:
 374:Generated_Source\PSoC5/cyfitter_cfg.c **** *   void
 375:Generated_Source\PSoC5/cyfitter_cfg.c **** *
 376:Generated_Source\PSoC5/cyfitter_cfg.c **** *******************************************************************************/
 377:Generated_Source\PSoC5/cyfitter_cfg.c **** 
 378:Generated_Source\PSoC5/cyfitter_cfg.c **** void cyfitter_cfg(void)
 379:Generated_Source\PSoC5/cyfitter_cfg.c **** {
  57              		.loc 1 379 0
  58              		.cfi_startproc
  59              		@ args = 0, pretend = 0, frame = 0
  60              		@ frame_needed = 0, uses_anonymous_args = 0
  61 0000 F8B5     		push	{r3, r4, r5, r6, r7, lr}
  62              		.cfi_def_cfa_offset 24
  63              		.cfi_offset 3, -24
  64              		.cfi_offset 4, -20
  65              		.cfi_offset 5, -16
  66              		.cfi_offset 6, -12
  67              		.cfi_offset 7, -8
  68              		.cfi_offset 14, -4
 380:Generated_Source\PSoC5/cyfitter_cfg.c **** #ifdef CYGlobalIntDisable
 381:Generated_Source\PSoC5/cyfitter_cfg.c **** 	/* Disable interrupts by default. Let user enable if/when they want. */
 382:Generated_Source\PSoC5/cyfitter_cfg.c **** 	CYGlobalIntDisable
  69              		.loc 1 382 0
  70              		.syntax unified
  71              	@ 382 "Generated_Source\PSoC5\cyfitter_cfg.c" 1
  72 0002 72B6     		CPSID   i
  73              	@ 0 "" 2
 383:Generated_Source\PSoC5/cyfitter_cfg.c **** #endif
ARM GAS  C:\Users\Kiwi\AppData\Local\Temp\ccOpXoqO.s 			page 9


 384:Generated_Source\PSoC5/cyfitter_cfg.c **** 
 385:Generated_Source\PSoC5/cyfitter_cfg.c **** 
 386:Generated_Source\PSoC5/cyfitter_cfg.c **** 	/* Set Flash Cycles based on max possible frequency in case a glitch occurs during ClockSetup(). *
 387:Generated_Source\PSoC5/cyfitter_cfg.c **** 	CY_SET_XTND_REG8((void CYFAR *)(CYREG_CACHE_CC_CTL), (((CYDEV_INSTRUCT_CACHE_ENABLED) != 0) ? 0x61
  74              		.loc 1 387 0
  75              		.thumb
  76              		.syntax unified
  77 0004 6E4B     		ldr	r3, .L22
  78 0006 6122     		movs	r2, #97
  79 0008 1A70     		strb	r2, [r3]
  80              	.LBB56:
  81              	.LBB57:
 253:Generated_Source\PSoC5/cyfitter_cfg.c **** 	CY_SET_XTND_REG16((void CYFAR *)(CYREG_CLKDIST_DCFG1_CFG0), 0x0009u);
  82              		.loc 1 253 0
  83 000a 1925     		movs	r5, #25
 252:Generated_Source\PSoC5/cyfitter_cfg.c **** 	CY_SET_XTND_REG8((void CYFAR *)(CYREG_CLKDIST_DCFG0_CFG0 + 0x2u), 0x19u);
  84              		.loc 1 252 0
  85 000c A3F5F063 		sub	r3, r3, #1920
 254:Generated_Source\PSoC5/cyfitter_cfg.c **** 	CY_SET_XTND_REG8((void CYFAR *)(CYREG_CLKDIST_DCFG1_CFG0 + 0x2u), 0x18u);
  86              		.loc 1 254 0
  87 0010 0922     		movs	r2, #9
 252:Generated_Source\PSoC5/cyfitter_cfg.c **** 	CY_SET_XTND_REG8((void CYFAR *)(CYREG_CLKDIST_DCFG0_CFG0 + 0x2u), 0x19u);
  88              		.loc 1 252 0
  89 0012 0024     		movs	r4, #0
  90 0014 1C80     		strh	r4, [r3]	@ movhi
 253:Generated_Source\PSoC5/cyfitter_cfg.c **** 	CY_SET_XTND_REG16((void CYFAR *)(CYREG_CLKDIST_DCFG1_CFG0), 0x0009u);
  91              		.loc 1 253 0
  92 0016 9D70     		strb	r5, [r3, #2]
 254:Generated_Source\PSoC5/cyfitter_cfg.c **** 	CY_SET_XTND_REG8((void CYFAR *)(CYREG_CLKDIST_DCFG1_CFG0 + 0x2u), 0x18u);
  93              		.loc 1 254 0
  94 0018 9A80     		strh	r2, [r3, #4]	@ movhi
 255:Generated_Source\PSoC5/cyfitter_cfg.c **** 	CY_SET_XTND_REG16((void CYFAR *)(CYREG_CLKDIST_DCFG2_CFG0), 0x0055u);
  95              		.loc 1 255 0
  96 001a 6A4A     		ldr	r2, .L22+4
  97 001c 1823     		movs	r3, #24
 256:Generated_Source\PSoC5/cyfitter_cfg.c **** 	CY_SET_XTND_REG8((void CYFAR *)(CYREG_CLKDIST_DCFG2_CFG0 + 0x2u), 0x18u);
  98              		.loc 1 256 0
  99 001e 5521     		movs	r1, #85
 255:Generated_Source\PSoC5/cyfitter_cfg.c **** 	CY_SET_XTND_REG16((void CYFAR *)(CYREG_CLKDIST_DCFG2_CFG0), 0x0055u);
 100              		.loc 1 255 0
 101 0020 1370     		strb	r3, [r2]
 256:Generated_Source\PSoC5/cyfitter_cfg.c **** 	CY_SET_XTND_REG8((void CYFAR *)(CYREG_CLKDIST_DCFG2_CFG0 + 0x2u), 0x18u);
 102              		.loc 1 256 0
 103 0022 5180     		strh	r1, [r2, #2]	@ movhi
 257:Generated_Source\PSoC5/cyfitter_cfg.c **** 	CY_SET_XTND_REG16((void CYFAR *)(CYREG_CLKDIST_DCFG3_CFG0), 0x5DBFu);
 104              		.loc 1 257 0
 105 0024 1371     		strb	r3, [r2, #4]
 258:Generated_Source\PSoC5/cyfitter_cfg.c **** 	CY_SET_XTND_REG8((void CYFAR *)(CYREG_CLKDIST_DCFG3_CFG0 + 0x2u), 0x19u);
 106              		.loc 1 258 0
 107 0026 45F6BF52 		movw	r2, #23999
 108 002a 674B     		ldr	r3, .L22+8
 275:Generated_Source\PSoC5/cyfitter_cfg.c **** 		CyDelayCycles(10u * 48u); /* Delay 10us based on 48MHz clock */
 109              		.loc 1 275 0
 110 002c 674E     		ldr	r6, .L22+12
 258:Generated_Source\PSoC5/cyfitter_cfg.c **** 	CY_SET_XTND_REG8((void CYFAR *)(CYREG_CLKDIST_DCFG3_CFG0 + 0x2u), 0x19u);
 111              		.loc 1 258 0
 112 002e 1A80     		strh	r2, [r3]	@ movhi
ARM GAS  C:\Users\Kiwi\AppData\Local\Temp\ccOpXoqO.s 			page 10


 262:Generated_Source\PSoC5/cyfitter_cfg.c **** 
 113              		.loc 1 262 0
 114 0030 0622     		movs	r2, #6
 259:Generated_Source\PSoC5/cyfitter_cfg.c **** 
 115              		.loc 1 259 0
 116 0032 9D70     		strb	r5, [r3, #2]
 262:Generated_Source\PSoC5/cyfitter_cfg.c **** 
 117              		.loc 1 262 0
 118 0034 83F87422 		strb	r2, [r3, #628]
 265:Generated_Source\PSoC5/cyfitter_cfg.c **** 	CY_SET_XTND_REG8((void CYFAR *)(CYREG_IMO_TR1), (CY_GET_XTND_REG8((void CYFAR *)CYREG_FLSHID_CUST_
 119              		.loc 1 265 0
 120 0038 5222     		movs	r2, #82
 121 003a 03F5BA73 		add	r3, r3, #372
 122 003e 1A70     		strb	r2, [r3]
 266:Generated_Source\PSoC5/cyfitter_cfg.c **** 
 123              		.loc 1 266 0
 124 0040 634B     		ldr	r3, .L22+16
 125 0042 644A     		ldr	r2, .L22+20
 126 0044 1B78     		ldrb	r3, [r3]	@ zero_extendqisi2
 127 0046 DBB2     		uxtb	r3, r3
 128 0048 1370     		strb	r3, [r2]
 269:Generated_Source\PSoC5/cyfitter_cfg.c **** 	CY_SET_XTND_REG16((void CYFAR *)(CYREG_FASTCLK_PLL_CFG0), 0x2251u);
 129              		.loc 1 269 0
 130 004a 40F62E52 		movw	r2, #3374
 131 004e 624B     		ldr	r3, .L22+24
 132 0050 1A80     		strh	r2, [r3]	@ movhi
 270:Generated_Source\PSoC5/cyfitter_cfg.c **** 	/* Wait up to 250us for the PLL to lock */
 133              		.loc 1 270 0
 134 0052 42F25122 		movw	r2, #8785
 135 0056 23F8022C 		strh	r2, [r3, #-2]	@ movhi
 136              	.LVL2:
 137              	.L6:
 275:Generated_Source\PSoC5/cyfitter_cfg.c **** 		CyDelayCycles(10u * 48u); /* Delay 10us based on 48MHz clock */
 138              		.loc 1 275 0
 139 005a 3378     		ldrb	r3, [r6]	@ zero_extendqisi2
 276:Generated_Source\PSoC5/cyfitter_cfg.c **** 	}
 140              		.loc 1 276 0
 141 005c 4FF4F070 		mov	r0, #480
 275:Generated_Source\PSoC5/cyfitter_cfg.c **** 		CyDelayCycles(10u * 48u); /* Delay 10us based on 48MHz clock */
 142              		.loc 1 275 0
 143 0060 03F00103 		and	r3, r3, #1
 144 0064 43EA4404 		orr	r4, r3, r4, lsl #1
 145              	.LVL3:
 276:Generated_Source\PSoC5/cyfitter_cfg.c **** 	}
 146              		.loc 1 276 0
 147 0068 FFF7FEFF 		bl	CyDelayCycles
 148              	.LVL4:
 273:Generated_Source\PSoC5/cyfitter_cfg.c **** 	{ 
 149              		.loc 1 273 0
 150 006c 013D     		subs	r5, r5, #1
 151              	.LVL5:
 275:Generated_Source\PSoC5/cyfitter_cfg.c **** 		CyDelayCycles(10u * 48u); /* Delay 10us based on 48MHz clock */
 152              		.loc 1 275 0
 153 006e 04F00304 		and	r4, r4, #3
 154              	.LVL6:
 273:Generated_Source\PSoC5/cyfitter_cfg.c **** 	{ 
 155              		.loc 1 273 0
ARM GAS  C:\Users\Kiwi\AppData\Local\Temp\ccOpXoqO.s 			page 11


 156 0072 19D0     		beq	.L5
 157              	.LVL7:
 158 0074 032C     		cmp	r4, #3
 159 0076 F0D1     		bne	.L6
 285:Generated_Source\PSoC5/cyfitter_cfg.c **** 	CY_SET_XTND_REG8((void CYFAR *)(CYREG_CLKDIST_MSTR0), 0x07u);
 160              		.loc 1 285 0
 161 0078 584B     		ldr	r3, .L22+28
 162 007a 4FF48072 		mov	r2, #256
 163 007e 1A80     		strh	r2, [r3]	@ movhi
 286:Generated_Source\PSoC5/cyfitter_cfg.c **** 	CY_SET_XTND_REG8((void CYFAR *)(CYREG_CLKDIST_BCFG0), 0x00u);
 164              		.loc 1 286 0
 165 0080 0722     		movs	r2, #7
 166 0082 1A70     		strb	r2, [r3]
 287:Generated_Source\PSoC5/cyfitter_cfg.c **** 	CY_SET_XTND_REG8((void CYFAR *)(CYREG_CLKDIST_BCFG2), 0x48u);
 167              		.loc 1 287 0
 168 0084 564A     		ldr	r2, .L22+32
 169 0086 0024     		movs	r4, #0
 170              	.LVL8:
 288:Generated_Source\PSoC5/cyfitter_cfg.c **** 	CY_SET_XTND_REG8((void CYFAR *)(CYREG_CLKDIST_MSTR0), 0x00u);
 171              		.loc 1 288 0
 172 0088 4821     		movs	r1, #72
 287:Generated_Source\PSoC5/cyfitter_cfg.c **** 	CY_SET_XTND_REG8((void CYFAR *)(CYREG_CLKDIST_BCFG2), 0x48u);
 173              		.loc 1 287 0
 174 008a 1470     		strb	r4, [r2]
 288:Generated_Source\PSoC5/cyfitter_cfg.c **** 	CY_SET_XTND_REG8((void CYFAR *)(CYREG_CLKDIST_MSTR0), 0x00u);
 175              		.loc 1 288 0
 176 008c 9170     		strb	r1, [r2, #2]
 293:Generated_Source\PSoC5/cyfitter_cfg.c **** 
 177              		.loc 1 293 0
 178 008e 0222     		movs	r2, #2
 289:Generated_Source\PSoC5/cyfitter_cfg.c **** 
 179              		.loc 1 289 0
 180 0090 1C70     		strb	r4, [r3]
 292:Generated_Source\PSoC5/cyfitter_cfg.c **** 	CY_SET_XTND_REG8((void CYFAR *)(CYREG_CLKDIST_LD), 0x02u);
 181              		.loc 1 292 0
 182 0092 5C71     		strb	r4, [r3, #5]
 293:Generated_Source\PSoC5/cyfitter_cfg.c **** 
 183              		.loc 1 293 0
 184 0094 03F8032C 		strb	r2, [r3, #-3]
 295:Generated_Source\PSoC5/cyfitter_cfg.c **** }
 185              		.loc 1 295 0
 186 0098 524A     		ldr	r2, .L22+36
 187              	.LBE57:
 188              	.LBE56:
 189              	.LBB60:
 190              	.LBB61:
 388:Generated_Source\PSoC5/cyfitter_cfg.c **** 	/* Setup clocks based on selections from Clock DWR */
 389:Generated_Source\PSoC5/cyfitter_cfg.c **** 	ClockSetup();
 390:Generated_Source\PSoC5/cyfitter_cfg.c **** 	{
 391:Generated_Source\PSoC5/cyfitter_cfg.c **** 
 392:Generated_Source\PSoC5/cyfitter_cfg.c **** 		CYPACKED typedef struct {
 393:Generated_Source\PSoC5/cyfitter_cfg.c **** 			void CYFAR *address;
 394:Generated_Source\PSoC5/cyfitter_cfg.c **** 			uint16 size;
 395:Generated_Source\PSoC5/cyfitter_cfg.c **** 		} CYPACKED_ATTR cfg_memset_t;
 396:Generated_Source\PSoC5/cyfitter_cfg.c **** 
 397:Generated_Source\PSoC5/cyfitter_cfg.c **** 
 398:Generated_Source\PSoC5/cyfitter_cfg.c **** 		CYPACKED typedef struct {
ARM GAS  C:\Users\Kiwi\AppData\Local\Temp\ccOpXoqO.s 			page 12


 399:Generated_Source\PSoC5/cyfitter_cfg.c **** 			void CYFAR *dest;
 400:Generated_Source\PSoC5/cyfitter_cfg.c **** 			const void CYFAR *src;
 401:Generated_Source\PSoC5/cyfitter_cfg.c **** 			uint16 size;
 402:Generated_Source\PSoC5/cyfitter_cfg.c **** 		} CYPACKED_ATTR cfg_memcpy_t;
 403:Generated_Source\PSoC5/cyfitter_cfg.c **** 
 404:Generated_Source\PSoC5/cyfitter_cfg.c **** 		static const cfg_memset_t CYCODE cfg_memset_list[] = {
 405:Generated_Source\PSoC5/cyfitter_cfg.c **** 			/* address, size */
 406:Generated_Source\PSoC5/cyfitter_cfg.c **** 			{(void CYFAR *)(CYREG_I2C_XCFG), 25u},
 407:Generated_Source\PSoC5/cyfitter_cfg.c **** 			{(void CYFAR *)(CYREG_PRT4_DR), 48u},
 408:Generated_Source\PSoC5/cyfitter_cfg.c **** 			{(void CYFAR *)(CYDEV_UCFG_B0_P0_U0_BASE), 2048u},
 409:Generated_Source\PSoC5/cyfitter_cfg.c **** 			{(void CYFAR *)(CYDEV_UCFG_B0_P4_U1_BASE), 1920u},
 410:Generated_Source\PSoC5/cyfitter_cfg.c **** 			{(void CYFAR *)(CYDEV_UCFG_B1_P2_U0_BASE), 2048u},
 411:Generated_Source\PSoC5/cyfitter_cfg.c **** 			{(void CYFAR *)(CYDEV_UCFG_DSI0_BASE), 2560u},
 412:Generated_Source\PSoC5/cyfitter_cfg.c **** 			{(void CYFAR *)(CYDEV_UCFG_DSI12_BASE), 512u},
 413:Generated_Source\PSoC5/cyfitter_cfg.c **** 			{(void CYFAR *)(CYREG_BCTL1_MDCLK_EN), 16u},
 414:Generated_Source\PSoC5/cyfitter_cfg.c **** 		};
 415:Generated_Source\PSoC5/cyfitter_cfg.c **** 
 416:Generated_Source\PSoC5/cyfitter_cfg.c **** 		static const cfg_memcpy_t CYCODE cfg_memcpy_list [] = {
 417:Generated_Source\PSoC5/cyfitter_cfg.c **** 			/* dest, src, size */
 418:Generated_Source\PSoC5/cyfitter_cfg.c **** 			{(void CYFAR *)(CYDEV_PRTDSI_PRT0_BASE), BS_IOPORT_0_VAL, 7u},
 419:Generated_Source\PSoC5/cyfitter_cfg.c **** 			{(void CYFAR *)(CYREG_IDMUX_IRQ_CTL0), BS_IDMUX_IRQ_VAL, 8u},
 420:Generated_Source\PSoC5/cyfitter_cfg.c **** 			{(void CYFAR *)(CYDEV_UCFG_B0_P4_U0_BASE), BS_UDB_0_2_1_CONFIG_VAL, 128u},
 421:Generated_Source\PSoC5/cyfitter_cfg.c **** 			{(void CYFAR *)(CYREG_BCTL0_MDCLK_EN), BS_UCFG_BCTL0_VAL, 16u},
 422:Generated_Source\PSoC5/cyfitter_cfg.c **** 		};
 423:Generated_Source\PSoC5/cyfitter_cfg.c **** 
 424:Generated_Source\PSoC5/cyfitter_cfg.c **** 		uint8 CYDATA i;
 425:Generated_Source\PSoC5/cyfitter_cfg.c **** 
 426:Generated_Source\PSoC5/cyfitter_cfg.c **** 		/* Zero out critical memory blocks before beginning configuration */
 427:Generated_Source\PSoC5/cyfitter_cfg.c **** 		for (i = 0u; i < (sizeof(cfg_memset_list)/sizeof(cfg_memset_list[0])); i++)
 428:Generated_Source\PSoC5/cyfitter_cfg.c **** 		{
 429:Generated_Source\PSoC5/cyfitter_cfg.c **** 			const cfg_memset_t CYCODE * CYDATA ms = &cfg_memset_list[i];
 430:Generated_Source\PSoC5/cyfitter_cfg.c **** 			CYMEMZERO(ms->address, (size_t)(uint32)(ms->size));
 191              		.loc 1 430 0
 192 009a 534E     		ldr	r6, .L22+40
 193              	.LBE61:
 194              	.LBE60:
 195              	.LBB74:
 196              	.LBB58:
 295:Generated_Source\PSoC5/cyfitter_cfg.c **** }
 197              		.loc 1 295 0
 198 009c 1378     		ldrb	r3, [r2]	@ zero_extendqisi2
 199              	.LBE58:
 200              	.LBE74:
 201              	.LBB75:
 202              	.LBB64:
 203              		.loc 1 430 0
 204 009e 0627     		movs	r7, #6
 205              	.LBE64:
 206              	.LBE75:
 207              	.LBB76:
 208              	.LBB59:
 295:Generated_Source\PSoC5/cyfitter_cfg.c **** }
 209              		.loc 1 295 0
 210 00a0 43F00F03 		orr	r3, r3, #15
 211 00a4 1370     		strb	r3, [r2]
 212              	.LVL9:
 213 00a6 00E0     		b	.L8
ARM GAS  C:\Users\Kiwi\AppData\Local\Temp\ccOpXoqO.s 			page 13


 214              	.LVL10:
 215              	.L5:
 216 00a8 FEE7     		b	.L5
 217              	.LVL11:
 218              	.L8:
 219              	.LBE59:
 220              	.LBE76:
 221              	.LBB77:
 222              	.LBB65:
 223              		.loc 1 430 0 discriminator 3
 224 00aa 07FB0463 		mla	r3, r7, r4, r6
 225              	.LBB62:
 226              	.LBB63:
  79:Generated_Source\PSoC5/cyfitter_cfg.c **** }
 227              		.loc 1 79 0 discriminator 3
 228 00ae 0021     		movs	r1, #0
 229 00b0 9A88     		ldrh	r2, [r3, #4]	@ unaligned
 230 00b2 1868     		ldr	r0, [r3]	@ unaligned
 231 00b4 0134     		adds	r4, r4, #1
 232              	.LVL12:
 233 00b6 FFF7FEFF 		bl	memset
 234              	.LVL13:
 235              	.LBE63:
 236              	.LBE62:
 237              	.LBE65:
 427:Generated_Source\PSoC5/cyfitter_cfg.c **** 		{
 238              		.loc 1 427 0 discriminator 3
 239 00ba 082C     		cmp	r4, #8
 240 00bc 4A4D     		ldr	r5, .L22+40
 241 00be F4D1     		bne	.L8
 242 00c0 0024     		movs	r4, #0
 243              	.LVL14:
 244              	.LBB66:
 431:Generated_Source\PSoC5/cyfitter_cfg.c **** 		}
 432:Generated_Source\PSoC5/cyfitter_cfg.c **** 
 433:Generated_Source\PSoC5/cyfitter_cfg.c **** 		/* Copy device configuration data into registers */
 434:Generated_Source\PSoC5/cyfitter_cfg.c **** 		for (i = 0u; i < (sizeof(cfg_memcpy_list)/sizeof(cfg_memcpy_list[0])); i++)
 435:Generated_Source\PSoC5/cyfitter_cfg.c **** 		{
 436:Generated_Source\PSoC5/cyfitter_cfg.c **** 			const cfg_memcpy_t CYCODE * CYDATA mc = &cfg_memcpy_list[i];
 437:Generated_Source\PSoC5/cyfitter_cfg.c **** 			void * CYDATA destPtr = mc->dest;
 245              		.loc 1 437 0 discriminator 3
 246 00c2 0A26     		movs	r6, #10
 247              	.L9:
 248              	.LVL15:
 249 00c4 06FB0452 		mla	r2, r6, r4, r5
 250 00c8 1346     		mov	r3, r2
 251 00ca 53F8300F 		ldr	r0, [r3, #48]!	@ unaligned
 252              	.LBB67:
 253              	.LBB68:
  86:Generated_Source\PSoC5/cyfitter_cfg.c **** }
 254              		.loc 1 86 0 discriminator 3
 255 00ce 128F     		ldrh	r2, [r2, #56]	@ unaligned
 256 00d0 5968     		ldr	r1, [r3, #4]	@ unaligned
 257 00d2 0134     		adds	r4, r4, #1
 258              	.LVL16:
 259 00d4 FFF7FEFF 		bl	memcpy
 260              	.LVL17:
ARM GAS  C:\Users\Kiwi\AppData\Local\Temp\ccOpXoqO.s 			page 14


 261              	.LBE68:
 262              	.LBE67:
 263              	.LBE66:
 434:Generated_Source\PSoC5/cyfitter_cfg.c **** 		{
 264              		.loc 1 434 0 discriminator 3
 265 00d8 042C     		cmp	r4, #4
 266 00da F3D1     		bne	.L9
 267 00dc 4348     		ldr	r0, .L22+44
 268              	.LBB69:
 269              	.LBB70:
 214:Generated_Source\PSoC5/cyfitter_cfg.c **** 	{
 270              		.loc 1 214 0
 271 00de 444D     		ldr	r5, .L22+48
 272              	.LBE70:
 273              	.LBE69:
 274 00e0 0024     		movs	r4, #0
 275              	.LVL18:
 276              	.L12:
 277              	.LBB73:
 278              	.LBB72:
 279              	.LBB71:
 216:Generated_Source\PSoC5/cyfitter_cfg.c **** 		uint8 count = (uint8)baseAddr;
 280              		.loc 1 216 0
 281 00e2 50F8041F 		ldr	r1, [r0, #4]!
 282              	.LVL19:
 283 00e6 04F11053 		add	r3, r4, #603979776
 284 00ea 03F14C02 		add	r2, r3, #76
 218:Generated_Source\PSoC5/cyfitter_cfg.c **** 		while (count != 0u)
 285              		.loc 1 218 0
 286 00ee 21F0FF06 		bic	r6, r1, #255
 287              	.LVL20:
 288 00f2 4D33     		adds	r3, r3, #77
 289 00f4 C9B2     		uxtb	r1, r1
 290 00f6 0B44     		add	r3, r3, r1
 291 00f8 5200     		lsls	r2, r2, #1
 292 00fa 5B00     		lsls	r3, r3, #1
 293              	.LVL21:
 294              	.L10:
 295 00fc 0232     		adds	r2, r2, #2
 219:Generated_Source\PSoC5/cyfitter_cfg.c **** 		{
 296              		.loc 1 219 0
 297 00fe 9A42     		cmp	r2, r3
 298 0100 06D0     		beq	.L21
 221:Generated_Source\PSoC5/cyfitter_cfg.c **** 			j++;
 299              		.loc 1 221 0
 300 0102 12F8027C 		ldrb	r7, [r2, #-2]	@ zero_extendqisi2
 301 0106 12F801EC 		ldrb	lr, [r2, #-1]	@ zero_extendqisi2
 302 010a 07F806E0 		strb	lr, [r7, r6]
 303 010e F5E7     		b	.L10
 304              	.L21:
 305              	.LBE71:
 214:Generated_Source\PSoC5/cyfitter_cfg.c **** 	{
 306              		.loc 1 214 0
 307 0110 A842     		cmp	r0, r5
 308 0112 0C44     		add	r4, r4, r1
 309              	.LVL22:
 310 0114 E5D1     		bne	.L12
ARM GAS  C:\Users\Kiwi\AppData\Local\Temp\ccOpXoqO.s 			page 15


 311              	.LVL23:
 312              	.LBE72:
 313              	.LBE73:
 438:Generated_Source\PSoC5/cyfitter_cfg.c **** 			const void * CYDATA srcPtr = mc->src;
 439:Generated_Source\PSoC5/cyfitter_cfg.c **** 			uint16 CYDATA numBytes = mc->size;
 440:Generated_Source\PSoC5/cyfitter_cfg.c **** 			CYCONFIGCPY(destPtr, srcPtr, numBytes);
 441:Generated_Source\PSoC5/cyfitter_cfg.c **** 		}
 442:Generated_Source\PSoC5/cyfitter_cfg.c **** 
 443:Generated_Source\PSoC5/cyfitter_cfg.c **** 		cfg_write_bytes32(cy_cfg_addr_table, cy_cfg_data_table);
 444:Generated_Source\PSoC5/cyfitter_cfg.c **** 
 445:Generated_Source\PSoC5/cyfitter_cfg.c **** 		/* Enable digital routing */
 446:Generated_Source\PSoC5/cyfitter_cfg.c **** 		CY_SET_XTND_REG8((void CYFAR *)CYREG_BCTL0_BANK_CTL, CY_GET_XTND_REG8((void CYFAR *)CYREG_BCTL0_B
 314              		.loc 1 446 0
 315 0116 374A     		ldr	r2, .L22+52
 447:Generated_Source\PSoC5/cyfitter_cfg.c **** 		CY_SET_XTND_REG8((void CYFAR *)CYREG_BCTL1_BANK_CTL, CY_GET_XTND_REG8((void CYFAR *)CYREG_BCTL1_B
 448:Generated_Source\PSoC5/cyfitter_cfg.c **** 
 449:Generated_Source\PSoC5/cyfitter_cfg.c **** 		/* Enable UDB array */
 450:Generated_Source\PSoC5/cyfitter_cfg.c **** 		CY_SET_XTND_REG8((void CYFAR *)CYREG_PM_ACT_CFG0, CY_GET_XTND_REG8((void CYFAR *)CYREG_PM_ACT_CFG
 316              		.loc 1 450 0
 317 0118 374D     		ldr	r5, .L22+56
 446:Generated_Source\PSoC5/cyfitter_cfg.c **** 		CY_SET_XTND_REG8((void CYFAR *)CYREG_BCTL1_BANK_CTL, CY_GET_XTND_REG8((void CYFAR *)CYREG_BCTL1_B
 318              		.loc 1 446 0
 319 011a 1378     		ldrb	r3, [r2]	@ zero_extendqisi2
 320              	.LBE77:
 321              	.LBB78:
 322              	.LBB79:
  86:Generated_Source\PSoC5/cyfitter_cfg.c **** }
 323              		.loc 1 86 0
 324 011c 374C     		ldr	r4, .L22+60
 325              	.LBE79:
 326              	.LBE78:
 327              	.LBB81:
 446:Generated_Source\PSoC5/cyfitter_cfg.c **** 		CY_SET_XTND_REG8((void CYFAR *)CYREG_BCTL1_BANK_CTL, CY_GET_XTND_REG8((void CYFAR *)CYREG_BCTL1_B
 328              		.loc 1 446 0
 329 011e 43F00203 		orr	r3, r3, #2
 330 0122 1370     		strb	r3, [r2]
 447:Generated_Source\PSoC5/cyfitter_cfg.c **** 		CY_SET_XTND_REG8((void CYFAR *)CYREG_BCTL1_BANK_CTL, CY_GET_XTND_REG8((void CYFAR *)CYREG_BCTL1_B
 331              		.loc 1 447 0
 332 0124 137C     		ldrb	r3, [r2, #16]	@ zero_extendqisi2
 333 0126 43F00203 		orr	r3, r3, #2
 334 012a 1374     		strb	r3, [r2, #16]
 335              		.loc 1 450 0
 336 012c 2B78     		ldrb	r3, [r5]	@ zero_extendqisi2
 451:Generated_Source\PSoC5/cyfitter_cfg.c **** 		CY_SET_XTND_REG8((void CYFAR *)CYREG_PM_AVAIL_CR2, CY_GET_XTND_REG8((void CYFAR *)CYREG_PM_AVAIL_
 337              		.loc 1 451 0
 338 012e A2F58632 		sub	r2, r2, #68608
 450:Generated_Source\PSoC5/cyfitter_cfg.c **** 		CY_SET_XTND_REG8((void CYFAR *)CYREG_PM_AVAIL_CR2, CY_GET_XTND_REG8((void CYFAR *)CYREG_PM_AVAIL_
 339              		.loc 1 450 0
 340 0132 43F04003 		orr	r3, r3, #64
 341 0136 2B70     		strb	r3, [r5]
 342              		.loc 1 451 0
 343 0138 413A     		subs	r2, r2, #65
 344 013a 1378     		ldrb	r3, [r2]	@ zero_extendqisi2
 345 013c 43F01003 		orr	r3, r3, #16
 346 0140 1370     		strb	r3, [r2]
 347              	.LVL24:
 348              	.LBE81:
ARM GAS  C:\Users\Kiwi\AppData\Local\Temp\ccOpXoqO.s 			page 16


 349              	.LBB82:
 350              	.LBB83:
  86:Generated_Source\PSoC5/cyfitter_cfg.c **** }
 351              		.loc 1 86 0
 352 0142 2F4A     		ldr	r2, .L22+64
 353 0144 2F4B     		ldr	r3, .L22+68
 354 0146 07CA     		ldmia	r2, {r0, r1, r2}
 355 0148 03C3     		stmia	r3!, {r0, r1}
 356 014a 1A80     		strh	r2, [r3]	@ movhi
 357              	.LVL25:
 358              	.LBE83:
 359              	.LBE82:
 360              	.LBB84:
 361              	.LBB85:
 362 014c 2E4A     		ldr	r2, .L22+72
 363 014e B833     		adds	r3, r3, #184
 364 0150 07CA     		ldmia	r2, {r0, r1, r2}
 365 0152 03C3     		stmia	r3!, {r0, r1}
 366 0154 1A80     		strh	r2, [r3]	@ movhi
 367              	.LVL26:
 368              	.LBE85:
 369              	.LBE84:
 370              	.LBB86:
 371              	.LBB87:
 372 0156 2D4A     		ldr	r2, .L22+76
 373              	.LBE87:
 374              	.LBE86:
 375              	.LBB89:
 376              	.LBB90:
 377 0158 2833     		adds	r3, r3, #40
 378              	.LBE90:
 379              	.LBE89:
 380              	.LBB92:
 381              	.LBB88:
 382 015a 1068     		ldr	r0, [r2]	@ unaligned
 383 015c 43F8250C 		str	r0, [r3, #-37]	@ unaligned
 384 0160 1279     		ldrb	r2, [r2, #4]	@ zero_extendqisi2
 385 0162 03F8212C 		strb	r2, [r3, #-33]
 386              	.LVL27:
 387              	.LBE88:
 388              	.LBE92:
 389              	.LBB93:
 390              	.LBB91:
 391 0166 2A4A     		ldr	r2, .L22+80
 392 0168 07CA     		ldmia	r2, {r0, r1, r2}
 393 016a 03C3     		stmia	r3!, {r0, r1}
 394 016c 1A80     		strh	r2, [r3]	@ movhi
 395              	.LVL28:
 396              	.LBE91:
 397              	.LBE93:
 398              	.LBB94:
 399              	.LBB95:
 400 016e 294A     		ldr	r2, .L22+84
 401 0170 E83B     		subs	r3, r3, #232
 402 0172 07CA     		ldmia	r2, {r0, r1, r2}
 403 0174 03C3     		stmia	r3!, {r0, r1}
 404 0176 1A80     		strh	r2, [r3]	@ movhi
ARM GAS  C:\Users\Kiwi\AppData\Local\Temp\ccOpXoqO.s 			page 17


 405              	.LVL29:
 406              	.LBE95:
 407              	.LBE94:
 408              	.LBB96:
 409              	.LBB97:
 410 0178 274A     		ldr	r2, .L22+88
 411 017a 284B     		ldr	r3, .L22+92
 412 017c 03CB     		ldmia	r3!, {r0, r1}
 413 017e 1060     		str	r0, [r2]	@ unaligned
 414 0180 5160     		str	r1, [r2, #4]	@ unaligned
 415              	.LVL30:
 416              	.LBE97:
 417              	.LBE96:
 418              	.LBB98:
 419              	.LBB80:
 420 0182 93E80700 		ldmia	r3, {r0, r1, r2}
 421 0186 03C4     		stmia	r4!, {r0, r1}
 422 0188 2280     		strh	r2, [r4]	@ movhi
 423              	.LVL31:
 424              	.LBE80:
 425              	.LBE98:
 452:Generated_Source\PSoC5/cyfitter_cfg.c **** 	}
 453:Generated_Source\PSoC5/cyfitter_cfg.c **** 
 454:Generated_Source\PSoC5/cyfitter_cfg.c **** 
 455:Generated_Source\PSoC5/cyfitter_cfg.c **** 	/* Perform second pass device configuration. These items must be configured in specific order afte
 456:Generated_Source\PSoC5/cyfitter_cfg.c **** 	CYCONFIGCPY((void CYFAR *)(CYREG_PRT0_DR), (const void CYFAR *)(BS_IOPINS0_0_VAL), 10u);
 457:Generated_Source\PSoC5/cyfitter_cfg.c **** 	CYCONFIGCPY((void CYFAR *)(CYREG_PRT12_DR), (const void CYFAR *)(BS_IOPINS0_7_VAL), 10u);
 458:Generated_Source\PSoC5/cyfitter_cfg.c **** 	CYCONFIGCPY((void CYFAR *)(CYREG_PRT12_DR + 0x0000000Bu), (const void CYFAR *)(BS_IOPINS1_7_VAL), 
 459:Generated_Source\PSoC5/cyfitter_cfg.c **** 	CYCONFIGCPY((void CYFAR *)(CYREG_PRT15_DR), (const void CYFAR *)(BS_IOPINS0_8_VAL), 10u);
 460:Generated_Source\PSoC5/cyfitter_cfg.c **** 	CYCONFIGCPY((void CYFAR *)(CYREG_PRT1_DR), (const void CYFAR *)(BS_IOPINS0_1_VAL), 10u);
 461:Generated_Source\PSoC5/cyfitter_cfg.c **** 	CYCONFIGCPY((void CYFAR *)(CYREG_PRT2_DM0), (const void CYFAR *)(BS_IOPINS0_2_VAL), 8u);
 462:Generated_Source\PSoC5/cyfitter_cfg.c **** 	CYCONFIGCPY((void CYFAR *)(CYREG_PRT3_DR), (const void CYFAR *)(BS_IOPINS0_3_VAL), 10u);
 463:Generated_Source\PSoC5/cyfitter_cfg.c **** 	/* Switch Boost to the precision bandgap reference from its internal reference */
 464:Generated_Source\PSoC5/cyfitter_cfg.c **** 	CY_SET_REG8((void CYXDATA *)CYREG_BOOST_CR2, (CY_GET_REG8((void CYXDATA *)CYREG_BOOST_CR2) | 0x08u
 426              		.loc 1 464 0
 427 018a 254A     		ldr	r2, .L22+96
 428              	.LBB99:
 429              	.LBB100:
  86:Generated_Source\PSoC5/cyfitter_cfg.c **** }
 430              		.loc 1 86 0
 431 018c A4F68854 		subw	r4, r4, #3464
 432              	.LBE100:
 433              	.LBE99:
 434              		.loc 1 464 0
 435 0190 1378     		ldrb	r3, [r2]	@ zero_extendqisi2
 436 0192 43F00803 		orr	r3, r3, #8
 437 0196 1370     		strb	r3, [r2]
 438              	.LBB102:
 439              	.LBB103:
 320:Generated_Source\PSoC5/cyfitter_cfg.c **** 	CY_SET_XTND_REG8((void CYFAR *)(CYREG_BG_DFT0), (bg_xover_inl_trim & 0x07u));
 440              		.loc 1 320 0
 441 0198 224B     		ldr	r3, .L22+100
 321:Generated_Source\PSoC5/cyfitter_cfg.c **** 	CY_SET_XTND_REG8((void CYFAR *)(CYREG_BG_DFT1), ((bg_xover_inl_trim >> 4) & 0x0Fu));
 442              		.loc 1 321 0
 443 019a 02F5AA52 		add	r2, r2, #5440
 320:Generated_Source\PSoC5/cyfitter_cfg.c **** 	CY_SET_XTND_REG8((void CYFAR *)(CYREG_BG_DFT0), (bg_xover_inl_trim & 0x07u));
 444              		.loc 1 320 0
ARM GAS  C:\Users\Kiwi\AppData\Local\Temp\ccOpXoqO.s 			page 18


 445 019e 1B78     		ldrb	r3, [r3]	@ zero_extendqisi2
 321:Generated_Source\PSoC5/cyfitter_cfg.c **** 	CY_SET_XTND_REG8((void CYFAR *)(CYREG_BG_DFT1), ((bg_xover_inl_trim >> 4) & 0x0Fu));
 446              		.loc 1 321 0
 447 01a0 0C32     		adds	r2, r2, #12
 320:Generated_Source\PSoC5/cyfitter_cfg.c **** 	CY_SET_XTND_REG8((void CYFAR *)(CYREG_BG_DFT0), (bg_xover_inl_trim & 0x07u));
 448              		.loc 1 320 0
 449 01a2 DBB2     		uxtb	r3, r3
 450              	.LVL32:
 321:Generated_Source\PSoC5/cyfitter_cfg.c **** 	CY_SET_XTND_REG8((void CYFAR *)(CYREG_BG_DFT1), ((bg_xover_inl_trim >> 4) & 0x0Fu));
 451              		.loc 1 321 0
 452 01a4 03F00701 		and	r1, r3, #7
 322:Generated_Source\PSoC5/cyfitter_cfg.c **** 	CY_SET_XTND_REG8((void CYFAR *)CYREG_PUMP_CR0, 0x44u);
 453              		.loc 1 322 0
 454 01a8 1B09     		lsrs	r3, r3, #4
 455              	.LVL33:
 321:Generated_Source\PSoC5/cyfitter_cfg.c **** 	CY_SET_XTND_REG8((void CYFAR *)(CYREG_BG_DFT1), ((bg_xover_inl_trim >> 4) & 0x0Fu));
 456              		.loc 1 321 0
 457 01aa 1170     		strb	r1, [r2]
 322:Generated_Source\PSoC5/cyfitter_cfg.c **** 	CY_SET_XTND_REG8((void CYFAR *)CYREG_PUMP_CR0, 0x44u);
 458              		.loc 1 322 0
 459 01ac 5370     		strb	r3, [r2, #1]
 323:Generated_Source\PSoC5/cyfitter_cfg.c **** }
 460              		.loc 1 323 0
 461 01ae 1E4B     		ldr	r3, .L22+104
 462 01b0 4422     		movs	r2, #68
 463 01b2 1A70     		strb	r2, [r3]
 464              	.LVL34:
 465              	.LBE103:
 466              	.LBE102:
 467              	.LBB104:
 468              	.LBB101:
  86:Generated_Source\PSoC5/cyfitter_cfg.c **** }
 469              		.loc 1 86 0
 470 01b4 95E80F00 		ldmia	r5, {r0, r1, r2, r3}
 471 01b8 07C4     		stmia	r4!, {r0, r1, r2}
 472 01ba 2380     		strh	r3, [r4]	@ movhi
 473              	.LVL35:
 474 01bc F8BD     		pop	{r3, r4, r5, r6, r7, pc}
 475              	.L23:
 476 01be 00BF     		.align	2
 477              	.L22:
 478 01c0 00480040 		.word	1073760256
 479 01c4 86400040 		.word	1073758342
 480 01c8 8C400040 		.word	1073758348
 481 01cc 25420040 		.word	1073758757
 482 01d0 0F010049 		.word	1224737039
 483 01d4 A1460040 		.word	1073759905
 484 01d8 22420040 		.word	1073758754
 485 01dc 04400040 		.word	1073758212
 486 01e0 06400040 		.word	1073758214
 487 01e4 A2430040 		.word	1073759138
 488 01e8 00000000 		.word	.LANCHOR0
 489 01ec FCFFFF47 		.word	1207959548
 490 01f0 94000048 		.word	1207959700
 491 01f4 03500140 		.word	1073827843
 492 01f8 A0430040 		.word	1073759136
 493 01fc 30510040 		.word	1073762608
ARM GAS  C:\Users\Kiwi\AppData\Local\Temp\ccOpXoqO.s 			page 19


 494 0200 3C0F0048 		.word	1207963452
 495 0204 00510040 		.word	1073762560
 496 0208 480F0048 		.word	1207963464
 497 020c 540F0048 		.word	1207963476
 498 0210 5C0F0048 		.word	1207963484
 499 0214 680F0048 		.word	1207963496
 500 0218 22510040 		.word	1073762594
 501 021c 740F0048 		.word	1207963508
 502 0220 22430040 		.word	1073759010
 503 0224 CF010049 		.word	1224737231
 504 0228 76580040 		.word	1073764470
 505              	.LBE101:
 506              	.LBE104:
 507              		.cfi_endproc
 508              	.LFE8:
 509              		.size	cyfitter_cfg, .-cyfitter_cfg
 510              		.section	.rodata
 511              		.set	.LANCHOR0,. + 0
 512              		.type	cfg_memset_list.5018, %object
 513              		.size	cfg_memset_list.5018, 48
 514              	cfg_memset_list.5018:
 515 0000 C8490040 		.4byte	1073760712
 516 0004 1900     		.2byte	25
 517 0006 40510040 		.4byte	1073762624
 518 000a 3000     		.2byte	48
 519 000c 00000140 		.4byte	1073807360
 520 0010 0008     		.2byte	2048
 521 0012 80080140 		.4byte	1073809536
 522 0016 8007     		.2byte	1920
 523 0018 00140140 		.4byte	1073812480
 524 001c 0008     		.2byte	2048
 525 001e 00400140 		.4byte	1073823744
 526 0022 000A     		.2byte	2560
 527 0024 004C0140 		.4byte	1073826816
 528 0028 0002     		.2byte	512
 529 002a 10500140 		.4byte	1073827856
 530 002e 1000     		.2byte	16
 531              		.type	cfg_memcpy_list.5019, %object
 532              		.size	cfg_memcpy_list.5019, 40
 533              	cfg_memcpy_list.5019:
 534 0030 00520040 		.4byte	1073762816
 535 0034 9C0E0048 		.4byte	1207963292
 536 0038 0700     		.2byte	7
 537 003a 00510140 		.4byte	1073828096
 538 003e A40E0048 		.4byte	1207963300
 539 0042 0800     		.2byte	8
 540 0044 00080140 		.4byte	1073809408
 541 0048 AC0E0048 		.4byte	1207963308
 542 004c 8000     		.2byte	128
 543 004e 00500140 		.4byte	1073827840
 544 0052 2C0F0048 		.4byte	1207963436
 545 0056 1000     		.2byte	16
 546              		.text
 547              	.Letext0:
 548              		.file 2 "c:\\program files (x86)\\cypress\\psoc creator\\4.4\\psoc creator\\import\\gnu\\arm\\5.4.
 549              		.file 3 "Generated_Source\\PSoC5\\cytypes.h"
 550              		.file 4 "Generated_Source\\PSoC5\\CyLib.h"
ARM GAS  C:\Users\Kiwi\AppData\Local\Temp\ccOpXoqO.s 			page 20

