ARM GAS  C:\Users\Kiwi\AppData\Local\Temp\ccQkBQIS.s 			page 1


   1              		.syntax unified
   2              		.cpu cortex-m3
   3              		.fpu softvfp
   4              		.eabi_attribute 20, 1
   5              		.eabi_attribute 21, 1
   6              		.eabi_attribute 23, 3
   7              		.eabi_attribute 24, 1
   8              		.eabi_attribute 25, 1
   9              		.eabi_attribute 26, 1
  10              		.eabi_attribute 30, 4
  11              		.eabi_attribute 34, 1
  12              		.eabi_attribute 18, 4
  13              		.thumb
  14              		.syntax unified
  15              		.file	"I2COLED.c"
  16              		.text
  17              	.Ltext0:
  18              		.cfi_sections	.debug_frame
  19              		.section	.text.I2COLED_Init,"ax",%progbits
  20              		.align	1
  21              		.global	I2COLED_Init
  22              		.thumb
  23              		.thumb_func
  24              		.type	I2COLED_Init, %function
  25              	I2COLED_Init:
  26              	.LFB0:
  27              		.file 1 "Generated_Source\\PSoC5\\I2COLED.c"
   1:Generated_Source\PSoC5/I2COLED.c **** /*******************************************************************************
   2:Generated_Source\PSoC5/I2COLED.c **** * File Name: I2COLED.c
   3:Generated_Source\PSoC5/I2COLED.c **** * Version 3.50
   4:Generated_Source\PSoC5/I2COLED.c **** *
   5:Generated_Source\PSoC5/I2COLED.c **** * Description:
   6:Generated_Source\PSoC5/I2COLED.c **** *  This file provides the source code of APIs for the I2C component.
   7:Generated_Source\PSoC5/I2COLED.c **** *  The actual protocol and operation code resides in the interrupt service
   8:Generated_Source\PSoC5/I2COLED.c **** *  routine file.
   9:Generated_Source\PSoC5/I2COLED.c **** *
  10:Generated_Source\PSoC5/I2COLED.c **** *******************************************************************************
  11:Generated_Source\PSoC5/I2COLED.c **** * Copyright 2008-2015, Cypress Semiconductor Corporation. All rights reserved.
  12:Generated_Source\PSoC5/I2COLED.c **** * You may use this file only in accordance with the license, terms, conditions,
  13:Generated_Source\PSoC5/I2COLED.c **** * disclaimers, and limitations in the end user license agreement accompanying
  14:Generated_Source\PSoC5/I2COLED.c **** * the software package with which this file was provided.
  15:Generated_Source\PSoC5/I2COLED.c **** *******************************************************************************/
  16:Generated_Source\PSoC5/I2COLED.c **** 
  17:Generated_Source\PSoC5/I2COLED.c **** #include "I2COLED_PVT.h"
  18:Generated_Source\PSoC5/I2COLED.c **** 
  19:Generated_Source\PSoC5/I2COLED.c **** 
  20:Generated_Source\PSoC5/I2COLED.c **** /**********************************
  21:Generated_Source\PSoC5/I2COLED.c **** *      System variables
  22:Generated_Source\PSoC5/I2COLED.c **** **********************************/
  23:Generated_Source\PSoC5/I2COLED.c **** 
  24:Generated_Source\PSoC5/I2COLED.c **** uint8 I2COLED_initVar = 0u; /* Defines if component was initialized */
  25:Generated_Source\PSoC5/I2COLED.c **** 
  26:Generated_Source\PSoC5/I2COLED.c **** volatile uint8 I2COLED_state;  /* Current state of I2C FSM */
  27:Generated_Source\PSoC5/I2COLED.c **** 
  28:Generated_Source\PSoC5/I2COLED.c **** 
  29:Generated_Source\PSoC5/I2COLED.c **** /*******************************************************************************
  30:Generated_Source\PSoC5/I2COLED.c **** * Function Name: I2COLED_Init
ARM GAS  C:\Users\Kiwi\AppData\Local\Temp\ccQkBQIS.s 			page 2


  31:Generated_Source\PSoC5/I2COLED.c **** ********************************************************************************
  32:Generated_Source\PSoC5/I2COLED.c **** *
  33:Generated_Source\PSoC5/I2COLED.c **** * Summary:
  34:Generated_Source\PSoC5/I2COLED.c **** *  Initializes I2C registers with initial values provided from customizer.
  35:Generated_Source\PSoC5/I2COLED.c **** *
  36:Generated_Source\PSoC5/I2COLED.c **** * Parameters:
  37:Generated_Source\PSoC5/I2COLED.c **** *  None.
  38:Generated_Source\PSoC5/I2COLED.c **** *
  39:Generated_Source\PSoC5/I2COLED.c **** * Return:
  40:Generated_Source\PSoC5/I2COLED.c **** *  None.
  41:Generated_Source\PSoC5/I2COLED.c **** *
  42:Generated_Source\PSoC5/I2COLED.c **** * Global variables:
  43:Generated_Source\PSoC5/I2COLED.c **** *  None.
  44:Generated_Source\PSoC5/I2COLED.c **** *
  45:Generated_Source\PSoC5/I2COLED.c **** * Reentrant:
  46:Generated_Source\PSoC5/I2COLED.c **** *  No.
  47:Generated_Source\PSoC5/I2COLED.c **** *
  48:Generated_Source\PSoC5/I2COLED.c **** *******************************************************************************/
  49:Generated_Source\PSoC5/I2COLED.c **** void I2COLED_Init(void) 
  50:Generated_Source\PSoC5/I2COLED.c **** {
  28              		.loc 1 50 0
  29              		.cfi_startproc
  30              		@ args = 0, pretend = 0, frame = 0
  31              		@ frame_needed = 0, uses_anonymous_args = 0
  51:Generated_Source\PSoC5/I2COLED.c **** #if (I2COLED_FF_IMPLEMENTED)
  52:Generated_Source\PSoC5/I2COLED.c ****     /* Configure fixed function block */
  53:Generated_Source\PSoC5/I2COLED.c ****     I2COLED_CFG_REG  = I2COLED_DEFAULT_CFG;
  32              		.loc 1 53 0
  33 0000 114B     		ldr	r3, .L2
  34 0002 0222     		movs	r2, #2
  50:Generated_Source\PSoC5/I2COLED.c **** #if (I2COLED_FF_IMPLEMENTED)
  35              		.loc 1 50 0
  36 0004 10B5     		push	{r4, lr}
  37              		.cfi_def_cfa_offset 8
  38              		.cfi_offset 4, -8
  39              		.cfi_offset 14, -4
  40              		.loc 1 53 0
  41 0006 1A70     		strb	r2, [r3]
  54:Generated_Source\PSoC5/I2COLED.c ****     I2COLED_XCFG_REG = I2COLED_DEFAULT_XCFG;
  42              		.loc 1 54 0
  43 0008 8122     		movs	r2, #129
  44 000a 03F80E2C 		strb	r2, [r3, #-14]
  55:Generated_Source\PSoC5/I2COLED.c ****     I2COLED_ADDR_REG = I2COLED_DEFAULT_ADDR;
  45              		.loc 1 55 0
  46 000e 0822     		movs	r2, #8
  47 0010 03F80C2C 		strb	r2, [r3, #-12]
  56:Generated_Source\PSoC5/I2COLED.c ****     I2COLED_CLKDIV1_REG = LO8(I2COLED_DEFAULT_DIVIDE_FACTOR);
  57:Generated_Source\PSoC5/I2COLED.c ****     I2COLED_CLKDIV2_REG = HI8(I2COLED_DEFAULT_DIVIDE_FACTOR);
  48              		.loc 1 57 0
  49 0014 0024     		movs	r4, #0
  56:Generated_Source\PSoC5/I2COLED.c ****     I2COLED_CLKDIV1_REG = LO8(I2COLED_DEFAULT_DIVIDE_FACTOR);
  50              		.loc 1 56 0
  51 0016 0D22     		movs	r2, #13
  52 0018 5A71     		strb	r2, [r3, #5]
  53              		.loc 1 57 0
  54 001a 9C71     		strb	r4, [r3, #6]
  58:Generated_Source\PSoC5/I2COLED.c **** 
ARM GAS  C:\Users\Kiwi\AppData\Local\Temp\ccQkBQIS.s 			page 3


  59:Generated_Source\PSoC5/I2COLED.c **** #else
  60:Generated_Source\PSoC5/I2COLED.c ****     uint8 intState;
  61:Generated_Source\PSoC5/I2COLED.c **** 
  62:Generated_Source\PSoC5/I2COLED.c ****     /* Configure control and interrupt sources */
  63:Generated_Source\PSoC5/I2COLED.c ****     I2COLED_CFG_REG      = I2COLED_DEFAULT_CFG;
  64:Generated_Source\PSoC5/I2COLED.c ****     I2COLED_INT_MASK_REG = I2COLED_DEFAULT_INT_MASK;
  65:Generated_Source\PSoC5/I2COLED.c **** 
  66:Generated_Source\PSoC5/I2COLED.c ****     /* Enable interrupt generation in status */
  67:Generated_Source\PSoC5/I2COLED.c ****     intState = CyEnterCriticalSection();
  68:Generated_Source\PSoC5/I2COLED.c ****     I2COLED_INT_ENABLE_REG |= I2COLED_INTR_ENABLE;
  69:Generated_Source\PSoC5/I2COLED.c ****     CyExitCriticalSection(intState);
  70:Generated_Source\PSoC5/I2COLED.c **** 
  71:Generated_Source\PSoC5/I2COLED.c ****     /* Configure bit counter */
  72:Generated_Source\PSoC5/I2COLED.c ****     #if (I2COLED_MODE_SLAVE_ENABLED)
  73:Generated_Source\PSoC5/I2COLED.c ****         I2COLED_PERIOD_REG = I2COLED_DEFAULT_PERIOD;
  74:Generated_Source\PSoC5/I2COLED.c ****     #endif  /* (I2COLED_MODE_SLAVE_ENABLED) */
  75:Generated_Source\PSoC5/I2COLED.c **** 
  76:Generated_Source\PSoC5/I2COLED.c ****     /* Configure clock generator */
  77:Generated_Source\PSoC5/I2COLED.c ****     #if (I2COLED_MODE_MASTER_ENABLED)
  78:Generated_Source\PSoC5/I2COLED.c ****         I2COLED_MCLK_PRD_REG = I2COLED_DEFAULT_MCLK_PRD;
  79:Generated_Source\PSoC5/I2COLED.c ****         I2COLED_MCLK_CMP_REG = I2COLED_DEFAULT_MCLK_CMP;
  80:Generated_Source\PSoC5/I2COLED.c ****     #endif /* (I2COLED_MODE_MASTER_ENABLED) */
  81:Generated_Source\PSoC5/I2COLED.c **** #endif /* (I2COLED_FF_IMPLEMENTED) */
  82:Generated_Source\PSoC5/I2COLED.c **** 
  83:Generated_Source\PSoC5/I2COLED.c **** #if (I2COLED_TIMEOUT_ENABLED)
  84:Generated_Source\PSoC5/I2COLED.c ****     I2COLED_TimeoutInit();
  85:Generated_Source\PSoC5/I2COLED.c **** #endif /* (I2COLED_TIMEOUT_ENABLED) */
  86:Generated_Source\PSoC5/I2COLED.c **** 
  87:Generated_Source\PSoC5/I2COLED.c ****     /* Configure internal interrupt */
  88:Generated_Source\PSoC5/I2COLED.c ****     CyIntDisable    (I2COLED_ISR_NUMBER);
  55              		.loc 1 88 0
  56 001c 0B4B     		ldr	r3, .L2+4
  57 001e 4FF40042 		mov	r2, #32768
  58 0022 1A60     		str	r2, [r3]
  89:Generated_Source\PSoC5/I2COLED.c ****     CyIntSetPriority(I2COLED_ISR_NUMBER, I2COLED_ISR_PRIORITY);
  59              		.loc 1 89 0
  60 0024 0721     		movs	r1, #7
  61 0026 0F20     		movs	r0, #15
  62 0028 FFF7FEFF 		bl	CyIntSetPriority
  63              	.LVL0:
  90:Generated_Source\PSoC5/I2COLED.c ****     #if (I2COLED_INTERN_I2C_INTR_HANDLER)
  91:Generated_Source\PSoC5/I2COLED.c ****         (void) CyIntSetVector(I2COLED_ISR_NUMBER, &I2COLED_ISR);
  64              		.loc 1 91 0
  65 002c 0849     		ldr	r1, .L2+8
  66 002e 0F20     		movs	r0, #15
  67 0030 FFF7FEFF 		bl	CyIntSetVector
  68              	.LVL1:
  92:Generated_Source\PSoC5/I2COLED.c ****     #endif /* (I2COLED_INTERN_I2C_INTR_HANDLER) */
  93:Generated_Source\PSoC5/I2COLED.c **** 
  94:Generated_Source\PSoC5/I2COLED.c ****     /* Set FSM to default state */
  95:Generated_Source\PSoC5/I2COLED.c ****     I2COLED_state = I2COLED_SM_IDLE;
  69              		.loc 1 95 0
  70 0034 074B     		ldr	r3, .L2+12
  71 0036 1022     		movs	r2, #16
  72 0038 1A70     		strb	r2, [r3]
  96:Generated_Source\PSoC5/I2COLED.c **** 
  97:Generated_Source\PSoC5/I2COLED.c **** #if (I2COLED_MODE_SLAVE_ENABLED)
ARM GAS  C:\Users\Kiwi\AppData\Local\Temp\ccQkBQIS.s 			page 4


  98:Generated_Source\PSoC5/I2COLED.c ****     /* Clear status and buffers index */
  99:Generated_Source\PSoC5/I2COLED.c ****     I2COLED_slStatus = 0u;
 100:Generated_Source\PSoC5/I2COLED.c ****     I2COLED_slRdBufIndex = 0u;
 101:Generated_Source\PSoC5/I2COLED.c ****     I2COLED_slWrBufIndex = 0u;
 102:Generated_Source\PSoC5/I2COLED.c **** 
 103:Generated_Source\PSoC5/I2COLED.c ****     /* Configure matched address */
 104:Generated_Source\PSoC5/I2COLED.c ****     I2COLED_SlaveSetAddress(I2COLED_DEFAULT_ADDR);
 105:Generated_Source\PSoC5/I2COLED.c **** #endif /* (I2COLED_MODE_SLAVE_ENABLED) */
 106:Generated_Source\PSoC5/I2COLED.c **** 
 107:Generated_Source\PSoC5/I2COLED.c **** #if (I2COLED_MODE_MASTER_ENABLED)
 108:Generated_Source\PSoC5/I2COLED.c ****     /* Clear status and buffers index */
 109:Generated_Source\PSoC5/I2COLED.c ****     I2COLED_mstrStatus = 0u;
  73              		.loc 1 109 0
  74 003a 074B     		ldr	r3, .L2+16
  75 003c 1C70     		strb	r4, [r3]
 110:Generated_Source\PSoC5/I2COLED.c ****     I2COLED_mstrRdBufIndex = 0u;
  76              		.loc 1 110 0
  77 003e 074B     		ldr	r3, .L2+20
  78 0040 1C70     		strb	r4, [r3]
 111:Generated_Source\PSoC5/I2COLED.c ****     I2COLED_mstrWrBufIndex = 0u;
  79              		.loc 1 111 0
  80 0042 074B     		ldr	r3, .L2+24
  81 0044 1C70     		strb	r4, [r3]
  82 0046 10BD     		pop	{r4, pc}
  83              	.L3:
  84              		.align	2
  85              	.L2:
  86 0048 D6490040 		.word	1073760726
  87 004c 80E100E0 		.word	-536813184
  88 0050 00000000 		.word	I2COLED_ISR
  89 0054 00000000 		.word	I2COLED_state
  90 0058 00000000 		.word	I2COLED_mstrStatus
  91 005c 00000000 		.word	I2COLED_mstrRdBufIndex
  92 0060 00000000 		.word	I2COLED_mstrWrBufIndex
  93              		.cfi_endproc
  94              	.LFE0:
  95              		.size	I2COLED_Init, .-I2COLED_Init
  96              		.section	.text.I2COLED_Enable,"ax",%progbits
  97              		.align	1
  98              		.global	I2COLED_Enable
  99              		.thumb
 100              		.thumb_func
 101              		.type	I2COLED_Enable, %function
 102              	I2COLED_Enable:
 103              	.LFB1:
 112:Generated_Source\PSoC5/I2COLED.c **** #endif /* (I2COLED_MODE_MASTER_ENABLED) */
 113:Generated_Source\PSoC5/I2COLED.c **** }
 114:Generated_Source\PSoC5/I2COLED.c **** 
 115:Generated_Source\PSoC5/I2COLED.c **** 
 116:Generated_Source\PSoC5/I2COLED.c **** /*******************************************************************************
 117:Generated_Source\PSoC5/I2COLED.c **** * Function Name: I2COLED_Enable
 118:Generated_Source\PSoC5/I2COLED.c **** ********************************************************************************
 119:Generated_Source\PSoC5/I2COLED.c **** *
 120:Generated_Source\PSoC5/I2COLED.c **** * Summary:
 121:Generated_Source\PSoC5/I2COLED.c **** *  Enables I2C operations.
 122:Generated_Source\PSoC5/I2COLED.c **** *
 123:Generated_Source\PSoC5/I2COLED.c **** * Parameters:
ARM GAS  C:\Users\Kiwi\AppData\Local\Temp\ccQkBQIS.s 			page 5


 124:Generated_Source\PSoC5/I2COLED.c **** *  None.
 125:Generated_Source\PSoC5/I2COLED.c **** *
 126:Generated_Source\PSoC5/I2COLED.c **** * Return:
 127:Generated_Source\PSoC5/I2COLED.c **** *  None.
 128:Generated_Source\PSoC5/I2COLED.c **** *
 129:Generated_Source\PSoC5/I2COLED.c **** * Global variables:
 130:Generated_Source\PSoC5/I2COLED.c **** *  None.
 131:Generated_Source\PSoC5/I2COLED.c **** *
 132:Generated_Source\PSoC5/I2COLED.c **** *******************************************************************************/
 133:Generated_Source\PSoC5/I2COLED.c **** void I2COLED_Enable(void) 
 134:Generated_Source\PSoC5/I2COLED.c **** {
 104              		.loc 1 134 0
 105              		.cfi_startproc
 106              		@ args = 0, pretend = 0, frame = 0
 107              		@ frame_needed = 0, uses_anonymous_args = 0
 108 0000 08B5     		push	{r3, lr}
 109              		.cfi_def_cfa_offset 8
 110              		.cfi_offset 3, -8
 111              		.cfi_offset 14, -4
 135:Generated_Source\PSoC5/I2COLED.c **** #if (I2COLED_FF_IMPLEMENTED)
 136:Generated_Source\PSoC5/I2COLED.c ****     uint8 intState;
 137:Generated_Source\PSoC5/I2COLED.c **** 
 138:Generated_Source\PSoC5/I2COLED.c ****     /* Enable power to block */
 139:Generated_Source\PSoC5/I2COLED.c ****     intState = CyEnterCriticalSection();
 112              		.loc 1 139 0
 113 0002 FFF7FEFF 		bl	CyEnterCriticalSection
 114              	.LVL2:
 140:Generated_Source\PSoC5/I2COLED.c ****     I2COLED_ACT_PWRMGR_REG  |= I2COLED_ACT_PWR_EN;
 115              		.loc 1 140 0
 116 0006 064A     		ldr	r2, .L5
 117 0008 1378     		ldrb	r3, [r2]	@ zero_extendqisi2
 118 000a 43F00403 		orr	r3, r3, #4
 119 000e 1370     		strb	r3, [r2]
 141:Generated_Source\PSoC5/I2COLED.c ****     I2COLED_STBY_PWRMGR_REG |= I2COLED_STBY_PWR_EN;
 120              		.loc 1 141 0
 121 0010 137C     		ldrb	r3, [r2, #16]	@ zero_extendqisi2
 122 0012 43F00403 		orr	r3, r3, #4
 123 0016 1374     		strb	r3, [r2, #16]
 142:Generated_Source\PSoC5/I2COLED.c ****     CyExitCriticalSection(intState);
 143:Generated_Source\PSoC5/I2COLED.c **** #else
 144:Generated_Source\PSoC5/I2COLED.c ****     #if (I2COLED_MODE_SLAVE_ENABLED)
 145:Generated_Source\PSoC5/I2COLED.c ****         /* Enable bit counter */
 146:Generated_Source\PSoC5/I2COLED.c ****         uint8 intState = CyEnterCriticalSection();
 147:Generated_Source\PSoC5/I2COLED.c ****         I2COLED_COUNTER_AUX_CTL_REG |= I2COLED_CNT7_ENABLE;
 148:Generated_Source\PSoC5/I2COLED.c ****         CyExitCriticalSection(intState);
 149:Generated_Source\PSoC5/I2COLED.c ****     #endif /* (I2COLED_MODE_SLAVE_ENABLED) */
 150:Generated_Source\PSoC5/I2COLED.c **** 
 151:Generated_Source\PSoC5/I2COLED.c ****     /* Enable slave or master bits */
 152:Generated_Source\PSoC5/I2COLED.c ****     I2COLED_CFG_REG |= I2COLED_ENABLE_MS;
 153:Generated_Source\PSoC5/I2COLED.c **** #endif /* (I2COLED_FF_IMPLEMENTED) */
 154:Generated_Source\PSoC5/I2COLED.c **** 
 155:Generated_Source\PSoC5/I2COLED.c **** #if (I2COLED_TIMEOUT_ENABLED)
 156:Generated_Source\PSoC5/I2COLED.c ****     I2COLED_TimeoutEnable();
 157:Generated_Source\PSoC5/I2COLED.c **** #endif /* (I2COLED_TIMEOUT_ENABLED) */
 158:Generated_Source\PSoC5/I2COLED.c **** }
 124              		.loc 1 158 0
 125 0018 BDE80840 		pop	{r3, lr}
ARM GAS  C:\Users\Kiwi\AppData\Local\Temp\ccQkBQIS.s 			page 6


 126              		.cfi_restore 14
 127              		.cfi_restore 3
 128              		.cfi_def_cfa_offset 0
 142:Generated_Source\PSoC5/I2COLED.c ****     CyExitCriticalSection(intState);
 129              		.loc 1 142 0
 130 001c FFF7FEBF 		b	CyExitCriticalSection
 131              	.LVL3:
 132              	.L6:
 133              		.align	2
 134              	.L5:
 135 0020 A5430040 		.word	1073759141
 136              		.cfi_endproc
 137              	.LFE1:
 138              		.size	I2COLED_Enable, .-I2COLED_Enable
 139              		.section	.text.I2COLED_Start,"ax",%progbits
 140              		.align	1
 141              		.global	I2COLED_Start
 142              		.thumb
 143              		.thumb_func
 144              		.type	I2COLED_Start, %function
 145              	I2COLED_Start:
 146              	.LFB2:
 159:Generated_Source\PSoC5/I2COLED.c **** 
 160:Generated_Source\PSoC5/I2COLED.c **** 
 161:Generated_Source\PSoC5/I2COLED.c **** /*******************************************************************************
 162:Generated_Source\PSoC5/I2COLED.c **** * Function Name: I2COLED_Start
 163:Generated_Source\PSoC5/I2COLED.c **** ********************************************************************************
 164:Generated_Source\PSoC5/I2COLED.c **** *
 165:Generated_Source\PSoC5/I2COLED.c **** * Summary:
 166:Generated_Source\PSoC5/I2COLED.c **** *  Starts the I2C hardware. Enables Active mode power template bits or clock
 167:Generated_Source\PSoC5/I2COLED.c **** *  gating as appropriate. It is required to be executed before I2C bus
 168:Generated_Source\PSoC5/I2COLED.c **** *  operation.
 169:Generated_Source\PSoC5/I2COLED.c **** *
 170:Generated_Source\PSoC5/I2COLED.c **** * Parameters:
 171:Generated_Source\PSoC5/I2COLED.c **** *  None.
 172:Generated_Source\PSoC5/I2COLED.c **** *
 173:Generated_Source\PSoC5/I2COLED.c **** * Return:
 174:Generated_Source\PSoC5/I2COLED.c **** *  None.
 175:Generated_Source\PSoC5/I2COLED.c **** *
 176:Generated_Source\PSoC5/I2COLED.c **** * Side Effects:
 177:Generated_Source\PSoC5/I2COLED.c **** *  This component automatically enables its interrupt.  If I2C is enabled !
 178:Generated_Source\PSoC5/I2COLED.c **** *  without the interrupt enabled, it can lock up the I2C bus.
 179:Generated_Source\PSoC5/I2COLED.c **** *
 180:Generated_Source\PSoC5/I2COLED.c **** * Global variables:
 181:Generated_Source\PSoC5/I2COLED.c **** *  I2COLED_initVar - This variable is used to check the initial
 182:Generated_Source\PSoC5/I2COLED.c **** *                             configuration, modified on the first
 183:Generated_Source\PSoC5/I2COLED.c **** *                             function call.
 184:Generated_Source\PSoC5/I2COLED.c **** *
 185:Generated_Source\PSoC5/I2COLED.c **** * Reentrant:
 186:Generated_Source\PSoC5/I2COLED.c **** *  No.
 187:Generated_Source\PSoC5/I2COLED.c **** *
 188:Generated_Source\PSoC5/I2COLED.c **** *******************************************************************************/
 189:Generated_Source\PSoC5/I2COLED.c **** void I2COLED_Start(void) 
 190:Generated_Source\PSoC5/I2COLED.c **** {
 147              		.loc 1 190 0
 148              		.cfi_startproc
 149              		@ args = 0, pretend = 0, frame = 0
ARM GAS  C:\Users\Kiwi\AppData\Local\Temp\ccQkBQIS.s 			page 7


 150              		@ frame_needed = 0, uses_anonymous_args = 0
 151 0000 10B5     		push	{r4, lr}
 152              		.cfi_def_cfa_offset 8
 153              		.cfi_offset 4, -8
 154              		.cfi_offset 14, -4
 191:Generated_Source\PSoC5/I2COLED.c ****     if (0u == I2COLED_initVar)
 155              		.loc 1 191 0
 156 0002 074C     		ldr	r4, .L10
 157 0004 2378     		ldrb	r3, [r4]	@ zero_extendqisi2
 158 0006 1BB9     		cbnz	r3, .L8
 192:Generated_Source\PSoC5/I2COLED.c ****     {
 193:Generated_Source\PSoC5/I2COLED.c ****         I2COLED_Init();
 159              		.loc 1 193 0
 160 0008 FFF7FEFF 		bl	I2COLED_Init
 161              	.LVL4:
 194:Generated_Source\PSoC5/I2COLED.c ****         I2COLED_initVar = 1u; /* Component initialized */
 162              		.loc 1 194 0
 163 000c 0123     		movs	r3, #1
 164 000e 2370     		strb	r3, [r4]
 165              	.L8:
 195:Generated_Source\PSoC5/I2COLED.c ****     }
 196:Generated_Source\PSoC5/I2COLED.c **** 
 197:Generated_Source\PSoC5/I2COLED.c ****     I2COLED_Enable();
 166              		.loc 1 197 0
 167 0010 FFF7FEFF 		bl	I2COLED_Enable
 168              	.LVL5:
 198:Generated_Source\PSoC5/I2COLED.c ****     I2COLED_EnableInt();
 169              		.loc 1 198 0
 170 0014 034B     		ldr	r3, .L10+4
 171 0016 4FF40042 		mov	r2, #32768
 172 001a 1A60     		str	r2, [r3]
 173 001c 10BD     		pop	{r4, pc}
 174              	.L11:
 175 001e 00BF     		.align	2
 176              	.L10:
 177 0020 00000000 		.word	.LANCHOR0
 178 0024 00E100E0 		.word	-536813312
 179              		.cfi_endproc
 180              	.LFE2:
 181              		.size	I2COLED_Start, .-I2COLED_Start
 182              		.section	.text.I2COLED_Stop,"ax",%progbits
 183              		.align	1
 184              		.global	I2COLED_Stop
 185              		.thumb
 186              		.thumb_func
 187              		.type	I2COLED_Stop, %function
 188              	I2COLED_Stop:
 189              	.LFB3:
 199:Generated_Source\PSoC5/I2COLED.c **** }
 200:Generated_Source\PSoC5/I2COLED.c **** 
 201:Generated_Source\PSoC5/I2COLED.c **** 
 202:Generated_Source\PSoC5/I2COLED.c **** /*******************************************************************************
 203:Generated_Source\PSoC5/I2COLED.c **** * Function Name: I2COLED_Stop
 204:Generated_Source\PSoC5/I2COLED.c **** ********************************************************************************
 205:Generated_Source\PSoC5/I2COLED.c **** *
 206:Generated_Source\PSoC5/I2COLED.c **** * Summary:
 207:Generated_Source\PSoC5/I2COLED.c **** *  Disables I2C hardware and disables I2C interrupt. Disables Active mode power
ARM GAS  C:\Users\Kiwi\AppData\Local\Temp\ccQkBQIS.s 			page 8


 208:Generated_Source\PSoC5/I2COLED.c **** *  template bits or clock gating as appropriate.
 209:Generated_Source\PSoC5/I2COLED.c **** *
 210:Generated_Source\PSoC5/I2COLED.c **** * Parameters:
 211:Generated_Source\PSoC5/I2COLED.c **** *  None.
 212:Generated_Source\PSoC5/I2COLED.c **** *
 213:Generated_Source\PSoC5/I2COLED.c **** * Return:
 214:Generated_Source\PSoC5/I2COLED.c **** *  None.
 215:Generated_Source\PSoC5/I2COLED.c **** *
 216:Generated_Source\PSoC5/I2COLED.c **** *******************************************************************************/
 217:Generated_Source\PSoC5/I2COLED.c **** void I2COLED_Stop(void) 
 218:Generated_Source\PSoC5/I2COLED.c **** {
 190              		.loc 1 218 0
 191              		.cfi_startproc
 192              		@ args = 0, pretend = 0, frame = 0
 193              		@ frame_needed = 0, uses_anonymous_args = 0
 194 0000 2DE9F843 		push	{r3, r4, r5, r6, r7, r8, r9, lr}
 195              		.cfi_def_cfa_offset 32
 196              		.cfi_offset 3, -32
 197              		.cfi_offset 4, -28
 198              		.cfi_offset 5, -24
 199              		.cfi_offset 6, -20
 200              		.cfi_offset 7, -16
 201              		.cfi_offset 8, -12
 202              		.cfi_offset 9, -8
 203              		.cfi_offset 14, -4
 219:Generated_Source\PSoC5/I2COLED.c ****     I2COLED_DisableInt();
 204              		.loc 1 219 0
 205 0004 224B     		ldr	r3, .L13
 206              	.LBB2:
 220:Generated_Source\PSoC5/I2COLED.c **** 
 221:Generated_Source\PSoC5/I2COLED.c **** #if (I2COLED_TIMEOUT_ENABLED)
 222:Generated_Source\PSoC5/I2COLED.c ****     I2COLED_TimeoutStop();
 223:Generated_Source\PSoC5/I2COLED.c **** #endif  /* End (I2COLED_TIMEOUT_ENABLED) */
 224:Generated_Source\PSoC5/I2COLED.c **** 
 225:Generated_Source\PSoC5/I2COLED.c **** #if (I2COLED_FF_IMPLEMENTED)
 226:Generated_Source\PSoC5/I2COLED.c ****     {
 227:Generated_Source\PSoC5/I2COLED.c ****         uint8 intState;
 228:Generated_Source\PSoC5/I2COLED.c ****         uint16 blockResetCycles;
 229:Generated_Source\PSoC5/I2COLED.c **** 
 230:Generated_Source\PSoC5/I2COLED.c ****         /* Store registers effected by block disable */
 231:Generated_Source\PSoC5/I2COLED.c ****         I2COLED_backup.addr    = I2COLED_ADDR_REG;
 207              		.loc 1 231 0
 208 0006 DFF8A880 		ldr	r8, .L13+32
 209              	.LBE2:
 219:Generated_Source\PSoC5/I2COLED.c ****     I2COLED_DisableInt();
 210              		.loc 1 219 0
 211 000a 4FF40049 		mov	r9, #32768
 212 000e C3F80090 		str	r9, [r3]
 213              	.LBB3:
 214              		.loc 1 231 0
 215 0012 98F80030 		ldrb	r3, [r8]	@ zero_extendqisi2
 216 0016 1F4C     		ldr	r4, .L13+4
 232:Generated_Source\PSoC5/I2COLED.c ****         I2COLED_backup.clkDiv1 = I2COLED_CLKDIV1_REG;
 217              		.loc 1 232 0
 218 0018 1F4F     		ldr	r7, .L13+8
 231:Generated_Source\PSoC5/I2COLED.c ****         I2COLED_backup.clkDiv1 = I2COLED_CLKDIV1_REG;
 219              		.loc 1 231 0
ARM GAS  C:\Users\Kiwi\AppData\Local\Temp\ccQkBQIS.s 			page 9


 220 001a E370     		strb	r3, [r4, #3]
 221              		.loc 1 232 0
 222 001c 3B78     		ldrb	r3, [r7]	@ zero_extendqisi2
 233:Generated_Source\PSoC5/I2COLED.c ****         I2COLED_backup.clkDiv2 = I2COLED_CLKDIV2_REG;
 223              		.loc 1 233 0
 224 001e 1F4E     		ldr	r6, .L13+12
 232:Generated_Source\PSoC5/I2COLED.c ****         I2COLED_backup.clkDiv1 = I2COLED_CLKDIV1_REG;
 225              		.loc 1 232 0
 226 0020 2371     		strb	r3, [r4, #4]
 227              		.loc 1 233 0
 228 0022 3378     		ldrb	r3, [r6]	@ zero_extendqisi2
 234:Generated_Source\PSoC5/I2COLED.c **** 
 235:Generated_Source\PSoC5/I2COLED.c ****         /* Calculate number of cycles to reset block */
 236:Generated_Source\PSoC5/I2COLED.c ****         blockResetCycles = ((uint16) ((uint16) I2COLED_CLKDIV2_REG << 8u) | I2COLED_CLKDIV1_REG) + 
 237:Generated_Source\PSoC5/I2COLED.c **** 
 238:Generated_Source\PSoC5/I2COLED.c ****         /* Disable block */
 239:Generated_Source\PSoC5/I2COLED.c ****         I2COLED_CFG_REG &= (uint8) ~I2COLED_CFG_EN_SLAVE;
 229              		.loc 1 239 0
 230 0024 1E4D     		ldr	r5, .L13+16
 233:Generated_Source\PSoC5/I2COLED.c ****         I2COLED_backup.clkDiv2 = I2COLED_CLKDIV2_REG;
 231              		.loc 1 233 0
 232 0026 6371     		strb	r3, [r4, #5]
 236:Generated_Source\PSoC5/I2COLED.c **** 
 233              		.loc 1 236 0
 234 0028 3078     		ldrb	r0, [r6]	@ zero_extendqisi2
 235 002a 3B78     		ldrb	r3, [r7]	@ zero_extendqisi2
 236              	.LVL6:
 237              		.loc 1 239 0
 238 002c 2A78     		ldrb	r2, [r5]	@ zero_extendqisi2
 240:Generated_Source\PSoC5/I2COLED.c ****         /* Wait for block reset before disable power */
 241:Generated_Source\PSoC5/I2COLED.c ****         CyDelayCycles((uint32) blockResetCycles);
 239              		.loc 1 241 0
 240 002e 43EA0020 		orr	r0, r3, r0, lsl #8
 241              	.LVL7:
 239:Generated_Source\PSoC5/I2COLED.c ****         /* Wait for block reset before disable power */
 242              		.loc 1 239 0
 243 0032 02F0FE02 		and	r2, r2, #254
 244              		.loc 1 241 0
 245 0036 0130     		adds	r0, r0, #1
 239:Generated_Source\PSoC5/I2COLED.c ****         /* Wait for block reset before disable power */
 246              		.loc 1 239 0
 247 0038 2A70     		strb	r2, [r5]
 248              		.loc 1 241 0
 249 003a 80B2     		uxth	r0, r0
 250 003c FFF7FEFF 		bl	CyDelayCycles
 251              	.LVL8:
 242:Generated_Source\PSoC5/I2COLED.c **** 
 243:Generated_Source\PSoC5/I2COLED.c ****         /* Disable power to block */
 244:Generated_Source\PSoC5/I2COLED.c ****         intState = CyEnterCriticalSection();
 252              		.loc 1 244 0
 253 0040 FFF7FEFF 		bl	CyEnterCriticalSection
 254              	.LVL9:
 245:Generated_Source\PSoC5/I2COLED.c ****         I2COLED_ACT_PWRMGR_REG  &= (uint8) ~I2COLED_ACT_PWR_EN;
 255              		.loc 1 245 0
 256 0044 174A     		ldr	r2, .L13+20
 257 0046 1378     		ldrb	r3, [r2]	@ zero_extendqisi2
 258 0048 03F0FB03 		and	r3, r3, #251
ARM GAS  C:\Users\Kiwi\AppData\Local\Temp\ccQkBQIS.s 			page 10


 259 004c 1370     		strb	r3, [r2]
 246:Generated_Source\PSoC5/I2COLED.c ****         I2COLED_STBY_PWRMGR_REG &= (uint8) ~I2COLED_STBY_PWR_EN;
 260              		.loc 1 246 0
 261 004e 137C     		ldrb	r3, [r2, #16]	@ zero_extendqisi2
 262 0050 03F0FB03 		and	r3, r3, #251
 263 0054 1374     		strb	r3, [r2, #16]
 247:Generated_Source\PSoC5/I2COLED.c ****         CyExitCriticalSection(intState);
 264              		.loc 1 247 0
 265 0056 FFF7FEFF 		bl	CyExitCriticalSection
 266              	.LVL10:
 248:Generated_Source\PSoC5/I2COLED.c **** 
 249:Generated_Source\PSoC5/I2COLED.c ****         /* Enable block */
 250:Generated_Source\PSoC5/I2COLED.c ****         I2COLED_CFG_REG |= (uint8) I2COLED_ENABLE_MS;
 267              		.loc 1 250 0
 268 005a 2B78     		ldrb	r3, [r5]	@ zero_extendqisi2
 269              	.LBE3:
 251:Generated_Source\PSoC5/I2COLED.c **** 
 252:Generated_Source\PSoC5/I2COLED.c ****         /* Restore registers effected by block disable. Ticket ID#198004 */
 253:Generated_Source\PSoC5/I2COLED.c ****         I2COLED_ADDR_REG    = I2COLED_backup.addr;
 254:Generated_Source\PSoC5/I2COLED.c ****         I2COLED_ADDR_REG    = I2COLED_backup.addr;
 255:Generated_Source\PSoC5/I2COLED.c ****         I2COLED_CLKDIV1_REG = I2COLED_backup.clkDiv1;
 256:Generated_Source\PSoC5/I2COLED.c ****         I2COLED_CLKDIV2_REG = I2COLED_backup.clkDiv2;
 257:Generated_Source\PSoC5/I2COLED.c ****     }
 258:Generated_Source\PSoC5/I2COLED.c **** #else
 259:Generated_Source\PSoC5/I2COLED.c **** 
 260:Generated_Source\PSoC5/I2COLED.c ****     /* Disable slave or master bits */
 261:Generated_Source\PSoC5/I2COLED.c ****     I2COLED_CFG_REG &= (uint8) ~I2COLED_ENABLE_MS;
 262:Generated_Source\PSoC5/I2COLED.c **** 
 263:Generated_Source\PSoC5/I2COLED.c **** #if (I2COLED_MODE_SLAVE_ENABLED)
 264:Generated_Source\PSoC5/I2COLED.c ****     {
 265:Generated_Source\PSoC5/I2COLED.c ****         /* Disable bit counter */
 266:Generated_Source\PSoC5/I2COLED.c ****         uint8 intState = CyEnterCriticalSection();
 267:Generated_Source\PSoC5/I2COLED.c ****         I2COLED_COUNTER_AUX_CTL_REG &= (uint8) ~I2COLED_CNT7_ENABLE;
 268:Generated_Source\PSoC5/I2COLED.c ****         CyExitCriticalSection(intState);
 269:Generated_Source\PSoC5/I2COLED.c ****     }
 270:Generated_Source\PSoC5/I2COLED.c **** #endif /* (I2COLED_MODE_SLAVE_ENABLED) */
 271:Generated_Source\PSoC5/I2COLED.c **** 
 272:Generated_Source\PSoC5/I2COLED.c ****     /* Clear interrupt source register */
 273:Generated_Source\PSoC5/I2COLED.c ****     (void) I2COLED_CSR_REG;
 274:Generated_Source\PSoC5/I2COLED.c **** #endif /* (I2COLED_FF_IMPLEMENTED) */
 275:Generated_Source\PSoC5/I2COLED.c **** 
 276:Generated_Source\PSoC5/I2COLED.c ****     /* Disable interrupt on stop (enabled by write transaction) */
 277:Generated_Source\PSoC5/I2COLED.c ****     I2COLED_DISABLE_INT_ON_STOP;
 278:Generated_Source\PSoC5/I2COLED.c ****     I2COLED_ClearPendingInt();
 279:Generated_Source\PSoC5/I2COLED.c **** 
 280:Generated_Source\PSoC5/I2COLED.c ****     /* Reset FSM to default state */
 281:Generated_Source\PSoC5/I2COLED.c ****     I2COLED_state = I2COLED_SM_IDLE;
 270              		.loc 1 281 0
 271 005c 1022     		movs	r2, #16
 272              	.LBB4:
 250:Generated_Source\PSoC5/I2COLED.c **** 
 273              		.loc 1 250 0
 274 005e 43F00203 		orr	r3, r3, #2
 275 0062 2B70     		strb	r3, [r5]
 253:Generated_Source\PSoC5/I2COLED.c ****         I2COLED_ADDR_REG    = I2COLED_backup.addr;
 276              		.loc 1 253 0
 277 0064 E378     		ldrb	r3, [r4, #3]	@ zero_extendqisi2
ARM GAS  C:\Users\Kiwi\AppData\Local\Temp\ccQkBQIS.s 			page 11


 278 0066 88F80030 		strb	r3, [r8]
 254:Generated_Source\PSoC5/I2COLED.c ****         I2COLED_CLKDIV1_REG = I2COLED_backup.clkDiv1;
 279              		.loc 1 254 0
 280 006a E378     		ldrb	r3, [r4, #3]	@ zero_extendqisi2
 281 006c 88F80030 		strb	r3, [r8]
 255:Generated_Source\PSoC5/I2COLED.c ****         I2COLED_CLKDIV2_REG = I2COLED_backup.clkDiv2;
 282              		.loc 1 255 0
 283 0070 2379     		ldrb	r3, [r4, #4]	@ zero_extendqisi2
 284 0072 3B70     		strb	r3, [r7]
 256:Generated_Source\PSoC5/I2COLED.c ****     }
 285              		.loc 1 256 0
 286 0074 6379     		ldrb	r3, [r4, #5]	@ zero_extendqisi2
 287 0076 3370     		strb	r3, [r6]
 288              	.LBE4:
 277:Generated_Source\PSoC5/I2COLED.c ****     I2COLED_ClearPendingInt();
 289              		.loc 1 277 0
 290 0078 2B78     		ldrb	r3, [r5]	@ zero_extendqisi2
 291 007a 03F0EF03 		and	r3, r3, #239
 292 007e 2B70     		strb	r3, [r5]
 278:Generated_Source\PSoC5/I2COLED.c **** 
 293              		.loc 1 278 0
 294 0080 094B     		ldr	r3, .L13+24
 295 0082 C3F80090 		str	r9, [r3]
 296              		.loc 1 281 0
 297 0086 094B     		ldr	r3, .L13+28
 298 0088 1A70     		strb	r2, [r3]
 299 008a BDE8F883 		pop	{r3, r4, r5, r6, r7, r8, r9, pc}
 300              	.L14:
 301 008e 00BF     		.align	2
 302              	.L13:
 303 0090 80E100E0 		.word	-536813184
 304 0094 00000000 		.word	I2COLED_backup
 305 0098 DB490040 		.word	1073760731
 306 009c DC490040 		.word	1073760732
 307 00a0 D6490040 		.word	1073760726
 308 00a4 A5430040 		.word	1073759141
 309 00a8 80E200E0 		.word	-536812928
 310 00ac 00000000 		.word	I2COLED_state
 311 00b0 CA490040 		.word	1073760714
 312              		.cfi_endproc
 313              	.LFE3:
 314              		.size	I2COLED_Stop, .-I2COLED_Stop
 315              		.comm	I2COLED_state,1,1
 316              		.global	I2COLED_initVar
 317              		.bss
 318              		.set	.LANCHOR0,. + 0
 319              		.type	I2COLED_initVar, %object
 320              		.size	I2COLED_initVar, 1
 321              	I2COLED_initVar:
 322 0000 00       		.space	1
 323              		.text
 324              	.Letext0:
 325              		.file 2 "Generated_Source\\PSoC5\\cytypes.h"
 326              		.file 3 "Generated_Source\\PSoC5\\I2COLED.h"
 327              		.file 4 "Generated_Source\\PSoC5\\I2COLED_PVT.h"
 328              		.file 5 "Generated_Source\\PSoC5\\CyLib.h"