ARM GAS  C:\Users\Kiwi\AppData\Local\Temp\cckzbvMb.s 			page 1


   1              		.syntax unified
   2              		.cpu cortex-m3
   3              		.fpu softvfp
   4              		.eabi_attribute 20, 1
   5              		.eabi_attribute 21, 1
   6              		.eabi_attribute 23, 3
   7              		.eabi_attribute 24, 1
   8              		.eabi_attribute 25, 1
   9              		.eabi_attribute 26, 1
  10              		.eabi_attribute 30, 4
  11              		.eabi_attribute 34, 1
  12              		.eabi_attribute 18, 4
  13              		.thumb
  14              		.syntax unified
  15              		.file	"main.c"
  16              		.text
  17              	.Ltext0:
  18              		.cfi_sections	.debug_frame
  19              		.section	.text.UART_OUT_RCM_Handler,"ax",%progbits
  20              		.align	1
  21              		.global	UART_OUT_RCM_Handler
  22              		.thumb
  23              		.thumb_func
  24              		.type	UART_OUT_RCM_Handler, %function
  25              	UART_OUT_RCM_Handler:
  26              	.LFB64:
  27              		.file 1 "main.c"
   1:main.c        **** /* ========================================
   2:main.c        ****  *
   3:main.c        ****  * Copyright Martin Lukasek (c) 2021
   4:main.c        ****  * All Rights Reserved
   5:main.c        ****  * UNPUBLISHED, LICENSED SOFTWARE.
   6:main.c        ****  *
   7:main.c        ****  * CONFIDENTIAL AND PROPRIETARY INFORMATION
   8:main.c        ****  * WHICH IS THE PROPERTY OF Martin Lukasek.
   9:main.c        ****  *
  10:main.c        ****  * ========================================
  11:main.c        **** */
  12:main.c        **** #include <stdio.h>
  13:main.c        **** #include <stdarg.h>
  14:main.c        **** #include "project.h"
  15:main.c        **** #include "ssd1306.h"
  16:main.c        **** 
  17:main.c        **** #define DISPLAY_ADDRESS 0x3C // 011110+SA0+RW - 0x3C or 0x3D
  18:main.c        **** 
  19:main.c        **** int noUART = 1;
  20:main.c        **** uint16 extaddr = 0;
  21:main.c        **** uint32 cntTime = 0;
  22:main.c        **** uint32 cntLines = 0;
  23:main.c        **** uint32 cntErrs = 0;
  24:main.c        **** uint8 waitForBus = 1;
  25:main.c        **** 
  26:main.c        **** int noOLED = 1;
  27:main.c        **** 
  28:main.c        **** struct PortData
  29:main.c        **** {
  30:main.c        ****     uint8 port;
ARM GAS  C:\Users\Kiwi\AppData\Local\Temp\cckzbvMb.s 			page 2


  31:main.c        ****     uint8 data;
  32:main.c        **** };
  33:main.c        **** 
  34:main.c        **** struct PortData intQueue[256];
  35:main.c        **** volatile uint8 intCnt = 0;
  36:main.c        **** volatile uint8 rdCnt = 0;
  37:main.c        **** 
  38:main.c        **** struct InstData
  39:main.c        **** {
  40:main.c        ****     uint16 addr;
  41:main.c        ****     uint8 data;
  42:main.c        **** };
  43:main.c        **** 
  44:main.c        **** struct InstData instQueue[256];
  45:main.c        **** volatile uint8 instCnt = 0;
  46:main.c        **** volatile uint8 instRdCnt = 0;
  47:main.c        **** 
  48:main.c        **** CY_ISR( UART_OUT_RCM_Handler )
  49:main.c        **** {
  28              		.loc 1 49 0
  29              		.cfi_startproc
  30              		@ args = 0, pretend = 0, frame = 0
  31              		@ frame_needed = 0, uses_anonymous_args = 0
  32 0000 70B5     		push	{r4, r5, r6, lr}
  33              		.cfi_def_cfa_offset 16
  34              		.cfi_offset 4, -16
  35              		.cfi_offset 5, -12
  36              		.cfi_offset 6, -8
  37              		.cfi_offset 14, -4
  50:main.c        ****     intQueue[intCnt].port = 0x10;
  38              		.loc 1 50 0
  39 0002 094C     		ldr	r4, .L2
  40 0004 094D     		ldr	r5, .L2+4
  41 0006 2378     		ldrb	r3, [r4]	@ zero_extendqisi2
  42 0008 1022     		movs	r2, #16
  43 000a 05F81320 		strb	r2, [r5, r3, lsl #1]
  51:main.c        ****     intQueue[intCnt].data = RCM_Read();
  44              		.loc 1 51 0
  45 000e 2678     		ldrb	r6, [r4]	@ zero_extendqisi2
  46 0010 FFF7FEFF 		bl	RCM_Read
  47              	.LVL0:
  52:main.c        ****     intCnt++;
  48              		.loc 1 52 0
  49 0014 2378     		ldrb	r3, [r4]	@ zero_extendqisi2
  51:main.c        ****     intQueue[intCnt].data = RCM_Read();
  50              		.loc 1 51 0
  51 0016 F6B2     		uxtb	r6, r6
  52              		.loc 1 52 0
  53 0018 0133     		adds	r3, r3, #1
  51:main.c        ****     intQueue[intCnt].data = RCM_Read();
  54              		.loc 1 51 0
  55 001a 05EB4605 		add	r5, r5, r6, lsl #1
  56              		.loc 1 52 0
  57 001e DBB2     		uxtb	r3, r3
  51:main.c        ****     intQueue[intCnt].data = RCM_Read();
  58              		.loc 1 51 0
  59 0020 6870     		strb	r0, [r5, #1]
ARM GAS  C:\Users\Kiwi\AppData\Local\Temp\cckzbvMb.s 			page 3


  60              		.loc 1 52 0
  61 0022 2370     		strb	r3, [r4]
  62 0024 70BD     		pop	{r4, r5, r6, pc}
  63              	.L3:
  64 0026 00BF     		.align	2
  65              	.L2:
  66 0028 00000000 		.word	.LANCHOR0
  67 002c 00000000 		.word	intQueue
  68              		.cfi_endproc
  69              	.LFE64:
  70              		.size	UART_OUT_RCM_Handler, .-UART_OUT_RCM_Handler
  71              		.section	.text.UART_OUT_RCU_Handler,"ax",%progbits
  72              		.align	1
  73              		.global	UART_OUT_RCU_Handler
  74              		.thumb
  75              		.thumb_func
  76              		.type	UART_OUT_RCU_Handler, %function
  77              	UART_OUT_RCU_Handler:
  78              	.LFB65:
  53:main.c        **** }
  54:main.c        **** 
  55:main.c        **** CY_ISR( UART_OUT_RCU_Handler )
  56:main.c        **** {
  79              		.loc 1 56 0
  80              		.cfi_startproc
  81              		@ args = 0, pretend = 0, frame = 0
  82              		@ frame_needed = 0, uses_anonymous_args = 0
  83 0000 70B5     		push	{r4, r5, r6, lr}
  84              		.cfi_def_cfa_offset 16
  85              		.cfi_offset 4, -16
  86              		.cfi_offset 5, -12
  87              		.cfi_offset 6, -8
  88              		.cfi_offset 14, -4
  57:main.c        ****     intQueue[intCnt].port = 0x11;
  89              		.loc 1 57 0
  90 0002 094C     		ldr	r4, .L5
  91 0004 094D     		ldr	r5, .L5+4
  92 0006 2378     		ldrb	r3, [r4]	@ zero_extendqisi2
  93 0008 1122     		movs	r2, #17
  94 000a 05F81320 		strb	r2, [r5, r3, lsl #1]
  58:main.c        ****     intQueue[intCnt].data = RCU_Read();
  95              		.loc 1 58 0
  96 000e 2678     		ldrb	r6, [r4]	@ zero_extendqisi2
  97 0010 FFF7FEFF 		bl	RCU_Read
  98              	.LVL1:
  59:main.c        ****     intCnt++;
  99              		.loc 1 59 0
 100 0014 2378     		ldrb	r3, [r4]	@ zero_extendqisi2
  58:main.c        ****     intQueue[intCnt].data = RCU_Read();
 101              		.loc 1 58 0
 102 0016 F6B2     		uxtb	r6, r6
 103              		.loc 1 59 0
 104 0018 0133     		adds	r3, r3, #1
  58:main.c        ****     intQueue[intCnt].data = RCU_Read();
 105              		.loc 1 58 0
 106 001a 05EB4605 		add	r5, r5, r6, lsl #1
 107              		.loc 1 59 0
ARM GAS  C:\Users\Kiwi\AppData\Local\Temp\cckzbvMb.s 			page 4


 108 001e DBB2     		uxtb	r3, r3
  58:main.c        ****     intQueue[intCnt].data = RCU_Read();
 109              		.loc 1 58 0
 110 0020 6870     		strb	r0, [r5, #1]
 111              		.loc 1 59 0
 112 0022 2370     		strb	r3, [r4]
 113 0024 70BD     		pop	{r4, r5, r6, pc}
 114              	.L6:
 115 0026 00BF     		.align	2
 116              	.L5:
 117 0028 00000000 		.word	.LANCHOR0
 118 002c 00000000 		.word	intQueue
 119              		.cfi_endproc
 120              	.LFE65:
 121              		.size	UART_OUT_RCU_Handler, .-UART_OUT_RCU_Handler
 122              		.section	.text.UART_OUT_ROD_Handler,"ax",%progbits
 123              		.align	1
 124              		.global	UART_OUT_ROD_Handler
 125              		.thumb
 126              		.thumb_func
 127              		.type	UART_OUT_ROD_Handler, %function
 128              	UART_OUT_ROD_Handler:
 129              	.LFB66:
  60:main.c        **** }
  61:main.c        **** 
  62:main.c        **** CY_ISR( UART_OUT_ROD_Handler )
  63:main.c        **** {
 130              		.loc 1 63 0
 131              		.cfi_startproc
 132              		@ args = 0, pretend = 0, frame = 0
 133              		@ frame_needed = 0, uses_anonymous_args = 0
 134 0000 70B5     		push	{r4, r5, r6, lr}
 135              		.cfi_def_cfa_offset 16
 136              		.cfi_offset 4, -16
 137              		.cfi_offset 5, -12
 138              		.cfi_offset 6, -8
 139              		.cfi_offset 14, -4
  64:main.c        ****     intQueue[intCnt].port = 0x12;
 140              		.loc 1 64 0
 141 0002 094C     		ldr	r4, .L8
 142 0004 094D     		ldr	r5, .L8+4
 143 0006 2378     		ldrb	r3, [r4]	@ zero_extendqisi2
 144 0008 1222     		movs	r2, #18
 145 000a 05F81320 		strb	r2, [r5, r3, lsl #1]
  65:main.c        ****     intQueue[intCnt].data = ROD_Read();
 146              		.loc 1 65 0
 147 000e 2678     		ldrb	r6, [r4]	@ zero_extendqisi2
 148 0010 FFF7FEFF 		bl	ROD_Read
 149              	.LVL2:
  66:main.c        ****     intCnt++;
 150              		.loc 1 66 0
 151 0014 2378     		ldrb	r3, [r4]	@ zero_extendqisi2
  65:main.c        ****     intQueue[intCnt].data = ROD_Read();
 152              		.loc 1 65 0
 153 0016 F6B2     		uxtb	r6, r6
 154              		.loc 1 66 0
 155 0018 0133     		adds	r3, r3, #1
ARM GAS  C:\Users\Kiwi\AppData\Local\Temp\cckzbvMb.s 			page 5


  65:main.c        ****     intQueue[intCnt].data = ROD_Read();
 156              		.loc 1 65 0
 157 001a 05EB4605 		add	r5, r5, r6, lsl #1
 158              		.loc 1 66 0
 159 001e DBB2     		uxtb	r3, r3
  65:main.c        ****     intQueue[intCnt].data = ROD_Read();
 160              		.loc 1 65 0
 161 0020 6870     		strb	r0, [r5, #1]
 162              		.loc 1 66 0
 163 0022 2370     		strb	r3, [r4]
 164 0024 70BD     		pop	{r4, r5, r6, pc}
 165              	.L9:
 166 0026 00BF     		.align	2
 167              	.L8:
 168 0028 00000000 		.word	.LANCHOR0
 169 002c 00000000 		.word	intQueue
 170              		.cfi_endproc
 171              	.LFE66:
 172              		.size	UART_OUT_ROD_Handler, .-UART_OUT_ROD_Handler
 173              		.section	.text.UART_OUT_RST_Handler,"ax",%progbits
 174              		.align	1
 175              		.global	UART_OUT_RST_Handler
 176              		.thumb
 177              		.thumb_func
 178              		.type	UART_OUT_RST_Handler, %function
 179              	UART_OUT_RST_Handler:
 180              	.LFB67:
  67:main.c        **** }
  68:main.c        **** 
  69:main.c        **** CY_ISR( UART_OUT_RST_Handler )
  70:main.c        **** {
 181              		.loc 1 70 0
 182              		.cfi_startproc
 183              		@ args = 0, pretend = 0, frame = 0
 184              		@ frame_needed = 0, uses_anonymous_args = 0
 185 0000 70B5     		push	{r4, r5, r6, lr}
 186              		.cfi_def_cfa_offset 16
 187              		.cfi_offset 4, -16
 188              		.cfi_offset 5, -12
 189              		.cfi_offset 6, -8
 190              		.cfi_offset 14, -4
  71:main.c        ****     intQueue[intCnt].port = 0x13;
 191              		.loc 1 71 0
 192 0002 094C     		ldr	r4, .L11
 193 0004 094D     		ldr	r5, .L11+4
 194 0006 2378     		ldrb	r3, [r4]	@ zero_extendqisi2
 195 0008 1322     		movs	r2, #19
 196 000a 05F81320 		strb	r2, [r5, r3, lsl #1]
  72:main.c        ****     intQueue[intCnt].data = RST_Read();
 197              		.loc 1 72 0
 198 000e 2678     		ldrb	r6, [r4]	@ zero_extendqisi2
 199 0010 FFF7FEFF 		bl	RST_Read
 200              	.LVL3:
  73:main.c        ****     intCnt++;
 201              		.loc 1 73 0
 202 0014 2378     		ldrb	r3, [r4]	@ zero_extendqisi2
  72:main.c        ****     intQueue[intCnt].data = RST_Read();
ARM GAS  C:\Users\Kiwi\AppData\Local\Temp\cckzbvMb.s 			page 6


 203              		.loc 1 72 0
 204 0016 F6B2     		uxtb	r6, r6
 205              		.loc 1 73 0
 206 0018 0133     		adds	r3, r3, #1
  72:main.c        ****     intQueue[intCnt].data = RST_Read();
 207              		.loc 1 72 0
 208 001a 05EB4605 		add	r5, r5, r6, lsl #1
 209              		.loc 1 73 0
 210 001e DBB2     		uxtb	r3, r3
  72:main.c        ****     intQueue[intCnt].data = RST_Read();
 211              		.loc 1 72 0
 212 0020 6870     		strb	r0, [r5, #1]
 213              		.loc 1 73 0
 214 0022 2370     		strb	r3, [r4]
 215 0024 70BD     		pop	{r4, r5, r6, pc}
 216              	.L12:
 217 0026 00BF     		.align	2
 218              	.L11:
 219 0028 00000000 		.word	.LANCHOR0
 220 002c 00000000 		.word	intQueue
 221              		.cfi_endproc
 222              	.LFE67:
 223              		.size	UART_OUT_RST_Handler, .-UART_OUT_RST_Handler
 224              		.section	.text.UART_IN_RRD_Handler,"ax",%progbits
 225              		.align	1
 226              		.global	UART_IN_RRD_Handler
 227              		.thumb
 228              		.thumb_func
 229              		.type	UART_IN_RRD_Handler, %function
 230              	UART_IN_RRD_Handler:
 231              	.LFB68:
  74:main.c        **** }
  75:main.c        **** 
  76:main.c        **** CY_ISR( UART_IN_RRD_Handler )
  77:main.c        **** {
 232              		.loc 1 77 0
 233              		.cfi_startproc
 234              		@ args = 0, pretend = 0, frame = 0
 235              		@ frame_needed = 0, uses_anonymous_args = 0
 236 0000 08B5     		push	{r3, lr}
 237              		.cfi_def_cfa_offset 8
 238              		.cfi_offset 3, -8
 239              		.cfi_offset 14, -4
  78:main.c        ****     RSU_Write( RSU_Read() & 0x7F );
 240              		.loc 1 78 0
 241 0002 FFF7FEFF 		bl	RSU_Read
 242              	.LVL4:
  79:main.c        **** }
 243              		.loc 1 79 0
 244 0006 BDE80840 		pop	{r3, lr}
 245              		.cfi_restore 14
 246              		.cfi_restore 3
 247              		.cfi_def_cfa_offset 0
  78:main.c        ****     RSU_Write( RSU_Read() & 0x7F );
 248              		.loc 1 78 0
 249 000a 00F07F00 		and	r0, r0, #127
 250 000e FFF7FEBF 		b	RSU_Write
ARM GAS  C:\Users\Kiwi\AppData\Local\Temp\cckzbvMb.s 			page 7


 251              	.LVL5:
 252              		.cfi_endproc
 253              	.LFE68:
 254              		.size	UART_IN_RRD_Handler, .-UART_IN_RRD_Handler
 255              		.section	.text.M1_Int_Handler,"ax",%progbits
 256              		.align	1
 257              		.global	M1_Int_Handler
 258              		.thumb
 259              		.thumb_func
 260              		.type	M1_Int_Handler, %function
 261              	M1_Int_Handler:
 262              	.LFB69:
  80:main.c        **** 
  81:main.c        **** CY_ISR( M1_Int_Handler )
  82:main.c        **** {
 263              		.loc 1 82 0
 264              		.cfi_startproc
 265              		@ args = 0, pretend = 0, frame = 0
 266              		@ frame_needed = 0, uses_anonymous_args = 0
 267 0000 F8B5     		push	{r3, r4, r5, r6, r7, lr}
 268              		.cfi_def_cfa_offset 24
 269              		.cfi_offset 3, -24
 270              		.cfi_offset 4, -20
 271              		.cfi_offset 5, -16
 272              		.cfi_offset 6, -12
 273              		.cfi_offset 7, -8
 274              		.cfi_offset 14, -4
  83:main.c        ****     nWAIT_Write(0);
  84:main.c        ****     //instQueue[instCnt].addr = (AddrH_Read()<<8) + AddrL_Read();
  85:main.c        ****     //instQueue[instCnt].data = Dta_Read();
  86:main.c        ****     //CyDelay(2);
  87:main.c        ****     instQueue[instCnt].addr = (ADH_Reg_Read()<<8) + ADL_Reg_Read();
 275              		.loc 1 87 0
 276 0002 0E4C     		ldr	r4, .L15
  83:main.c        ****     nWAIT_Write(0);
 277              		.loc 1 83 0
 278 0004 0020     		movs	r0, #0
 279 0006 FFF7FEFF 		bl	nWAIT_Write
 280              	.LVL6:
 281              		.loc 1 87 0
 282 000a 6678     		ldrb	r6, [r4, #1]	@ zero_extendqisi2
 283 000c FFF7FEFF 		bl	ADH_Reg_Read
 284              	.LVL7:
 285 0010 0746     		mov	r7, r0
 286 0012 FFF7FEFF 		bl	ADL_Reg_Read
 287              	.LVL8:
 288 0016 0A4D     		ldr	r5, .L15+4
 289 0018 F6B2     		uxtb	r6, r6
 290 001a 00EB0720 		add	r0, r0, r7, lsl #8
 291 001e 25F82600 		strh	r0, [r5, r6, lsl #2]	@ movhi
  88:main.c        ****     instQueue[instCnt].data = DT_Reg_Read();
 292              		.loc 1 88 0
 293 0022 6678     		ldrb	r6, [r4, #1]	@ zero_extendqisi2
 294 0024 FFF7FEFF 		bl	DT_Reg_Read
 295              	.LVL9:
  89:main.c        ****     instCnt++;
 296              		.loc 1 89 0
ARM GAS  C:\Users\Kiwi\AppData\Local\Temp\cckzbvMb.s 			page 8


 297 0028 6378     		ldrb	r3, [r4, #1]	@ zero_extendqisi2
  88:main.c        ****     instQueue[instCnt].data = DT_Reg_Read();
 298              		.loc 1 88 0
 299 002a F6B2     		uxtb	r6, r6
 300              		.loc 1 89 0
 301 002c 0133     		adds	r3, r3, #1
  88:main.c        ****     instQueue[instCnt].data = DT_Reg_Read();
 302              		.loc 1 88 0
 303 002e 05EB8605 		add	r5, r5, r6, lsl #2
 304              		.loc 1 89 0
 305 0032 DBB2     		uxtb	r3, r3
  88:main.c        ****     instQueue[instCnt].data = DT_Reg_Read();
 306              		.loc 1 88 0
 307 0034 A870     		strb	r0, [r5, #2]
 308              		.loc 1 89 0
 309 0036 6370     		strb	r3, [r4, #1]
 310 0038 F8BD     		pop	{r3, r4, r5, r6, r7, pc}
 311              	.L16:
 312 003a 00BF     		.align	2
 313              	.L15:
 314 003c 00000000 		.word	.LANCHOR0
 315 0040 00000000 		.word	instQueue
 316              		.cfi_endproc
 317              	.LFE69:
 318              		.size	M1_Int_Handler, .-M1_Int_Handler
 319              		.section	.text.SAPI_Reset,"ax",%progbits
 320              		.align	1
 321              		.global	SAPI_Reset
 322              		.thumb
 323              		.thumb_func
 324              		.type	SAPI_Reset, %function
 325              	SAPI_Reset:
 326              	.LFB70:
  90:main.c        **** }
  91:main.c        **** 
  92:main.c        **** #define BS170
  93:main.c        **** void SAPI_Reset() {
 327              		.loc 1 93 0
 328              		.cfi_startproc
 329              		@ args = 0, pretend = 0, frame = 0
 330              		@ frame_needed = 0, uses_anonymous_args = 0
 331 0000 08B5     		push	{r3, lr}
 332              		.cfi_def_cfa_offset 8
 333              		.cfi_offset 3, -8
 334              		.cfi_offset 14, -4
  94:main.c        **** #ifdef BS170
  95:main.c        ****     RTL_Write(1);
 335              		.loc 1 95 0
 336 0002 0120     		movs	r0, #1
 337 0004 FFF7FEFF 		bl	RTL_Write
 338              	.LVL10:
  96:main.c        ****     CyDelay(6);
 339              		.loc 1 96 0
 340 0008 0620     		movs	r0, #6
 341 000a FFF7FEFF 		bl	CyDelay
 342              	.LVL11:
  97:main.c        ****     RTL_Write(0);
ARM GAS  C:\Users\Kiwi\AppData\Local\Temp\cckzbvMb.s 			page 9


  98:main.c        **** #else
  99:main.c        ****     RTL_Write(0);
 100:main.c        ****     CyDelay(6);
 101:main.c        ****     RTL_Write(1);
 102:main.c        **** #endif
 103:main.c        ****     //CyDelay(1);
 104:main.c        **** }
 343              		.loc 1 104 0
 344 000e BDE80840 		pop	{r3, lr}
 345              		.cfi_restore 14
 346              		.cfi_restore 3
 347              		.cfi_def_cfa_offset 0
  97:main.c        ****     RTL_Write(0);
 348              		.loc 1 97 0
 349 0012 0020     		movs	r0, #0
 350 0014 FFF7FEBF 		b	RTL_Write
 351              	.LVL12:
 352              		.cfi_endproc
 353              	.LFE70:
 354              		.size	SAPI_Reset, .-SAPI_Reset
 355              		.section	.text.USBUART_printf,"ax",%progbits
 356              		.align	1
 357              		.global	USBUART_printf
 358              		.thumb
 359              		.thumb_func
 360              		.type	USBUART_printf, %function
 361              	USBUART_printf:
 362              	.LFB71:
 105:main.c        **** 
 106:main.c        **** int USBUART_printf(const char *format, ...)
 107:main.c        **** {
 363              		.loc 1 107 0
 364              		.cfi_startproc
 365              		@ args = 4, pretend = 16, frame = 136
 366              		@ frame_needed = 0, uses_anonymous_args = 1
 367              	.LVL13:
 368 0000 0FB4     		push	{r0, r1, r2, r3}
 369              		.cfi_def_cfa_offset 16
 370              		.cfi_offset 0, -16
 371              		.cfi_offset 1, -12
 372              		.cfi_offset 2, -8
 373              		.cfi_offset 3, -4
 374 0002 10B5     		push	{r4, lr}
 375              		.cfi_def_cfa_offset 24
 376              		.cfi_offset 4, -24
 377              		.cfi_offset 14, -20
 108:main.c        ****     if(noUART)
 378              		.loc 1 108 0
 379 0004 0D4B     		ldr	r3, .L25
 107:main.c        ****     if(noUART)
 380              		.loc 1 107 0
 381 0006 A2B0     		sub	sp, sp, #136
 382              		.cfi_def_cfa_offset 160
 383              		.loc 1 108 0
 384 0008 1B68     		ldr	r3, [r3]
 385 000a 7BB9     		cbnz	r3, .L21
 109:main.c        ****         return -1;
ARM GAS  C:\Users\Kiwi\AppData\Local\Temp\cckzbvMb.s 			page 10


 110:main.c        **** 
 111:main.c        ****     char tmpstr[128];
 112:main.c        ****     int ret;
 113:main.c        ****     
 114:main.c        ****     va_list args;
 115:main.c        ****     va_start(args, format);
 386              		.loc 1 115 0
 387 000c 25AA     		add	r2, sp, #148
 116:main.c        **** 
 117:main.c        ****     ret=vsprintf(tmpstr, format, args);
 388              		.loc 1 117 0
 389 000e 2499     		ldr	r1, [sp, #144]
 390 0010 02A8     		add	r0, sp, #8
 115:main.c        **** 
 391              		.loc 1 115 0
 392 0012 0192     		str	r2, [sp, #4]
 393              		.loc 1 117 0
 394 0014 FFF7FEFF 		bl	vsprintf
 395              	.LVL14:
 396 0018 0446     		mov	r4, r0
 397              	.LVL15:
 398              	.L20:
 118:main.c        ****     while(!USBUART_CDCIsReady());
 399              		.loc 1 118 0 discriminator 1
 400 001a FFF7FEFF 		bl	USBUART_CDCIsReady
 401              	.LVL16:
 402 001e 0028     		cmp	r0, #0
 403 0020 FBD0     		beq	.L20
 119:main.c        ****     USBUART_PutString(tmpstr);
 404              		.loc 1 119 0
 405 0022 02A8     		add	r0, sp, #8
 406 0024 FFF7FEFF 		bl	USBUART_PutString
 407              	.LVL17:
 120:main.c        ****     
 121:main.c        ****     va_end(args);
 122:main.c        ****     
 123:main.c        ****     return ret;
 408              		.loc 1 123 0
 409 0028 2046     		mov	r0, r4
 410 002a 01E0     		b	.L19
 411              	.LVL18:
 412              	.L21:
 109:main.c        **** 
 413              		.loc 1 109 0
 414 002c 4FF0FF30 		mov	r0, #-1
 415              	.L19:
 124:main.c        **** }    
 416              		.loc 1 124 0
 417 0030 22B0     		add	sp, sp, #136
 418              		.cfi_def_cfa_offset 24
 419              		@ sp needed
 420 0032 BDE81040 		pop	{r4, lr}
 421              		.cfi_restore 14
 422              		.cfi_restore 4
 423              		.cfi_def_cfa_offset 16
 424 0036 04B0     		add	sp, sp, #16
 425              		.cfi_restore 3
ARM GAS  C:\Users\Kiwi\AppData\Local\Temp\cckzbvMb.s 			page 11


 426              		.cfi_restore 2
 427              		.cfi_restore 1
 428              		.cfi_restore 0
 429              		.cfi_def_cfa_offset 0
 430 0038 7047     		bx	lr
 431              	.L26:
 432 003a 00BF     		.align	2
 433              	.L25:
 434 003c 00000000 		.word	.LANCHOR1
 435              		.cfi_endproc
 436              	.LFE71:
 437              		.size	USBUART_printf, .-USBUART_printf
 438              		.section	.text.UART_printf,"ax",%progbits
 439              		.align	1
 440              		.global	UART_printf
 441              		.thumb
 442              		.thumb_func
 443              		.type	UART_printf, %function
 444              	UART_printf:
 445              	.LFB72:
 125:main.c        **** 
 126:main.c        **** int UART_printf(const char *format, ...)
 127:main.c        **** {
 446              		.loc 1 127 0
 447              		.cfi_startproc
 448              		@ args = 4, pretend = 16, frame = 136
 449              		@ frame_needed = 0, uses_anonymous_args = 1
 450              	.LVL19:
 451 0000 0FB4     		push	{r0, r1, r2, r3}
 452              		.cfi_def_cfa_offset 16
 453              		.cfi_offset 0, -16
 454              		.cfi_offset 1, -12
 455              		.cfi_offset 2, -8
 456              		.cfi_offset 3, -4
 457 0002 10B5     		push	{r4, lr}
 458              		.cfi_def_cfa_offset 24
 459              		.cfi_offset 4, -24
 460              		.cfi_offset 14, -20
 461 0004 A2B0     		sub	sp, sp, #136
 462              		.cfi_def_cfa_offset 160
 463              		.loc 1 127 0
 464 0006 24AA     		add	r2, sp, #144
 465 0008 52F8041B 		ldr	r1, [r2], #4
 128:main.c        ****     char tmpstr[128];
 129:main.c        ****     int ret;
 130:main.c        ****     
 131:main.c        ****     va_list args;
 132:main.c        ****     va_start(args, format);
 133:main.c        **** 
 134:main.c        ****     ret=vsprintf(tmpstr, format, args);
 466              		.loc 1 134 0
 467 000c 02A8     		add	r0, sp, #8
 132:main.c        **** 
 468              		.loc 1 132 0
 469 000e 0192     		str	r2, [sp, #4]
 470              		.loc 1 134 0
 471 0010 FFF7FEFF 		bl	vsprintf
ARM GAS  C:\Users\Kiwi\AppData\Local\Temp\cckzbvMb.s 			page 12


 472              	.LVL20:
 473 0014 0446     		mov	r4, r0
 474              	.LVL21:
 135:main.c        ****     // while(!UART_CDCIsReady());
 136:main.c        ****     UART_PutString(tmpstr);
 475              		.loc 1 136 0
 476 0016 02A8     		add	r0, sp, #8
 477              	.LVL22:
 478 0018 FFF7FEFF 		bl	UART_PutString
 479              	.LVL23:
 137:main.c        ****     
 138:main.c        ****     va_end(args);
 139:main.c        ****     
 140:main.c        ****     return ret;
 141:main.c        **** }    
 480              		.loc 1 141 0
 481 001c 2046     		mov	r0, r4
 482 001e 22B0     		add	sp, sp, #136
 483              		.cfi_def_cfa_offset 24
 484              		@ sp needed
 485 0020 BDE81040 		pop	{r4, lr}
 486              		.cfi_restore 14
 487              		.cfi_restore 4
 488              		.cfi_def_cfa_offset 16
 489              	.LVL24:
 490 0024 04B0     		add	sp, sp, #16
 491              		.cfi_restore 3
 492              		.cfi_restore 2
 493              		.cfi_restore 1
 494              		.cfi_restore 0
 495              		.cfi_def_cfa_offset 0
 496 0026 7047     		bx	lr
 497              		.cfi_endproc
 498              	.LFE72:
 499              		.size	UART_printf, .-UART_printf
 500              		.section	.text.Get_SAPI_Bus,"ax",%progbits
 501              		.align	1
 502              		.global	Get_SAPI_Bus
 503              		.thumb
 504              		.thumb_func
 505              		.type	Get_SAPI_Bus, %function
 506              	Get_SAPI_Bus:
 507              	.LFB73:
 142:main.c        **** 
 143:main.c        **** /*
 144:main.c        **** void TermPutString(char * str) {
 145:main.c        ****     if(noUART)
 146:main.c        ****         return;
 147:main.c        ****     if(strlen(str)>50) // aaa - correct later, but large string would block
 148:main.c        ****         return;
 149:main.c        ****     uint32 timeout = Millis_ReadCounter();
 150:main.c        ****     if (0u != USBUART_GetConfiguration()) {    
 151:main.c        ****         while (0u == USBUART_CDCIsReady())
 152:main.c        ****         {
 153:main.c        ****             if (Millis_ReadCounter()-timeout > 100) {
 154:main.c        ****                 return; // prevent getting stuck
 155:main.c        ****             }
ARM GAS  C:\Users\Kiwi\AppData\Local\Temp\cckzbvMb.s 			page 13


 156:main.c        ****         }    
 157:main.c        ****         USBUART_PutString(str);
 158:main.c        ****     }
 159:main.c        ****     timeout = Millis_ReadCounter();
 160:main.c        ****     while((!USBUART_CDCIsReady()) && (Millis_ReadCounter()-timeout<100)){     // Wait for Tx to fin
 161:main.c        ****         CyDelay(1);
 162:main.c        ****     }
 163:main.c        **** }    
 164:main.c        **** 
 165:main.c        **** void TermPutChar(char ch) {
 166:main.c        ****     if(noUART)
 167:main.c        ****         return;
 168:main.c        ****     // USBUART_PutChar(ch);
 169:main.c        ****     uint32 timeout = Millis_ReadCounter();
 170:main.c        ****     if (0u != USBUART_GetConfiguration()) {    
 171:main.c        ****         while (0u == USBUART_CDCIsReady())
 172:main.c        ****         {
 173:main.c        ****             if (Millis_ReadCounter()-timeout > 100) {
 174:main.c        ****                 return; // prevent getting stuck
 175:main.c        ****             }
 176:main.c        ****         }    
 177:main.c        ****         USBUART_PutChar(ch);
 178:main.c        ****     }
 179:main.c        ****     timeout = Millis_ReadCounter();
 180:main.c        ****     while((!USBUART_CDCIsReady()) && (Millis_ReadCounter()-timeout<100)){     // Wait for Tx to fin
 181:main.c        ****         CyDelay(1);
 182:main.c        ****     }
 183:main.c        **** }    
 184:main.c        **** */
 185:main.c        **** 
 186:main.c        **** uint8 Get_SAPI_Bus() {
 508              		.loc 1 186 0
 509              		.cfi_startproc
 510              		@ args = 0, pretend = 0, frame = 0
 511              		@ frame_needed = 0, uses_anonymous_args = 0
 512 0000 10B5     		push	{r4, lr}
 513              		.cfi_def_cfa_offset 8
 514              		.cfi_offset 4, -8
 515              		.cfi_offset 14, -4
 187:main.c        ****     // USBUART_printf("BUSAK = %d\r\n", BUSAK_Read());
 188:main.c        ****     if(waitForBus==0)
 516              		.loc 1 188 0
 517 0002 114B     		ldr	r3, .L35
 518 0004 1B79     		ldrb	r3, [r3, #4]	@ zero_extendqisi2
 519 0006 DBB1     		cbz	r3, .L33
 520              	.LBB12:
 521              	.LBB13:
 189:main.c        ****         return 1;
 190:main.c        ****     BUSRQ_Write(0);
 522              		.loc 1 190 0
 523 0008 0020     		movs	r0, #0
 524 000a FFF7FEFF 		bl	BUSRQ_Write
 525              	.LVL25:
 191:main.c        ****     USBUART_printf("Waiting BUSAK ... ");
 526              		.loc 1 191 0
 527 000e 0F48     		ldr	r0, .L35+4
 528 0010 FFF7FEFF 		bl	USBUART_printf
ARM GAS  C:\Users\Kiwi\AppData\Local\Temp\cckzbvMb.s 			page 14


 529              	.LVL26:
 530              	.L30:
 192:main.c        ****     while(BUSAK_Read()!=0) {
 531              		.loc 1 192 0
 532 0014 FFF7FEFF 		bl	BUSAK_Read
 533              	.LVL27:
 534 0018 0446     		mov	r4, r0
 535 001a 30B1     		cbz	r0, .L34
 193:main.c        ****         USBUART_printf(".");
 536              		.loc 1 193 0
 537 001c 0C48     		ldr	r0, .L35+8
 538 001e FFF7FEFF 		bl	USBUART_printf
 539              	.LVL28:
 194:main.c        ****         CyDelay(10);
 540              		.loc 1 194 0
 541 0022 0A20     		movs	r0, #10
 542 0024 FFF7FEFF 		bl	CyDelay
 543              	.LVL29:
 544 0028 F4E7     		b	.L30
 545              	.L34:
 195:main.c        ****     }
 196:main.c        ****     if(BUSAK_Read()==0) {
 546              		.loc 1 196 0
 547 002a FFF7FEFF 		bl	BUSAK_Read
 548              	.LVL30:
 549 002e 18B9     		cbnz	r0, .L32
 197:main.c        ****         USBUART_printf("OK\r\n");
 550              		.loc 1 197 0
 551 0030 0848     		ldr	r0, .L35+12
 552 0032 FFF7FEFF 		bl	USBUART_printf
 553              	.LVL31:
 554 0036 03E0     		b	.L33
 555              	.L32:
 198:main.c        ****         return 1;
 199:main.c        ****     } else {
 200:main.c        ****         USBUART_printf("FAILED\r\n");
 556              		.loc 1 200 0
 557 0038 0748     		ldr	r0, .L35+16
 558 003a FFF7FEFF 		bl	USBUART_printf
 559              	.LVL32:
 560 003e 00E0     		b	.L29
 561              	.L33:
 562              	.LBE13:
 563              	.LBE12:
 189:main.c        ****     BUSRQ_Write(0);
 564              		.loc 1 189 0
 565 0040 0124     		movs	r4, #1
 566              	.L29:
 201:main.c        ****         return 0;
 202:main.c        ****     }
 203:main.c        **** }
 567              		.loc 1 203 0
 568 0042 2046     		mov	r0, r4
 569 0044 10BD     		pop	{r4, pc}
 570              	.L36:
 571 0046 00BF     		.align	2
 572              	.L35:
ARM GAS  C:\Users\Kiwi\AppData\Local\Temp\cckzbvMb.s 			page 15


 573 0048 00000000 		.word	.LANCHOR1
 574 004c 00000000 		.word	.LC0
 575 0050 13000000 		.word	.LC1
 576 0054 15000000 		.word	.LC2
 577 0058 1A000000 		.word	.LC3
 578              		.cfi_endproc
 579              	.LFE73:
 580              		.size	Get_SAPI_Bus, .-Get_SAPI_Bus
 581              		.section	.text.Get_SAPI_Bus_Silent,"ax",%progbits
 582              		.align	1
 583              		.global	Get_SAPI_Bus_Silent
 584              		.thumb
 585              		.thumb_func
 586              		.type	Get_SAPI_Bus_Silent, %function
 587              	Get_SAPI_Bus_Silent:
 588              	.LFB74:
 204:main.c        **** 
 205:main.c        **** uint8 Get_SAPI_Bus_Silent() {
 589              		.loc 1 205 0
 590              		.cfi_startproc
 591              		@ args = 0, pretend = 0, frame = 0
 592              		@ frame_needed = 0, uses_anonymous_args = 0
 593 0000 08B5     		push	{r3, lr}
 594              		.cfi_def_cfa_offset 8
 595              		.cfi_offset 3, -8
 596              		.cfi_offset 14, -4
 206:main.c        ****     // USBUART_printf("BUSAK = %d\r\n", BUSAK_Read());
 207:main.c        ****     if(waitForBus==0)
 597              		.loc 1 207 0
 598 0002 0A4B     		ldr	r3, .L43
 599 0004 1B79     		ldrb	r3, [r3, #4]	@ zero_extendqisi2
 600 0006 7BB1     		cbz	r3, .L41
 601              	.LBB16:
 602              	.LBB17:
 208:main.c        ****         return 1;
 209:main.c        ****     BUSRQ_Write(0);
 603              		.loc 1 209 0
 604 0008 0020     		movs	r0, #0
 605 000a FFF7FEFF 		bl	BUSRQ_Write
 606              	.LVL33:
 607              	.L39:
 210:main.c        ****     //USBUART_printf("Waiting BUSAK ... ");
 211:main.c        ****     while(BUSAK_Read()!=0) {
 608              		.loc 1 211 0
 609 000e FFF7FEFF 		bl	BUSAK_Read
 610              	.LVL34:
 611 0012 18B1     		cbz	r0, .L42
 212:main.c        ****         //USBUART_printf(".");
 213:main.c        ****         CyDelay(1);
 612              		.loc 1 213 0
 613 0014 0120     		movs	r0, #1
 614 0016 FFF7FEFF 		bl	CyDelay
 615              	.LVL35:
 616 001a F8E7     		b	.L39
 617              	.L42:
 214:main.c        ****     }
 215:main.c        ****     if(BUSAK_Read()==0) {
ARM GAS  C:\Users\Kiwi\AppData\Local\Temp\cckzbvMb.s 			page 16


 618              		.loc 1 215 0
 619 001c FFF7FEFF 		bl	BUSAK_Read
 620              	.LVL36:
 621              	.LBE17:
 622              	.LBE16:
 208:main.c        ****     BUSRQ_Write(0);
 623              		.loc 1 208 0
 624 0020 B0FA80F0 		clz	r0, r0
 625 0024 4009     		lsrs	r0, r0, #5
 626 0026 08BD     		pop	{r3, pc}
 627              	.L41:
 628 0028 0120     		movs	r0, #1
 216:main.c        ****         //USBUART_printf("OK\r\n");
 217:main.c        ****         return 1;
 218:main.c        ****     } else {
 219:main.c        ****         //USBUART_printf("FAILED\r\n");
 220:main.c        ****         return 0;
 221:main.c        ****     }
 222:main.c        **** }
 629              		.loc 1 222 0
 630 002a 08BD     		pop	{r3, pc}
 631              	.L44:
 632              		.align	2
 633              	.L43:
 634 002c 00000000 		.word	.LANCHOR1
 635              		.cfi_endproc
 636              	.LFE74:
 637              		.size	Get_SAPI_Bus_Silent, .-Get_SAPI_Bus_Silent
 638              		.section	.text.Release_SAPI_Bus,"ax",%progbits
 639              		.align	1
 640              		.global	Release_SAPI_Bus
 641              		.thumb
 642              		.thumb_func
 643              		.type	Release_SAPI_Bus, %function
 644              	Release_SAPI_Bus:
 645              	.LFB75:
 223:main.c        **** 
 224:main.c        **** uint8 Release_SAPI_Bus() {
 646              		.loc 1 224 0
 647              		.cfi_startproc
 648              		@ args = 0, pretend = 0, frame = 0
 649              		@ frame_needed = 0, uses_anonymous_args = 0
 650 0000 10B5     		push	{r4, lr}
 651              		.cfi_def_cfa_offset 8
 652              		.cfi_offset 4, -8
 653              		.cfi_offset 14, -4
 225:main.c        ****     if(waitForBus==0)
 654              		.loc 1 225 0
 655 0002 124B     		ldr	r3, .L52
 656 0004 1B79     		ldrb	r3, [r3, #4]	@ zero_extendqisi2
 657 0006 F3B1     		cbz	r3, .L50
 658              	.LBB20:
 659              	.LBB21:
 226:main.c        ****         return 1;
 227:main.c        ****     BUSRQ_Write(1);
 660              		.loc 1 227 0
 661 0008 0120     		movs	r0, #1
ARM GAS  C:\Users\Kiwi\AppData\Local\Temp\cckzbvMb.s 			page 17


 662 000a FFF7FEFF 		bl	BUSRQ_Write
 663              	.LVL37:
 228:main.c        ****     USBUART_printf("Waiting BUS release ... ");
 664              		.loc 1 228 0
 665 000e 1048     		ldr	r0, .L52+4
 666 0010 FFF7FEFF 		bl	USBUART_printf
 667              	.LVL38:
 668              	.L47:
 229:main.c        ****     while(BUSAK_Read()!=1) {
 669              		.loc 1 229 0
 670 0014 FFF7FEFF 		bl	BUSAK_Read
 671              	.LVL39:
 672 0018 0128     		cmp	r0, #1
 673 001a 06D0     		beq	.L51
 230:main.c        ****         USBUART_printf(".");
 674              		.loc 1 230 0
 675 001c 0D48     		ldr	r0, .L52+8
 676 001e FFF7FEFF 		bl	USBUART_printf
 677              	.LVL40:
 231:main.c        ****         CyDelay(10);
 678              		.loc 1 231 0
 679 0022 0A20     		movs	r0, #10
 680 0024 FFF7FEFF 		bl	CyDelay
 681              	.LVL41:
 682 0028 F4E7     		b	.L47
 683              	.L51:
 232:main.c        ****     }
 233:main.c        ****     if(BUSAK_Read()==1) {
 684              		.loc 1 233 0
 685 002a FFF7FEFF 		bl	BUSAK_Read
 686              	.LVL42:
 687 002e 0128     		cmp	r0, #1
 688 0030 0446     		mov	r4, r0
 689 0032 03D1     		bne	.L49
 234:main.c        ****         USBUART_printf("OK\r\n");
 690              		.loc 1 234 0
 691 0034 0848     		ldr	r0, .L52+12
 692 0036 FFF7FEFF 		bl	USBUART_printf
 693              	.LVL43:
 694 003a 05E0     		b	.L46
 695              	.L49:
 235:main.c        ****         return 1;
 236:main.c        ****     } else {
 237:main.c        ****         USBUART_printf("FAILED\r\n");
 696              		.loc 1 237 0
 697 003c 0748     		ldr	r0, .L52+16
 698 003e FFF7FEFF 		bl	USBUART_printf
 699              	.LVL44:
 238:main.c        ****         return 0;
 700              		.loc 1 238 0
 701 0042 0024     		movs	r4, #0
 702 0044 00E0     		b	.L46
 703              	.L50:
 704              	.LBE21:
 705              	.LBE20:
 226:main.c        ****     BUSRQ_Write(1);
 706              		.loc 1 226 0
ARM GAS  C:\Users\Kiwi\AppData\Local\Temp\cckzbvMb.s 			page 18


 707 0046 0124     		movs	r4, #1
 708              	.L46:
 239:main.c        ****     }
 240:main.c        **** }
 709              		.loc 1 240 0
 710 0048 2046     		mov	r0, r4
 711 004a 10BD     		pop	{r4, pc}
 712              	.L53:
 713              		.align	2
 714              	.L52:
 715 004c 00000000 		.word	.LANCHOR1
 716 0050 23000000 		.word	.LC4
 717 0054 13000000 		.word	.LC1
 718 0058 15000000 		.word	.LC2
 719 005c 1A000000 		.word	.LC3
 720              		.cfi_endproc
 721              	.LFE75:
 722              		.size	Release_SAPI_Bus, .-Release_SAPI_Bus
 723              		.section	.text.Release_SAPI_Bus_Silent,"ax",%progbits
 724              		.align	1
 725              		.global	Release_SAPI_Bus_Silent
 726              		.thumb
 727              		.thumb_func
 728              		.type	Release_SAPI_Bus_Silent, %function
 729              	Release_SAPI_Bus_Silent:
 730              	.LFB76:
 241:main.c        **** 
 242:main.c        **** uint8 Release_SAPI_Bus_Silent() {
 731              		.loc 1 242 0
 732              		.cfi_startproc
 733              		@ args = 0, pretend = 0, frame = 0
 734              		@ frame_needed = 0, uses_anonymous_args = 0
 735 0000 08B5     		push	{r3, lr}
 736              		.cfi_def_cfa_offset 8
 737              		.cfi_offset 3, -8
 738              		.cfi_offset 14, -4
 243:main.c        ****     if(waitForBus==0)
 739              		.loc 1 243 0
 740 0002 0A4B     		ldr	r3, .L60
 244:main.c        ****         return 1;
 741              		.loc 1 244 0
 742 0004 0120     		movs	r0, #1
 243:main.c        ****     if(waitForBus==0)
 743              		.loc 1 243 0
 744 0006 1B79     		ldrb	r3, [r3, #4]	@ zero_extendqisi2
 745 0008 7BB1     		cbz	r3, .L58
 746              	.LBB24:
 747              	.LBB25:
 245:main.c        ****     BUSRQ_Write(1);
 748              		.loc 1 245 0
 749 000a FFF7FEFF 		bl	BUSRQ_Write
 750              	.LVL45:
 751              	.L56:
 246:main.c        ****     //USBUART_printf("Waiting BUS release ... ");
 247:main.c        ****     while(BUSAK_Read()!=1) {
 752              		.loc 1 247 0
 753 000e FFF7FEFF 		bl	BUSAK_Read
ARM GAS  C:\Users\Kiwi\AppData\Local\Temp\cckzbvMb.s 			page 19


 754              	.LVL46:
 755 0012 0128     		cmp	r0, #1
 756 0014 03D0     		beq	.L59
 248:main.c        ****         //USBUART_printf(".");
 249:main.c        ****         CyDelay(1);
 757              		.loc 1 249 0
 758 0016 0120     		movs	r0, #1
 759 0018 FFF7FEFF 		bl	CyDelay
 760              	.LVL47:
 761 001c F7E7     		b	.L56
 762              	.L59:
 250:main.c        ****     }
 251:main.c        ****     if(BUSAK_Read()==1) {
 763              		.loc 1 251 0
 764 001e FFF7FEFF 		bl	BUSAK_Read
 765              	.LVL48:
 766              	.LBE25:
 767              	.LBE24:
 244:main.c        ****     BUSRQ_Write(1);
 768              		.loc 1 244 0
 769 0022 431E     		subs	r3, r0, #1
 770 0024 5842     		rsbs	r0, r3, #0
 771 0026 5841     		adcs	r0, r0, r3
 772 0028 08BD     		pop	{r3, pc}
 773              	.L58:
 252:main.c        ****         //USBUART_printf("OK\r\n");
 253:main.c        ****         return 1;
 254:main.c        ****     } else {
 255:main.c        ****         //USBUART_printf("FAILED\r\n");
 256:main.c        ****         return 0;
 257:main.c        ****     }
 258:main.c        **** }
 774              		.loc 1 258 0
 775 002a 08BD     		pop	{r3, pc}
 776              	.L61:
 777              		.align	2
 778              	.L60:
 779 002c 00000000 		.word	.LANCHOR1
 780              		.cfi_endproc
 781              	.LFE76:
 782              		.size	Release_SAPI_Bus_Silent, .-Release_SAPI_Bus_Silent
 783              		.section	.text.DumpMem,"ax",%progbits
 784              		.align	1
 785              		.global	DumpMem
 786              		.thumb
 787              		.thumb_func
 788              		.type	DumpMem, %function
 789              	DumpMem:
 790              	.LFB78:
 259:main.c        **** 
 260:main.c        **** void DumpMem(uint16 addr);
 261:main.c        **** 
 262:main.c        **** void RAM_check() {
 263:main.c        ****     uint32 testfrom = 0x0000;
 264:main.c        ****     uint32 testlen = 0x10000;
 265:main.c        ****     uint8 r;
 266:main.c        ****     uint8 s;
ARM GAS  C:\Users\Kiwi\AppData\Local\Temp\cckzbvMb.s 			page 20


 267:main.c        ****     int err=0;
 268:main.c        ****     
 269:main.c        ****     if(!Get_SAPI_Bus()) {
 270:main.c        ****         return;
 271:main.c        ****     }
 272:main.c        **** 
 273:main.c        ****     AddrL_Write(0);
 274:main.c        ****     AddrL_SetDriveMode(PIN_DM_STRONG);
 275:main.c        ****     AddrH_Write(0);
 276:main.c        ****     AddrH_SetDriveMode(PIN_DM_STRONG);
 277:main.c        ****     
 278:main.c        ****     // SRAM under my control DATAOUT CTL OER WE MSEL
 279:main.c        ****     SRAM_Ctl_Write(0b01111);
 280:main.c        ****     
 281:main.c        ****     USBUART_printf("filling RAM with patttern\r\n");
 282:main.c        ****     for(uint32 a=testfrom; a<testfrom+testlen; a=a+2) {
 283:main.c        ****         AddrH_Write((a>>8)&0xFF);
 284:main.c        ****         AddrL_Write(a&0xFF);
 285:main.c        ****         BusDta_Write((a>>8)&0xFF);
 286:main.c        ****         // DATAOUT + WE + MSEL
 287:main.c        ****         SRAM_Ctl_Write(0b11100);
 288:main.c        ****         CyDelayUs(1);
 289:main.c        ****         SRAM_Ctl_Write(0b01111);
 290:main.c        ****         CyDelayUs(1);
 291:main.c        ****         AddrL_Write((a&0xFF)+1);
 292:main.c        ****         BusDta_Write(a);
 293:main.c        ****         SRAM_Ctl_Write(0b11100);
 294:main.c        ****         CyDelayUs(1);
 295:main.c        ****         SRAM_Ctl_Write(0b01111);
 296:main.c        ****         CyDelayUs(1);
 297:main.c        ****     }
 298:main.c        ****     USBUART_printf("verifying RAM\r\n");
 299:main.c        **** 
 300:main.c        ****     // OER + MSEL = furt data ze SRAM na sbernici
 301:main.c        ****     SRAM_Ctl_Write(0b01010);
 302:main.c        **** 
 303:main.c        ****     for(uint32 a=testfrom; a<testlen; a++) {
 304:main.c        ****         AddrH_Write((a>>8)&0xFF);
 305:main.c        ****         AddrL_Write(a&0xFF);
 306:main.c        ****         CyDelayUs(2);
 307:main.c        ****         r=Dta_Read();
 308:main.c        ****         CyDelayUs(1);
 309:main.c        ****         //USBUART_printf("%02X", r);
 310:main.c        ****         //if((a&0x1F)==0x1F)
 311:main.c        ****         //    USBUART_printf("\r\n");
 312:main.c        ****         if(a&1) {
 313:main.c        ****             s=(a&0xFF)-1;
 314:main.c        ****         } else {
 315:main.c        ****             s=(a>>8)&0xFF;
 316:main.c        ****         }
 317:main.c        ****         if(r!=s) {
 318:main.c        ****             USBUART_printf("Error at %04X, expected %02X, but found %02X\r\n", a, s, r);
 319:main.c        ****             err++;
 320:main.c        ****             DumpMem(a & 0xFF00);
 321:main.c        ****             if(!Get_SAPI_Bus()) {
 322:main.c        ****                 return;
 323:main.c        ****             }
ARM GAS  C:\Users\Kiwi\AppData\Local\Temp\cckzbvMb.s 			page 21


 324:main.c        ****             AddrL_SetDriveMode(PIN_DM_STRONG);
 325:main.c        ****             AddrH_SetDriveMode(PIN_DM_STRONG);
 326:main.c        ****             SRAM_Ctl_Write(0b01010);
 327:main.c        ****         }
 328:main.c        ****     }
 329:main.c        **** 
 330:main.c        ****     // SRAM under my control DATAOUT CTL OER WE MSEL
 331:main.c        ****     SRAM_Ctl_Write(0b01111);
 332:main.c        ****     
 333:main.c        ****     USBUART_printf("filling RAM with inverted patttern\r\n");
 334:main.c        ****     for(uint32 a=testfrom; a<testfrom+testlen; a=a+2) {
 335:main.c        ****         AddrH_Write((a>>8)&0xFF);
 336:main.c        ****         AddrL_Write(a&0xFF);
 337:main.c        ****         BusDta_Write(~((a>>8)&0xFF));
 338:main.c        ****         // DATAOUT + WE + MSEL
 339:main.c        ****         SRAM_Ctl_Write(0b11100);
 340:main.c        ****         CyDelayUs(1);
 341:main.c        ****         SRAM_Ctl_Write(0b01111);
 342:main.c        ****         CyDelayUs(1);
 343:main.c        ****         AddrL_Write((a&0xFF)+1);
 344:main.c        ****         BusDta_Write(~a);
 345:main.c        ****         SRAM_Ctl_Write(0b11100);
 346:main.c        ****         CyDelayUs(1);
 347:main.c        ****         SRAM_Ctl_Write(0b01111);
 348:main.c        ****         CyDelayUs(1);
 349:main.c        ****     }
 350:main.c        ****     USBUART_printf("verifying RAM\r\n");
 351:main.c        **** 
 352:main.c        ****     // OER + MSEL = furt data ze SRAM na sbernici
 353:main.c        ****     SRAM_Ctl_Write(0b01010);
 354:main.c        **** 
 355:main.c        ****     for(uint32 a=testfrom; a<testlen; a++) {
 356:main.c        ****         AddrH_Write((a>>8)&0xFF);
 357:main.c        ****         AddrL_Write(a&0xFF);
 358:main.c        ****         CyDelayUs(1);
 359:main.c        ****         r=Dta_Read();
 360:main.c        ****         CyDelayUs(1);
 361:main.c        ****         //USBUART_printf("%02X", r);
 362:main.c        ****         //if((a&0x1F)==0x1F)
 363:main.c        ****         //    USBUART_printf("\r\n");
 364:main.c        ****         if(a&1) {
 365:main.c        ****             s=~((a&0xFF)-1);
 366:main.c        ****         } else {
 367:main.c        ****             s=~((a>>8)&0xFF);
 368:main.c        ****         }
 369:main.c        ****         if(r!=s) {
 370:main.c        ****             USBUART_printf("Error at %04X, expected %02X, but found %02X\r\n", a, s, r);
 371:main.c        ****             err++;
 372:main.c        ****         }
 373:main.c        ****     }
 374:main.c        **** 
 375:main.c        ****     // relase SRAM to SAPI - CTL OER WE MSEL
 376:main.c        ****     SRAM_Ctl_Write(0b00111);
 377:main.c        ****     
 378:main.c        ****     AddrL_Write(0);
 379:main.c        ****     AddrL_SetDriveMode(PIN_DM_DIG_HIZ);
 380:main.c        ****     AddrH_Write(0);
ARM GAS  C:\Users\Kiwi\AppData\Local\Temp\cckzbvMb.s 			page 22


 381:main.c        ****     AddrH_SetDriveMode(PIN_DM_DIG_HIZ);
 382:main.c        ****     //Dta_Write(0xFF);
 383:main.c        ****     //Dta_SetDriveMode(PIN_DM_RES_UP);
 384:main.c        ****     
 385:main.c        ****     if(err) {
 386:main.c        ****         USBUART_printf("%d errors found :-(\r\n", err);
 387:main.c        ****     } else {
 388:main.c        ****         USBUART_printf("No errors found :-)\r\n");
 389:main.c        ****     }
 390:main.c        ****     Release_SAPI_Bus();
 391:main.c        **** 
 392:main.c        ****     USBUART_printf("Data has been corrupted by memory test, performing SAPI reset.\r\n");
 393:main.c        ****     SAPI_Reset();
 394:main.c        **** }
 395:main.c        **** 
 396:main.c        **** void DumpMem(uint16 addr) {
 791              		.loc 1 396 0
 792              		.cfi_startproc
 793              		@ args = 0, pretend = 0, frame = 0
 794              		@ frame_needed = 0, uses_anonymous_args = 0
 795              	.LVL49:
 796 0000 F8B5     		push	{r3, r4, r5, r6, r7, lr}
 797              		.cfi_def_cfa_offset 24
 798              		.cfi_offset 3, -24
 799              		.cfi_offset 4, -20
 800              		.cfi_offset 5, -16
 801              		.cfi_offset 6, -12
 802              		.cfi_offset 7, -8
 803              		.cfi_offset 14, -4
 804              		.loc 1 396 0
 805 0002 0546     		mov	r5, r0
 397:main.c        ****     uint8 r;
 398:main.c        **** 
 399:main.c        ****     if(!Get_SAPI_Bus()) {
 806              		.loc 1 399 0
 807 0004 FFF7FEFF 		bl	Get_SAPI_Bus
 808              	.LVL50:
 809 0008 0028     		cmp	r0, #0
 810 000a 4BD0     		beq	.L62
 811              	.LVL51:
 812              	.LBB29:
 813              	.LBB30:
 400:main.c        ****         return;
 401:main.c        ****     }
 402:main.c        **** 
 403:main.c        ****     // SRAM under my control DATAOUT CTL OER WE MSEL
 404:main.c        ****     SRAM_Ctl_Write(0b01111);
 814              		.loc 1 404 0
 815 000c 0F20     		movs	r0, #15
 816 000e FFF7FEFF 		bl	SRAM_Ctl_Write
 817              	.LVL52:
 405:main.c        ****     
 406:main.c        ****     AddrL_Write(0);
 818              		.loc 1 406 0
 819 0012 0020     		movs	r0, #0
 820 0014 FFF7FEFF 		bl	AddrL_Write
 821              	.LVL53:
ARM GAS  C:\Users\Kiwi\AppData\Local\Temp\cckzbvMb.s 			page 23


 407:main.c        ****     AddrL_SetDriveMode(PIN_DM_STRONG);
 822              		.loc 1 407 0
 823 0018 0C20     		movs	r0, #12
 824 001a FFF7FEFF 		bl	AddrL_SetDriveMode
 825              	.LVL54:
 408:main.c        ****     AddrH_Write(0);
 826              		.loc 1 408 0
 827 001e 0020     		movs	r0, #0
 828 0020 FFF7FEFF 		bl	AddrH_Write
 829              	.LVL55:
 409:main.c        ****     AddrH_SetDriveMode(PIN_DM_STRONG);
 830              		.loc 1 409 0
 831 0024 0C20     		movs	r0, #12
 832 0026 FFF7FEFF 		bl	AddrH_SetDriveMode
 833              	.LVL56:
 410:main.c        ****     
 411:main.c        ****     // USBUART_printf("reading RAM\r\n");
 412:main.c        **** 
 413:main.c        ****     // OER + MSEL = furt SRAM data na sbernici
 414:main.c        ****     SRAM_Ctl_Write(0b01010);
 834              		.loc 1 414 0
 835 002a 0A20     		movs	r0, #10
 836 002c FFF7FEFF 		bl	SRAM_Ctl_Write
 837              	.LVL57:
 838              	.LBB31:
 415:main.c        **** 
 416:main.c        ****     for(uint32 a=addr; a<addr+256; a++) {
 839              		.loc 1 416 0
 840 0030 2C46     		mov	r4, r5
 841              	.LVL58:
 842              	.L64:
 843 0032 05F58073 		add	r3, r5, #256
 844 0036 9C42     		cmp	r4, r3
 845 0038 21D2     		bcs	.L68
 417:main.c        ****         AddrH_Write((a>>8)&0xFF);
 846              		.loc 1 417 0
 847 003a C4F30720 		ubfx	r0, r4, #8, #8
 848 003e FFF7FEFF 		bl	AddrH_Write
 849              	.LVL59:
 418:main.c        ****         AddrL_Write(a&0xFF);
 850              		.loc 1 418 0
 851 0042 E0B2     		uxtb	r0, r4
 852 0044 FFF7FEFF 		bl	AddrL_Write
 853              	.LVL60:
 419:main.c        ****         CyDelayUs(5);
 854              		.loc 1 419 0
 855 0048 0520     		movs	r0, #5
 856 004a FFF7FEFF 		bl	CyDelayUs
 857              	.LVL61:
 420:main.c        ****         r=Dta_Read();
 858              		.loc 1 420 0
 859 004e FFF7FEFF 		bl	Dta_Read
 860              	.LVL62:
 861 0052 0746     		mov	r7, r0
 862              	.LVL63:
 421:main.c        ****         CyDelayUs(5);
 863              		.loc 1 421 0
ARM GAS  C:\Users\Kiwi\AppData\Local\Temp\cckzbvMb.s 			page 24


 864 0054 0520     		movs	r0, #5
 865 0056 FFF7FEFF 		bl	CyDelayUs
 866              	.LVL64:
 422:main.c        ****         if((a&0x1F)==0x00)
 867              		.loc 1 422 0
 868 005a 14F01F06 		ands	r6, r4, #31
 869 005e 03D1     		bne	.L65
 423:main.c        ****             USBUART_printf("%04X: ", a);
 870              		.loc 1 423 0
 871 0060 2146     		mov	r1, r4
 872 0062 1148     		ldr	r0, .L69
 873 0064 FFF7FEFF 		bl	USBUART_printf
 874              	.LVL65:
 875              	.L65:
 424:main.c        ****         USBUART_printf("%02X", r);
 876              		.loc 1 424 0
 877 0068 3946     		mov	r1, r7
 878 006a 1048     		ldr	r0, .L69+4
 879 006c FFF7FEFF 		bl	USBUART_printf
 880              	.LVL66:
 425:main.c        ****         if((a&0x1F)==0x1F)
 881              		.loc 1 425 0
 882 0070 1F2E     		cmp	r6, #31
 883 0072 02D1     		bne	.L66
 426:main.c        ****             USBUART_printf("\r\n");
 884              		.loc 1 426 0
 885 0074 0E48     		ldr	r0, .L69+8
 886 0076 FFF7FEFF 		bl	USBUART_printf
 887              	.LVL67:
 888              	.L66:
 416:main.c        ****         AddrH_Write((a>>8)&0xFF);
 889              		.loc 1 416 0
 890 007a 0134     		adds	r4, r4, #1
 891              	.LVL68:
 892 007c D9E7     		b	.L64
 893              	.LVL69:
 894              	.L68:
 895              	.LBE31:
 427:main.c        ****     }
 428:main.c        **** 
 429:main.c        ****     // relase SRAM to SAPI - DATAOUT CTL OER WE MSEL
 430:main.c        ****     SRAM_Ctl_Write(0b00111);
 896              		.loc 1 430 0
 897 007e 0720     		movs	r0, #7
 898 0080 FFF7FEFF 		bl	SRAM_Ctl_Write
 899              	.LVL70:
 431:main.c        ****     
 432:main.c        ****     AddrL_Write(0);
 900              		.loc 1 432 0
 901 0084 0020     		movs	r0, #0
 902 0086 FFF7FEFF 		bl	AddrL_Write
 903              	.LVL71:
 433:main.c        ****     AddrL_SetDriveMode(PIN_DM_DIG_HIZ);
 904              		.loc 1 433 0
 905 008a 0220     		movs	r0, #2
 906 008c FFF7FEFF 		bl	AddrL_SetDriveMode
 907              	.LVL72:
ARM GAS  C:\Users\Kiwi\AppData\Local\Temp\cckzbvMb.s 			page 25


 434:main.c        ****     AddrH_Write(0);
 908              		.loc 1 434 0
 909 0090 0020     		movs	r0, #0
 910 0092 FFF7FEFF 		bl	AddrH_Write
 911              	.LVL73:
 435:main.c        ****     AddrH_SetDriveMode(PIN_DM_DIG_HIZ);
 912              		.loc 1 435 0
 913 0096 0220     		movs	r0, #2
 914 0098 FFF7FEFF 		bl	AddrH_SetDriveMode
 915              	.LVL74:
 916              	.LBE30:
 917              	.LBE29:
 436:main.c        ****     
 437:main.c        ****     Release_SAPI_Bus();
 438:main.c        **** }
 918              		.loc 1 438 0
 919 009c BDE8F840 		pop	{r3, r4, r5, r6, r7, lr}
 920              		.cfi_remember_state
 921              		.cfi_restore 14
 922              		.cfi_restore 7
 923              		.cfi_restore 6
 924              		.cfi_restore 5
 925              		.cfi_restore 4
 926              		.cfi_restore 3
 927              		.cfi_def_cfa_offset 0
 928              	.LVL75:
 929              	.LBB33:
 930              	.LBB32:
 437:main.c        **** }
 931              		.loc 1 437 0
 932 00a0 FFF7FEBF 		b	Release_SAPI_Bus
 933              	.LVL76:
 934              	.L62:
 935              		.cfi_restore_state
 936 00a4 F8BD     		pop	{r3, r4, r5, r6, r7, pc}
 937              	.L70:
 938 00a6 00BF     		.align	2
 939              	.L69:
 940 00a8 3C000000 		.word	.LC5
 941 00ac 43000000 		.word	.LC6
 942 00b0 48000000 		.word	.LC7
 943              	.LBE32:
 944              	.LBE33:
 945              		.cfi_endproc
 946              	.LFE78:
 947              		.size	DumpMem, .-DumpMem
 948              		.section	.text.RAM_check,"ax",%progbits
 949              		.align	1
 950              		.global	RAM_check
 951              		.thumb
 952              		.thumb_func
 953              		.type	RAM_check, %function
 954              	RAM_check:
 955              	.LFB77:
 262:main.c        ****     uint32 testfrom = 0x0000;
 956              		.loc 1 262 0
 957              		.cfi_startproc
ARM GAS  C:\Users\Kiwi\AppData\Local\Temp\cckzbvMb.s 			page 26


 958              		@ args = 0, pretend = 0, frame = 0
 959              		@ frame_needed = 0, uses_anonymous_args = 0
 960              	.LVL77:
 961 0000 2DE9F041 		push	{r4, r5, r6, r7, r8, lr}
 962              		.cfi_def_cfa_offset 24
 963              		.cfi_offset 4, -24
 964              		.cfi_offset 5, -20
 965              		.cfi_offset 6, -16
 966              		.cfi_offset 7, -12
 967              		.cfi_offset 8, -8
 968              		.cfi_offset 14, -4
 269:main.c        ****         return;
 969              		.loc 1 269 0
 970 0004 FFF7FEFF 		bl	Get_SAPI_Bus
 971              	.LVL78:
 972 0008 0028     		cmp	r0, #0
 973 000a 00F00381 		beq	.L71
 974              	.LBB40:
 975              	.LBB41:
 273:main.c        ****     AddrL_SetDriveMode(PIN_DM_STRONG);
 976              		.loc 1 273 0
 977 000e 0020     		movs	r0, #0
 978 0010 FFF7FEFF 		bl	AddrL_Write
 979              	.LVL79:
 274:main.c        ****     AddrH_Write(0);
 980              		.loc 1 274 0
 981 0014 0C20     		movs	r0, #12
 982 0016 FFF7FEFF 		bl	AddrL_SetDriveMode
 983              	.LVL80:
 275:main.c        ****     AddrH_SetDriveMode(PIN_DM_STRONG);
 984              		.loc 1 275 0
 985 001a 0020     		movs	r0, #0
 986 001c FFF7FEFF 		bl	AddrH_Write
 987              	.LVL81:
 276:main.c        ****     
 988              		.loc 1 276 0
 989 0020 0C20     		movs	r0, #12
 990 0022 FFF7FEFF 		bl	AddrH_SetDriveMode
 991              	.LVL82:
 279:main.c        ****     
 992              		.loc 1 279 0
 993 0026 0F20     		movs	r0, #15
 994 0028 FFF7FEFF 		bl	SRAM_Ctl_Write
 995              	.LVL83:
 281:main.c        ****     for(uint32 a=testfrom; a<testfrom+testlen; a=a+2) {
 996              		.loc 1 281 0
 997 002c 7A48     		ldr	r0, .L97
 998 002e FFF7FEFF 		bl	USBUART_printf
 999              	.LVL84:
 1000              	.LBB42:
 282:main.c        ****         AddrH_Write((a>>8)&0xFF);
 1001              		.loc 1 282 0
 1002 0032 0024     		movs	r4, #0
 1003              	.LVL85:
 1004              	.L74:
 283:main.c        ****         AddrL_Write(a&0xFF);
 1005              		.loc 1 283 0
ARM GAS  C:\Users\Kiwi\AppData\Local\Temp\cckzbvMb.s 			page 27


 1006 0034 C4F30726 		ubfx	r6, r4, #8, #8
 284:main.c        ****         BusDta_Write((a>>8)&0xFF);
 1007              		.loc 1 284 0
 1008 0038 E5B2     		uxtb	r5, r4
 283:main.c        ****         AddrL_Write(a&0xFF);
 1009              		.loc 1 283 0
 1010 003a 3046     		mov	r0, r6
 1011 003c FFF7FEFF 		bl	AddrH_Write
 1012              	.LVL86:
 284:main.c        ****         BusDta_Write((a>>8)&0xFF);
 1013              		.loc 1 284 0
 1014 0040 2846     		mov	r0, r5
 1015 0042 FFF7FEFF 		bl	AddrL_Write
 1016              	.LVL87:
 285:main.c        ****         // DATAOUT + WE + MSEL
 1017              		.loc 1 285 0
 1018 0046 3046     		mov	r0, r6
 1019 0048 FFF7FEFF 		bl	BusDta_Write
 1020              	.LVL88:
 287:main.c        ****         CyDelayUs(1);
 1021              		.loc 1 287 0
 1022 004c 1C20     		movs	r0, #28
 1023 004e FFF7FEFF 		bl	SRAM_Ctl_Write
 1024              	.LVL89:
 288:main.c        ****         SRAM_Ctl_Write(0b01111);
 1025              		.loc 1 288 0
 1026 0052 0120     		movs	r0, #1
 1027 0054 FFF7FEFF 		bl	CyDelayUs
 1028              	.LVL90:
 289:main.c        ****         CyDelayUs(1);
 1029              		.loc 1 289 0
 1030 0058 0F20     		movs	r0, #15
 1031 005a FFF7FEFF 		bl	SRAM_Ctl_Write
 1032              	.LVL91:
 290:main.c        ****         AddrL_Write((a&0xFF)+1);
 1033              		.loc 1 290 0
 1034 005e 0120     		movs	r0, #1
 1035 0060 FFF7FEFF 		bl	CyDelayUs
 1036              	.LVL92:
 291:main.c        ****         BusDta_Write(a);
 1037              		.loc 1 291 0
 1038 0064 681C     		adds	r0, r5, #1
 1039 0066 C0B2     		uxtb	r0, r0
 1040 0068 FFF7FEFF 		bl	AddrL_Write
 1041              	.LVL93:
 292:main.c        ****         SRAM_Ctl_Write(0b11100);
 1042              		.loc 1 292 0
 1043 006c 2846     		mov	r0, r5
 1044 006e FFF7FEFF 		bl	BusDta_Write
 1045              	.LVL94:
 293:main.c        ****         CyDelayUs(1);
 1046              		.loc 1 293 0
 1047 0072 1C20     		movs	r0, #28
 1048 0074 FFF7FEFF 		bl	SRAM_Ctl_Write
 1049              	.LVL95:
 294:main.c        ****         SRAM_Ctl_Write(0b01111);
 1050              		.loc 1 294 0
ARM GAS  C:\Users\Kiwi\AppData\Local\Temp\cckzbvMb.s 			page 28


 1051 0078 0120     		movs	r0, #1
 1052 007a FFF7FEFF 		bl	CyDelayUs
 1053              	.LVL96:
 295:main.c        ****         CyDelayUs(1);
 1054              		.loc 1 295 0
 1055 007e 0F20     		movs	r0, #15
 1056 0080 FFF7FEFF 		bl	SRAM_Ctl_Write
 1057              	.LVL97:
 282:main.c        ****         AddrH_Write((a>>8)&0xFF);
 1058              		.loc 1 282 0
 1059 0084 0234     		adds	r4, r4, #2
 1060              	.LVL98:
 296:main.c        ****     }
 1061              		.loc 1 296 0
 1062 0086 0120     		movs	r0, #1
 1063 0088 FFF7FEFF 		bl	CyDelayUs
 1064              	.LVL99:
 282:main.c        ****         AddrH_Write((a>>8)&0xFF);
 1065              		.loc 1 282 0
 1066 008c B4F5803F 		cmp	r4, #65536
 1067 0090 D0D1     		bne	.L74
 1068              	.LBE42:
 298:main.c        **** 
 1069              		.loc 1 298 0
 1070 0092 6248     		ldr	r0, .L97+4
 1071 0094 FFF7FEFF 		bl	USBUART_printf
 1072              	.LVL100:
 267:main.c        ****     
 1073              		.loc 1 267 0
 1074 0098 0025     		movs	r5, #0
 301:main.c        **** 
 1075              		.loc 1 301 0
 1076 009a 0A20     		movs	r0, #10
 1077 009c FFF7FEFF 		bl	SRAM_Ctl_Write
 1078              	.LVL101:
 1079              	.LBB43:
 303:main.c        ****         AddrH_Write((a>>8)&0xFF);
 1080              		.loc 1 303 0
 1081 00a0 2C46     		mov	r4, r5
 1082              	.LVL102:
 1083              	.L78:
 304:main.c        ****         AddrL_Write(a&0xFF);
 1084              		.loc 1 304 0
 1085 00a2 C4F30726 		ubfx	r6, r4, #8, #8
 1086 00a6 3046     		mov	r0, r6
 305:main.c        ****         CyDelayUs(2);
 1087              		.loc 1 305 0
 1088 00a8 E7B2     		uxtb	r7, r4
 304:main.c        ****         AddrL_Write(a&0xFF);
 1089              		.loc 1 304 0
 1090 00aa FFF7FEFF 		bl	AddrH_Write
 1091              	.LVL103:
 305:main.c        ****         CyDelayUs(2);
 1092              		.loc 1 305 0
 1093 00ae 3846     		mov	r0, r7
 1094 00b0 FFF7FEFF 		bl	AddrL_Write
 1095              	.LVL104:
ARM GAS  C:\Users\Kiwi\AppData\Local\Temp\cckzbvMb.s 			page 29


 306:main.c        ****         r=Dta_Read();
 1096              		.loc 1 306 0
 1097 00b4 0220     		movs	r0, #2
 1098 00b6 FFF7FEFF 		bl	CyDelayUs
 1099              	.LVL105:
 307:main.c        ****         CyDelayUs(1);
 1100              		.loc 1 307 0
 1101 00ba FFF7FEFF 		bl	Dta_Read
 1102              	.LVL106:
 1103 00be 8046     		mov	r8, r0
 1104              	.LVL107:
 308:main.c        ****         //USBUART_printf("%02X", r);
 1105              		.loc 1 308 0
 1106 00c0 0120     		movs	r0, #1
 1107 00c2 FFF7FEFF 		bl	CyDelayUs
 1108              	.LVL108:
 312:main.c        ****             s=(a&0xFF)-1;
 1109              		.loc 1 312 0
 1110 00c6 E207     		lsls	r2, r4, #31
 1111 00c8 44BF     		itt	mi
 1112 00ca 07F1FF36 		addmi	r6, r7, #-1
 1113 00ce F6B2     		uxtbmi	r6, r6
 1114              	.LVL109:
 317:main.c        ****             USBUART_printf("Error at %04X, expected %02X, but found %02X\r\n", a, s, r);
 1115              		.loc 1 317 0
 1116 00d0 B045     		cmp	r8, r6
 1117 00d2 18D0     		beq	.L76
 318:main.c        ****             err++;
 1118              		.loc 1 318 0
 1119 00d4 4346     		mov	r3, r8
 1120 00d6 3246     		mov	r2, r6
 1121 00d8 2146     		mov	r1, r4
 1122 00da 5148     		ldr	r0, .L97+8
 1123 00dc FFF7FEFF 		bl	USBUART_printf
 1124              	.LVL110:
 320:main.c        ****             if(!Get_SAPI_Bus()) {
 1125              		.loc 1 320 0
 1126 00e0 04F47F40 		and	r0, r4, #65280
 319:main.c        ****             DumpMem(a & 0xFF00);
 1127              		.loc 1 319 0
 1128 00e4 0135     		adds	r5, r5, #1
 1129              	.LVL111:
 320:main.c        ****             if(!Get_SAPI_Bus()) {
 1130              		.loc 1 320 0
 1131 00e6 FFF7FEFF 		bl	DumpMem
 1132              	.LVL112:
 321:main.c        ****                 return;
 1133              		.loc 1 321 0
 1134 00ea FFF7FEFF 		bl	Get_SAPI_Bus
 1135              	.LVL113:
 1136 00ee 0028     		cmp	r0, #0
 1137 00f0 00F09080 		beq	.L71
 324:main.c        ****             AddrH_SetDriveMode(PIN_DM_STRONG);
 1138              		.loc 1 324 0
 1139 00f4 0C20     		movs	r0, #12
 1140 00f6 FFF7FEFF 		bl	AddrL_SetDriveMode
 1141              	.LVL114:
ARM GAS  C:\Users\Kiwi\AppData\Local\Temp\cckzbvMb.s 			page 30


 325:main.c        ****             SRAM_Ctl_Write(0b01010);
 1142              		.loc 1 325 0
 1143 00fa 0C20     		movs	r0, #12
 1144 00fc FFF7FEFF 		bl	AddrH_SetDriveMode
 1145              	.LVL115:
 326:main.c        ****         }
 1146              		.loc 1 326 0
 1147 0100 0A20     		movs	r0, #10
 1148 0102 FFF7FEFF 		bl	SRAM_Ctl_Write
 1149              	.LVL116:
 1150              	.L76:
 303:main.c        ****         AddrH_Write((a>>8)&0xFF);
 1151              		.loc 1 303 0
 1152 0106 0134     		adds	r4, r4, #1
 1153              	.LVL117:
 1154 0108 B4F5803F 		cmp	r4, #65536
 1155 010c C9D1     		bne	.L78
 1156              	.LBE43:
 331:main.c        ****     
 1157              		.loc 1 331 0
 1158 010e 0F20     		movs	r0, #15
 1159 0110 FFF7FEFF 		bl	SRAM_Ctl_Write
 1160              	.LVL118:
 333:main.c        ****     for(uint32 a=testfrom; a<testfrom+testlen; a=a+2) {
 1161              		.loc 1 333 0
 1162 0114 4348     		ldr	r0, .L97+12
 1163 0116 FFF7FEFF 		bl	USBUART_printf
 1164              	.LVL119:
 1165              	.LBB44:
 334:main.c        ****         AddrH_Write((a>>8)&0xFF);
 1166              		.loc 1 334 0
 1167 011a 0024     		movs	r4, #0
 1168              	.LVL120:
 1169              	.L79:
 335:main.c        ****         AddrL_Write(a&0xFF);
 1170              		.loc 1 335 0
 1171 011c C4F30727 		ubfx	r7, r4, #8, #8
 336:main.c        ****         BusDta_Write(~((a>>8)&0xFF));
 1172              		.loc 1 336 0
 1173 0120 E6B2     		uxtb	r6, r4
 335:main.c        ****         AddrL_Write(a&0xFF);
 1174              		.loc 1 335 0
 1175 0122 3846     		mov	r0, r7
 1176 0124 FFF7FEFF 		bl	AddrH_Write
 1177              	.LVL121:
 336:main.c        ****         BusDta_Write(~((a>>8)&0xFF));
 1178              		.loc 1 336 0
 1179 0128 3046     		mov	r0, r6
 1180 012a FFF7FEFF 		bl	AddrL_Write
 1181              	.LVL122:
 337:main.c        ****         // DATAOUT + WE + MSEL
 1182              		.loc 1 337 0
 1183 012e F843     		mvns	r0, r7
 1184 0130 C0B2     		uxtb	r0, r0
 1185 0132 FFF7FEFF 		bl	BusDta_Write
 1186              	.LVL123:
 339:main.c        ****         CyDelayUs(1);
ARM GAS  C:\Users\Kiwi\AppData\Local\Temp\cckzbvMb.s 			page 31


 1187              		.loc 1 339 0
 1188 0136 1C20     		movs	r0, #28
 1189 0138 FFF7FEFF 		bl	SRAM_Ctl_Write
 1190              	.LVL124:
 340:main.c        ****         SRAM_Ctl_Write(0b01111);
 1191              		.loc 1 340 0
 1192 013c 0120     		movs	r0, #1
 1193 013e FFF7FEFF 		bl	CyDelayUs
 1194              	.LVL125:
 341:main.c        ****         CyDelayUs(1);
 1195              		.loc 1 341 0
 1196 0142 0F20     		movs	r0, #15
 1197 0144 FFF7FEFF 		bl	SRAM_Ctl_Write
 1198              	.LVL126:
 342:main.c        ****         AddrL_Write((a&0xFF)+1);
 1199              		.loc 1 342 0
 1200 0148 0120     		movs	r0, #1
 1201 014a FFF7FEFF 		bl	CyDelayUs
 1202              	.LVL127:
 343:main.c        ****         BusDta_Write(~a);
 1203              		.loc 1 343 0
 1204 014e 701C     		adds	r0, r6, #1
 1205 0150 C0B2     		uxtb	r0, r0
 1206 0152 FFF7FEFF 		bl	AddrL_Write
 1207              	.LVL128:
 344:main.c        ****         SRAM_Ctl_Write(0b11100);
 1208              		.loc 1 344 0
 1209 0156 F043     		mvns	r0, r6
 1210 0158 C0B2     		uxtb	r0, r0
 1211 015a FFF7FEFF 		bl	BusDta_Write
 1212              	.LVL129:
 345:main.c        ****         CyDelayUs(1);
 1213              		.loc 1 345 0
 1214 015e 1C20     		movs	r0, #28
 1215 0160 FFF7FEFF 		bl	SRAM_Ctl_Write
 1216              	.LVL130:
 346:main.c        ****         SRAM_Ctl_Write(0b01111);
 1217              		.loc 1 346 0
 1218 0164 0120     		movs	r0, #1
 1219 0166 FFF7FEFF 		bl	CyDelayUs
 1220              	.LVL131:
 347:main.c        ****         CyDelayUs(1);
 1221              		.loc 1 347 0
 1222 016a 0F20     		movs	r0, #15
 1223 016c FFF7FEFF 		bl	SRAM_Ctl_Write
 1224              	.LVL132:
 334:main.c        ****         AddrH_Write((a>>8)&0xFF);
 1225              		.loc 1 334 0
 1226 0170 0234     		adds	r4, r4, #2
 1227              	.LVL133:
 348:main.c        ****     }
 1228              		.loc 1 348 0
 1229 0172 0120     		movs	r0, #1
 1230 0174 FFF7FEFF 		bl	CyDelayUs
 1231              	.LVL134:
 334:main.c        ****         AddrH_Write((a>>8)&0xFF);
 1232              		.loc 1 334 0
ARM GAS  C:\Users\Kiwi\AppData\Local\Temp\cckzbvMb.s 			page 32


 1233 0178 B4F5803F 		cmp	r4, #65536
 1234 017c CED1     		bne	.L79
 1235              	.LBE44:
 350:main.c        **** 
 1236              		.loc 1 350 0
 1237 017e 2748     		ldr	r0, .L97+4
 1238 0180 FFF7FEFF 		bl	USBUART_printf
 1239              	.LVL135:
 353:main.c        **** 
 1240              		.loc 1 353 0
 1241 0184 0A20     		movs	r0, #10
 1242 0186 FFF7FEFF 		bl	SRAM_Ctl_Write
 1243              	.LVL136:
 1244              	.LBB45:
 355:main.c        ****         AddrH_Write((a>>8)&0xFF);
 1245              		.loc 1 355 0
 1246 018a 0026     		movs	r6, #0
 1247              	.LVL137:
 1248              	.L83:
 356:main.c        ****         AddrL_Write(a&0xFF);
 1249              		.loc 1 356 0
 1250 018c C6F30724 		ubfx	r4, r6, #8, #8
 1251 0190 2046     		mov	r0, r4
 357:main.c        ****         CyDelayUs(1);
 1252              		.loc 1 357 0
 1253 0192 F7B2     		uxtb	r7, r6
 356:main.c        ****         AddrL_Write(a&0xFF);
 1254              		.loc 1 356 0
 1255 0194 FFF7FEFF 		bl	AddrH_Write
 1256              	.LVL138:
 357:main.c        ****         CyDelayUs(1);
 1257              		.loc 1 357 0
 1258 0198 3846     		mov	r0, r7
 1259 019a FFF7FEFF 		bl	AddrL_Write
 1260              	.LVL139:
 358:main.c        ****         r=Dta_Read();
 1261              		.loc 1 358 0
 1262 019e 0120     		movs	r0, #1
 1263 01a0 FFF7FEFF 		bl	CyDelayUs
 1264              	.LVL140:
 359:main.c        ****         CyDelayUs(1);
 1265              		.loc 1 359 0
 1266 01a4 FFF7FEFF 		bl	Dta_Read
 1267              	.LVL141:
 1268 01a8 8046     		mov	r8, r0
 1269              	.LVL142:
 360:main.c        ****         //USBUART_printf("%02X", r);
 1270              		.loc 1 360 0
 1271 01aa 0120     		movs	r0, #1
 1272 01ac FFF7FEFF 		bl	CyDelayUs
 1273              	.LVL143:
 364:main.c        ****             s=~((a&0xFF)-1);
 1274              		.loc 1 364 0
 1275 01b0 F307     		lsls	r3, r6, #31
 367:main.c        ****         }
 1276              		.loc 1 367 0
 1277 01b2 54BF     		ite	pl
ARM GAS  C:\Users\Kiwi\AppData\Local\Temp\cckzbvMb.s 			page 33


 1278 01b4 E243     		mvnpl	r2, r4
 1279 01b6 7A42     		rsbmi	r2, r7, #0
 1280 01b8 D2B2     		uxtb	r2, r2
 1281              	.LVL144:
 369:main.c        ****             USBUART_printf("Error at %04X, expected %02X, but found %02X\r\n", a, s, r);
 1282              		.loc 1 369 0
 1283 01ba 9045     		cmp	r8, r2
 1284 01bc 05D0     		beq	.L82
 370:main.c        ****             err++;
 1285              		.loc 1 370 0
 1286 01be 4346     		mov	r3, r8
 1287 01c0 3146     		mov	r1, r6
 1288 01c2 1748     		ldr	r0, .L97+8
 1289 01c4 FFF7FEFF 		bl	USBUART_printf
 1290              	.LVL145:
 371:main.c        ****         }
 1291              		.loc 1 371 0
 1292 01c8 0135     		adds	r5, r5, #1
 1293              	.LVL146:
 1294              	.L82:
 355:main.c        ****         AddrH_Write((a>>8)&0xFF);
 1295              		.loc 1 355 0
 1296 01ca 0136     		adds	r6, r6, #1
 1297              	.LVL147:
 1298 01cc B6F5803F 		cmp	r6, #65536
 1299 01d0 DCD1     		bne	.L83
 1300              	.LBE45:
 376:main.c        ****     
 1301              		.loc 1 376 0
 1302 01d2 0720     		movs	r0, #7
 1303 01d4 FFF7FEFF 		bl	SRAM_Ctl_Write
 1304              	.LVL148:
 378:main.c        ****     AddrL_SetDriveMode(PIN_DM_DIG_HIZ);
 1305              		.loc 1 378 0
 1306 01d8 0020     		movs	r0, #0
 1307 01da FFF7FEFF 		bl	AddrL_Write
 1308              	.LVL149:
 379:main.c        ****     AddrH_Write(0);
 1309              		.loc 1 379 0
 1310 01de 0220     		movs	r0, #2
 1311 01e0 FFF7FEFF 		bl	AddrL_SetDriveMode
 1312              	.LVL150:
 380:main.c        ****     AddrH_SetDriveMode(PIN_DM_DIG_HIZ);
 1313              		.loc 1 380 0
 1314 01e4 0020     		movs	r0, #0
 1315 01e6 FFF7FEFF 		bl	AddrH_Write
 1316              	.LVL151:
 381:main.c        ****     //Dta_Write(0xFF);
 1317              		.loc 1 381 0
 1318 01ea 0220     		movs	r0, #2
 1319 01ec FFF7FEFF 		bl	AddrH_SetDriveMode
 1320              	.LVL152:
 385:main.c        ****         USBUART_printf("%d errors found :-(\r\n", err);
 1321              		.loc 1 385 0
 1322 01f0 25B1     		cbz	r5, .L84
 386:main.c        ****     } else {
 1323              		.loc 1 386 0
ARM GAS  C:\Users\Kiwi\AppData\Local\Temp\cckzbvMb.s 			page 34


 1324 01f2 2946     		mov	r1, r5
 1325 01f4 0C48     		ldr	r0, .L97+16
 1326 01f6 FFF7FEFF 		bl	USBUART_printf
 1327              	.LVL153:
 1328 01fa 02E0     		b	.L85
 1329              	.L84:
 388:main.c        ****     }
 1330              		.loc 1 388 0
 1331 01fc 0B48     		ldr	r0, .L97+20
 1332 01fe FFF7FEFF 		bl	USBUART_printf
 1333              	.LVL154:
 1334              	.L85:
 390:main.c        **** 
 1335              		.loc 1 390 0
 1336 0202 FFF7FEFF 		bl	Release_SAPI_Bus
 1337              	.LVL155:
 392:main.c        ****     SAPI_Reset();
 1338              		.loc 1 392 0
 1339 0206 0A48     		ldr	r0, .L97+24
 1340 0208 FFF7FEFF 		bl	USBUART_printf
 1341              	.LVL156:
 1342              	.LBE41:
 1343              	.LBE40:
 394:main.c        **** 
 1344              		.loc 1 394 0
 1345 020c BDE8F041 		pop	{r4, r5, r6, r7, r8, lr}
 1346              		.cfi_remember_state
 1347              		.cfi_restore 14
 1348              		.cfi_restore 8
 1349              		.cfi_restore 7
 1350              		.cfi_restore 6
 1351              		.cfi_restore 5
 1352              		.cfi_restore 4
 1353              		.cfi_def_cfa_offset 0
 1354              	.LVL157:
 1355              	.LBB47:
 1356              	.LBB46:
 393:main.c        **** }
 1357              		.loc 1 393 0
 1358 0210 FFF7FEBF 		b	SAPI_Reset
 1359              	.LVL158:
 1360              	.L71:
 1361              		.cfi_restore_state
 1362 0214 BDE8F081 		pop	{r4, r5, r6, r7, r8, pc}
 1363              	.L98:
 1364              		.align	2
 1365              	.L97:
 1366 0218 4B000000 		.word	.LC8
 1367 021c 67000000 		.word	.LC9
 1368 0220 77000000 		.word	.LC10
 1369 0224 A6000000 		.word	.LC11
 1370 0228 CB000000 		.word	.LC12
 1371 022c E1000000 		.word	.LC13
 1372 0230 F7000000 		.word	.LC14
 1373              	.LBE46:
 1374              	.LBE47:
 1375              		.cfi_endproc
ARM GAS  C:\Users\Kiwi\AppData\Local\Temp\cckzbvMb.s 			page 35


 1376              	.LFE77:
 1377              		.size	RAM_check, .-RAM_check
 1378              		.section	.text.TestVideo,"ax",%progbits
 1379              		.align	1
 1380              		.global	TestVideo
 1381              		.thumb
 1382              		.thumb_func
 1383              		.type	TestVideo, %function
 1384              	TestVideo:
 1385              	.LFB79:
 439:main.c        **** 
 440:main.c        **** void TestVideo() {
 1386              		.loc 1 440 0
 1387              		.cfi_startproc
 1388              		@ args = 0, pretend = 0, frame = 0
 1389              		@ frame_needed = 0, uses_anonymous_args = 0
 1390              	.LVL159:
 1391 0000 70B5     		push	{r4, r5, r6, lr}
 1392              		.cfi_def_cfa_offset 16
 1393              		.cfi_offset 4, -16
 1394              		.cfi_offset 5, -12
 1395              		.cfi_offset 6, -8
 1396              		.cfi_offset 14, -4
 441:main.c        ****     uint8 r;
 442:main.c        ****     uint16 err=0;
 443:main.c        **** 
 444:main.c        ****     if(!Get_SAPI_Bus()) {
 1397              		.loc 1 444 0
 1398 0002 FFF7FEFF 		bl	Get_SAPI_Bus
 1399              	.LVL160:
 1400 0006 0028     		cmp	r0, #0
 1401 0008 00F0D580 		beq	.L99
 1402              	.LBB51:
 1403              	.LBB52:
 445:main.c        ****         return;
 446:main.c        ****     }
 447:main.c        **** 
 448:main.c        ****     AddrL_Write(0);
 1404              		.loc 1 448 0
 1405 000c 0020     		movs	r0, #0
 1406 000e FFF7FEFF 		bl	AddrL_Write
 1407              	.LVL161:
 449:main.c        ****     AddrL_SetDriveMode(PIN_DM_STRONG);
 1408              		.loc 1 449 0
 1409 0012 0C20     		movs	r0, #12
 1410 0014 FFF7FEFF 		bl	AddrL_SetDriveMode
 1411              	.LVL162:
 450:main.c        ****     AddrH_Write(0);
 1412              		.loc 1 450 0
 1413 0018 0020     		movs	r0, #0
 1414 001a FFF7FEFF 		bl	AddrH_Write
 1415              	.LVL163:
 451:main.c        ****     AddrH_SetDriveMode(PIN_DM_STRONG);
 1416              		.loc 1 451 0
 1417 001e 0C20     		movs	r0, #12
 1418 0020 FFF7FEFF 		bl	AddrH_SetDriveMode
 1419              	.LVL164:
ARM GAS  C:\Users\Kiwi\AppData\Local\Temp\cckzbvMb.s 			page 36


 452:main.c        ****     MW_Write(1);
 1420              		.loc 1 452 0
 1421 0024 0120     		movs	r0, #1
 1422 0026 FFF7FEFF 		bl	MW_Write
 1423              	.LVL165:
 453:main.c        ****     MW_SetDriveMode(PIN_DM_STRONG);
 1424              		.loc 1 453 0
 1425 002a 0C20     		movs	r0, #12
 1426 002c FFF7FEFF 		bl	MW_SetDriveMode
 1427              	.LVL166:
 454:main.c        ****     MR_Write(1);
 1428              		.loc 1 454 0
 1429 0030 0120     		movs	r0, #1
 1430 0032 FFF7FEFF 		bl	MR_Write
 1431              	.LVL167:
 455:main.c        ****     MR_SetDriveMode(PIN_DM_STRONG);
 1432              		.loc 1 455 0
 1433 0036 0C20     		movs	r0, #12
 1434 0038 FFF7FEFF 		bl	MR_SetDriveMode
 1435              	.LVL168:
 456:main.c        ****     
 457:main.c        ****     USBUART_printf("Checking AND-1Z video RAM 0xF800-0xFCFF\r\n");
 1436              		.loc 1 457 0
 1437 003c 5E48     		ldr	r0, .L114
 1438 003e FFF7FEFF 		bl	USBUART_printf
 1439              	.LVL169:
 442:main.c        **** 
 1440              		.loc 1 442 0
 1441 0042 0024     		movs	r4, #0
 1442              	.LBB53:
 458:main.c        **** 
 459:main.c        ****     /*
 460:main.c        ****     for(uint32 a=0xF000; a<0xF000+256; a++) {
 461:main.c        ****         AddrH_Write((a>>8)&0xFF);
 462:main.c        ****         AddrL_Write(a&0xFF);
 463:main.c        ****         MR_Write(0);
 464:main.c        ****         CyDelayUs(5);
 465:main.c        ****         r=Dta_Read();
 466:main.c        ****         CyDelayUs(5);
 467:main.c        ****         if((a&0x1F)==0x00)
 468:main.c        ****             USBUART_printf("%04X: ", a);
 469:main.c        ****         USBUART_printf("%02X", r);
 470:main.c        ****         if((a&0x1F)==0x1F)
 471:main.c        ****             USBUART_printf("\r\n");
 472:main.c        ****     }
 473:main.c        ****     */
 474:main.c        ****     for(uint32 a=0xF800; a<0xF800+1280; a++) {
 1443              		.loc 1 474 0
 1444 0044 4FF47845 		mov	r5, #63488
 1445              	.LVL170:
 1446              	.L103:
 475:main.c        ****         AddrH_Write((a>>8)&0xFF);
 1447              		.loc 1 475 0
 1448 0048 C5F30720 		ubfx	r0, r5, #8, #8
 1449 004c FFF7FEFF 		bl	AddrH_Write
 1450              	.LVL171:
 476:main.c        ****         AddrL_Write(a&0xFF);
ARM GAS  C:\Users\Kiwi\AppData\Local\Temp\cckzbvMb.s 			page 37


 1451              		.loc 1 476 0
 1452 0050 E8B2     		uxtb	r0, r5
 1453 0052 FFF7FEFF 		bl	AddrL_Write
 1454              	.LVL172:
 477:main.c        ****         // read current value
 478:main.c        ****         MR_Write(0);
 1455              		.loc 1 478 0
 1456 0056 0020     		movs	r0, #0
 1457 0058 FFF7FEFF 		bl	MR_Write
 1458              	.LVL173:
 479:main.c        ****         CyDelayUs(5);
 1459              		.loc 1 479 0
 1460 005c 0520     		movs	r0, #5
 1461 005e FFF7FEFF 		bl	CyDelayUs
 1462              	.LVL174:
 480:main.c        ****         r=Dta_Read();
 1463              		.loc 1 480 0
 1464 0062 FFF7FEFF 		bl	Dta_Read
 1465              	.LVL175:
 1466 0066 0646     		mov	r6, r0
 1467              	.LVL176:
 481:main.c        ****         MR_Write(1);
 1468              		.loc 1 481 0
 1469 0068 0120     		movs	r0, #1
 1470 006a FFF7FEFF 		bl	MR_Write
 1471              	.LVL177:
 482:main.c        ****         CyDelayUs(5);
 1472              		.loc 1 482 0
 1473 006e 0520     		movs	r0, #5
 1474 0070 FFF7FEFF 		bl	CyDelayUs
 1475              	.LVL178:
 483:main.c        ****         
 484:main.c        ****         // write 0xA5
 485:main.c        ****         BusDta_Write(0xA5);
 1476              		.loc 1 485 0
 1477 0074 A520     		movs	r0, #165
 1478 0076 FFF7FEFF 		bl	BusDta_Write
 1479              	.LVL179:
 486:main.c        ****         // BusData to bus (DATAOUT CTL OER WE MSEL)
 487:main.c        ****         SRAM_Ctl_Write(0b10111);
 1480              		.loc 1 487 0
 1481 007a 1720     		movs	r0, #23
 1482 007c FFF7FEFF 		bl	SRAM_Ctl_Write
 1483              	.LVL180:
 488:main.c        ****         MW_Write(0);
 1484              		.loc 1 488 0
 1485 0080 0020     		movs	r0, #0
 1486 0082 FFF7FEFF 		bl	MW_Write
 1487              	.LVL181:
 489:main.c        ****         CyDelayUs(5);
 1488              		.loc 1 489 0
 1489 0086 0520     		movs	r0, #5
 1490 0088 FFF7FEFF 		bl	CyDelayUs
 1491              	.LVL182:
 490:main.c        ****         MW_Write(1);
 1492              		.loc 1 490 0
 1493 008c 0120     		movs	r0, #1
ARM GAS  C:\Users\Kiwi\AppData\Local\Temp\cckzbvMb.s 			page 38


 1494 008e FFF7FEFF 		bl	MW_Write
 1495              	.LVL183:
 491:main.c        ****         SRAM_Ctl_Write(0b00111);
 1496              		.loc 1 491 0
 1497 0092 0720     		movs	r0, #7
 1498 0094 FFF7FEFF 		bl	SRAM_Ctl_Write
 1499              	.LVL184:
 492:main.c        ****         CyDelayUs(5);
 1500              		.loc 1 492 0
 1501 0098 0520     		movs	r0, #5
 1502 009a FFF7FEFF 		bl	CyDelayUs
 1503              	.LVL185:
 493:main.c        ****         // check 0xA5
 494:main.c        ****         MR_Write(0);
 1504              		.loc 1 494 0
 1505 009e 0020     		movs	r0, #0
 1506 00a0 FFF7FEFF 		bl	MR_Write
 1507              	.LVL186:
 495:main.c        ****         CyDelayUs(5);
 1508              		.loc 1 495 0
 1509 00a4 0520     		movs	r0, #5
 1510 00a6 FFF7FEFF 		bl	CyDelayUs
 1511              	.LVL187:
 496:main.c        ****         if(Dta_Read()!=0xA5) {
 1512              		.loc 1 496 0
 1513 00aa FFF7FEFF 		bl	Dta_Read
 1514              	.LVL188:
 1515 00ae A528     		cmp	r0, #165
 1516 00b0 09D0     		beq	.L101
 497:main.c        ****             USBUART_printf("Error at %04X, expected %02X, found %02X\r\n", a, 0xA5, Dta_Read());
 1517              		.loc 1 497 0
 1518 00b2 FFF7FEFF 		bl	Dta_Read
 1519              	.LVL189:
 1520 00b6 A522     		movs	r2, #165
 1521 00b8 0346     		mov	r3, r0
 1522 00ba 2946     		mov	r1, r5
 1523 00bc 3F48     		ldr	r0, .L114+4
 1524 00be FFF7FEFF 		bl	USBUART_printf
 1525              	.LVL190:
 498:main.c        ****             err++;
 1526              		.loc 1 498 0
 1527 00c2 0134     		adds	r4, r4, #1
 1528              	.LVL191:
 1529 00c4 A4B2     		uxth	r4, r4
 1530              	.LVL192:
 1531              	.L101:
 499:main.c        ****         }
 500:main.c        ****         MR_Write(1);
 1532              		.loc 1 500 0
 1533 00c6 0120     		movs	r0, #1
 1534 00c8 FFF7FEFF 		bl	MR_Write
 1535              	.LVL193:
 501:main.c        ****         CyDelayUs(5);
 1536              		.loc 1 501 0
 1537 00cc 0520     		movs	r0, #5
 1538 00ce FFF7FEFF 		bl	CyDelayUs
 1539              	.LVL194:
ARM GAS  C:\Users\Kiwi\AppData\Local\Temp\cckzbvMb.s 			page 39


 502:main.c        ****         
 503:main.c        ****         // write 0x5A
 504:main.c        ****         BusDta_Write(0x5A);
 1540              		.loc 1 504 0
 1541 00d2 5A20     		movs	r0, #90
 1542 00d4 FFF7FEFF 		bl	BusDta_Write
 1543              	.LVL195:
 505:main.c        ****         // BusData to bus (DATAOUT CTL OER WE MSEL)
 506:main.c        ****         SRAM_Ctl_Write(0b10111);
 1544              		.loc 1 506 0
 1545 00d8 1720     		movs	r0, #23
 1546 00da FFF7FEFF 		bl	SRAM_Ctl_Write
 1547              	.LVL196:
 507:main.c        ****         MW_Write(0);
 1548              		.loc 1 507 0
 1549 00de 0020     		movs	r0, #0
 1550 00e0 FFF7FEFF 		bl	MW_Write
 1551              	.LVL197:
 508:main.c        ****         CyDelayUs(5);
 1552              		.loc 1 508 0
 1553 00e4 0520     		movs	r0, #5
 1554 00e6 FFF7FEFF 		bl	CyDelayUs
 1555              	.LVL198:
 509:main.c        ****         MW_Write(1);
 1556              		.loc 1 509 0
 1557 00ea 0120     		movs	r0, #1
 1558 00ec FFF7FEFF 		bl	MW_Write
 1559              	.LVL199:
 510:main.c        ****         SRAM_Ctl_Write(0b00111);
 1560              		.loc 1 510 0
 1561 00f0 0720     		movs	r0, #7
 1562 00f2 FFF7FEFF 		bl	SRAM_Ctl_Write
 1563              	.LVL200:
 511:main.c        ****         CyDelayUs(5);
 1564              		.loc 1 511 0
 1565 00f6 0520     		movs	r0, #5
 1566 00f8 FFF7FEFF 		bl	CyDelayUs
 1567              	.LVL201:
 512:main.c        ****         // check 0x5A
 513:main.c        ****         MR_Write(0);
 1568              		.loc 1 513 0
 1569 00fc 0020     		movs	r0, #0
 1570 00fe FFF7FEFF 		bl	MR_Write
 1571              	.LVL202:
 514:main.c        ****         CyDelayUs(5);
 1572              		.loc 1 514 0
 1573 0102 0520     		movs	r0, #5
 1574 0104 FFF7FEFF 		bl	CyDelayUs
 1575              	.LVL203:
 515:main.c        ****         if(Dta_Read()!=0x5A) {
 1576              		.loc 1 515 0
 1577 0108 FFF7FEFF 		bl	Dta_Read
 1578              	.LVL204:
 1579 010c 5A28     		cmp	r0, #90
 1580 010e 09D0     		beq	.L102
 516:main.c        ****             USBUART_printf("Error at %04X, expected %02X, found %02X\r\n", a, 0x5A, Dta_Read());
 1581              		.loc 1 516 0
ARM GAS  C:\Users\Kiwi\AppData\Local\Temp\cckzbvMb.s 			page 40


 1582 0110 FFF7FEFF 		bl	Dta_Read
 1583              	.LVL205:
 1584 0114 5A22     		movs	r2, #90
 1585 0116 0346     		mov	r3, r0
 1586 0118 2946     		mov	r1, r5
 1587 011a 2848     		ldr	r0, .L114+4
 1588 011c FFF7FEFF 		bl	USBUART_printf
 1589              	.LVL206:
 517:main.c        ****             err++;
 1590              		.loc 1 517 0
 1591 0120 0134     		adds	r4, r4, #1
 1592              	.LVL207:
 1593 0122 A4B2     		uxth	r4, r4
 1594              	.LVL208:
 1595              	.L102:
 518:main.c        ****         }
 519:main.c        ****         MR_Write(1);
 1596              		.loc 1 519 0
 1597 0124 0120     		movs	r0, #1
 1598 0126 FFF7FEFF 		bl	MR_Write
 1599              	.LVL209:
 520:main.c        ****         CyDelayUs(5);
 1600              		.loc 1 520 0
 1601 012a 0520     		movs	r0, #5
 1602 012c FFF7FEFF 		bl	CyDelayUs
 1603              	.LVL210:
 521:main.c        **** 
 522:main.c        ****         CyDelay(1);
 1604              		.loc 1 522 0
 1605 0130 0120     		movs	r0, #1
 1606 0132 FFF7FEFF 		bl	CyDelay
 1607              	.LVL211:
 523:main.c        ****         
 524:main.c        ****         // write back original value
 525:main.c        ****         BusDta_Write(r);
 1608              		.loc 1 525 0
 1609 0136 3046     		mov	r0, r6
 1610 0138 FFF7FEFF 		bl	BusDta_Write
 1611              	.LVL212:
 526:main.c        ****         // BusData to bus (DATAOUT CTL OER WE MSEL)
 527:main.c        ****         SRAM_Ctl_Write(0b10111);
 1612              		.loc 1 527 0
 1613 013c 1720     		movs	r0, #23
 1614 013e FFF7FEFF 		bl	SRAM_Ctl_Write
 1615              	.LVL213:
 528:main.c        ****         MW_Write(0);
 1616              		.loc 1 528 0
 1617 0142 0020     		movs	r0, #0
 1618 0144 FFF7FEFF 		bl	MW_Write
 1619              	.LVL214:
 529:main.c        ****         CyDelayUs(5);
 1620              		.loc 1 529 0
 1621 0148 0520     		movs	r0, #5
 1622 014a FFF7FEFF 		bl	CyDelayUs
 1623              	.LVL215:
 530:main.c        ****         MW_Write(1);
 1624              		.loc 1 530 0
ARM GAS  C:\Users\Kiwi\AppData\Local\Temp\cckzbvMb.s 			page 41


 1625 014e 0120     		movs	r0, #1
 1626 0150 FFF7FEFF 		bl	MW_Write
 1627              	.LVL216:
 531:main.c        ****         SRAM_Ctl_Write(0b00111);
 1628              		.loc 1 531 0
 1629 0154 0720     		movs	r0, #7
 1630 0156 FFF7FEFF 		bl	SRAM_Ctl_Write
 1631              	.LVL217:
 474:main.c        ****         AddrH_Write((a>>8)&0xFF);
 1632              		.loc 1 474 0
 1633 015a 0135     		adds	r5, r5, #1
 1634              	.LVL218:
 532:main.c        ****         CyDelayUs(5);
 1635              		.loc 1 532 0
 1636 015c 0520     		movs	r0, #5
 1637 015e FFF7FEFF 		bl	CyDelayUs
 1638              	.LVL219:
 474:main.c        ****         AddrH_Write((a>>8)&0xFF);
 1639              		.loc 1 474 0
 1640 0162 B5F57D4F 		cmp	r5, #64768
 1641 0166 7FF46FAF 		bne	.L103
 1642              	.LBE53:
 533:main.c        ****     }
 534:main.c        ****     
 535:main.c        ****     SRAM_Ctl_Write(0b00111);
 1643              		.loc 1 535 0
 1644 016a 0720     		movs	r0, #7
 1645 016c FFF7FEFF 		bl	SRAM_Ctl_Write
 1646              	.LVL220:
 536:main.c        ****     AddrL_Write(0);
 1647              		.loc 1 536 0
 1648 0170 0020     		movs	r0, #0
 1649 0172 FFF7FEFF 		bl	AddrL_Write
 1650              	.LVL221:
 537:main.c        ****     AddrL_SetDriveMode(PIN_DM_DIG_HIZ);
 1651              		.loc 1 537 0
 1652 0176 0220     		movs	r0, #2
 1653 0178 FFF7FEFF 		bl	AddrL_SetDriveMode
 1654              	.LVL222:
 538:main.c        ****     AddrH_Write(0);
 1655              		.loc 1 538 0
 1656 017c 0020     		movs	r0, #0
 1657 017e FFF7FEFF 		bl	AddrH_Write
 1658              	.LVL223:
 539:main.c        ****     AddrH_SetDriveMode(PIN_DM_DIG_HIZ);
 1659              		.loc 1 539 0
 1660 0182 0220     		movs	r0, #2
 1661 0184 FFF7FEFF 		bl	AddrH_SetDriveMode
 1662              	.LVL224:
 540:main.c        ****     MR_Write(1);
 1663              		.loc 1 540 0
 1664 0188 0120     		movs	r0, #1
 1665 018a FFF7FEFF 		bl	MR_Write
 1666              	.LVL225:
 541:main.c        ****     MR_SetDriveMode(PIN_DM_DIG_HIZ);
 1667              		.loc 1 541 0
 1668 018e 0220     		movs	r0, #2
ARM GAS  C:\Users\Kiwi\AppData\Local\Temp\cckzbvMb.s 			page 42


 1669 0190 FFF7FEFF 		bl	MR_SetDriveMode
 1670              	.LVL226:
 542:main.c        ****     MW_Write(1);
 1671              		.loc 1 542 0
 1672 0194 0120     		movs	r0, #1
 1673 0196 FFF7FEFF 		bl	MW_Write
 1674              	.LVL227:
 543:main.c        ****     MW_SetDriveMode(PIN_DM_DIG_HIZ);
 1675              		.loc 1 543 0
 1676 019a 0220     		movs	r0, #2
 1677 019c FFF7FEFF 		bl	MW_SetDriveMode
 1678              	.LVL228:
 544:main.c        ****     
 545:main.c        ****     if(err==0) {
 546:main.c        ****         USBUART_printf("No erros found :-)\r\n", err);
 1679              		.loc 1 546 0
 1680 01a0 2146     		mov	r1, r4
 545:main.c        ****         USBUART_printf("No erros found :-)\r\n", err);
 1681              		.loc 1 545 0
 1682 01a2 0CB9     		cbnz	r4, .L104
 1683              		.loc 1 546 0
 1684 01a4 0648     		ldr	r0, .L114+8
 1685 01a6 00E0     		b	.L113
 1686              	.L104:
 547:main.c        ****     } else {
 548:main.c        ****         USBUART_printf("Found %d errors :-(\r\n", err);
 1687              		.loc 1 548 0
 1688 01a8 0648     		ldr	r0, .L114+12
 1689              	.L113:
 1690 01aa FFF7FEFF 		bl	USBUART_printf
 1691              	.LVL229:
 1692              	.LBE52:
 1693              	.LBE51:
 549:main.c        ****     }
 550:main.c        ****     
 551:main.c        ****     Release_SAPI_Bus();
 552:main.c        **** }
 1694              		.loc 1 552 0
 1695 01ae BDE87040 		pop	{r4, r5, r6, lr}
 1696              		.cfi_remember_state
 1697              		.cfi_restore 14
 1698              		.cfi_restore 6
 1699              		.cfi_restore 5
 1700              		.cfi_restore 4
 1701              		.cfi_def_cfa_offset 0
 1702              	.LVL230:
 1703              	.LBB55:
 1704              	.LBB54:
 551:main.c        **** }
 1705              		.loc 1 551 0
 1706 01b2 FFF7FEBF 		b	Release_SAPI_Bus
 1707              	.LVL231:
 1708              	.L99:
 1709              		.cfi_restore_state
 1710 01b6 70BD     		pop	{r4, r5, r6, pc}
 1711              	.L115:
 1712              		.align	2
ARM GAS  C:\Users\Kiwi\AppData\Local\Temp\cckzbvMb.s 			page 43


 1713              	.L114:
 1714 01b8 38010000 		.word	.LC15
 1715 01bc 62010000 		.word	.LC16
 1716 01c0 8D010000 		.word	.LC17
 1717 01c4 A2010000 		.word	.LC18
 1718              	.LBE54:
 1719              	.LBE55:
 1720              		.cfi_endproc
 1721              	.LFE79:
 1722              		.size	TestVideo, .-TestVideo
 1723              		.section	.text.WriteIO8,"ax",%progbits
 1724              		.align	1
 1725              		.global	WriteIO8
 1726              		.thumb
 1727              		.thumb_func
 1728              		.type	WriteIO8, %function
 1729              	WriteIO8:
 1730              	.LFB80:
 553:main.c        **** 
 554:main.c        **** void WriteIO8(uint8 port, uint8 value) {
 1731              		.loc 1 554 0
 1732              		.cfi_startproc
 1733              		@ args = 0, pretend = 0, frame = 0
 1734              		@ frame_needed = 0, uses_anonymous_args = 0
 1735              	.LVL232:
 1736 0000 10B5     		push	{r4, lr}
 1737              		.cfi_def_cfa_offset 8
 1738              		.cfi_offset 4, -8
 1739              		.cfi_offset 14, -4
 1740              		.loc 1 554 0
 1741 0002 0C46     		mov	r4, r1
 555:main.c        ****     // do not call this without reserving bus first
 556:main.c        ****     AddrL_Write(port);
 1742              		.loc 1 556 0
 1743 0004 FFF7FEFF 		bl	AddrL_Write
 1744              	.LVL233:
 557:main.c        ****     BusDta_Write(value);
 1745              		.loc 1 557 0
 1746 0008 2046     		mov	r0, r4
 1747 000a FFF7FEFF 		bl	BusDta_Write
 1748              	.LVL234:
 558:main.c        ****     SRAM_Ctl_Write(0b10111);
 1749              		.loc 1 558 0
 1750 000e 1720     		movs	r0, #23
 1751 0010 FFF7FEFF 		bl	SRAM_Ctl_Write
 1752              	.LVL235:
 559:main.c        ****     //CyDelayUs(5);
 560:main.c        ****     IOW_Write(0);
 1753              		.loc 1 560 0
 1754 0014 0020     		movs	r0, #0
 1755 0016 FFF7FEFF 		bl	IOW_Write
 1756              	.LVL236:
 561:main.c        ****     CyDelayUs(4);
 1757              		.loc 1 561 0
 1758 001a 0420     		movs	r0, #4
 1759 001c FFF7FEFF 		bl	CyDelayUs
 1760              	.LVL237:
ARM GAS  C:\Users\Kiwi\AppData\Local\Temp\cckzbvMb.s 			page 44


 562:main.c        ****     IOW_Write(1);
 1761              		.loc 1 562 0
 1762 0020 0120     		movs	r0, #1
 1763 0022 FFF7FEFF 		bl	IOW_Write
 1764              	.LVL238:
 563:main.c        ****     SRAM_Ctl_Write(0b00111);
 564:main.c        ****     //CyDelayUs(5);
 565:main.c        **** }
 1765              		.loc 1 565 0
 1766 0026 BDE81040 		pop	{r4, lr}
 1767              		.cfi_restore 14
 1768              		.cfi_restore 4
 1769              		.cfi_def_cfa_offset 0
 563:main.c        ****     SRAM_Ctl_Write(0b00111);
 1770              		.loc 1 563 0
 1771 002a 0720     		movs	r0, #7
 1772 002c FFF7FEBF 		b	SRAM_Ctl_Write
 1773              	.LVL239:
 1774              		.cfi_endproc
 1775              	.LFE80:
 1776              		.size	WriteIO8, .-WriteIO8
 1777              		.section	.text.ReadIO8,"ax",%progbits
 1778              		.align	1
 1779              		.global	ReadIO8
 1780              		.thumb
 1781              		.thumb_func
 1782              		.type	ReadIO8, %function
 1783              	ReadIO8:
 1784              	.LFB81:
 566:main.c        **** 
 567:main.c        **** uint8 ReadIO8(uint8 port) {
 1785              		.loc 1 567 0
 1786              		.cfi_startproc
 1787              		@ args = 0, pretend = 0, frame = 0
 1788              		@ frame_needed = 0, uses_anonymous_args = 0
 1789              	.LVL240:
 1790 0000 10B5     		push	{r4, lr}
 1791              		.cfi_def_cfa_offset 8
 1792              		.cfi_offset 4, -8
 1793              		.cfi_offset 14, -4
 568:main.c        ****     // do not call this without reserving bus first
 569:main.c        ****     uint8 res;
 570:main.c        ****     
 571:main.c        ****     AddrL_Write(port);
 1794              		.loc 1 571 0
 1795 0002 FFF7FEFF 		bl	AddrL_Write
 1796              	.LVL241:
 572:main.c        ****     //CyDelayUs(5);
 573:main.c        ****     IOR_Write(0);
 1797              		.loc 1 573 0
 1798 0006 0020     		movs	r0, #0
 1799 0008 FFF7FEFF 		bl	IOR_Write
 1800              	.LVL242:
 574:main.c        ****     CyDelayUs(4);
 1801              		.loc 1 574 0
 1802 000c 0420     		movs	r0, #4
 1803 000e FFF7FEFF 		bl	CyDelayUs
ARM GAS  C:\Users\Kiwi\AppData\Local\Temp\cckzbvMb.s 			page 45


 1804              	.LVL243:
 575:main.c        ****     res = Dta_Read();
 1805              		.loc 1 575 0
 1806 0012 FFF7FEFF 		bl	Dta_Read
 1807              	.LVL244:
 1808 0016 0446     		mov	r4, r0
 1809              	.LVL245:
 576:main.c        ****     IOR_Write(1);
 1810              		.loc 1 576 0
 1811 0018 0120     		movs	r0, #1
 1812 001a FFF7FEFF 		bl	IOR_Write
 1813              	.LVL246:
 577:main.c        ****     //CyDelayUs(5);
 578:main.c        ****     
 579:main.c        ****     return res;
 580:main.c        **** }
 1814              		.loc 1 580 0
 1815 001e 2046     		mov	r0, r4
 1816 0020 10BD     		pop	{r4, pc}
 1817              		.cfi_endproc
 1818              	.LFE81:
 1819              		.size	ReadIO8, .-ReadIO8
 1820              		.section	.text.DumpZRMD,"ax",%progbits
 1821              		.align	1
 1822              		.global	DumpZRMD
 1823              		.thumb
 1824              		.thumb_func
 1825              		.type	DumpZRMD, %function
 1826              	DumpZRMD:
 1827              	.LFB82:
 581:main.c        **** 
 582:main.c        **** char HexChar[16] = {'0', '1', '2', '3', '4', '5', '6', '7', '8', '9', 'A', 'B', 'C', 'D', 'E', 'F'}
 583:main.c        **** char dva[3];
 584:main.c        **** 
 585:main.c        **** void DumpZRMD() {
 1828              		.loc 1 585 0
 1829              		.cfi_startproc
 1830              		@ args = 0, pretend = 0, frame = 64
 1831              		@ frame_needed = 0, uses_anonymous_args = 0
 1832 0000 2DE9F04F 		push	{r4, r5, r6, r7, r8, r9, r10, fp, lr}
 1833              		.cfi_def_cfa_offset 36
 1834              		.cfi_offset 4, -36
 1835              		.cfi_offset 5, -32
 1836              		.cfi_offset 6, -28
 1837              		.cfi_offset 7, -24
 1838              		.cfi_offset 8, -20
 1839              		.cfi_offset 9, -16
 1840              		.cfi_offset 10, -12
 1841              		.cfi_offset 11, -8
 1842              		.cfi_offset 14, -4
 1843 0004 91B0     		sub	sp, sp, #68
 1844              		.cfi_def_cfa_offset 104
 586:main.c        ****     if(!Get_SAPI_Bus()) {
 1845              		.loc 1 586 0
 1846 0006 FFF7FEFF 		bl	Get_SAPI_Bus
 1847              	.LVL247:
 1848 000a 0028     		cmp	r0, #0
ARM GAS  C:\Users\Kiwi\AppData\Local\Temp\cckzbvMb.s 			page 46


 1849 000c 00F08180 		beq	.L118
 1850              	.LVL248:
 587:main.c        ****         return;
 588:main.c        ****     }
 589:main.c        **** 
 590:main.c        ****     uint8 i = 0;
 591:main.c        ****     char tmpstr[64];
 592:main.c        ****     
 593:main.c        ****     // pripravime si vychozi hodnoty pro sbernici
 594:main.c        ****     AddrL_Write(0);
 1851              		.loc 1 594 0
 1852 0010 0020     		movs	r0, #0
 1853 0012 FFF7FEFF 		bl	AddrL_Write
 1854              	.LVL249:
 595:main.c        ****     AddrH_Write(0);
 1855              		.loc 1 595 0
 1856 0016 0020     		movs	r0, #0
 1857 0018 FFF7FEFF 		bl	AddrH_Write
 1858              	.LVL250:
 596:main.c        ****     IOR_Write(1);
 1859              		.loc 1 596 0
 1860 001c 0120     		movs	r0, #1
 1861 001e FFF7FEFF 		bl	IOR_Write
 1862              	.LVL251:
 597:main.c        ****     IOW_Write(1);
 1863              		.loc 1 597 0
 1864 0022 0120     		movs	r0, #1
 1865 0024 FFF7FEFF 		bl	IOW_Write
 1866              	.LVL252:
 598:main.c        **** 
 599:main.c        ****     AddrL_SetDriveMode(PIN_DM_STRONG);
 1867              		.loc 1 599 0
 1868 0028 0C20     		movs	r0, #12
 1869 002a FFF7FEFF 		bl	AddrL_SetDriveMode
 1870              	.LVL253:
 600:main.c        ****     AddrH_SetDriveMode(PIN_DM_STRONG);
 1871              		.loc 1 600 0
 1872 002e 0C20     		movs	r0, #12
 1873 0030 FFF7FEFF 		bl	AddrH_SetDriveMode
 1874              	.LVL254:
 601:main.c        ****     IOR_SetDriveMode(PIN_DM_STRONG);
 1875              		.loc 1 601 0
 1876 0034 0C20     		movs	r0, #12
 1877 0036 FFF7FEFF 		bl	IOR_SetDriveMode
 1878              	.LVL255:
 602:main.c        ****     IOW_SetDriveMode(PIN_DM_STRONG);
 1879              		.loc 1 602 0
 1880 003a 0C20     		movs	r0, #12
 1881 003c FFF7FEFF 		bl	IOW_SetDriveMode
 1882              	.LVL256:
 603:main.c        **** 
 604:main.c        ****     /*gfx_setCursor(0,32);
 605:main.c        ****     gfx_println("Dump ZRMD ");
 606:main.c        ****     gfx_println("          ");
 607:main.c        ****     display_update();*/
 608:main.c        ****     
 609:main.c        ****     // a jdeme zkusit precist RD
ARM GAS  C:\Users\Kiwi\AppData\Local\Temp\cckzbvMb.s 			page 47


 610:main.c        ****     uint16 r, had, mad, lad, chk;
 611:main.c        ****     for(had=0; had<64; had++) {
 612:main.c        ****         chk = 2 + 0 + 0 + 4 + ((had & 0xFF00)>>8) + (had & 0x00FF);
 613:main.c        ****         chk = (0x100 - (chk & 0x00FF)) & 0xFF;
 614:main.c        ****         USBUART_printf(":02000004%04X%02X\r\n", had, chk);
 615:main.c        ****         /*gfx_setCursor(0,48);
 616:main.c        ****         sprintf(tmpstr, "Seg.%02X%3d%%", had, (had*100)/64);
 617:main.c        ****         gfx_println(tmpstr);
 618:main.c        ****         display_update();*/
 619:main.c        ****         for(mad=0; mad<256; mad++) {
 620:main.c        ****             
 621:main.c        ****             // dolni cast adresy
 622:main.c        ****             WriteIO8(0x61, 0);
 623:main.c        ****             // stredni cast adresy
 624:main.c        ****             WriteIO8(0x62, mad);
 625:main.c        ****             // horni cast adresy
 626:main.c        ****             WriteIO8(0x63, had);
 627:main.c        ****             
 628:main.c        ****             for(lad=0; lad<256; lad+=1) {
 629:main.c        ****                 if((lad & 0x001F)==0x0000) {
 630:main.c        ****                     chk = 0x20 + mad + lad;
 631:main.c        ****                     USBUART_printf(":20%02X%02X00", mad, lad);
 632:main.c        ****                 }
 633:main.c        ****                 
 634:main.c        ****                 //for(i=0; i<2; i++) {
 635:main.c        ****                     r = ReadIO8(0x60);
 636:main.c        ****                     chk += r;
 637:main.c        ****                     tmpstr[i*2]=HexChar[r>>4];
 1883              		.loc 1 637 0
 1884 0040 DFF8E480 		ldr	r8, .L135+16
 602:main.c        ****     IOW_SetDriveMode(PIN_DM_STRONG);
 1885              		.loc 1 602 0
 1886 0044 0026     		movs	r6, #0
 1887              	.LVL257:
 1888              	.L125:
 613:main.c        ****         USBUART_printf(":02000004%04X%02X\r\n", had, chk);
 1889              		.loc 1 613 0
 1890 0046 C6F57F44 		rsb	r4, r6, #65280
 1891 004a FA34     		adds	r4, r4, #250
 1892 004c E4B2     		uxtb	r4, r4
 1893              	.LVL258:
 614:main.c        ****         /*gfx_setCursor(0,48);
 1894              		.loc 1 614 0
 1895 004e 2246     		mov	r2, r4
 1896 0050 3146     		mov	r1, r6
 1897 0052 3148     		ldr	r0, .L135
 1898 0054 0025     		movs	r5, #0
 1899 0056 FFF7FEFF 		bl	USBUART_printf
 1900              	.LVL259:
 622:main.c        ****             // stredni cast adresy
 1901              		.loc 1 622 0
 1902 005a A946     		mov	r9, r5
 1903              	.LVL260:
 1904              	.L124:
 1905 005c 0021     		movs	r1, #0
 1906 005e 6120     		movs	r0, #97
 1907 0060 FFF7FEFF 		bl	WriteIO8
ARM GAS  C:\Users\Kiwi\AppData\Local\Temp\cckzbvMb.s 			page 48


 1908              	.LVL261:
 624:main.c        ****             // horni cast adresy
 1909              		.loc 1 624 0
 1910 0064 E9B2     		uxtb	r1, r5
 1911 0066 6220     		movs	r0, #98
 1912 0068 FFF7FEFF 		bl	WriteIO8
 1913              	.LVL262:
 626:main.c        ****             
 1914              		.loc 1 626 0
 1915 006c F1B2     		uxtb	r1, r6
 1916 006e 6320     		movs	r0, #99
 1917 0070 FFF7FEFF 		bl	WriteIO8
 1918              	.LVL263:
 1919 0074 1FFA85FA 		uxth	r10, r5
 1920              	.LVL264:
 1921 0078 0027     		movs	r7, #0
 1922              	.LVL265:
 1923              	.L123:
 1924 007a BAB2     		uxth	r2, r7
 1925              	.LVL266:
 629:main.c        ****                     chk = 0x20 + mad + lad;
 1926              		.loc 1 629 0
 1927 007c 12F01F0B 		ands	fp, r2, #31
 1928 0080 08D1     		bne	.L120
 1929 0082 0AF12003 		add	r3, r10, #32
 1930 0086 D418     		adds	r4, r2, r3
 1931              	.LVL267:
 631:main.c        ****                 }
 1932              		.loc 1 631 0
 1933 0088 2946     		mov	r1, r5
 1934 008a 3A46     		mov	r2, r7
 1935              	.LVL268:
 1936 008c 2348     		ldr	r0, .L135+4
 1937 008e A4B2     		uxth	r4, r4
 1938 0090 FFF7FEFF 		bl	USBUART_printf
 1939              	.LVL269:
 1940              	.L120:
 635:main.c        ****                     chk += r;
 1941              		.loc 1 635 0
 1942 0094 6020     		movs	r0, #96
 1943 0096 FFF7FEFF 		bl	ReadIO8
 1944              	.LVL270:
 1945 009a 83B2     		uxth	r3, r0
 1946              	.LVL271:
 636:main.c        ****                     tmpstr[i*2]=HexChar[r>>4];
 1947              		.loc 1 636 0
 1948 009c 1C44     		add	r4, r4, r3
 1949              	.LVL272:
 1950              		.loc 1 637 0
 1951 009e 08EB1313 		add	r3, r8, r3, lsr #4
 1952              	.LVL273:
 1953 00a2 5B79     		ldrb	r3, [r3, #5]	@ zero_extendqisi2
 638:main.c        ****                     tmpstr[i*2+1]=HexChar[r&0x0F];
 1954              		.loc 1 638 0
 1955 00a4 00F00F00 		and	r0, r0, #15
 1956              	.LVL274:
 1957 00a8 4044     		add	r0, r0, r8
ARM GAS  C:\Users\Kiwi\AppData\Local\Temp\cckzbvMb.s 			page 49


 637:main.c        ****                     tmpstr[i*2+1]=HexChar[r&0x0F];
 1958              		.loc 1 637 0
 1959 00aa 8DF80030 		strb	r3, [sp]
 1960              		.loc 1 638 0
 1961 00ae 4379     		ldrb	r3, [r0, #5]	@ zero_extendqisi2
 636:main.c        ****                     tmpstr[i*2]=HexChar[r>>4];
 1962              		.loc 1 636 0
 1963 00b0 A4B2     		uxth	r4, r4
 1964              		.loc 1 638 0
 1965 00b2 8DF80130 		strb	r3, [sp, #1]
 639:main.c        ****                 //}
 640:main.c        ****                 tmpstr[2]=0;
 1966              		.loc 1 640 0
 1967 00b6 8DF80290 		strb	r9, [sp, #2]
 1968              	.L121:
 641:main.c        ****                 while(!USBUART_CDCIsReady());
 1969              		.loc 1 641 0 discriminator 1
 1970 00ba FFF7FEFF 		bl	USBUART_CDCIsReady
 1971              	.LVL275:
 1972 00be 0028     		cmp	r0, #0
 1973 00c0 FBD0     		beq	.L121
 642:main.c        ****                 USBUART_PutString(tmpstr);
 1974              		.loc 1 642 0
 1975 00c2 6846     		mov	r0, sp
 1976 00c4 FFF7FEFF 		bl	USBUART_PutString
 1977              	.LVL276:
 643:main.c        ****                 //USBUART_printf(tmpstr);
 644:main.c        ****                 
 645:main.c        ****                 if((lad & 0x001F)==0x001F) {
 1978              		.loc 1 645 0
 1979 00c8 BBF11F0F 		cmp	fp, #31
 1980 00cc 05D1     		bne	.L122
 646:main.c        ****                     chk = (0x100 - (chk & 0x00FF)) & 0xFF;
 1981              		.loc 1 646 0
 1982 00ce 6442     		negs	r4, r4
 1983              	.LVL277:
 1984 00d0 E4B2     		uxtb	r4, r4
 1985              	.LVL278:
 647:main.c        ****                     USBUART_printf("%02X\r\n", chk);
 1986              		.loc 1 647 0
 1987 00d2 2146     		mov	r1, r4
 1988 00d4 1248     		ldr	r0, .L135+8
 1989 00d6 FFF7FEFF 		bl	USBUART_printf
 1990              	.LVL279:
 1991              	.L122:
 1992 00da 0137     		adds	r7, r7, #1
 1993              	.LVL280:
 628:main.c        ****                 if((lad & 0x001F)==0x0000) {
 1994              		.loc 1 628 0 discriminator 2
 1995 00dc B7F5807F 		cmp	r7, #256
 1996 00e0 CBD1     		bne	.L123
 1997              	.LVL281:
 1998 00e2 0135     		adds	r5, r5, #1
 1999              	.LVL282:
 619:main.c        ****             
 2000              		.loc 1 619 0 discriminator 2
 2001 00e4 B5F5807F 		cmp	r5, #256
ARM GAS  C:\Users\Kiwi\AppData\Local\Temp\cckzbvMb.s 			page 50


 2002 00e8 B8D1     		bne	.L124
 2003              	.LVL283:
 2004 00ea 0136     		adds	r6, r6, #1
 2005              	.LVL284:
 611:main.c        ****         chk = 2 + 0 + 0 + 4 + ((had & 0xFF00)>>8) + (had & 0x00FF);
 2006              		.loc 1 611 0 discriminator 2
 2007 00ec 402E     		cmp	r6, #64
 2008 00ee AAD1     		bne	.L125
 648:main.c        ****                 }
 649:main.c        ****             }
 650:main.c        ****         }
 651:main.c        ****     }
 652:main.c        ****     USBUART_printf(":00000001FF\r\n");
 2009              		.loc 1 652 0
 2010 00f0 0C48     		ldr	r0, .L135+12
 2011 00f2 FFF7FEFF 		bl	USBUART_printf
 2012              	.LVL285:
 653:main.c        ****     
 654:main.c        ****     // uvolnime sbernici        
 655:main.c        ****     AddrL_SetDriveMode(PIN_DM_DIG_HIZ);
 2013              		.loc 1 655 0
 2014 00f6 0220     		movs	r0, #2
 2015 00f8 FFF7FEFF 		bl	AddrL_SetDriveMode
 2016              	.LVL286:
 656:main.c        ****     AddrH_SetDriveMode(PIN_DM_DIG_HIZ);
 2017              		.loc 1 656 0
 2018 00fc 0220     		movs	r0, #2
 2019 00fe FFF7FEFF 		bl	AddrH_SetDriveMode
 2020              	.LVL287:
 657:main.c        ****     IOR_SetDriveMode(PIN_DM_DIG_HIZ);
 2021              		.loc 1 657 0
 2022 0102 0220     		movs	r0, #2
 2023 0104 FFF7FEFF 		bl	IOR_SetDriveMode
 2024              	.LVL288:
 658:main.c        ****     IOW_SetDriveMode(PIN_DM_DIG_HIZ);
 2025              		.loc 1 658 0
 2026 0108 0220     		movs	r0, #2
 2027 010a FFF7FEFF 		bl	IOW_SetDriveMode
 2028              	.LVL289:
 659:main.c        **** 
 660:main.c        ****     /*gfx_setCursor(0,32);
 661:main.c        ****     gfx_print("Ready     ");
 662:main.c        ****     gfx_print("          ");
 663:main.c        ****     display_update();*/
 664:main.c        **** 
 665:main.c        ****     Release_SAPI_Bus();
 2029              		.loc 1 665 0
 2030 010e FFF7FEFF 		bl	Release_SAPI_Bus
 2031              	.LVL290:
 2032              	.L118:
 666:main.c        **** }
 2033              		.loc 1 666 0
 2034 0112 11B0     		add	sp, sp, #68
 2035              		.cfi_def_cfa_offset 36
 2036              		@ sp needed
 2037 0114 BDE8F08F 		pop	{r4, r5, r6, r7, r8, r9, r10, fp, pc}
 2038              	.L136:
ARM GAS  C:\Users\Kiwi\AppData\Local\Temp\cckzbvMb.s 			page 51


 2039              		.align	2
 2040              	.L135:
 2041 0118 B8010000 		.word	.LC19
 2042 011c CC010000 		.word	.LC20
 2043 0120 DA010000 		.word	.LC21
 2044 0124 E1010000 		.word	.LC22
 2045 0128 00000000 		.word	.LANCHOR1
 2046              		.cfi_endproc
 2047              	.LFE82:
 2048              		.size	DumpZRMD, .-DumpZRMD
 2049              		.section	.text.Write_ZRMD,"ax",%progbits
 2050              		.align	1
 2051              		.global	Write_ZRMD
 2052              		.thumb
 2053              		.thumb_func
 2054              		.type	Write_ZRMD, %function
 2055              	Write_ZRMD:
 2056              	.LFB83:
 667:main.c        **** 
 668:main.c        **** void Write_ZRMD(uint8 had, uint8 mad, uint8 lad, uint8 *dta, uint16 len) {
 2057              		.loc 1 668 0
 2058              		.cfi_startproc
 2059              		@ args = 4, pretend = 0, frame = 0
 2060              		@ frame_needed = 0, uses_anonymous_args = 0
 2061              	.LVL291:
 2062 0000 2DE9F843 		push	{r3, r4, r5, r6, r7, r8, r9, lr}
 2063              		.cfi_def_cfa_offset 32
 2064              		.cfi_offset 3, -32
 2065              		.cfi_offset 4, -28
 2066              		.cfi_offset 5, -24
 2067              		.cfi_offset 6, -20
 2068              		.cfi_offset 7, -16
 2069              		.cfi_offset 8, -12
 2070              		.cfi_offset 9, -8
 2071              		.cfi_offset 14, -4
 2072              		.loc 1 668 0
 2073 0004 0646     		mov	r6, r0
 2074 0006 8846     		mov	r8, r1
 2075 0008 9146     		mov	r9, r2
 2076 000a 1D46     		mov	r5, r3
 2077 000c BDF82070 		ldrh	r7, [sp, #32]
 669:main.c        ****     if(!Get_SAPI_Bus_Silent()) {
 2078              		.loc 1 669 0
 2079 0010 FFF7FEFF 		bl	Get_SAPI_Bus_Silent
 2080              	.LVL292:
 2081 0014 0028     		cmp	r0, #0
 2082 0016 60D0     		beq	.L137
 2083              	.LVL293:
 2084              	.LBB60:
 2085              	.LBB61:
 670:main.c        ****         return;
 671:main.c        ****     }
 672:main.c        **** 
 673:main.c        ****     //uint32 WZbegin = Millis_ReadCounter();
 674:main.c        ****     
 675:main.c        ****     // pripravime si vychozi hodnoty pro sbernici
 676:main.c        ****     AddrL_Write(0);
ARM GAS  C:\Users\Kiwi\AppData\Local\Temp\cckzbvMb.s 			page 52


 2086              		.loc 1 676 0
 2087 0018 0020     		movs	r0, #0
 2088 001a FFF7FEFF 		bl	AddrL_Write
 2089              	.LVL294:
 677:main.c        ****     AddrH_Write(0);
 2090              		.loc 1 677 0
 2091 001e 0020     		movs	r0, #0
 2092 0020 FFF7FEFF 		bl	AddrH_Write
 2093              	.LVL295:
 678:main.c        ****     IOR_Write(1);
 2094              		.loc 1 678 0
 2095 0024 0120     		movs	r0, #1
 2096 0026 FFF7FEFF 		bl	IOR_Write
 2097              	.LVL296:
 679:main.c        ****     IOW_Write(1);
 2098              		.loc 1 679 0
 2099 002a 0120     		movs	r0, #1
 2100 002c FFF7FEFF 		bl	IOW_Write
 2101              	.LVL297:
 680:main.c        **** 
 681:main.c        ****     // sbernici bychom si bez dovoleni vzali pros sebe, jestli je pripojena JPR-1Z pujde to kolize
 682:main.c        ****     AddrL_SetDriveMode(PIN_DM_STRONG);
 2102              		.loc 1 682 0
 2103 0030 0C20     		movs	r0, #12
 2104 0032 FFF7FEFF 		bl	AddrL_SetDriveMode
 2105              	.LVL298:
 683:main.c        ****     AddrH_SetDriveMode(PIN_DM_STRONG);
 2106              		.loc 1 683 0
 2107 0036 0C20     		movs	r0, #12
 2108 0038 FFF7FEFF 		bl	AddrH_SetDriveMode
 2109              	.LVL299:
 684:main.c        ****     IOR_SetDriveMode(PIN_DM_STRONG);
 2110              		.loc 1 684 0
 2111 003c 0C20     		movs	r0, #12
 2112 003e FFF7FEFF 		bl	IOR_SetDriveMode
 2113              	.LVL300:
 685:main.c        ****     IOW_SetDriveMode(PIN_DM_STRONG);
 2114              		.loc 1 685 0
 2115 0042 0C20     		movs	r0, #12
 2116 0044 FFF7FEFF 		bl	IOW_SetDriveMode
 2117              	.LVL301:
 686:main.c        **** 
 687:main.c        ****     //uint32 WZsetpins = Millis_ReadCounter();
 688:main.c        **** 
 689:main.c        ****     //gfx_setCursor(0,32);
 690:main.c        ****     //gfx_print("Write ZRMD");
 691:main.c        ****     //gfx_print("          ");
 692:main.c        ****     //display_update();
 693:main.c        **** 
 694:main.c        ****     //uint32 WZdisp1 = Millis_ReadCounter();
 695:main.c        **** 
 696:main.c        ****     // dolni cast adresy
 697:main.c        ****     WriteIO8(0x61, lad);
 2118              		.loc 1 697 0
 2119 0048 4946     		mov	r1, r9
 2120 004a 6120     		movs	r0, #97
 2121 004c FFF7FEFF 		bl	WriteIO8
ARM GAS  C:\Users\Kiwi\AppData\Local\Temp\cckzbvMb.s 			page 53


 2122              	.LVL302:
 698:main.c        ****     // stredni cast adresy
 699:main.c        ****     WriteIO8(0x62, mad);
 2123              		.loc 1 699 0
 2124 0050 4146     		mov	r1, r8
 2125 0052 6220     		movs	r0, #98
 2126 0054 FFF7FEFF 		bl	WriteIO8
 2127              	.LVL303:
 700:main.c        ****     // horni cast adresy
 701:main.c        ****     WriteIO8(0x63, had);
 2128              		.loc 1 701 0
 2129 0058 3146     		mov	r1, r6
 2130 005a 6320     		movs	r0, #99
 2131 005c FFF7FEFF 		bl	WriteIO8
 2132              	.LVL304:
 2133 0060 2C46     		mov	r4, r5
 2134              	.LVL305:
 2135              	.L139:
 2136              	.LBB62:
 702:main.c        **** 
 703:main.c        ****     for(int i=0; i<len; i++) {
 2137              		.loc 1 703 0
 2138 0062 631B     		subs	r3, r4, r5
 2139 0064 9F42     		cmp	r7, r3
 2140 0066 05DD     		ble	.L146
 704:main.c        ****         WriteIO8(0x60, *(dta+i));
 2141              		.loc 1 704 0
 2142 0068 14F8011B 		ldrb	r1, [r4], #1	@ zero_extendqisi2
 2143              	.LVL306:
 2144 006c 6020     		movs	r0, #96
 2145 006e FFF7FEFF 		bl	WriteIO8
 2146              	.LVL307:
 2147 0072 F6E7     		b	.L139
 2148              	.L146:
 2149              	.LBE62:
 705:main.c        ****     }
 706:main.c        **** 
 707:main.c        ****     // dolni cast adresy
 708:main.c        ****     WriteIO8(0x61, lad);
 2150              		.loc 1 708 0
 2151 0074 4946     		mov	r1, r9
 2152 0076 6120     		movs	r0, #97
 2153 0078 FFF7FEFF 		bl	WriteIO8
 2154              	.LVL308:
 709:main.c        ****     // stredni cast adresy
 710:main.c        ****     WriteIO8(0x62, mad);
 2155              		.loc 1 710 0
 2156 007c 4146     		mov	r1, r8
 2157 007e 6220     		movs	r0, #98
 2158 0080 FFF7FEFF 		bl	WriteIO8
 2159              	.LVL309:
 711:main.c        ****     // horni cast adresy
 712:main.c        ****     WriteIO8(0x63, had);
 2160              		.loc 1 712 0
 2161 0084 3146     		mov	r1, r6
 2162 0086 6320     		movs	r0, #99
 2163 0088 FFF7FEFF 		bl	WriteIO8
ARM GAS  C:\Users\Kiwi\AppData\Local\Temp\cckzbvMb.s 			page 54


 2164              	.LVL310:
 2165 008c 2E46     		mov	r6, r5
 2166              	.LVL311:
 713:main.c        **** 
 714:main.c        ****     //uint32 WZwritten = Millis_ReadCounter();
 715:main.c        **** 
 716:main.c        ****     // jdeme cist (verifikovat)
 717:main.c        ****     
 718:main.c        ****     uint8 r;
 719:main.c        ****     int err=0;
 2167              		.loc 1 719 0
 2168 008e 0024     		movs	r4, #0
 2169              	.LVL312:
 2170              	.L141:
 2171              	.LBB63:
 720:main.c        ****     for(int i=0; i<len; i++) {
 2172              		.loc 1 720 0
 2173 0090 731B     		subs	r3, r6, r5
 2174 0092 9F42     		cmp	r7, r3
 2175 0094 08DD     		ble	.L147
 721:main.c        ****         r = ReadIO8(0x60);
 2176              		.loc 1 721 0
 2177 0096 6020     		movs	r0, #96
 2178 0098 FFF7FEFF 		bl	ReadIO8
 2179              	.LVL313:
 722:main.c        ****         if(r!=*(dta+i))
 2180              		.loc 1 722 0
 2181 009c 16F8013B 		ldrb	r3, [r6], #1	@ zero_extendqisi2
 2182              	.LVL314:
 2183 00a0 9842     		cmp	r0, r3
 723:main.c        ****             err++;
 2184              		.loc 1 723 0
 2185 00a2 18BF     		it	ne
 2186 00a4 0134     		addne	r4, r4, #1
 2187              	.LVL315:
 2188 00a6 F3E7     		b	.L141
 2189              	.LVL316:
 2190              	.L147:
 2191              	.LBE63:
 724:main.c        ****     }
 725:main.c        ****     
 726:main.c        ****     //uint32 WZverified = Millis_ReadCounter();
 727:main.c        **** 
 728:main.c        ****     //gfx_setCursor(0,32);
 729:main.c        ****     //gfx_print("Write ZRMD");
 730:main.c        ****     if(err==0) {
 2192              		.loc 1 730 0
 2193 00a8 1CB9     		cbnz	r4, .L144
 731:main.c        ****         USBUART_printf("OK\r\n");
 2194              		.loc 1 731 0
 2195 00aa 0D48     		ldr	r0, .L148
 2196 00ac FFF7FEFF 		bl	USBUART_printf
 2197              	.LVL317:
 2198 00b0 03E0     		b	.L145
 2199              	.L144:
 732:main.c        ****         //gfx_print("OK        ");
 733:main.c        ****     } else {
ARM GAS  C:\Users\Kiwi\AppData\Local\Temp\cckzbvMb.s 			page 55


 734:main.c        ****         USBUART_printf("%d ERRORs writing data :-(\r\n", err);
 2200              		.loc 1 734 0
 2201 00b2 2146     		mov	r1, r4
 2202 00b4 0B48     		ldr	r0, .L148+4
 2203 00b6 FFF7FEFF 		bl	USBUART_printf
 2204              	.LVL318:
 2205              	.L145:
 735:main.c        ****         //gfx_print("FAILED    ");
 736:main.c        ****     }
 737:main.c        ****     //display_update();
 738:main.c        **** 
 739:main.c        ****     //uint32 WZdisp2 = Millis_ReadCounter();
 740:main.c        **** 
 741:main.c        ****     // uvolnime sbernici        
 742:main.c        ****     AddrL_SetDriveMode(PIN_DM_DIG_HIZ);
 2206              		.loc 1 742 0
 2207 00ba 0220     		movs	r0, #2
 2208 00bc FFF7FEFF 		bl	AddrL_SetDriveMode
 2209              	.LVL319:
 743:main.c        ****     AddrH_SetDriveMode(PIN_DM_DIG_HIZ);
 2210              		.loc 1 743 0
 2211 00c0 0220     		movs	r0, #2
 2212 00c2 FFF7FEFF 		bl	AddrH_SetDriveMode
 2213              	.LVL320:
 744:main.c        ****     IOR_SetDriveMode(PIN_DM_DIG_HIZ);
 2214              		.loc 1 744 0
 2215 00c6 0220     		movs	r0, #2
 2216 00c8 FFF7FEFF 		bl	IOR_SetDriveMode
 2217              	.LVL321:
 745:main.c        ****     IOW_SetDriveMode(PIN_DM_DIG_HIZ);
 2218              		.loc 1 745 0
 2219 00cc 0220     		movs	r0, #2
 2220 00ce FFF7FEFF 		bl	IOW_SetDriveMode
 2221              	.LVL322:
 2222              	.LBE61:
 2223              	.LBE60:
 746:main.c        ****     
 747:main.c        ****     //uint32 WZend = Millis_ReadCounter();
 748:main.c        ****     //USBUART_printf("Write ZRMD line took %d ms.\r\n", WZend-WZbegin);
 749:main.c        ****     //USBUART_printf("WZbegin %d, WZsetpins %d, WZdisp1 %d, WZwritten %d, WZverified %d, WZdisp2 %d
 750:main.c        ****     Release_SAPI_Bus_Silent();
 751:main.c        **** }
 2224              		.loc 1 751 0
 2225 00d2 BDE8F843 		pop	{r3, r4, r5, r6, r7, r8, r9, lr}
 2226              		.cfi_remember_state
 2227              		.cfi_restore 14
 2228              		.cfi_restore 9
 2229              		.cfi_restore 8
 2230              		.cfi_restore 7
 2231              		.cfi_restore 6
 2232              		.cfi_restore 5
 2233              		.cfi_restore 4
 2234              		.cfi_restore 3
 2235              		.cfi_def_cfa_offset 0
 2236              	.LVL323:
 2237              	.LBB65:
 2238              	.LBB64:
ARM GAS  C:\Users\Kiwi\AppData\Local\Temp\cckzbvMb.s 			page 56


 750:main.c        **** }
 2239              		.loc 1 750 0
 2240 00d6 FFF7FEBF 		b	Release_SAPI_Bus_Silent
 2241              	.LVL324:
 2242              	.L137:
 2243              		.cfi_restore_state
 2244 00da BDE8F883 		pop	{r3, r4, r5, r6, r7, r8, r9, pc}
 2245              	.LVL325:
 2246              	.L149:
 2247 00de 00BF     		.align	2
 2248              	.L148:
 2249 00e0 15000000 		.word	.LC2
 2250 00e4 EF010000 		.word	.LC23
 2251              	.LBE64:
 2252              	.LBE65:
 2253              		.cfi_endproc
 2254              	.LFE83:
 2255              		.size	Write_ZRMD, .-Write_ZRMD
 2256              		.section	.text.ProcessHEX,"ax",%progbits
 2257              		.align	1
 2258              		.global	ProcessHEX
 2259              		.thumb
 2260              		.thumb_func
 2261              		.type	ProcessHEX, %function
 2262              	ProcessHEX:
 2263              	.LFB84:
 752:main.c        **** 
 753:main.c        **** void ProcessHEX(char *cmdline) {
 2264              		.loc 1 753 0
 2265              		.cfi_startproc
 2266              		@ args = 0, pretend = 0, frame = 40
 2267              		@ frame_needed = 0, uses_anonymous_args = 0
 2268              	.LVL326:
 2269 0000 2DE9F047 		push	{r4, r5, r6, r7, r8, r9, r10, lr}
 2270              		.cfi_def_cfa_offset 32
 2271              		.cfi_offset 4, -32
 2272              		.cfi_offset 5, -28
 2273              		.cfi_offset 6, -24
 2274              		.cfi_offset 7, -20
 2275              		.cfi_offset 8, -16
 2276              		.cfi_offset 9, -12
 2277              		.cfi_offset 10, -8
 2278              		.cfi_offset 14, -4
 2279 0004 8CB0     		sub	sp, sp, #48
 2280              		.cfi_def_cfa_offset 80
 2281 0006 02AE     		add	r6, sp, #8
 2282              		.loc 1 753 0
 2283 0008 8046     		mov	r8, r0
 2284 000a B146     		mov	r9, r6
 754:main.c        ****     char *bptr = cmdline+1;
 755:main.c        ****     uint8 hexdata[37];
 756:main.c        ****     uint8 hexlen = 0;
 757:main.c        ****     
 758:main.c        ****     // USBUART_printf("\r\nHEX >%s<\r\n", bptr);
 759:main.c        **** 
 760:main.c        ****     //uint32 PHbegin = Millis_ReadCounter();
 761:main.c        ****     
ARM GAS  C:\Users\Kiwi\AppData\Local\Temp\cckzbvMb.s 			page 57


 762:main.c        ****     cntLines++;
 2285              		.loc 1 762 0
 2286 000c 484C     		ldr	r4, .L186
 754:main.c        ****     char *bptr = cmdline+1;
 2287              		.loc 1 754 0
 2288 000e 451C     		adds	r5, r0, #1
 2289              	.LVL327:
 2290              		.loc 1 762 0
 2291 0010 6368     		ldr	r3, [r4, #4]
 763:main.c        **** 
 764:main.c        ****     while(strlen(bptr)>1 && hexlen<37) {
 2292              		.loc 1 764 0
 2293 0012 0027     		movs	r7, #0
 762:main.c        **** 
 2294              		.loc 1 762 0
 2295 0014 0133     		adds	r3, r3, #1
 2296 0016 6360     		str	r3, [r4, #4]
 2297              	.LVL328:
 2298              	.L151:
 2299              		.loc 1 764 0
 2300 0018 2846     		mov	r0, r5
 2301 001a FFF7FEFF 		bl	strlen
 2302              	.LVL329:
 2303 001e 0128     		cmp	r0, #1
 2304 0020 5FFA87FA 		uxtb	r10, r7
 2305              	.LVL330:
 2306 0024 30D9     		bls	.L161
 2307              		.loc 1 764 0 is_stmt 0 discriminator 1
 2308 0026 252F     		cmp	r7, #37
 2309 0028 2CD0     		beq	.L183
 765:main.c        ****         switch(*bptr) {
 2310              		.loc 1 765 0 is_stmt 1
 2311 002a 2B78     		ldrb	r3, [r5]	@ zero_extendqisi2
 2312 002c 302B     		cmp	r3, #48
 2313 002e 0CD3     		bcc	.L152
 2314 0030 392B     		cmp	r3, #57
 2315 0032 04D9     		bls	.L177
 2316 0034 A3F14102 		sub	r2, r3, #65
 2317 0038 052A     		cmp	r2, #5
 2318 003a 06D8     		bhi	.L152
 766:main.c        ****             case '0' ... '9':
 767:main.c        ****                 hexdata[hexlen] = (*bptr - '0')<<4;
 768:main.c        ****                 break;
 769:main.c        ****             case 'A' ... 'F':
 770:main.c        ****                 hexdata[hexlen] = (*bptr - 'A' + 10)<<4;
 2319              		.loc 1 770 0
 2320 003c 373B     		subs	r3, r3, #55
 2321              	.L177:
 2322 003e 1B01     		lsls	r3, r3, #4
 2323 0040 3370     		strb	r3, [r6]
 2324              	.LVL331:
 771:main.c        ****                 break;
 772:main.c        ****             default:
 773:main.c        ****                 USBUART_printf("Bad data on pos %d", bptr-cmdline);
 774:main.c        ****                 cntErrs++;
 775:main.c        ****                 return;
 776:main.c        ****         }
ARM GAS  C:\Users\Kiwi\AppData\Local\Temp\cckzbvMb.s 			page 58


 777:main.c        ****         bptr++;
 778:main.c        ****         switch(*bptr) {
 2325              		.loc 1 778 0
 2326 0042 6B78     		ldrb	r3, [r5, #1]	@ zero_extendqisi2
 2327 0044 302B     		cmp	r3, #48
 2328 0046 03D2     		bcs	.L184
 2329 0048 12E0     		b	.L157
 2330              	.LVL332:
 2331              	.L152:
 773:main.c        ****                 cntErrs++;
 2332              		.loc 1 773 0
 2333 004a C8EB0501 		rsb	r1, r8, r5
 2334 004e 12E0     		b	.L179
 2335              	.LVL333:
 2336              	.L184:
 2337              		.loc 1 778 0
 2338 0050 392B     		cmp	r3, #57
 2339 0052 05D9     		bls	.L158
 2340 0054 A3F14102 		sub	r2, r3, #65
 2341 0058 052A     		cmp	r2, #5
 2342 005a 09D8     		bhi	.L157
 779:main.c        ****             case '0' ... '9':
 780:main.c        ****                 hexdata[hexlen] += (*bptr - '0');
 781:main.c        ****                 break;
 782:main.c        ****             case 'A' ... 'F':
 783:main.c        ****                 hexdata[hexlen] += (*bptr - 'A' + 10);
 2343              		.loc 1 783 0
 2344 005c 373B     		subs	r3, r3, #55
 2345 005e 00E0     		b	.L178
 2346              	.L158:
 780:main.c        ****                 break;
 2347              		.loc 1 780 0
 2348 0060 303B     		subs	r3, r3, #48
 2349              	.L178:
 2350              		.loc 1 783 0
 2351 0062 3278     		ldrb	r2, [r6]	@ zero_extendqisi2
 2352 0064 0235     		adds	r5, r5, #2
 2353              	.LVL334:
 2354 0066 1344     		add	r3, r3, r2
 2355 0068 3370     		strb	r3, [r6]
 2356 006a 0137     		adds	r7, r7, #1
 2357              	.LVL335:
 2358 006c 0136     		adds	r6, r6, #1
 2359 006e D3E7     		b	.L151
 2360              	.LVL336:
 2361              	.L157:
 784:main.c        ****                 break;
 785:main.c        ****             default:
 786:main.c        ****                 USBUART_printf("Bad data on pos %d", bptr-cmdline);
 2362              		.loc 1 786 0
 2363 0070 691C     		adds	r1, r5, #1
 2364 0072 C8EB0101 		rsb	r1, r8, r1
 2365              	.LVL337:
 2366              	.L179:
 2367 0076 2F48     		ldr	r0, .L186+4
 2368              	.LVL338:
 2369              	.L180:
ARM GAS  C:\Users\Kiwi\AppData\Local\Temp\cckzbvMb.s 			page 59


 2370 0078 FFF7FEFF 		bl	USBUART_printf
 2371              	.LVL339:
 2372              	.L181:
 787:main.c        ****                 cntErrs++;
 2373              		.loc 1 787 0
 2374 007c A368     		ldr	r3, [r4, #8]
 2375 007e 0133     		adds	r3, r3, #1
 2376 0080 A360     		str	r3, [r4, #8]
 788:main.c        ****                 return;
 2377              		.loc 1 788 0
 2378 0082 52E0     		b	.L150
 2379              	.LVL340:
 2380              	.L183:
 2381 0084 BA46     		mov	r10, r7
 2382              	.LVL341:
 2383 0086 02E0     		b	.L163
 2384              	.LVL342:
 2385              	.L161:
 789:main.c        ****         }
 790:main.c        ****         bptr++;
 791:main.c        ****         hexlen++;            
 792:main.c        ****     }
 793:main.c        ****     uint16 chk = 0;
 794:main.c        ****     if(hexlen<5) {
 2386              		.loc 1 794 0
 2387 0088 BAF1040F 		cmp	r10, #4
 2388 008c 04D9     		bls	.L164
 2389              	.LVL343:
 2390              	.L163:
 2391 008e 0023     		movs	r3, #0
 2392 0090 1A46     		mov	r2, r3
 2393              	.LBB66:
 795:main.c        ****         USBUART_printf("Not enough data bytes, only %d\r\n", hexlen);
 796:main.c        ****         cntErrs++;
 797:main.c        ****         return;
 798:main.c        ****     }
 799:main.c        ****     for(int i=0; i<hexlen-1; i++) {
 2394              		.loc 1 799 0 discriminator 1
 2395 0092 0AF1FF31 		add	r1, r10, #-1
 2396 0096 02E0     		b	.L165
 2397              	.LVL344:
 2398              	.L164:
 2399              	.LBE66:
 795:main.c        ****         USBUART_printf("Not enough data bytes, only %d\r\n", hexlen);
 2400              		.loc 1 795 0
 2401 0098 5146     		mov	r1, r10
 2402 009a 2748     		ldr	r0, .L186+8
 2403 009c ECE7     		b	.L180
 2404              	.LVL345:
 2405              	.L165:
 2406              	.LBB67:
 2407              		.loc 1 799 0 discriminator 1
 2408 009e 8B42     		cmp	r3, r1
 2409 00a0 05DA     		bge	.L185
 800:main.c        ****         chk += hexdata[i];
 2410              		.loc 1 800 0 discriminator 3
 2411 00a2 19F80300 		ldrb	r0, [r9, r3]	@ zero_extendqisi2
ARM GAS  C:\Users\Kiwi\AppData\Local\Temp\cckzbvMb.s 			page 60


 799:main.c        ****         chk += hexdata[i];
 2412              		.loc 1 799 0 discriminator 3
 2413 00a6 0133     		adds	r3, r3, #1
 2414              	.LVL346:
 2415              		.loc 1 800 0 discriminator 3
 2416 00a8 0244     		add	r2, r2, r0
 2417              	.LVL347:
 2418 00aa 92B2     		uxth	r2, r2
 2419              	.LVL348:
 2420 00ac F7E7     		b	.L165
 2421              	.L185:
 2422              	.LBE67:
 801:main.c        ****     }
 802:main.c        ****     chk = (0x100 - (chk & 0x00FF)) & 0xFF;
 803:main.c        ****     if(chk!=hexdata[hexlen-1]) {
 2423              		.loc 1 803 0
 2424 00ae 0CAB     		add	r3, sp, #48
 2425              	.LVL349:
 2426 00b0 1944     		add	r1, r1, r3
 802:main.c        ****     if(chk!=hexdata[hexlen-1]) {
 2427              		.loc 1 802 0
 2428 00b2 5242     		negs	r2, r2
 2429              	.LVL350:
 2430              		.loc 1 803 0
 2431 00b4 11F8281C 		ldrb	r1, [r1, #-40]	@ zero_extendqisi2
 802:main.c        ****     if(chk!=hexdata[hexlen-1]) {
 2432              		.loc 1 802 0
 2433 00b8 D2B2     		uxtb	r2, r2
 2434              	.LVL351:
 2435              		.loc 1 803 0
 2436 00ba 8A42     		cmp	r2, r1
 2437 00bc 01D0     		beq	.L167
 804:main.c        ****         USBUART_printf("Bad checksum! Found %02X, but should be %02X :-(\r\n", hexdata[hexlen-1], c
 2438              		.loc 1 804 0
 2439 00be 1F48     		ldr	r0, .L186+12
 2440 00c0 07E0     		b	.L182
 2441              	.L167:
 805:main.c        ****         cntErrs++;
 806:main.c        ****         return;
 807:main.c        ****     }
 808:main.c        ****     if(hexdata[0]!=hexlen-5) {
 2442              		.loc 1 808 0
 2443 00c2 9DF80830 		ldrb	r3, [sp, #8]	@ zero_extendqisi2
 2444 00c6 AAF10502 		sub	r2, r10, #5
 2445              	.LVL352:
 2446 00ca 9342     		cmp	r3, r2
 2447 00cc 04D0     		beq	.L168
 809:main.c        ****         USBUART_printf("Bad length! Found %02X, but should be %02X :-(\r\n", hexdata[0], hexlen-5);
 2448              		.loc 1 809 0
 2449 00ce 1946     		mov	r1, r3
 2450 00d0 1B48     		ldr	r0, .L186+16
 2451              	.L182:
 2452 00d2 FFF7FEFF 		bl	USBUART_printf
 2453              	.LVL353:
 2454 00d6 D1E7     		b	.L181
 2455              	.L168:
 810:main.c        ****         cntErrs++;
ARM GAS  C:\Users\Kiwi\AppData\Local\Temp\cckzbvMb.s 			page 61


 811:main.c        ****         return;
 812:main.c        ****     }
 813:main.c        ****     // uint32 WZbegin, WZend;
 814:main.c        ****     switch(hexdata[3]) {
 2456              		.loc 1 814 0
 2457 00d8 9DF80B20 		ldrb	r2, [sp, #11]	@ zero_extendqisi2
 2458 00dc 012A     		cmp	r2, #1
 2459 00de 0FD0     		beq	.L170
 2460 00e0 02D3     		bcc	.L171
 2461 00e2 042A     		cmp	r2, #4
 2462 00e4 10D0     		beq	.L172
 2463 00e6 20E0     		b	.L150
 2464              	.L171:
 815:main.c        ****         case 0x00: // Data
 816:main.c        ****             // USBUART_printf("Data\r\n");
 817:main.c        ****             //WZbegin = Millis_ReadCounter();
 818:main.c        ****             Write_ZRMD(extaddr & 0x3F, hexdata[1], hexdata[2], &hexdata[4], hexdata[0]);
 2465              		.loc 1 818 0
 2466 00e8 207B     		ldrb	r0, [r4, #12]	@ zero_extendqisi2
 2467 00ea 0093     		str	r3, [sp]
 2468 00ec 9DF80A20 		ldrb	r2, [sp, #10]	@ zero_extendqisi2
 2469 00f0 9DF80910 		ldrb	r1, [sp, #9]	@ zero_extendqisi2
 2470 00f4 03AB     		add	r3, sp, #12
 2471 00f6 00F03F00 		and	r0, r0, #63
 2472 00fa FFF7FEFF 		bl	Write_ZRMD
 2473              	.LVL354:
 819:main.c        ****             //WZend = Millis_ReadCounter();
 820:main.c        ****             //USBUART_printf("Write ZRMD line took %d ms.\r\n", WZend-WZbegin);
 821:main.c        ****             break;
 2474              		.loc 1 821 0
 2475 00fe 14E0     		b	.L150
 2476              	.L170:
 822:main.c        ****         case 0x01: // End Of File
 823:main.c        ****             USBUART_printf("End Of File\r\n");
 2477              		.loc 1 823 0
 2478 0100 1048     		ldr	r0, .L186+20
 2479 0102 FFF7FEFF 		bl	USBUART_printf
 2480              	.LVL355:
 824:main.c        ****             break;
 2481              		.loc 1 824 0
 2482 0106 10E0     		b	.L150
 2483              	.L172:
 825:main.c        ****         case 0x04: // Extended Linear Address
 826:main.c        ****             if(hexlen<7) {
 2484              		.loc 1 826 0
 2485 0108 BAF1060F 		cmp	r10, #6
 2486 010c 02D8     		bhi	.L173
 827:main.c        ****                 USBUART_printf("Not enough data bytes for Extended Linear Address, only %d\r\n", he
 2487              		.loc 1 827 0
 2488 010e 5146     		mov	r1, r10
 2489 0110 0D48     		ldr	r0, .L186+24
 2490 0112 B1E7     		b	.L180
 2491              	.L173:
 828:main.c        ****                 cntErrs++;
 829:main.c        ****                 return;
 830:main.c        ****             }
 831:main.c        ****             extaddr = (hexdata[4]<<8) + hexdata[5];
ARM GAS  C:\Users\Kiwi\AppData\Local\Temp\cckzbvMb.s 			page 62


 2492              		.loc 1 831 0
 2493 0114 9DF80C10 		ldrb	r1, [sp, #12]	@ zero_extendqisi2
 2494 0118 9DF80D30 		ldrb	r3, [sp, #13]	@ zero_extendqisi2
 832:main.c        ****             USBUART_printf("Extended Linear Address set to %04X\r\n", extaddr);
 2495              		.loc 1 832 0
 2496 011c 0B48     		ldr	r0, .L186+28
 831:main.c        ****             USBUART_printf("Extended Linear Address set to %04X\r\n", extaddr);
 2497              		.loc 1 831 0
 2498 011e 03EB0121 		add	r1, r3, r1, lsl #8
 2499 0122 89B2     		uxth	r1, r1
 2500 0124 A181     		strh	r1, [r4, #12]	@ movhi
 2501              		.loc 1 832 0
 2502 0126 FFF7FEFF 		bl	USBUART_printf
 2503              	.LVL356:
 2504              	.L150:
 833:main.c        ****             break;
 834:main.c        ****     }
 835:main.c        ****     
 836:main.c        ****     //uint32 PHend = Millis_ReadCounter();
 837:main.c        ****     //USBUART_printf("Process HEX line took %d ms.\r\n", PHend-PHbegin);
 838:main.c        **** }
 2505              		.loc 1 838 0
 2506 012a 0CB0     		add	sp, sp, #48
 2507              		.cfi_def_cfa_offset 32
 2508              		@ sp needed
 2509 012c BDE8F087 		pop	{r4, r5, r6, r7, r8, r9, r10, pc}
 2510              	.LVL357:
 2511              	.L187:
 2512              		.align	2
 2513              	.L186:
 2514 0130 00000000 		.word	.LANCHOR0
 2515 0134 0C020000 		.word	.LC24
 2516 0138 1F020000 		.word	.LC25
 2517 013c 40020000 		.word	.LC26
 2518 0140 73020000 		.word	.LC27
 2519 0144 A4020000 		.word	.LC28
 2520 0148 B2020000 		.word	.LC29
 2521 014c EF020000 		.word	.LC30
 2522              		.cfi_endproc
 2523              	.LFE84:
 2524              		.size	ProcessHEX, .-ProcessHEX
 2525              		.section	.text.HEX_read,"ax",%progbits
 2526              		.align	1
 2527              		.global	HEX_read
 2528              		.thumb
 2529              		.thumb_func
 2530              		.type	HEX_read, %function
 2531              	HEX_read:
 2532              	.LFB85:
 839:main.c        **** 
 840:main.c        **** void HEX_read() {
 2533              		.loc 1 840 0
 2534              		.cfi_startproc
 2535              		@ args = 0, pretend = 0, frame = 256
 2536              		@ frame_needed = 0, uses_anonymous_args = 0
 2537              	.LVL358:
 2538 0000 2DE9F041 		push	{r4, r5, r6, r7, r8, lr}
ARM GAS  C:\Users\Kiwi\AppData\Local\Temp\cckzbvMb.s 			page 63


 2539              		.cfi_def_cfa_offset 24
 2540              		.cfi_offset 4, -24
 2541              		.cfi_offset 5, -20
 2542              		.cfi_offset 6, -16
 2543              		.cfi_offset 7, -12
 2544              		.cfi_offset 8, -8
 2545              		.cfi_offset 14, -4
 841:main.c        ****     char inbuf[128];
 842:main.c        ****     char cmdline[128];
 843:main.c        ****     char *crpos;
 844:main.c        ****     int dtalen=0;
 845:main.c        ****     int rem=0;
 2546              		.loc 1 845 0
 2547 0004 0025     		movs	r5, #0
 840:main.c        ****     char inbuf[128];
 2548              		.loc 1 840 0
 2549 0006 C0B0     		sub	sp, sp, #256
 2550              		.cfi_def_cfa_offset 280
 844:main.c        ****     int rem=0;
 2551              		.loc 1 844 0
 2552 0008 2C46     		mov	r4, r5
 846:main.c        ****     for(;;) {
 847:main.c        ****         if(USBUART_DataIsReady()) {
 848:main.c        ****             dtalen += USBUART_GetAll((uint8 *)(inbuf+rem+dtalen));
 2553              		.loc 1 848 0
 2554 000a 6E46     		mov	r6, sp
 2555              	.LVL359:
 2556              	.L189:
 847:main.c        ****             dtalen += USBUART_GetAll((uint8 *)(inbuf+rem+dtalen));
 2557              		.loc 1 847 0
 2558 000c FFF7FEFF 		bl	USBUART_DataIsReady
 2559              	.LVL360:
 2560 0010 20B1     		cbz	r0, .L190
 2561              		.loc 1 848 0
 2562 0012 2819     		adds	r0, r5, r4
 2563 0014 3044     		add	r0, r0, r6
 2564 0016 FFF7FEFF 		bl	USBUART_GetAll
 2565              	.LVL361:
 2566 001a 0444     		add	r4, r4, r0
 2567              	.LVL362:
 2568              	.L190:
 849:main.c        ****             // USBUART_printf("received %d\r\n", dtalen);
 850:main.c        ****         }
 851:main.c        ****         if(dtalen+rem>0 && inbuf[0]!=':') {
 2569              		.loc 1 851 0
 2570 001c 6319     		adds	r3, r4, r5
 2571 001e 002B     		cmp	r3, #0
 2572 0020 F4DD     		ble	.L189
 2573              		.loc 1 851 0 is_stmt 0 discriminator 1
 2574 0022 3378     		ldrb	r3, [r6]	@ zero_extendqisi2
 2575 0024 3A2B     		cmp	r3, #58
 2576 0026 28D0     		beq	.L193
 852:main.c        ****             USBUART_printf("Invalid content received\r\n");
 2577              		.loc 1 852 0 is_stmt 1
 2578 0028 1648     		ldr	r0, .L200
 2579 002a FFF7FEFF 		bl	USBUART_printf
 2580              	.LVL363:
ARM GAS  C:\Users\Kiwi\AppData\Local\Temp\cckzbvMb.s 			page 64


 853:main.c        ****             return;
 854:main.c        ****         }
 855:main.c        ****         while(dtalen+rem>0 && (crpos = memchr(inbuf, 0x0D, dtalen+rem))!=NULL) {
 856:main.c        ****             strncpy(cmdline, inbuf, crpos-inbuf);
 857:main.c        ****             cmdline[crpos-inbuf]=0;
 858:main.c        ****             rem=dtalen+rem-(crpos-inbuf)-1;
 859:main.c        ****             //USBUART_printf("inbuf %04X, crpos %04X, datalen %d, rem %d\r\n", inbuf, crpos, dtalen
 860:main.c        ****             memcpy(inbuf, crpos+1, rem);
 861:main.c        ****             USBUART_printf("%s\r\n", cmdline);
 862:main.c        ****             ProcessHEX(cmdline);
 863:main.c        ****             dtalen=0;
 864:main.c        ****         }
 865:main.c        ****         
 866:main.c        ****     }
 867:main.c        **** }
 2581              		.loc 1 867 0
 2582 002e 40B0     		add	sp, sp, #256
 2583              		.cfi_remember_state
 2584              		.cfi_def_cfa_offset 24
 2585              		@ sp needed
 2586 0030 BDE8F081 		pop	{r4, r5, r6, r7, r8, pc}
 2587              	.LVL364:
 2588              	.L199:
 2589              		.cfi_restore_state
 855:main.c        ****             strncpy(cmdline, inbuf, crpos-inbuf);
 2590              		.loc 1 855 0 discriminator 1
 2591 0034 3A46     		mov	r2, r7
 2592 0036 0D21     		movs	r1, #13
 2593 0038 3046     		mov	r0, r6
 2594 003a FFF7FEFF 		bl	memchr
 2595              	.LVL365:
 2596 003e 8046     		mov	r8, r0
 2597 0040 0028     		cmp	r0, #0
 2598 0042 E3D0     		beq	.L189
 856:main.c        ****             cmdline[crpos-inbuf]=0;
 2599              		.loc 1 856 0
 2600 0044 C6EB0805 		rsb	r5, r6, r8
 2601 0048 2A46     		mov	r2, r5
 2602 004a 3146     		mov	r1, r6
 2603 004c 20A8     		add	r0, sp, #128
 2604              	.LVL366:
 2605 004e FFF7FEFF 		bl	strncpy
 2606              	.LVL367:
 857:main.c        ****             rem=dtalen+rem-(crpos-inbuf)-1;
 2607              		.loc 1 857 0
 2608 0052 40AB     		add	r3, sp, #256
 2609 0054 2B44     		add	r3, r3, r5
 858:main.c        ****             //USBUART_printf("inbuf %04X, crpos %04X, datalen %d, rem %d\r\n", inbuf, crpos, dtalen
 2610              		.loc 1 858 0
 2611 0056 7D1B     		subs	r5, r7, r5
 2612 0058 013D     		subs	r5, r5, #1
 2613              	.LVL368:
 860:main.c        ****             USBUART_printf("%s\r\n", cmdline);
 2614              		.loc 1 860 0
 2615 005a 2A46     		mov	r2, r5
 2616 005c 08F10101 		add	r1, r8, #1
 857:main.c        ****             rem=dtalen+rem-(crpos-inbuf)-1;
ARM GAS  C:\Users\Kiwi\AppData\Local\Temp\cckzbvMb.s 			page 65


 2617              		.loc 1 857 0
 2618 0060 0024     		movs	r4, #0
 860:main.c        ****             USBUART_printf("%s\r\n", cmdline);
 2619              		.loc 1 860 0
 2620 0062 3046     		mov	r0, r6
 857:main.c        ****             rem=dtalen+rem-(crpos-inbuf)-1;
 2621              		.loc 1 857 0
 2622 0064 03F8804C 		strb	r4, [r3, #-128]
 860:main.c        ****             USBUART_printf("%s\r\n", cmdline);
 2623              		.loc 1 860 0
 2624 0068 FFF7FEFF 		bl	memcpy
 2625              	.LVL369:
 861:main.c        ****             ProcessHEX(cmdline);
 2626              		.loc 1 861 0
 2627 006c 20A9     		add	r1, sp, #128
 2628 006e 0648     		ldr	r0, .L200+4
 2629 0070 FFF7FEFF 		bl	USBUART_printf
 2630              	.LVL370:
 862:main.c        ****             dtalen=0;
 2631              		.loc 1 862 0
 2632 0074 20A8     		add	r0, sp, #128
 2633 0076 FFF7FEFF 		bl	ProcessHEX
 2634              	.LVL371:
 2635              	.L193:
 855:main.c        ****             strncpy(cmdline, inbuf, crpos-inbuf);
 2636              		.loc 1 855 0
 2637 007a 6719     		adds	r7, r4, r5
 2638 007c 002F     		cmp	r7, #0
 2639 007e D9DC     		bgt	.L199
 2640 0080 C4E7     		b	.L189
 2641              	.L201:
 2642 0082 00BF     		.align	2
 2643              	.L200:
 2644 0084 15030000 		.word	.LC31
 2645 0088 30030000 		.word	.LC32
 2646              		.cfi_endproc
 2647              	.LFE85:
 2648              		.size	HEX_read, .-HEX_read
 2649              		.section	.text.ShowHelp,"ax",%progbits
 2650              		.align	1
 2651              		.global	ShowHelp
 2652              		.thumb
 2653              		.thumb_func
 2654              		.type	ShowHelp, %function
 2655              	ShowHelp:
 2656              	.LFB86:
 868:main.c        **** 
 869:main.c        **** void ShowHelp() {
 2657              		.loc 1 869 0
 2658              		.cfi_startproc
 2659              		@ args = 0, pretend = 0, frame = 0
 2660              		@ frame_needed = 0, uses_anonymous_args = 0
 2661 0000 10B5     		push	{r4, lr}
 2662              		.cfi_def_cfa_offset 8
 2663              		.cfi_offset 4, -8
 2664              		.cfi_offset 14, -4
 870:main.c        ****     USBUART_printf("\r\n");
ARM GAS  C:\Users\Kiwi\AppData\Local\Temp\cckzbvMb.s 			page 66


 2665              		.loc 1 870 0
 2666 0002 154C     		ldr	r4, .L203
 2667 0004 2046     		mov	r0, r4
 2668 0006 FFF7FEFF 		bl	USBUART_printf
 2669              	.LVL372:
 871:main.c        ****     USBUART_printf("zdump   ... dump ZRMD as HEX to USB serial\r\n");
 2670              		.loc 1 871 0
 2671 000a 1448     		ldr	r0, .L203+4
 2672 000c FFF7FEFF 		bl	USBUART_printf
 2673              	.LVL373:
 872:main.c        ****     //USBUART_printf("dumpu ... dump ZRMD as HEX to RS232 UART\r\n");
 873:main.c        ****     USBUART_printf(":       ... line starting with : will be interpreted as Intel HEX line to ZRMD\
 2674              		.loc 1 873 0
 2675 0010 1348     		ldr	r0, .L203+8
 2676 0012 FFF7FEFF 		bl	USBUART_printf
 2677              	.LVL374:
 874:main.c        ****     USBUART_printf("hex     ... start special and faster Intel HEX input mode for ZRMD\r\n");
 2678              		.loc 1 874 0
 2679 0016 1348     		ldr	r0, .L203+12
 2680 0018 FFF7FEFF 		bl	USBUART_printf
 2681              	.LVL375:
 875:main.c        ****     USBUART_printf("rescnt  ... reset time counter, number of imported lines and errors\r\n");
 2682              		.loc 1 875 0
 2683 001c 1248     		ldr	r0, .L203+16
 2684 001e FFF7FEFF 		bl	USBUART_printf
 2685              	.LVL376:
 876:main.c        ****     USBUART_printf("cnt     ... show time counter, number of imported lines and errors\r\n");
 2686              		.loc 1 876 0
 2687 0022 1248     		ldr	r0, .L203+20
 2688 0024 FFF7FEFF 		bl	USBUART_printf
 2689              	.LVL377:
 877:main.c        ****     USBUART_printf("dm      ... dump memory\r\n");
 2690              		.loc 1 877 0
 2691 0028 1148     		ldr	r0, .L203+24
 2692 002a FFF7FEFF 		bl	USBUART_printf
 2693              	.LVL378:
 878:main.c        ****     USBUART_printf("tron    ... trace for 16 instructions\r\n");
 2694              		.loc 1 878 0
 2695 002e 1148     		ldr	r0, .L203+28
 2696 0030 FFF7FEFF 		bl	USBUART_printf
 2697              	.LVL379:
 879:main.c        ****     USBUART_printf("vidtest ... test of AND-1Z video RAM (non destructive)\r\n");
 2698              		.loc 1 879 0
 2699 0034 1048     		ldr	r0, .L203+32
 2700 0036 FFF7FEFF 		bl	USBUART_printf
 2701              	.LVL380:
 880:main.c        ****     USBUART_printf("memtest ... test of DTR-1 RAM, test is destructive and needs reset at end\r\n")
 2702              		.loc 1 880 0
 2703 003a 1048     		ldr	r0, .L203+36
 2704 003c FFF7FEFF 		bl	USBUART_printf
 2705              	.LVL381:
 881:main.c        ****     USBUART_printf("reset   ... SAPI-1 reset (RTL pulse)\r\n");
 2706              		.loc 1 881 0
 2707 0040 0F48     		ldr	r0, .L203+40
 2708 0042 FFF7FEFF 		bl	USBUART_printf
 2709              	.LVL382:
 882:main.c        ****     USBUART_printf("help, ? or h ... show this help\r\n");
ARM GAS  C:\Users\Kiwi\AppData\Local\Temp\cckzbvMb.s 			page 67


 2710              		.loc 1 882 0
 2711 0046 0F48     		ldr	r0, .L203+44
 2712 0048 FFF7FEFF 		bl	USBUART_printf
 2713              	.LVL383:
 883:main.c        ****     USBUART_printf("\r\n");
 2714              		.loc 1 883 0
 2715 004c 2046     		mov	r0, r4
 884:main.c        **** 
 885:main.c        ****     /*
 886:main.c        ****     if(rdCnt!=intCnt) {
 887:main.c        ****         USBUART_printf("\r\nProcessing %d OUT interrupts:\r\n", intCnt-rdCnt);
 888:main.c        ****         while(rdCnt!=intCnt) {
 889:main.c        ****             USBUART_printf("OUT: port=%d data=%d\r\n", intQueue[rdCnt].port, intQueue[rdCnt].data);
 890:main.c        ****             // uint8 intStatus = CyEnterCriticalSection();
 891:main.c        ****             rdCnt++;
 892:main.c        ****             //CyExitCriticalSection(intStatus);
 893:main.c        ****         }
 894:main.c        ****     }
 895:main.c        ****     */
 896:main.c        **** }
 2716              		.loc 1 896 0
 2717 004e BDE81040 		pop	{r4, lr}
 2718              		.cfi_restore 14
 2719              		.cfi_restore 4
 2720              		.cfi_def_cfa_offset 0
 883:main.c        ****     USBUART_printf("\r\n");
 2721              		.loc 1 883 0
 2722 0052 FFF7FEBF 		b	USBUART_printf
 2723              	.LVL384:
 2724              	.L204:
 2725 0056 00BF     		.align	2
 2726              	.L203:
 2727 0058 48000000 		.word	.LC7
 2728 005c 35030000 		.word	.LC33
 2729 0060 62030000 		.word	.LC34
 2730 0064 B3030000 		.word	.LC35
 2731 0068 F8030000 		.word	.LC36
 2732 006c 3E040000 		.word	.LC37
 2733 0070 83040000 		.word	.LC38
 2734 0074 9D040000 		.word	.LC39
 2735 0078 C5040000 		.word	.LC40
 2736 007c FE040000 		.word	.LC41
 2737 0080 4A050000 		.word	.LC42
 2738 0084 71050000 		.word	.LC43
 2739              		.cfi_endproc
 2740              	.LFE86:
 2741              		.size	ShowHelp, .-ShowHelp
 2742              		.section	.text.startup.main,"ax",%progbits
 2743              		.align	1
 2744              		.global	main
 2745              		.thumb
 2746              		.thumb_func
 2747              		.type	main, %function
 2748              	main:
 2749              	.LFB87:
 897:main.c        **** 
 898:main.c        **** int main(void)
ARM GAS  C:\Users\Kiwi\AppData\Local\Temp\cckzbvMb.s 			page 68


 899:main.c        **** {
 2750              		.loc 1 899 0
 2751              		.cfi_startproc
 2752              		@ args = 0, pretend = 0, frame = 200
 2753              		@ frame_needed = 0, uses_anonymous_args = 0
 2754 0000 2DE9F04F 		push	{r4, r5, r6, r7, r8, r9, r10, fp, lr}
 2755              		.cfi_def_cfa_offset 36
 2756              		.cfi_offset 4, -36
 2757              		.cfi_offset 5, -32
 2758              		.cfi_offset 6, -28
 2759              		.cfi_offset 7, -24
 2760              		.cfi_offset 8, -20
 2761              		.cfi_offset 9, -16
 2762              		.cfi_offset 10, -12
 2763              		.cfi_offset 11, -8
 2764              		.cfi_offset 14, -4
 2765 0004 B3B0     		sub	sp, sp, #204
 2766              		.cfi_def_cfa_offset 240
 900:main.c        ****     CyGlobalIntEnable; /* Enable global interrupts. */
 2767              		.loc 1 900 0
 2768              		.syntax unified
 2769              	@ 900 "main.c" 1
 2770 0006 62B6     		CPSIE   i
 2771              	@ 0 "" 2
 901:main.c        ****     
 902:main.c        ****     RCM_Int_StartEx( UART_OUT_RCM_Handler );
 2772              		.loc 1 902 0
 2773              		.thumb
 2774              		.syntax unified
 2775 0008 B648     		ldr	r0, .L291
 2776 000a FFF7FEFF 		bl	RCM_Int_StartEx
 2777              	.LVL385:
 903:main.c        ****     RCU_Int_StartEx( UART_OUT_RCU_Handler );
 2778              		.loc 1 903 0
 2779 000e B648     		ldr	r0, .L291+4
 2780 0010 FFF7FEFF 		bl	RCU_Int_StartEx
 2781              	.LVL386:
 904:main.c        ****     ROD_Int_StartEx( UART_OUT_ROD_Handler );
 2782              		.loc 1 904 0
 2783 0014 B548     		ldr	r0, .L291+8
 2784 0016 FFF7FEFF 		bl	ROD_Int_StartEx
 2785              	.LVL387:
 905:main.c        ****     RST_Int_StartEx( UART_OUT_RST_Handler );
 2786              		.loc 1 905 0
 2787 001a B548     		ldr	r0, .L291+12
 2788 001c FFF7FEFF 		bl	RST_Int_StartEx
 2789              	.LVL388:
 906:main.c        ****     RRD_Int_StartEx( UART_IN_RRD_Handler );
 2790              		.loc 1 906 0
 2791 0020 B448     		ldr	r0, .L291+16
 2792 0022 FFF7FEFF 		bl	RRD_Int_StartEx
 2793              	.LVL389:
 907:main.c        ****     M1_Int_StartEx( M1_Int_Handler );
 2794              		.loc 1 907 0
 2795 0026 B448     		ldr	r0, .L291+20
 2796 0028 FFF7FEFF 		bl	M1_Int_StartEx
 2797              	.LVL390:
ARM GAS  C:\Users\Kiwi\AppData\Local\Temp\cckzbvMb.s 			page 69


 908:main.c        ****     M1_Int_Disable();
 2798              		.loc 1 908 0
 2799 002c FFF7FEFF 		bl	M1_Int_Disable
 2800              	.LVL391:
 909:main.c        ****     
 910:main.c        ****     /* Place your initialization/startup code here (e.g. MyInst_Start()) */
 911:main.c        **** 
 912:main.c        ****     //AddrL_Write(0);
 913:main.c        ****     
 914:main.c        ****     Millis_Start();
 2801              		.loc 1 914 0
 2802 0030 FFF7FEFF 		bl	Millis_Start
 2803              	.LVL392:
 915:main.c        ****     I2COLED_Start();
 2804              		.loc 1 915 0
 2805 0034 FFF7FEFF 		bl	I2COLED_Start
 2806              	.LVL393:
 916:main.c        ****     UART_Start();
 2807              		.loc 1 916 0
 2808 0038 FFF7FEFF 		bl	UART_Start
 2809              	.LVL394:
 917:main.c        ****     // uint8 oledStatus = I2COLED_MasterStatus();
 918:main.c        ****     // UART_printf("I2COLED_MasterStatus() = %02X\r\n", oledStatus);
 919:main.c        ****     if(I2COLED_MasterSendStart(DISPLAY_ADDRESS, 0)) {
 2810              		.loc 1 919 0
 2811 003c 0021     		movs	r1, #0
 2812 003e 3C20     		movs	r0, #60
 2813 0040 FFF7FEFF 		bl	I2COLED_MasterSendStart
 2814              	.LVL395:
 2815 0044 AD4D     		ldr	r5, .L291+24
 2816 0046 0446     		mov	r4, r0
 2817 0048 20B1     		cbz	r0, .L206
 920:main.c        ****         I2COLED_MasterSendStop();
 2818              		.loc 1 920 0
 2819 004a FFF7FEFF 		bl	I2COLED_MasterSendStop
 2820              	.LVL396:
 921:main.c        ****         // UART_printf("OLED display NOT present on the bus\r\n");
 922:main.c        ****         noOLED = 1;
 2821              		.loc 1 922 0
 2822 004e 0123     		movs	r3, #1
 2823 0050 AB61     		str	r3, [r5, #24]
 2824 0052 1FE0     		b	.L207
 2825              	.L206:
 923:main.c        ****     } else {
 924:main.c        ****         I2COLED_MasterSendStop();
 2826              		.loc 1 924 0
 2827 0054 FFF7FEFF 		bl	I2COLED_MasterSendStop
 2828              	.LVL397:
 925:main.c        ****         // UART_printf("OLED display present in the bus\r\n");
 926:main.c        ****         //uint8 iniseq[] = {0xA8, 0x3F, 0xD3, 0x00, 0x40, 0xA0, 0xC0, 0xDA, 0x02, 0x81, 0x7F, 0xA4,
 927:main.c        ****         // I2COLED_MasterClearStatus();
 928:main.c        ****         //I2COLED_MasterWriteBuf(DISPLAY_ADDRESS, &iniseq, 18, 0 ); //I2C_MODE_COMPLETE_XFER
 929:main.c        ****         //CyDelay(1000);
 930:main.c        ****         noOLED = 0;
 931:main.c        ****         display_init(DISPLAY_ADDRESS);
 2829              		.loc 1 931 0
 2830 0058 3C20     		movs	r0, #60
ARM GAS  C:\Users\Kiwi\AppData\Local\Temp\cckzbvMb.s 			page 70


 930:main.c        ****         display_init(DISPLAY_ADDRESS);
 2831              		.loc 1 930 0
 2832 005a AC61     		str	r4, [r5, #24]
 2833              		.loc 1 931 0
 2834 005c FFF7FEFF 		bl	display_init
 2835              	.LVL398:
 932:main.c        ****         display_clear();    
 2836              		.loc 1 932 0
 2837 0060 FFF7FEFF 		bl	display_clear
 2838              	.LVL399:
 933:main.c        ****         gfx_setTextSize(2);
 2839              		.loc 1 933 0
 2840 0064 0220     		movs	r0, #2
 2841 0066 FFF7FEFF 		bl	gfx_setTextSize
 2842              	.LVL400:
 934:main.c        ****         gfx_setTextColor(WHITE);
 2843              		.loc 1 934 0
 2844 006a 0120     		movs	r0, #1
 2845 006c FFF7FEFF 		bl	gfx_setTextColor
 2846              	.LVL401:
 935:main.c        ****         gfx_setTextBg(BLACK);
 2847              		.loc 1 935 0
 2848 0070 2046     		mov	r0, r4
 2849 0072 FFF7FEFF 		bl	gfx_setTextBg
 2850              	.LVL402:
 936:main.c        ****         gfx_setCursor(0,0);
 2851              		.loc 1 936 0
 2852 0076 2146     		mov	r1, r4
 2853 0078 2046     		mov	r0, r4
 2854 007a FFF7FEFF 		bl	gfx_setCursor
 2855              	.LVL403:
 937:main.c        ****         gfx_println("SAPI DTR-1");
 2856              		.loc 1 937 0
 2857 007e A048     		ldr	r0, .L291+28
 2858 0080 FFF7FEFF 		bl	gfx_println
 2859              	.LVL404:
 938:main.c        ****         gfx_println("8bity.cz");
 2860              		.loc 1 938 0
 2861 0084 9F48     		ldr	r0, .L291+32
 2862 0086 FFF7FEFF 		bl	gfx_println
 2863              	.LVL405:
 939:main.c        ****         gfx_println("2021042501");
 2864              		.loc 1 939 0
 2865 008a 9F48     		ldr	r0, .L291+36
 2866 008c FFF7FEFF 		bl	gfx_println
 2867              	.LVL406:
 940:main.c        ****         display_update();
 2868              		.loc 1 940 0
 2869 0090 FFF7FEFF 		bl	display_update
 2870              	.LVL407:
 2871              	.L207:
 941:main.c        ****     }
 942:main.c        **** 
 943:main.c        ****     cntTime = Millis_ReadCounter();
 2872              		.loc 1 943 0
 2873 0094 FFF7FEFF 		bl	Millis_ReadCounter
 2874              	.LVL408:
ARM GAS  C:\Users\Kiwi\AppData\Local\Temp\cckzbvMb.s 			page 71


 2875 0098 9C4C     		ldr	r4, .L291+40
 944:main.c        ****     
 945:main.c        ****     USBUART_Start(0, USBUART_5V_OPERATION); //!!NOTE!! Make sure this matches your board voltage!
 2876              		.loc 1 945 0
 2877 009a 0121     		movs	r1, #1
 943:main.c        ****     
 2878              		.loc 1 943 0
 2879 009c 2061     		str	r0, [r4, #16]
 2880              		.loc 1 945 0
 2881 009e 0020     		movs	r0, #0
 2882 00a0 FFF7FEFF 		bl	USBUART_Start
 2883              	.LVL409:
 946:main.c        ****     uint32 timeout = Millis_ReadCounter();
 2884              		.loc 1 946 0
 2885 00a4 FFF7FEFF 		bl	Millis_ReadCounter
 2886              	.LVL410:
 2887 00a8 0646     		mov	r6, r0
 2888              	.LVL411:
 2889              	.L208:
 947:main.c        ****     while((!USBUART_GetConfiguration()) && (Millis_ReadCounter()-timeout<2000)){
 2890              		.loc 1 947 0
 2891 00aa FFF7FEFF 		bl	USBUART_GetConfiguration
 2892              	.LVL412:
 2893 00ae 48B1     		cbz	r0, .L209
 2894              	.L213:
 948:main.c        ****         CyDelay(1);
 949:main.c        ****     }
 950:main.c        ****     if(Millis_ReadCounter()-timeout<2000) {
 2895              		.loc 1 950 0
 2896 00b0 FFF7FEFF 		bl	Millis_ReadCounter
 2897              	.LVL413:
 2898 00b4 801B     		subs	r0, r0, r6
 2899 00b6 B0F5FA6F 		cmp	r0, #2000
 2900 00ba 0DD2     		bcs	.L286
 951:main.c        ****         USBUART_CDC_Init();
 2901              		.loc 1 951 0
 2902 00bc FFF7FEFF 		bl	USBUART_CDC_Init
 2903              	.LVL414:
 952:main.c        ****         noUART = 0;
 2904              		.loc 1 952 0
 2905 00c0 0023     		movs	r3, #0
 2906 00c2 0AE0     		b	.L288
 2907              	.L209:
 947:main.c        ****         CyDelay(1);
 2908              		.loc 1 947 0 discriminator 1
 2909 00c4 FFF7FEFF 		bl	Millis_ReadCounter
 2910              	.LVL415:
 2911 00c8 801B     		subs	r0, r0, r6
 2912 00ca B0F5FA6F 		cmp	r0, #2000
 2913 00ce EFD2     		bcs	.L213
 948:main.c        ****     }
 2914              		.loc 1 948 0
 2915 00d0 0120     		movs	r0, #1
 2916 00d2 FFF7FEFF 		bl	CyDelay
 2917              	.LVL416:
 2918 00d6 E8E7     		b	.L208
 2919              	.L286:
ARM GAS  C:\Users\Kiwi\AppData\Local\Temp\cckzbvMb.s 			page 72


 953:main.c        ****         /*gfx_setCursor(0,32);
 954:main.c        ****         gfx_print("Ready     ");
 955:main.c        ****         gfx_print("          ");
 956:main.c        ****         display_update();*/
 957:main.c        ****     } else {
 958:main.c        ****         noUART = 1;
 2920              		.loc 1 958 0
 2921 00d8 0123     		movs	r3, #1
 2922              	.L288:
 959:main.c        ****         /*gfx_setCursor(0,32);
 960:main.c        ****         gfx_print("No USBUART");
 961:main.c        ****         gfx_print("          ");
 962:main.c        ****         display_update();*/
 963:main.c        ****     }
 964:main.c        ****     USBUART_printf("");
 2923              		.loc 1 964 0
 2924 00da 8D48     		ldr	r0, .L291+44
 958:main.c        ****         /*gfx_setCursor(0,32);
 2925              		.loc 1 958 0
 2926 00dc 2B60     		str	r3, [r5]
 2927              		.loc 1 964 0
 2928 00de FFF7FEFF 		bl	USBUART_printf
 2929              	.LVL417:
 965:main.c        ****     USBUART_printf("\r\nSAPI-1 DTR-1 board based on CY8CKIT-059 rev.231709");
 2930              		.loc 1 965 0
 2931 00e2 8C48     		ldr	r0, .L291+48
 2932 00e4 FFF7FEFF 		bl	USBUART_printf
 2933              	.LVL418:
 966:main.c        ****     USBUART_printf("  (c) 2021-23 martin@8bity.cz\r\n\r\n");
 2934              		.loc 1 966 0
 2935 00e8 8B48     		ldr	r0, .L291+52
 2936 00ea FFF7FEFF 		bl	USBUART_printf
 2937              	.LVL419:
 967:main.c        **** 
 968:main.c        ****     //USBUART_printf("CTS = %d\r\n", CTS_Read());
 969:main.c        ****     if( CTS_Read()==1 ) {
 2938              		.loc 1 969 0
 2939 00ee FFF7FEFF 		bl	CTS_Read
 2940              	.LVL420:
 2941 00f2 0128     		cmp	r0, #1
 2942 00f4 06D1     		bne	.L215
 970:main.c        ****         RSM_Write(0x20);
 2943              		.loc 1 970 0
 2944 00f6 2020     		movs	r0, #32
 2945 00f8 FFF7FEFF 		bl	RSM_Write
 2946              	.LVL421:
 971:main.c        ****         USBUART_printf("Console set to AND-1Z and Consul 262.3/259.11\r\n");
 2947              		.loc 1 971 0
 2948 00fc 8748     		ldr	r0, .L291+56
 2949 00fe FFF7FEFF 		bl	USBUART_printf
 2950              	.LVL422:
 2951 0102 08E0     		b	.L216
 2952              	.L215:
 972:main.c        ****     } else {
 973:main.c        ****         RSM_Write(0x00);
 2953              		.loc 1 973 0
 2954 0104 0020     		movs	r0, #0
ARM GAS  C:\Users\Kiwi\AppData\Local\Temp\cckzbvMb.s 			page 73


 2955 0106 FFF7FEFF 		bl	RSM_Write
 2956              	.LVL423:
 974:main.c        ****         USBUART_printf("Console set to RS-232c RTS/CTS flow control\r\n");
 2957              		.loc 1 974 0
 2958 010a 8548     		ldr	r0, .L291+60
 2959 010c FFF7FEFF 		bl	USBUART_printf
 2960              	.LVL424:
 975:main.c        ****         UART_printf("\r\nHello to UART RS-232c console\r\n");
 2961              		.loc 1 975 0
 2962 0110 8448     		ldr	r0, .L291+64
 2963 0112 FFF7FEFF 		bl	UART_printf
 2964              	.LVL425:
 2965              	.L216:
 976:main.c        ****     }
 977:main.c        ****     
 978:main.c        ****     if(noOLED) {
 2966              		.loc 1 978 0
 2967 0116 AB69     		ldr	r3, [r5, #24]
 2968 0118 0BB1     		cbz	r3, .L217
 979:main.c        ****         USBUART_printf("OLED display not found.\r\n");
 2969              		.loc 1 979 0
 2970 011a 8348     		ldr	r0, .L291+68
 2971 011c 00E0     		b	.L289
 2972              	.L217:
 980:main.c        ****     } else {
 981:main.c        ****         USBUART_printf("OLED display detected.\r\n");
 2973              		.loc 1 981 0
 2974 011e 8348     		ldr	r0, .L291+72
 2975              	.L289:
 982:main.c        ****     }
 983:main.c        ****     instCnt=0;
 2976              		.loc 1 983 0
 2977 0120 0025     		movs	r5, #0
 981:main.c        ****     }
 2978              		.loc 1 981 0
 2979 0122 FFF7FEFF 		bl	USBUART_printf
 2980              	.LVL426:
 984:main.c        ****     instRdCnt=0;
 985:main.c        ****     nWAIT_Write(1);
 2981              		.loc 1 985 0
 2982 0126 0120     		movs	r0, #1
 983:main.c        ****     instRdCnt=0;
 2983              		.loc 1 983 0
 2984 0128 6570     		strb	r5, [r4, #1]
 984:main.c        ****     instRdCnt=0;
 2985              		.loc 1 984 0
 2986 012a 2575     		strb	r5, [r4, #20]
 2987              		.loc 1 985 0
 2988 012c FFF7FEFF 		bl	nWAIT_Write
 2989              	.LVL427:
 986:main.c        ****     //CyDelay(2);
 987:main.c        ****     SAPI_Reset();
 2990              		.loc 1 987 0
 2991 0130 FFF7FEFF 		bl	SAPI_Reset
 2992              	.LVL428:
 988:main.c        ****     int getInst=0;
 989:main.c        ****     int tron=0;
ARM GAS  C:\Users\Kiwi\AppData\Local\Temp\cckzbvMb.s 			page 74


 990:main.c        ****     M1_Int_ClearPending();
 2993              		.loc 1 990 0
 2994 0134 FFF7FEFF 		bl	M1_Int_ClearPending
 2995              	.LVL429:
 991:main.c        ****     // M1_Int_Enable();
 992:main.c        ****     
 993:main.c        ****     
 994:main.c        ****     char cmdline[128];
 995:main.c        ****     uint8 inbuf[64];
 996:main.c        ****     cmdline[0] = 0;
 997:main.c        ****     char ch;
 998:main.c        ****     // char tmpstr[256];
 999:main.c        ****     int len;
1000:main.c        ****     uint8 noPrompt = 0;
1001:main.c        **** 
1002:main.c        ****     USBUART_printf("DTR>");
 2996              		.loc 1 1002 0
 2997 0138 7D48     		ldr	r0, .L291+76
 996:main.c        ****     char ch;
 2998              		.loc 1 996 0
 2999 013a 8DF84850 		strb	r5, [sp, #72]
 3000              	.LVL430:
 989:main.c        ****     M1_Int_ClearPending();
 3001              		.loc 1 989 0
 3002 013e A846     		mov	r8, r5
 3003              		.loc 1 1002 0
 3004 0140 FFF7FEFF 		bl	USBUART_printf
 3005              	.LVL431:
 988:main.c        ****     int tron=0;
 3006              		.loc 1 988 0
 3007 0144 2F46     		mov	r7, r5
1003:main.c        ****     for(;;)
1004:main.c        ****     {
1005:main.c        ****         // process DSM-1 Register interrupt queue
1006:main.c        ****         if(rdCnt!=intCnt) {
1007:main.c        ****             // USBUART_printf("\r\nProcessing %d OUT interrupts:\r\n", intCnt-rdCnt);
1008:main.c        ****             while(rdCnt!=intCnt) {
 3008              		.loc 1 1008 0
 3009 0146 DFF8C491 		ldr	r9, .L291+40
 3010              	.LVL432:
 3011              	.L228:
1006:main.c        ****             // USBUART_printf("\r\nProcessing %d OUT interrupts:\r\n", intCnt-rdCnt);
 3012              		.loc 1 1006 0
 3013 014a 627D     		ldrb	r2, [r4, #21]	@ zero_extendqisi2
 3014 014c 2378     		ldrb	r3, [r4]	@ zero_extendqisi2
 3015 014e 9A42     		cmp	r2, r3
 3016 0150 16D1     		bne	.L285
 3017              	.L225:
1009:main.c        ****                 // USBUART_printf("OUT: port=%d data=%d\r\n", intQueue[rdCnt].port, intQueue[rdCnt]
1010:main.c        ****                 // uint8 intStatus = CyEnterCriticalSection();
1011:main.c        ****                 switch(intQueue[rdCnt].port) {
1012:main.c        ****                     case 0x10: // RCM
1013:main.c        ****                         break;
1014:main.c        ****                     case 0x11: // RCU
1015:main.c        ****                         break;
1016:main.c        ****                     case 0x12: // ROD
1017:main.c        ****                         UART_PutChar(intQueue[rdCnt].data);
ARM GAS  C:\Users\Kiwi\AppData\Local\Temp\cckzbvMb.s 			page 75


1018:main.c        ****                         break;
1019:main.c        ****                     case 0x13: // RST
1020:main.c        ****                         break;
1021:main.c        ****                 }
1022:main.c        ****                 rdCnt++;
1023:main.c        ****                 //CyExitCriticalSection(intStatus);
1024:main.c        ****             }
1025:main.c        ****         }
1026:main.c        **** 
1027:main.c        ****         // process Instruction (M1) interrupt queue
1028:main.c        ****         if(instRdCnt!=instCnt) {
 3018              		.loc 1 1028 0
 3019 0152 227D     		ldrb	r2, [r4, #20]	@ zero_extendqisi2
 3020 0154 6378     		ldrb	r3, [r4, #1]	@ zero_extendqisi2
 3021 0156 9A42     		cmp	r2, r3
 3022 0158 17D1     		bne	.L220
 3023 015a 3AE0     		b	.L221
 3024              	.L224:
1011:main.c        ****                     case 0x10: // RCM
 3025              		.loc 1 1011 0
 3026 015c 99F81530 		ldrb	r3, [r9, #21]	@ zero_extendqisi2
 3027 0160 744A     		ldr	r2, .L291+80
 3028 0162 12F81330 		ldrb	r3, [r2, r3, lsl #1]	@ zero_extendqisi2
 3029 0166 122B     		cmp	r3, #18
 3030 0168 06D1     		bne	.L222
1017:main.c        ****                         break;
 3031              		.loc 1 1017 0
 3032 016a 99F81530 		ldrb	r3, [r9, #21]	@ zero_extendqisi2
 3033 016e 02EB4303 		add	r3, r2, r3, lsl #1
 3034 0172 5878     		ldrb	r0, [r3, #1]	@ zero_extendqisi2
 3035 0174 FFF7FEFF 		bl	UART_PutChar
 3036              	.LVL433:
 3037              	.L222:
1022:main.c        ****                 //CyExitCriticalSection(intStatus);
 3038              		.loc 1 1022 0
 3039 0178 637D     		ldrb	r3, [r4, #21]	@ zero_extendqisi2
 3040 017a 0133     		adds	r3, r3, #1
 3041 017c DBB2     		uxtb	r3, r3
 3042 017e 6375     		strb	r3, [r4, #21]
 3043              	.L285:
1008:main.c        ****                 // USBUART_printf("OUT: port=%d data=%d\r\n", intQueue[rdCnt].port, intQueue[rdCnt]
 3044              		.loc 1 1008 0
 3045 0180 627D     		ldrb	r2, [r4, #21]	@ zero_extendqisi2
 3046 0182 2378     		ldrb	r3, [r4]	@ zero_extendqisi2
 3047 0184 9A42     		cmp	r2, r3
 3048 0186 E9D1     		bne	.L224
 3049 0188 E3E7     		b	.L225
 3050              	.L220:
1029:main.c        ****             if(getInst>0) {
 3051              		.loc 1 1029 0
 3052 018a BFB1     		cbz	r7, .L226
1030:main.c        ****                 USBUART_printf("TR %04X:%02X\r\n", instQueue[instRdCnt].addr, instQueue[instRdCnt].
 3053              		.loc 1 1030 0
 3054 018c 99F81400 		ldrb	r0, [r9, #20]	@ zero_extendqisi2
 3055 0190 6949     		ldr	r1, .L291+84
 3056 0192 99F81430 		ldrb	r3, [r9, #20]	@ zero_extendqisi2
 3057 0196 01EB8303 		add	r3, r1, r3, lsl #2
ARM GAS  C:\Users\Kiwi\AppData\Local\Temp\cckzbvMb.s 			page 76


 3058 019a 9A78     		ldrb	r2, [r3, #2]	@ zero_extendqisi2
 3059 019c 31F82010 		ldrh	r1, [r1, r0, lsl #2]
 3060 01a0 6648     		ldr	r0, .L291+88
 3061 01a2 FFF7FEFF 		bl	USBUART_printf
 3062              	.LVL434:
1031:main.c        ****                 getInst--;
1032:main.c        ****                 if(getInst==0) {
 3063              		.loc 1 1032 0
 3064 01a6 013F     		subs	r7, r7, #1
 3065              	.LVL435:
 3066 01a8 08D1     		bne	.L226
1033:main.c        ****                     M1_Int_Disable();
 3067              		.loc 1 1033 0
 3068 01aa FFF7FEFF 		bl	M1_Int_Disable
 3069              	.LVL436:
1034:main.c        ****                     M1_Int_ClearPending();
 3070              		.loc 1 1034 0
 3071 01ae FFF7FEFF 		bl	M1_Int_ClearPending
 3072              	.LVL437:
1035:main.c        ****                     tron=0;
1036:main.c        ****                     USBUART_printf("DTR>");
 3073              		.loc 1 1036 0
 3074 01b2 5F48     		ldr	r0, .L291+76
 3075 01b4 FFF7FEFF 		bl	USBUART_printf
 3076              	.LVL438:
1037:main.c        ****                     noPrompt = 0;
 3077              		.loc 1 1037 0
 3078 01b8 3D46     		mov	r5, r7
1035:main.c        ****                     tron=0;
 3079              		.loc 1 1035 0
 3080 01ba B846     		mov	r8, r7
 3081              	.LVL439:
 3082              	.L226:
1038:main.c        ****                 }
1039:main.c        ****             }
1040:main.c        ****             //USBUART_printf("%02X ", instQueue[instRdCnt].data);
1041:main.c        ****             instRdCnt++;
 3083              		.loc 1 1041 0
 3084 01bc 237D     		ldrb	r3, [r4, #20]	@ zero_extendqisi2
 3085 01be 0133     		adds	r3, r3, #1
 3086 01c0 DBB2     		uxtb	r3, r3
 3087 01c2 2375     		strb	r3, [r4, #20]
1042:main.c        ****             if(instRdCnt==instCnt)
 3088              		.loc 1 1042 0
 3089 01c4 227D     		ldrb	r2, [r4, #20]	@ zero_extendqisi2
 3090 01c6 6378     		ldrb	r3, [r4, #1]	@ zero_extendqisi2
 3091 01c8 9A42     		cmp	r2, r3
 3092 01ca 02D1     		bne	.L221
1043:main.c        ****                 nWAIT_Write(1);
 3093              		.loc 1 1043 0
 3094 01cc 0120     		movs	r0, #1
 3095 01ce FFF7FEFF 		bl	nWAIT_Write
 3096              	.LVL440:
 3097              	.L221:
1044:main.c        ****         }
1045:main.c        ****         
1046:main.c        ****         if(UART_GetRxBufferSize()>0) {
ARM GAS  C:\Users\Kiwi\AppData\Local\Temp\cckzbvMb.s 			page 77


 3098              		.loc 1 1046 0
 3099 01d2 FFF7FEFF 		bl	UART_GetRxBufferSize
 3100              	.LVL441:
 3101 01d6 58B1     		cbz	r0, .L227
1047:main.c        ****             RRD_Write( UART_GetByte() & 0x00FF );
 3102              		.loc 1 1047 0
 3103 01d8 FFF7FEFF 		bl	UART_GetByte
 3104              	.LVL442:
 3105 01dc C0B2     		uxtb	r0, r0
 3106 01de FFF7FEFF 		bl	RRD_Write
 3107              	.LVL443:
1048:main.c        ****             RSU_Write( RSU_Read() | 0x80 );
 3108              		.loc 1 1048 0
 3109 01e2 FFF7FEFF 		bl	RSU_Read
 3110              	.LVL444:
 3111 01e6 60F07F00 		orn	r0, r0, #127
 3112 01ea C0B2     		uxtb	r0, r0
 3113 01ec FFF7FEFF 		bl	RSU_Write
 3114              	.LVL445:
 3115              	.L227:
1049:main.c        ****         }
1050:main.c        ****         // process USBUART - command line
1051:main.c        ****         if(USBUART_DataIsReady()>0) {
 3116              		.loc 1 1051 0
 3117 01f0 FFF7FEFF 		bl	USBUART_DataIsReady
 3118              	.LVL446:
 3119 01f4 0028     		cmp	r0, #0
 3120 01f6 A8D0     		beq	.L228
 3121              	.LBB68:
1052:main.c        ****             int dtalen = USBUART_GetAll(inbuf);
 3122              		.loc 1 1052 0
 3123 01f8 02A8     		add	r0, sp, #8
 3124 01fa FFF7FEFF 		bl	USBUART_GetAll
 3125              	.LVL447:
 3126 01fe 0DF10703 		add	r3, sp, #7
 3127 0202 0093     		str	r3, [sp]
 3128 0204 0138     		subs	r0, r0, #1
 3129              	.LVL448:
 3130 0206 02AB     		add	r3, sp, #8
 3131 0208 0344     		add	r3, r3, r0
 3132 020a 0193     		str	r3, [sp, #4]
 3133              	.LVL449:
 3134              	.L229:
 3135              	.LBB69:
1053:main.c        ****             for(int i=0; i<dtalen; i++) {
 3136              		.loc 1 1053 0 discriminator 1
 3137 020c 009B     		ldr	r3, [sp]
 3138 020e 019A     		ldr	r2, [sp, #4]
 3139 0210 9342     		cmp	r3, r2
 3140 0212 9AD0     		beq	.L228
1054:main.c        ****                 ch = inbuf[i];
 3141              		.loc 1 1054 0
 3142 0214 009B     		ldr	r3, [sp]
 3143 0216 13F8016F 		ldrb	r6, [r3, #1]!	@ zero_extendqisi2
1055:main.c        ****                 switch(ch) {
 3144              		.loc 1 1055 0
 3145 021a 0D2E     		cmp	r6, #13
ARM GAS  C:\Users\Kiwi\AppData\Local\Temp\cckzbvMb.s 			page 78


1054:main.c        ****                 ch = inbuf[i];
 3146              		.loc 1 1054 0
 3147 021c 0093     		str	r3, [sp]
 3148              	.LVL450:
 3149              		.loc 1 1055 0
 3150 021e 17D0     		beq	.L231
 3151 0220 02D8     		bhi	.L232
 3152 0222 082E     		cmp	r6, #8
 3153 0224 06D0     		beq	.L233
 3154 0226 F1E7     		b	.L229
 3155              	.L232:
 3156 0228 A6F12003 		sub	r3, r6, #32
 3157              	.LVL451:
 3158 022c 5F2B     		cmp	r3, #95
 3159 022e 40F25581 		bls	.L287
 3160 0232 EBE7     		b	.L229
 3161              	.LVL452:
 3162              	.L233:
 3163              	.LBB70:
1056:main.c        ****                   case 0x08: // backpasce
1057:main.c        ****                     len = strlen(cmdline);
 3164              		.loc 1 1057 0
 3165 0234 12A8     		add	r0, sp, #72
 3166 0236 FFF7FEFF 		bl	strlen
 3167              	.LVL453:
1058:main.c        ****                     if(len>0) {
 3168              		.loc 1 1058 0
 3169 023a 0028     		cmp	r0, #0
 3170 023c E6DD     		ble	.L229
1059:main.c        ****                         cmdline[len-1] = 0;
 3171              		.loc 1 1059 0
 3172 023e 32AB     		add	r3, sp, #200
 3173 0240 1844     		add	r0, r0, r3
 3174              	.LVL454:
 3175 0242 0023     		movs	r3, #0
 3176 0244 00F8813C 		strb	r3, [r0, #-129]
1060:main.c        ****                         USBUART_printf("\b \b");            
 3177              		.loc 1 1060 0
 3178 0248 3D48     		ldr	r0, .L291+92
 3179 024a FFF7FEFF 		bl	USBUART_printf
 3180              	.LVL455:
 3181 024e DDE7     		b	.L229
 3182              	.LVL456:
 3183              	.L231:
1061:main.c        ****                     }
1062:main.c        ****                     break;
1063:main.c        ****                   case 0x0D: // Enter
1064:main.c        ****                     // USBUART_printf("\r\nWill process: [%s]\r\n", cmdline);
1065:main.c        ****                     USBUART_printf("\r\n");
 3184              		.loc 1 1065 0
 3185 0250 3C48     		ldr	r0, .L291+96
1066:main.c        ****                     int cmdprocessed = 0;
1067:main.c        ****                     if(cmdline[0]==':' && !cmdprocessed) {
 3186              		.loc 1 1067 0
 3187 0252 32AE     		add	r6, sp, #200
 3188              	.LVL457:
1065:main.c        ****                     int cmdprocessed = 0;
ARM GAS  C:\Users\Kiwi\AppData\Local\Temp\cckzbvMb.s 			page 79


 3189              		.loc 1 1065 0
 3190 0254 FFF7FEFF 		bl	USBUART_printf
 3191              	.LVL458:
 3192              		.loc 1 1067 0
 3193 0258 16F8803D 		ldrb	r3, [r6, #-128]!	@ zero_extendqisi2
 3194 025c 3A2B     		cmp	r3, #58
 3195 025e 06D1     		bne	.L253
1068:main.c        ****                         ProcessHEX(cmdline);
 3196              		.loc 1 1068 0
 3197 0260 3046     		mov	r0, r6
 3198 0262 FFF7FEFF 		bl	ProcessHEX
 3199              	.LVL459:
1069:main.c        ****                         cmdprocessed = 1;
 3200              		.loc 1 1069 0
 3201 0266 4FF0010A 		mov	r10, #1
1070:main.c        ****                         noPrompt = 0;
 3202              		.loc 1 1070 0
 3203 026a 0025     		movs	r5, #0
 3204 026c 01E0     		b	.L235
 3205              	.LVL460:
 3206              	.L253:
1066:main.c        ****                     if(cmdline[0]==':' && !cmdprocessed) {
 3207              		.loc 1 1066 0
 3208 026e 4FF0000A 		mov	r10, #0
 3209              	.LVL461:
 3210              	.L235:
1071:main.c        ****                     }
1072:main.c        ****                     if((strncmp(cmdline, "help", 4)==0 || strcmp(cmdline, "?")==0 || strcmp(cmdline
 3211              		.loc 1 1072 0
 3212 0272 0422     		movs	r2, #4
 3213 0274 3449     		ldr	r1, .L291+100
 3214 0276 3046     		mov	r0, r6
 3215 0278 FFF7FEFF 		bl	strncmp
 3216              	.LVL462:
 3217 027c 48B1     		cbz	r0, .L236
 3218              		.loc 1 1072 0 is_stmt 0 discriminator 2
 3219 027e 3349     		ldr	r1, .L291+104
 3220 0280 3046     		mov	r0, r6
 3221 0282 FFF7FEFF 		bl	strcmp
 3222              	.LVL463:
 3223 0286 20B1     		cbz	r0, .L236
 3224              		.loc 1 1072 0 discriminator 4
 3225 0288 3149     		ldr	r1, .L291+108
 3226 028a 3046     		mov	r0, r6
 3227 028c FFF7FEFF 		bl	strcmp
 3228              	.LVL464:
 3229 0290 50B9     		cbnz	r0, .L237
 3230              	.L236:
 3231              		.loc 1 1072 0 discriminator 5
 3232 0292 BAF1000F 		cmp	r10, #0
 3233 0296 05D1     		bne	.L254
1073:main.c        ****                         ShowHelp();
 3234              		.loc 1 1073 0 is_stmt 1
 3235 0298 FFF7FEFF 		bl	ShowHelp
 3236              	.LVL465:
1074:main.c        ****                         cmdprocessed = 1;
 3237              		.loc 1 1074 0
ARM GAS  C:\Users\Kiwi\AppData\Local\Temp\cckzbvMb.s 			page 80


 3238 029c 4FF0010A 		mov	r10, #1
1075:main.c        ****                         noPrompt = 0;
 3239              		.loc 1 1075 0
 3240 02a0 0025     		movs	r5, #0
 3241 02a2 01E0     		b	.L237
 3242              	.LVL466:
 3243              	.L254:
 3244 02a4 4FF0010A 		mov	r10, #1
 3245              	.LVL467:
 3246              	.L237:
1076:main.c        ****                     }
1077:main.c        ****                     if(strcmp(cmdline, "zdump")==0 && !cmdprocessed) {
 3247              		.loc 1 1077 0
 3248 02a8 2A49     		ldr	r1, .L291+112
 3249 02aa 3046     		mov	r0, r6
 3250 02ac FFF7FEFF 		bl	strcmp
 3251              	.LVL468:
 3252 02b0 8346     		mov	fp, r0
 3253 02b2 50B9     		cbnz	r0, .L238
 3254              		.loc 1 1077 0 is_stmt 0 discriminator 1
 3255 02b4 BAF1000F 		cmp	r10, #0
 3256 02b8 05D1     		bne	.L255
1078:main.c        ****                         DumpZRMD();
 3257              		.loc 1 1078 0 is_stmt 1
 3258 02ba FFF7FEFF 		bl	DumpZRMD
 3259              	.LVL469:
1079:main.c        ****                         cmdprocessed = 1;
 3260              		.loc 1 1079 0
 3261 02be 4FF0010A 		mov	r10, #1
1080:main.c        ****                         noPrompt = 0;
 3262              		.loc 1 1080 0
 3263 02c2 5D46     		mov	r5, fp
 3264 02c4 01E0     		b	.L238
 3265              	.LVL470:
 3266              	.L255:
 3267 02c6 4FF0010A 		mov	r10, #1
 3268              	.LVL471:
 3269              	.L238:
1081:main.c        ****                     }
1082:main.c        ****                     if(strcmp(cmdline, "dumpu")==0 && !cmdprocessed) {
 3270              		.loc 1 1082 0
 3271 02ca 2349     		ldr	r1, .L291+116
 3272 02cc 3046     		mov	r0, r6
 3273 02ce FFF7FEFF 		bl	strcmp
 3274              	.LVL472:
 3275 02d2 0028     		cmp	r0, #0
 3276 02d4 44D1     		bne	.L239
 3277              		.loc 1 1082 0 is_stmt 0 discriminator 1
 3278 02d6 BAF1000F 		cmp	r10, #0
 3279 02da 3FD1     		bne	.L256
1083:main.c        ****                         // DumpZRMD_UART();
1084:main.c        ****                         cmdprocessed = 1;
 3280              		.loc 1 1084 0 is_stmt 1
 3281 02dc 4FF0010A 		mov	r10, #1
 3282              	.LVL473:
1085:main.c        ****                         noPrompt = 0;
 3283              		.loc 1 1085 0
ARM GAS  C:\Users\Kiwi\AppData\Local\Temp\cckzbvMb.s 			page 81


 3284 02e0 0546     		mov	r5, r0
 3285              	.LVL474:
 3286 02e2 3DE0     		b	.L239
 3287              	.L292:
 3288              		.align	2
 3289              	.L291:
 3290 02e4 00000000 		.word	UART_OUT_RCM_Handler
 3291 02e8 00000000 		.word	UART_OUT_RCU_Handler
 3292 02ec 00000000 		.word	UART_OUT_ROD_Handler
 3293 02f0 00000000 		.word	UART_OUT_RST_Handler
 3294 02f4 00000000 		.word	UART_IN_RRD_Handler
 3295 02f8 00000000 		.word	M1_Int_Handler
 3296 02fc 00000000 		.word	.LANCHOR1
 3297 0300 93050000 		.word	.LC44
 3298 0304 9E050000 		.word	.LC45
 3299 0308 A7050000 		.word	.LC46
 3300 030c 00000000 		.word	.LANCHOR0
 3301 0310 B2050000 		.word	.LC47
 3302 0314 B3050000 		.word	.LC48
 3303 0318 E8050000 		.word	.LC49
 3304 031c 0A060000 		.word	.LC50
 3305 0320 3A060000 		.word	.LC51
 3306 0324 68060000 		.word	.LC52
 3307 0328 8A060000 		.word	.LC53
 3308 032c A4060000 		.word	.LC54
 3309 0330 BD060000 		.word	.LC55
 3310 0334 00000000 		.word	intQueue
 3311 0338 00000000 		.word	instQueue
 3312 033c C2060000 		.word	.LC56
 3313 0340 D1060000 		.word	.LC57
 3314 0344 48000000 		.word	.LC7
 3315 0348 D5060000 		.word	.LC58
 3316 034c DA060000 		.word	.LC59
 3317 0350 DC060000 		.word	.LC60
 3318 0354 DE060000 		.word	.LC61
 3319 0358 E4060000 		.word	.LC62
 3320              	.LVL475:
 3321              	.L256:
 3322 035c 4FF0010A 		mov	r10, #1
 3323              	.LVL476:
 3324              	.L239:
1086:main.c        ****                     }
1087:main.c        ****                     if(strcmp(cmdline, "dm")==0 && !cmdprocessed) {
 3325              		.loc 1 1087 0
 3326 0360 6949     		ldr	r1, .L293
 3327 0362 3046     		mov	r0, r6
 3328 0364 FFF7FEFF 		bl	strcmp
 3329              	.LVL477:
 3330 0368 8346     		mov	fp, r0
 3331 036a 60B9     		cbnz	r0, .L240
 3332              		.loc 1 1087 0 is_stmt 0 discriminator 1
 3333 036c BAF1000F 		cmp	r10, #0
 3334 0370 07D1     		bne	.L257
1088:main.c        ****                         DumpMem(0xF000);
 3335              		.loc 1 1088 0 is_stmt 1
 3336 0372 4FF47040 		mov	r0, #61440
 3337 0376 FFF7FEFF 		bl	DumpMem
ARM GAS  C:\Users\Kiwi\AppData\Local\Temp\cckzbvMb.s 			page 82


 3338              	.LVL478:
1089:main.c        ****                         cmdprocessed = 1;
 3339              		.loc 1 1089 0
 3340 037a 4FF0010A 		mov	r10, #1
1090:main.c        ****                         noPrompt = 0;
 3341              		.loc 1 1090 0
 3342 037e 5D46     		mov	r5, fp
 3343 0380 01E0     		b	.L240
 3344              	.LVL479:
 3345              	.L257:
 3346 0382 4FF0010A 		mov	r10, #1
 3347              	.LVL480:
 3348              	.L240:
1091:main.c        ****                     }
1092:main.c        ****                     if(strcmp(cmdline, "vidtest")==0 && !cmdprocessed) {
 3349              		.loc 1 1092 0
 3350 0386 6149     		ldr	r1, .L293+4
 3351 0388 3046     		mov	r0, r6
 3352 038a FFF7FEFF 		bl	strcmp
 3353              	.LVL481:
 3354 038e 8346     		mov	fp, r0
 3355 0390 50B9     		cbnz	r0, .L241
 3356              		.loc 1 1092 0 is_stmt 0 discriminator 1
 3357 0392 BAF1000F 		cmp	r10, #0
 3358 0396 05D1     		bne	.L258
1093:main.c        ****                         TestVideo();
 3359              		.loc 1 1093 0 is_stmt 1
 3360 0398 FFF7FEFF 		bl	TestVideo
 3361              	.LVL482:
1094:main.c        ****                         cmdprocessed = 1;
 3362              		.loc 1 1094 0
 3363 039c 4FF0010A 		mov	r10, #1
1095:main.c        ****                         noPrompt = 0;
 3364              		.loc 1 1095 0
 3365 03a0 5D46     		mov	r5, fp
 3366 03a2 01E0     		b	.L241
 3367              	.LVL483:
 3368              	.L258:
 3369 03a4 4FF0010A 		mov	r10, #1
 3370              	.LVL484:
 3371              	.L241:
1096:main.c        ****                     }
1097:main.c        ****                     if(strcmp(cmdline, "hex")==0 && !cmdprocessed) {
 3372              		.loc 1 1097 0
 3373 03a8 5949     		ldr	r1, .L293+8
 3374 03aa 3046     		mov	r0, r6
 3375 03ac FFF7FEFF 		bl	strcmp
 3376              	.LVL485:
 3377 03b0 8346     		mov	fp, r0
 3378 03b2 50B9     		cbnz	r0, .L242
 3379              		.loc 1 1097 0 is_stmt 0 discriminator 1
 3380 03b4 BAF1000F 		cmp	r10, #0
 3381 03b8 05D1     		bne	.L259
1098:main.c        ****                         HEX_read();
 3382              		.loc 1 1098 0 is_stmt 1
 3383 03ba FFF7FEFF 		bl	HEX_read
 3384              	.LVL486:
ARM GAS  C:\Users\Kiwi\AppData\Local\Temp\cckzbvMb.s 			page 83


1099:main.c        ****                         cmdprocessed = 1;
 3385              		.loc 1 1099 0
 3386 03be 4FF0010A 		mov	r10, #1
1100:main.c        ****                         noPrompt = 0;
 3387              		.loc 1 1100 0
 3388 03c2 5D46     		mov	r5, fp
 3389 03c4 01E0     		b	.L242
 3390              	.LVL487:
 3391              	.L259:
 3392 03c6 4FF0010A 		mov	r10, #1
 3393              	.LVL488:
 3394              	.L242:
1101:main.c        ****                     }
1102:main.c        ****                     if(strcmp(cmdline, "memtest")==0 && !cmdprocessed) {
 3395              		.loc 1 1102 0
 3396 03ca 5249     		ldr	r1, .L293+12
 3397 03cc 3046     		mov	r0, r6
 3398 03ce FFF7FEFF 		bl	strcmp
 3399              	.LVL489:
 3400 03d2 8346     		mov	fp, r0
 3401 03d4 50B9     		cbnz	r0, .L243
 3402              		.loc 1 1102 0 is_stmt 0 discriminator 1
 3403 03d6 BAF1000F 		cmp	r10, #0
 3404 03da 05D1     		bne	.L260
1103:main.c        ****                         RAM_check();
 3405              		.loc 1 1103 0 is_stmt 1
 3406 03dc FFF7FEFF 		bl	RAM_check
 3407              	.LVL490:
1104:main.c        ****                         cmdprocessed = 1;
 3408              		.loc 1 1104 0
 3409 03e0 4FF0010A 		mov	r10, #1
1105:main.c        ****                         noPrompt = 0;
 3410              		.loc 1 1105 0
 3411 03e4 5D46     		mov	r5, fp
 3412 03e6 01E0     		b	.L243
 3413              	.LVL491:
 3414              	.L260:
 3415 03e8 4FF0010A 		mov	r10, #1
 3416              	.LVL492:
 3417              	.L243:
1106:main.c        ****                     }
1107:main.c        ****                     if(strcmp(cmdline, "reset")==0 && !cmdprocessed) {
 3418              		.loc 1 1107 0
 3419 03ec 4A49     		ldr	r1, .L293+16
 3420 03ee 3046     		mov	r0, r6
 3421 03f0 FFF7FEFF 		bl	strcmp
 3422              	.LVL493:
 3423 03f4 8346     		mov	fp, r0
 3424 03f6 70B9     		cbnz	r0, .L244
 3425              		.loc 1 1107 0 is_stmt 0 discriminator 1
 3426 03f8 BAF1000F 		cmp	r10, #0
 3427 03fc 09D1     		bne	.L261
1108:main.c        ****                         SAPI_Reset();
 3428              		.loc 1 1108 0 is_stmt 1
 3429 03fe FFF7FEFF 		bl	SAPI_Reset
 3430              	.LVL494:
1109:main.c        ****                         USBUART_printf("SAPI reset.\r\n", cmdline);
ARM GAS  C:\Users\Kiwi\AppData\Local\Temp\cckzbvMb.s 			page 84


 3431              		.loc 1 1109 0
 3432 0402 3146     		mov	r1, r6
 3433 0404 4548     		ldr	r0, .L293+20
 3434 0406 FFF7FEFF 		bl	USBUART_printf
 3435              	.LVL495:
1110:main.c        ****                         cmdprocessed = 1;
 3436              		.loc 1 1110 0
 3437 040a 4FF0010A 		mov	r10, #1
1111:main.c        ****                         noPrompt = 0;
 3438              		.loc 1 1111 0
 3439 040e 5D46     		mov	r5, fp
 3440 0410 01E0     		b	.L244
 3441              	.LVL496:
 3442              	.L261:
 3443 0412 4FF0010A 		mov	r10, #1
 3444              	.LVL497:
 3445              	.L244:
1112:main.c        ****                     }
1113:main.c        ****                     if(strcmp(cmdline, "rescnt")==0 && !cmdprocessed) {
 3446              		.loc 1 1113 0
 3447 0416 4249     		ldr	r1, .L293+24
 3448 0418 3046     		mov	r0, r6
 3449 041a FFF7FEFF 		bl	strcmp
 3450              	.LVL498:
 3451 041e 8346     		mov	fp, r0
 3452 0420 98B9     		cbnz	r0, .L245
 3453              		.loc 1 1113 0 is_stmt 0 discriminator 1
 3454 0422 BAF1000F 		cmp	r10, #0
 3455 0426 0ED1     		bne	.L262
1114:main.c        ****                         cntTime = Millis_ReadCounter();
 3456              		.loc 1 1114 0 is_stmt 1
 3457 0428 FFF7FEFF 		bl	Millis_ReadCounter
 3458              	.LVL499:
1115:main.c        ****                         cntLines = 0;
1116:main.c        ****                         cntErrs = 0;
1117:main.c        ****                         USBUART_printf("Counter reset.\r\n", cmdline);
 3459              		.loc 1 1117 0
 3460 042c 3146     		mov	r1, r6
1114:main.c        ****                         cntTime = Millis_ReadCounter();
 3461              		.loc 1 1114 0
 3462 042e 2061     		str	r0, [r4, #16]
 3463              		.loc 1 1117 0
 3464 0430 3C48     		ldr	r0, .L293+28
1115:main.c        ****                         cntLines = 0;
 3465              		.loc 1 1115 0
 3466 0432 C4F804A0 		str	r10, [r4, #4]
1116:main.c        ****                         USBUART_printf("Counter reset.\r\n", cmdline);
 3467              		.loc 1 1116 0
 3468 0436 C4F808A0 		str	r10, [r4, #8]
1118:main.c        ****                         cmdprocessed = 1;
1119:main.c        ****                         noPrompt = 0;
 3469              		.loc 1 1119 0
 3470 043a 5D46     		mov	r5, fp
 3471              	.LVL500:
1117:main.c        ****                         cmdprocessed = 1;
 3472              		.loc 1 1117 0
 3473 043c FFF7FEFF 		bl	USBUART_printf
ARM GAS  C:\Users\Kiwi\AppData\Local\Temp\cckzbvMb.s 			page 85


 3474              	.LVL501:
1118:main.c        ****                         cmdprocessed = 1;
 3475              		.loc 1 1118 0
 3476 0440 4FF0010A 		mov	r10, #1
 3477 0444 01E0     		b	.L245
 3478              	.LVL502:
 3479              	.L262:
 3480 0446 4FF0010A 		mov	r10, #1
 3481              	.LVL503:
 3482              	.L245:
1120:main.c        ****                     }
1121:main.c        ****                     if(strcmp(cmdline, "cnt")==0 && !cmdprocessed) {
 3483              		.loc 1 1121 0
 3484 044a 3749     		ldr	r1, .L293+32
 3485 044c 3046     		mov	r0, r6
 3486 044e FFF7FEFF 		bl	strcmp
 3487              	.LVL504:
 3488 0452 8346     		mov	fp, r0
 3489 0454 88B9     		cbnz	r0, .L246
 3490              		.loc 1 1121 0 is_stmt 0 discriminator 1
 3491 0456 BAF1000F 		cmp	r10, #0
 3492 045a 0CD1     		bne	.L263
1122:main.c        ****                         USBUART_printf("Elapsed time = %d ms, %d lines processed, %d errors\r\n", M
 3493              		.loc 1 1122 0 is_stmt 1
 3494 045c FFF7FEFF 		bl	Millis_ReadCounter
 3495              	.LVL505:
 3496 0460 2169     		ldr	r1, [r4, #16]
 3497 0462 A368     		ldr	r3, [r4, #8]
 3498 0464 411A     		subs	r1, r0, r1
 3499 0466 6268     		ldr	r2, [r4, #4]
 3500 0468 3048     		ldr	r0, .L293+36
 3501 046a FFF7FEFF 		bl	USBUART_printf
 3502              	.LVL506:
1123:main.c        ****                         cmdprocessed = 1;
 3503              		.loc 1 1123 0
 3504 046e 4FF0010A 		mov	r10, #1
1124:main.c        ****                         noPrompt = 0;
 3505              		.loc 1 1124 0
 3506 0472 5D46     		mov	r5, fp
 3507 0474 01E0     		b	.L246
 3508              	.LVL507:
 3509              	.L263:
 3510 0476 4FF0010A 		mov	r10, #1
 3511              	.LVL508:
 3512              	.L246:
1125:main.c        ****                     }
1126:main.c        ****                     if(strcmp(cmdline, "tron")==0 && !cmdprocessed) {
 3513              		.loc 1 1126 0
 3514 047a 2D49     		ldr	r1, .L293+40
 3515 047c 3046     		mov	r0, r6
 3516 047e FFF7FEFF 		bl	strcmp
 3517              	.LVL509:
 3518 0482 C8B9     		cbnz	r0, .L247
 3519              		.loc 1 1126 0 is_stmt 0 discriminator 1
 3520 0484 BAF1000F 		cmp	r10, #0
 3521 0488 0FD1     		bne	.L264
1127:main.c        ****                         if(!tron) {
ARM GAS  C:\Users\Kiwi\AppData\Local\Temp\cckzbvMb.s 			page 86


 3522              		.loc 1 1127 0 is_stmt 1
 3523 048a B8F1000F 		cmp	r8, #0
 3524 048e 0FD1     		bne	.L265
1128:main.c        ****                             instCnt=0;
1129:main.c        ****                             instRdCnt=0;
1130:main.c        ****                             M1_Int_ClearPending();
1131:main.c        ****                             M1_Int_Enable();
1132:main.c        ****                             tron=1;
1133:main.c        ****                         }
1134:main.c        ****                         getInst=16;
1135:main.c        ****                         cmdprocessed = 1;
 3525              		.loc 1 1135 0
 3526 0490 4FF0010A 		mov	r10, #1
 3527              	.LVL510:
1128:main.c        ****                             instCnt=0;
 3528              		.loc 1 1128 0
 3529 0494 84F80180 		strb	r8, [r4, #1]
1136:main.c        ****                         noPrompt = 1;
 3530              		.loc 1 1136 0
 3531 0498 5546     		mov	r5, r10
 3532              	.LVL511:
1129:main.c        ****                             M1_Int_ClearPending();
 3533              		.loc 1 1129 0
 3534 049a 84F81480 		strb	r8, [r4, #20]
1130:main.c        ****                             M1_Int_Enable();
 3535              		.loc 1 1130 0
 3536 049e FFF7FEFF 		bl	M1_Int_ClearPending
 3537              	.LVL512:
1132:main.c        ****                         }
 3538              		.loc 1 1132 0
 3539 04a2 D046     		mov	r8, r10
 3540              	.LVL513:
1131:main.c        ****                             tron=1;
 3541              		.loc 1 1131 0
 3542 04a4 FFF7FEFF 		bl	M1_Int_Enable
 3543              	.LVL514:
 3544 04a8 05E0     		b	.L290
 3545              	.LVL515:
 3546              	.L264:
 3547 04aa 4FF0010A 		mov	r10, #1
 3548              	.LVL516:
 3549 04ae 03E0     		b	.L247
 3550              	.LVL517:
 3551              	.L265:
1135:main.c        ****                         noPrompt = 1;
 3552              		.loc 1 1135 0
 3553 04b0 4FF0010A 		mov	r10, #1
 3554              	.LVL518:
 3555              		.loc 1 1136 0
 3556 04b4 5546     		mov	r5, r10
 3557              	.LVL519:
 3558              	.L290:
1134:main.c        ****                         cmdprocessed = 1;
 3559              		.loc 1 1134 0
 3560 04b6 1027     		movs	r7, #16
 3561              	.L247:
 3562              	.LVL520:
ARM GAS  C:\Users\Kiwi\AppData\Local\Temp\cckzbvMb.s 			page 87


1137:main.c        ****                     }
1138:main.c        ****                     /*
1139:main.c        ****                     if(strcmp(cmdline, "troff")==0 && !cmdprocessed) {
1140:main.c        ****                         if(tron) {
1141:main.c        ****                             M1_Int_Disable();
1142:main.c        ****                             M1_Int_ClearPending();
1143:main.c        ****                             tron=0;
1144:main.c        ****                         }
1145:main.c        ****                         cmdprocessed = 1;
1146:main.c        ****                     } */
1147:main.c        ****                     if(strlen(cmdline)!=0 && !cmdprocessed) {
 3563              		.loc 1 1147 0
 3564 04b8 9DF84820 		ldrb	r2, [sp, #72]	@ zero_extendqisi2
 3565 04bc 32B1     		cbz	r2, .L248
 3566              		.loc 1 1147 0 is_stmt 0 discriminator 1
 3567 04be BAF1000F 		cmp	r10, #0
 3568 04c2 03D1     		bne	.L248
1148:main.c        ****                         USBUART_printf("\r\nUnknown command [%s], use \"help\" or \"?\" for help.\r
 3569              		.loc 1 1148 0 is_stmt 1
 3570 04c4 3146     		mov	r1, r6
 3571 04c6 1B48     		ldr	r0, .L293+44
 3572 04c8 FFF7FEFF 		bl	USBUART_printf
 3573              	.LVL521:
 3574              	.L248:
1149:main.c        ****                     }
1150:main.c        ****                     if(noPrompt==0)
 3575              		.loc 1 1150 0
 3576 04cc 15B9     		cbnz	r5, .L249
1151:main.c        ****                         USBUART_printf("DTR>");
 3577              		.loc 1 1151 0
 3578 04ce 1A48     		ldr	r0, .L293+48
 3579 04d0 FFF7FEFF 		bl	USBUART_printf
 3580              	.LVL522:
 3581              	.L249:
1152:main.c        ****                     cmdline[0] = 0;
 3582              		.loc 1 1152 0
 3583 04d4 0023     		movs	r3, #0
 3584 04d6 8DF84830 		strb	r3, [sp, #72]
1153:main.c        ****                     break;
 3585              		.loc 1 1153 0
 3586 04da 97E6     		b	.L229
 3587              	.LVL523:
 3588              	.L287:
1154:main.c        ****                   case 0x20 ... 0x7F:
1155:main.c        ****                     // strncat(tmpstr, &ch, 1);
1156:main.c        ****                     len = strlen(cmdline);
 3589              		.loc 1 1156 0
 3590 04dc 12A8     		add	r0, sp, #72
 3591 04de FFF7FEFF 		bl	strlen
 3592              	.LVL524:
1157:main.c        ****                     if(len<127) {
 3593              		.loc 1 1157 0
 3594 04e2 7E28     		cmp	r0, #126
 3595 04e4 3FF792AE 		bgt	.L229
1158:main.c        ****                         cmdline[len] = ch;
 3596              		.loc 1 1158 0
 3597 04e8 32AB     		add	r3, sp, #200
ARM GAS  C:\Users\Kiwi\AppData\Local\Temp\cckzbvMb.s 			page 88


 3598 04ea 1844     		add	r0, r0, r3
 3599              	.LVL525:
1159:main.c        ****                         cmdline[len+1] = 0;
 3600              		.loc 1 1159 0
 3601 04ec 0023     		movs	r3, #0
1158:main.c        ****                         cmdline[len] = ch;
 3602              		.loc 1 1158 0
 3603 04ee 00F8806C 		strb	r6, [r0, #-128]
 3604              		.loc 1 1159 0
 3605 04f2 00F87F3C 		strb	r3, [r0, #-127]
 3606              	.L250:
1160:main.c        ****                         while(!USBUART_CDCIsReady()){}
 3607              		.loc 1 1160 0 discriminator 1
 3608 04f6 FFF7FEFF 		bl	USBUART_CDCIsReady
 3609              	.LVL526:
 3610 04fa 0028     		cmp	r0, #0
 3611 04fc FBD0     		beq	.L250
1161:main.c        ****                         USBUART_PutChar(ch);
 3612              		.loc 1 1161 0
 3613 04fe 3046     		mov	r0, r6
 3614 0500 FFF7FEFF 		bl	USBUART_PutChar
 3615              	.LVL527:
 3616 0504 82E6     		b	.L229
 3617              	.L294:
 3618 0506 00BF     		.align	2
 3619              	.L293:
 3620 0508 EA060000 		.word	.LC63
 3621 050c ED060000 		.word	.LC64
 3622 0510 F5060000 		.word	.LC65
 3623 0514 F9060000 		.word	.LC66
 3624 0518 01070000 		.word	.LC67
 3625 051c 07070000 		.word	.LC68
 3626 0520 15070000 		.word	.LC69
 3627 0524 1C070000 		.word	.LC70
 3628 0528 2D070000 		.word	.LC71
 3629 052c 31070000 		.word	.LC72
 3630 0530 67070000 		.word	.LC73
 3631 0534 6C070000 		.word	.LC74
 3632 0538 BD060000 		.word	.LC55
 3633              	.LBE70:
 3634              	.LBE69:
 3635              	.LBE68:
 3636              		.cfi_endproc
 3637              	.LFE87:
 3638              		.size	main, .-main
 3639              		.comm	dva,3,1
 3640              		.global	HexChar
 3641              		.global	instRdCnt
 3642              		.global	instCnt
 3643              		.comm	instQueue,1024,2
 3644              		.global	rdCnt
 3645              		.global	intCnt
 3646              		.comm	intQueue,512,1
 3647              		.global	noOLED
 3648              		.global	waitForBus
 3649              		.global	cntErrs
 3650              		.global	cntLines
ARM GAS  C:\Users\Kiwi\AppData\Local\Temp\cckzbvMb.s 			page 89


 3651              		.global	cntTime
 3652              		.global	extaddr
 3653              		.global	noUART
 3654              		.section	.rodata.str1.1,"aMS",%progbits,1
 3655              	.LC0:
 3656 0000 57616974 		.ascii	"Waiting BUSAK ... \000"
 3656      696E6720 
 3656      42555341 
 3656      4B202E2E 
 3656      2E2000
 3657              	.LC1:
 3658 0013 2E00     		.ascii	".\000"
 3659              	.LC2:
 3660 0015 4F4B0D0A 		.ascii	"OK\015\012\000"
 3660      00
 3661              	.LC3:
 3662 001a 4641494C 		.ascii	"FAILED\015\012\000"
 3662      45440D0A 
 3662      00
 3663              	.LC4:
 3664 0023 57616974 		.ascii	"Waiting BUS release ... \000"
 3664      696E6720 
 3664      42555320 
 3664      72656C65 
 3664      61736520 
 3665              	.LC5:
 3666 003c 25303458 		.ascii	"%04X: \000"
 3666      3A2000
 3667              	.LC6:
 3668 0043 25303258 		.ascii	"%02X\000"
 3668      00
 3669              	.LC7:
 3670 0048 0D0A00   		.ascii	"\015\012\000"
 3671              	.LC8:
 3672 004b 66696C6C 		.ascii	"filling RAM with patttern\015\012\000"
 3672      696E6720 
 3672      52414D20 
 3672      77697468 
 3672      20706174 
 3673              	.LC9:
 3674 0067 76657269 		.ascii	"verifying RAM\015\012\000"
 3674      6679696E 
 3674      67205241 
 3674      4D0D0A00 
 3675              	.LC10:
 3676 0077 4572726F 		.ascii	"Error at %04X, expected %02X, but found %02X\015\012"
 3676      72206174 
 3676      20253034 
 3676      582C2065 
 3676      78706563 
 3677 00a5 00       		.ascii	"\000"
 3678              	.LC11:
 3679 00a6 66696C6C 		.ascii	"filling RAM with inverted patttern\015\012\000"
 3679      696E6720 
 3679      52414D20 
 3679      77697468 
 3679      20696E76 
ARM GAS  C:\Users\Kiwi\AppData\Local\Temp\cckzbvMb.s 			page 90


 3680              	.LC12:
 3681 00cb 25642065 		.ascii	"%d errors found :-(\015\012\000"
 3681      72726F72 
 3681      7320666F 
 3681      756E6420 
 3681      3A2D280D 
 3682              	.LC13:
 3683 00e1 4E6F2065 		.ascii	"No errors found :-)\015\012\000"
 3683      72726F72 
 3683      7320666F 
 3683      756E6420 
 3683      3A2D290D 
 3684              	.LC14:
 3685 00f7 44617461 		.ascii	"Data has been corrupted by memory test, performing "
 3685      20686173 
 3685      20626565 
 3685      6E20636F 
 3685      72727570 
 3686 012a 53415049 		.ascii	"SAPI reset.\015\012\000"
 3686      20726573 
 3686      65742E0D 
 3686      0A00
 3687              	.LC15:
 3688 0138 43686563 		.ascii	"Checking AND-1Z video RAM 0xF800-0xFCFF\015\012\000"
 3688      6B696E67 
 3688      20414E44 
 3688      2D315A20 
 3688      76696465 
 3689              	.LC16:
 3690 0162 4572726F 		.ascii	"Error at %04X, expected %02X, found %02X\015\012\000"
 3690      72206174 
 3690      20253034 
 3690      582C2065 
 3690      78706563 
 3691              	.LC17:
 3692 018d 4E6F2065 		.ascii	"No erros found :-)\015\012\000"
 3692      72726F73 
 3692      20666F75 
 3692      6E64203A 
 3692      2D290D0A 
 3693              	.LC18:
 3694 01a2 466F756E 		.ascii	"Found %d errors :-(\015\012\000"
 3694      64202564 
 3694      20657272 
 3694      6F727320 
 3694      3A2D280D 
 3695              	.LC19:
 3696 01b8 3A303230 		.ascii	":02000004%04X%02X\015\012\000"
 3696      30303030 
 3696      34253034 
 3696      58253032 
 3696      580D0A00 
 3697              	.LC20:
 3698 01cc 3A323025 		.ascii	":20%02X%02X00\000"
 3698      30325825 
 3698      30325830 
 3698      3000
ARM GAS  C:\Users\Kiwi\AppData\Local\Temp\cckzbvMb.s 			page 91


 3699              	.LC21:
 3700 01da 25303258 		.ascii	"%02X\015\012\000"
 3700      0D0A00
 3701              	.LC22:
 3702 01e1 3A303030 		.ascii	":00000001FF\015\012\000"
 3702      30303030 
 3702      3146460D 
 3702      0A00
 3703              	.LC23:
 3704 01ef 25642045 		.ascii	"%d ERRORs writing data :-(\015\012\000"
 3704      52524F52 
 3704      73207772 
 3704      6974696E 
 3704      67206461 
 3705              	.LC24:
 3706 020c 42616420 		.ascii	"Bad data on pos %d\000"
 3706      64617461 
 3706      206F6E20 
 3706      706F7320 
 3706      256400
 3707              	.LC25:
 3708 021f 4E6F7420 		.ascii	"Not enough data bytes, only %d\015\012\000"
 3708      656E6F75 
 3708      67682064 
 3708      61746120 
 3708      62797465 
 3709              	.LC26:
 3710 0240 42616420 		.ascii	"Bad checksum! Found %02X, but should be %02X :-(\015"
 3710      63686563 
 3710      6B73756D 
 3710      2120466F 
 3710      756E6420 
 3711 0271 0A00     		.ascii	"\012\000"
 3712              	.LC27:
 3713 0273 42616420 		.ascii	"Bad length! Found %02X, but should be %02X :-(\015\012"
 3713      6C656E67 
 3713      74682120 
 3713      466F756E 
 3713      64202530 
 3714 02a3 00       		.ascii	"\000"
 3715              	.LC28:
 3716 02a4 456E6420 		.ascii	"End Of File\015\012\000"
 3716      4F662046 
 3716      696C650D 
 3716      0A00
 3717              	.LC29:
 3718 02b2 4E6F7420 		.ascii	"Not enough data bytes for Extended Linear Address, "
 3718      656E6F75 
 3718      67682064 
 3718      61746120 
 3718      62797465 
 3719 02e5 6F6E6C79 		.ascii	"only %d\015\012\000"
 3719      2025640D 
 3719      0A00
 3720              	.LC30:
 3721 02ef 45787465 		.ascii	"Extended Linear Address set to %04X\015\012\000"
 3721      6E646564 
ARM GAS  C:\Users\Kiwi\AppData\Local\Temp\cckzbvMb.s 			page 92


 3721      204C696E 
 3721      65617220 
 3721      41646472 
 3722              	.LC31:
 3723 0315 496E7661 		.ascii	"Invalid content received\015\012\000"
 3723      6C696420 
 3723      636F6E74 
 3723      656E7420 
 3723      72656365 
 3724              	.LC32:
 3725 0330 25730D0A 		.ascii	"%s\015\012\000"
 3725      00
 3726              	.LC33:
 3727 0335 7A64756D 		.ascii	"zdump   ... dump ZRMD as HEX to USB serial\015\012\000"
 3727      70202020 
 3727      2E2E2E20 
 3727      64756D70 
 3727      205A524D 
 3728              	.LC34:
 3729 0362 3A202020 		.ascii	":       ... line starting with : will be interprete"
 3729      20202020 
 3729      2E2E2E20 
 3729      6C696E65 
 3729      20737461 
 3730 0395 64206173 		.ascii	"d as Intel HEX line to ZRMD\015\012\000"
 3730      20496E74 
 3730      656C2048 
 3730      4558206C 
 3730      696E6520 
 3731              	.LC35:
 3732 03b3 68657820 		.ascii	"hex     ... start special and faster Intel HEX inpu"
 3732      20202020 
 3732      2E2E2E20 
 3732      73746172 
 3732      74207370 
 3733 03e6 74206D6F 		.ascii	"t mode for ZRMD\015\012\000"
 3733      64652066 
 3733      6F72205A 
 3733      524D440D 
 3733      0A00
 3734              	.LC36:
 3735 03f8 72657363 		.ascii	"rescnt  ... reset time counter, number of imported "
 3735      6E742020 
 3735      2E2E2E20 
 3735      72657365 
 3735      74207469 
 3736 042b 6C696E65 		.ascii	"lines and errors\015\012\000"
 3736      7320616E 
 3736      64206572 
 3736      726F7273 
 3736      0D0A00
 3737              	.LC37:
 3738 043e 636E7420 		.ascii	"cnt     ... show time counter, number of imported l"
 3738      20202020 
 3738      2E2E2E20 
 3738      73686F77 
 3738      2074696D 
ARM GAS  C:\Users\Kiwi\AppData\Local\Temp\cckzbvMb.s 			page 93


 3739 0471 696E6573 		.ascii	"ines and errors\015\012\000"
 3739      20616E64 
 3739      20657272 
 3739      6F72730D 
 3739      0A00
 3740              	.LC38:
 3741 0483 646D2020 		.ascii	"dm      ... dump memory\015\012\000"
 3741      20202020 
 3741      2E2E2E20 
 3741      64756D70 
 3741      206D656D 
 3742              	.LC39:
 3743 049d 74726F6E 		.ascii	"tron    ... trace for 16 instructions\015\012\000"
 3743      20202020 
 3743      2E2E2E20 
 3743      74726163 
 3743      6520666F 
 3744              	.LC40:
 3745 04c5 76696474 		.ascii	"vidtest ... test of AND-1Z video RAM (non destructi"
 3745      65737420 
 3745      2E2E2E20 
 3745      74657374 
 3745      206F6620 
 3746 04f8 7665290D 		.ascii	"ve)\015\012\000"
 3746      0A00
 3747              	.LC41:
 3748 04fe 6D656D74 		.ascii	"memtest ... test of DTR-1 RAM, test is destructive "
 3748      65737420 
 3748      2E2E2E20 
 3748      74657374 
 3748      206F6620 
 3749 0531 616E6420 		.ascii	"and needs reset at end\015\012\000"
 3749      6E656564 
 3749      73207265 
 3749      73657420 
 3749      61742065 
 3750              	.LC42:
 3751 054a 72657365 		.ascii	"reset   ... SAPI-1 reset (RTL pulse)\015\012\000"
 3751      74202020 
 3751      2E2E2E20 
 3751      53415049 
 3751      2D312072 
 3752              	.LC43:
 3753 0571 68656C70 		.ascii	"help, ? or h ... show this help\015\012\000"
 3753      2C203F20 
 3753      6F722068 
 3753      202E2E2E 
 3753      2073686F 
 3754              	.LC44:
 3755 0593 53415049 		.ascii	"SAPI DTR-1\000"
 3755      20445452 
 3755      2D3100
 3756              	.LC45:
 3757 059e 38626974 		.ascii	"8bity.cz\000"
 3757      792E637A 
 3757      00
 3758              	.LC46:
ARM GAS  C:\Users\Kiwi\AppData\Local\Temp\cckzbvMb.s 			page 94


 3759 05a7 32303231 		.ascii	"2021042501\000"
 3759      30343235 
 3759      303100
 3760              	.LC47:
 3761 05b2 00       		.ascii	"\000"
 3762              	.LC48:
 3763 05b3 0D0A5341 		.ascii	"\015\012SAPI-1 DTR-1 board based on CY8CKIT-059 rev"
 3763      50492D31 
 3763      20445452 
 3763      2D312062 
 3763      6F617264 
 3764 05e0 2E323331 		.ascii	".231709\000"
 3764      37303900 
 3765              	.LC49:
 3766 05e8 20202863 		.ascii	"  (c) 2021-23 martin@8bity.cz\015\012\015\012\000"
 3766      29203230 
 3766      32312D32 
 3766      33206D61 
 3766      7274696E 
 3767              	.LC50:
 3768 060a 436F6E73 		.ascii	"Console set to AND-1Z and Consul 262.3/259.11\015\012"
 3768      6F6C6520 
 3768      73657420 
 3768      746F2041 
 3768      4E442D31 
 3769 0639 00       		.ascii	"\000"
 3770              	.LC51:
 3771 063a 436F6E73 		.ascii	"Console set to RS-232c RTS/CTS flow control\015\012"
 3771      6F6C6520 
 3771      73657420 
 3771      746F2052 
 3771      532D3233 
 3772 0667 00       		.ascii	"\000"
 3773              	.LC52:
 3774 0668 0D0A4865 		.ascii	"\015\012Hello to UART RS-232c console\015\012\000"
 3774      6C6C6F20 
 3774      746F2055 
 3774      41525420 
 3774      52532D32 
 3775              	.LC53:
 3776 068a 4F4C4544 		.ascii	"OLED display not found.\015\012\000"
 3776      20646973 
 3776      706C6179 
 3776      206E6F74 
 3776      20666F75 
 3777              	.LC54:
 3778 06a4 4F4C4544 		.ascii	"OLED display detected.\015\012\000"
 3778      20646973 
 3778      706C6179 
 3778      20646574 
 3778      65637465 
 3779              	.LC55:
 3780 06bd 4454523E 		.ascii	"DTR>\000"
 3780      00
 3781              	.LC56:
 3782 06c2 54522025 		.ascii	"TR %04X:%02X\015\012\000"
 3782      3034583A 
ARM GAS  C:\Users\Kiwi\AppData\Local\Temp\cckzbvMb.s 			page 95


 3782      25303258 
 3782      0D0A00
 3783              	.LC57:
 3784 06d1 08200800 		.ascii	"\010 \010\000"
 3785              	.LC58:
 3786 06d5 68656C70 		.ascii	"help\000"
 3786      00
 3787              	.LC59:
 3788 06da 3F00     		.ascii	"?\000"
 3789              	.LC60:
 3790 06dc 6800     		.ascii	"h\000"
 3791              	.LC61:
 3792 06de 7A64756D 		.ascii	"zdump\000"
 3792      7000
 3793              	.LC62:
 3794 06e4 64756D70 		.ascii	"dumpu\000"
 3794      7500
 3795              	.LC63:
 3796 06ea 646D00   		.ascii	"dm\000"
 3797              	.LC64:
 3798 06ed 76696474 		.ascii	"vidtest\000"
 3798      65737400 
 3799              	.LC65:
 3800 06f5 68657800 		.ascii	"hex\000"
 3801              	.LC66:
 3802 06f9 6D656D74 		.ascii	"memtest\000"
 3802      65737400 
 3803              	.LC67:
 3804 0701 72657365 		.ascii	"reset\000"
 3804      7400
 3805              	.LC68:
 3806 0707 53415049 		.ascii	"SAPI reset.\015\012\000"
 3806      20726573 
 3806      65742E0D 
 3806      0A00
 3807              	.LC69:
 3808 0715 72657363 		.ascii	"rescnt\000"
 3808      6E7400
 3809              	.LC70:
 3810 071c 436F756E 		.ascii	"Counter reset.\015\012\000"
 3810      74657220 
 3810      72657365 
 3810      742E0D0A 
 3810      00
 3811              	.LC71:
 3812 072d 636E7400 		.ascii	"cnt\000"
 3813              	.LC72:
 3814 0731 456C6170 		.ascii	"Elapsed time = %d ms, %d lines processed, %d errors"
 3814      73656420 
 3814      74696D65 
 3814      203D2025 
 3814      64206D73 
 3815 0764 0D0A00   		.ascii	"\015\012\000"
 3816              	.LC73:
 3817 0767 74726F6E 		.ascii	"tron\000"
 3817      00
 3818              	.LC74:
ARM GAS  C:\Users\Kiwi\AppData\Local\Temp\cckzbvMb.s 			page 96


 3819 076c 0D0A556E 		.ascii	"\015\012Unknown command [%s], use \"help\" or \"?\""
 3819      6B6E6F77 
 3819      6E20636F 
 3819      6D6D616E 
 3819      64205B25 
 3820 0795 20666F72 		.ascii	" for help.\015\012\015\012\000"
 3820      2068656C 
 3820      702E0D0A 
 3820      0D0A00
 3821              		.data
 3822              		.align	2
 3823              		.set	.LANCHOR1,. + 0
 3824              		.type	noUART, %object
 3825              		.size	noUART, 4
 3826              	noUART:
 3827 0000 01000000 		.word	1
 3828              		.type	waitForBus, %object
 3829              		.size	waitForBus, 1
 3830              	waitForBus:
 3831 0004 01       		.byte	1
 3832              		.type	HexChar, %object
 3833              		.size	HexChar, 16
 3834              	HexChar:
 3835 0005 30       		.byte	48
 3836 0006 31       		.byte	49
 3837 0007 32       		.byte	50
 3838 0008 33       		.byte	51
 3839 0009 34       		.byte	52
 3840 000a 35       		.byte	53
 3841 000b 36       		.byte	54
 3842 000c 37       		.byte	55
 3843 000d 38       		.byte	56
 3844 000e 39       		.byte	57
 3845 000f 41       		.byte	65
 3846 0010 42       		.byte	66
 3847 0011 43       		.byte	67
 3848 0012 44       		.byte	68
 3849 0013 45       		.byte	69
 3850 0014 46       		.byte	70
 3851 0015 000000   		.space	3
 3852              		.type	noOLED, %object
 3853              		.size	noOLED, 4
 3854              	noOLED:
 3855 0018 01000000 		.word	1
 3856              		.bss
 3857              		.align	2
 3858              		.set	.LANCHOR0,. + 0
 3859              		.type	intCnt, %object
 3860              		.size	intCnt, 1
 3861              	intCnt:
 3862 0000 00       		.space	1
 3863              		.type	instCnt, %object
 3864              		.size	instCnt, 1
 3865              	instCnt:
 3866 0001 00       		.space	1
 3867 0002 0000     		.space	2
 3868              		.type	cntLines, %object
ARM GAS  C:\Users\Kiwi\AppData\Local\Temp\cckzbvMb.s 			page 97


 3869              		.size	cntLines, 4
 3870              	cntLines:
 3871 0004 00000000 		.space	4
 3872              		.type	cntErrs, %object
 3873              		.size	cntErrs, 4
 3874              	cntErrs:
 3875 0008 00000000 		.space	4
 3876              		.type	extaddr, %object
 3877              		.size	extaddr, 2
 3878              	extaddr:
 3879 000c 0000     		.space	2
 3880 000e 0000     		.space	2
 3881              		.type	cntTime, %object
 3882              		.size	cntTime, 4
 3883              	cntTime:
 3884 0010 00000000 		.space	4
 3885              		.type	instRdCnt, %object
 3886              		.size	instRdCnt, 1
 3887              	instRdCnt:
 3888 0014 00       		.space	1
 3889              		.type	rdCnt, %object
 3890              		.size	rdCnt, 1
 3891              	rdCnt:
 3892 0015 00       		.space	1
 3893              		.text
 3894              	.Letext0:
 3895              		.file 2 "c:\\program files (x86)\\cypress\\psoc creator\\4.4\\psoc creator\\import\\gnu\\arm\\5.4.
 3896              		.file 3 "c:\\program files (x86)\\cypress\\psoc creator\\4.4\\psoc creator\\import\\gnu\\arm\\5.4.
 3897              		.file 4 "c:\\program files (x86)\\cypress\\psoc creator\\4.4\\psoc creator\\import\\gnu\\arm\\5.4.
 3898              		.file 5 "Generated_Source\\PSoC5/cytypes.h"
 3899              		.file 6 "<built-in>"
 3900              		.file 7 "Generated_Source\\PSoC5/core_cm3.h"
 3901              		.file 8 "Generated_Source\\PSoC5/RCM.h"
 3902              		.file 9 "Generated_Source\\PSoC5/RCU.h"
 3903              		.file 10 "Generated_Source\\PSoC5/ROD.h"
 3904              		.file 11 "Generated_Source\\PSoC5/RST.h"
 3905              		.file 12 "Generated_Source\\PSoC5/RSU.h"
 3906              		.file 13 "Generated_Source\\PSoC5/nWAIT.h"
 3907              		.file 14 "Generated_Source\\PSoC5/ADH_Reg.h"
 3908              		.file 15 "Generated_Source\\PSoC5/ADL_Reg.h"
 3909              		.file 16 "Generated_Source\\PSoC5/DT_Reg.h"
 3910              		.file 17 "Generated_Source\\PSoC5/RTL.h"
 3911              		.file 18 "Generated_Source\\PSoC5/CyLib.h"
 3912              		.file 19 "c:\\program files (x86)\\cypress\\psoc creator\\4.4\\psoc creator\\import\\gnu\\arm\\5.4
 3913              		.file 20 "Generated_Source\\PSoC5/USBUART_cdc.h"
 3914              		.file 21 "Generated_Source\\PSoC5/UART.h"
 3915              		.file 22 "Generated_Source\\PSoC5/BUSRQ.h"
 3916              		.file 23 "Generated_Source\\PSoC5/BUSAK.h"
 3917              		.file 24 "Generated_Source\\PSoC5/AddrH.h"
 3918              		.file 25 "Generated_Source\\PSoC5/AddrL.h"
 3919              		.file 26 "Generated_Source\\PSoC5/Dta.h"
 3920              		.file 27 "Generated_Source\\PSoC5/SRAM_Ctl.h"
 3921              		.file 28 "Generated_Source\\PSoC5/BusDta.h"
 3922              		.file 29 "Generated_Source\\PSoC5/MR.h"
 3923              		.file 30 "Generated_Source\\PSoC5/MW.h"
 3924              		.file 31 "Generated_Source\\PSoC5/IOW.h"
 3925              		.file 32 "Generated_Source\\PSoC5/IOR.h"
ARM GAS  C:\Users\Kiwi\AppData\Local\Temp\cckzbvMb.s 			page 98


 3926              		.file 33 "c:\\program files (x86)\\cypress\\psoc creator\\4.4\\psoc creator\\import\\gnu\\arm\\5.4
 3927              		.file 34 "Generated_Source\\PSoC5/Millis.h"
 3928              		.file 35 "Generated_Source\\PSoC5/M1_Int.h"
 3929              		.file 36 "Generated_Source\\PSoC5/RCM_Int.h"
 3930              		.file 37 "Generated_Source\\PSoC5/RCU_Int.h"
 3931              		.file 38 "Generated_Source\\PSoC5/ROD_Int.h"
 3932              		.file 39 "Generated_Source\\PSoC5/RST_Int.h"
 3933              		.file 40 "Generated_Source\\PSoC5/RRD_Int.h"
 3934              		.file 41 "Generated_Source\\PSoC5/I2COLED.h"
 3935              		.file 42 "ssd1306.h"
 3936              		.file 43 "Generated_Source\\PSoC5/USBUART.h"
 3937              		.file 44 "Generated_Source\\PSoC5/CTS.h"
 3938              		.file 45 "Generated_Source\\PSoC5/RSM.h"
 3939              		.file 46 "Generated_Source\\PSoC5/RRD.h"
 3940              		.section	.debug_info,"",%progbits
 3941              	.Ldebug_info0:
 3942 0000 89290000 		.4byte	0x2989
 3943 0004 0400     		.2byte	0x4
 3944 0006 00000000 		.4byte	.Ldebug_abbrev0
 3945 000a 04       		.byte	0x4
 3946 000b 01       		.uleb128 0x1
 3947 000c 5C010000 		.4byte	.LASF157
 3948 0010 0C       		.byte	0xc
 3949 0011 E4030000 		.4byte	.LASF158
 3950 0015 A6000000 		.4byte	.LASF159
 3951 0019 78000000 		.4byte	.Ldebug_ranges0+0x78
 3952 001d 00000000 		.4byte	0
 3953 0021 00000000 		.4byte	.Ldebug_line0
 3954 0025 02       		.uleb128 0x2
 3955 0026 01       		.byte	0x1
 3956 0027 06       		.byte	0x6
 3957 0028 50010000 		.4byte	.LASF0
 3958 002c 02       		.uleb128 0x2
 3959 002d 01       		.byte	0x1
 3960 002e 08       		.byte	0x8
 3961 002f 6D050000 		.4byte	.LASF1
 3962 0033 02       		.uleb128 0x2
 3963 0034 02       		.byte	0x2
 3964 0035 05       		.byte	0x5
 3965 0036 1F040000 		.4byte	.LASF2
 3966 003a 02       		.uleb128 0x2
 3967 003b 02       		.byte	0x2
 3968 003c 07       		.byte	0x7
 3969 003d B2030000 		.4byte	.LASF3
 3970 0041 03       		.uleb128 0x3
 3971 0042 29040000 		.4byte	.LASF10
 3972 0046 02       		.byte	0x2
 3973 0047 3F       		.byte	0x3f
 3974 0048 4C000000 		.4byte	0x4c
 3975 004c 02       		.uleb128 0x2
 3976 004d 04       		.byte	0x4
 3977 004e 05       		.byte	0x5
 3978 004f 21020000 		.4byte	.LASF4
 3979 0053 02       		.uleb128 0x2
 3980 0054 04       		.byte	0x4
 3981 0055 07       		.byte	0x7
 3982 0056 5F030000 		.4byte	.LASF5
ARM GAS  C:\Users\Kiwi\AppData\Local\Temp\cckzbvMb.s 			page 99


 3983 005a 02       		.uleb128 0x2
 3984 005b 08       		.byte	0x8
 3985 005c 05       		.byte	0x5
 3986 005d 42010000 		.4byte	.LASF6
 3987 0061 02       		.uleb128 0x2
 3988 0062 08       		.byte	0x8
 3989 0063 07       		.byte	0x7
 3990 0064 84000000 		.4byte	.LASF7
 3991 0068 04       		.uleb128 0x4
 3992 0069 04       		.byte	0x4
 3993 006a 05       		.byte	0x5
 3994 006b 696E7400 		.ascii	"int\000"
 3995 006f 02       		.uleb128 0x2
 3996 0070 04       		.byte	0x4
 3997 0071 07       		.byte	0x7
 3998 0072 26030000 		.4byte	.LASF8
 3999 0076 02       		.uleb128 0x2
 4000 0077 08       		.byte	0x8
 4001 0078 04       		.byte	0x4
 4002 0079 3E060000 		.4byte	.LASF9
 4003 007d 03       		.uleb128 0x3
 4004 007e 9F040000 		.4byte	.LASF11
 4005 0082 03       		.byte	0x3
 4006 0083 28       		.byte	0x28
 4007 0084 88000000 		.4byte	0x88
 4008 0088 05       		.uleb128 0x5
 4009 0089 58020000 		.4byte	.LASF21
 4010 008d 04       		.byte	0x4
 4011 008e 06       		.byte	0x6
 4012 008f 00       		.byte	0
 4013 0090 9F000000 		.4byte	0x9f
 4014 0094 06       		.uleb128 0x6
 4015 0095 A6060000 		.4byte	.LASF160
 4016 0099 9F000000 		.4byte	0x9f
 4017 009d 00       		.byte	0
 4018 009e 00       		.byte	0
 4019 009f 07       		.uleb128 0x7
 4020 00a0 04       		.byte	0x4
 4021 00a1 02       		.uleb128 0x2
 4022 00a2 04       		.byte	0x4
 4023 00a3 07       		.byte	0x7
 4024 00a4 6C040000 		.4byte	.LASF12
 4025 00a8 08       		.uleb128 0x8
 4026 00a9 04       		.byte	0x4
 4027 00aa AE000000 		.4byte	0xae
 4028 00ae 02       		.uleb128 0x2
 4029 00af 01       		.byte	0x1
 4030 00b0 08       		.byte	0x8
 4031 00b1 4A060000 		.4byte	.LASF13
 4032 00b5 08       		.uleb128 0x8
 4033 00b6 04       		.byte	0x4
 4034 00b7 BB000000 		.4byte	0xbb
 4035 00bb 09       		.uleb128 0x9
 4036 00bc AE000000 		.4byte	0xae
 4037 00c0 03       		.uleb128 0x3
 4038 00c1 65050000 		.4byte	.LASF14
 4039 00c5 04       		.byte	0x4
ARM GAS  C:\Users\Kiwi\AppData\Local\Temp\cckzbvMb.s 			page 100


 4040 00c6 2C       		.byte	0x2c
 4041 00c7 41000000 		.4byte	0x41
 4042 00cb 03       		.uleb128 0x3
 4043 00cc 52000000 		.4byte	.LASF15
 4044 00d0 03       		.byte	0x3
 4045 00d1 62       		.byte	0x62
 4046 00d2 7D000000 		.4byte	0x7d
 4047 00d6 0A       		.uleb128 0xa
 4048 00d7 9E030000 		.4byte	.LASF16
 4049 00db 05       		.byte	0x5
 4050 00dc E901     		.2byte	0x1e9
 4051 00de 2C000000 		.4byte	0x2c
 4052 00e2 0A       		.uleb128 0xa
 4053 00e3 00000000 		.4byte	.LASF17
 4054 00e7 05       		.byte	0x5
 4055 00e8 EA01     		.2byte	0x1ea
 4056 00ea 3A000000 		.4byte	0x3a
 4057 00ee 0A       		.uleb128 0xa
 4058 00ef A7020000 		.4byte	.LASF18
 4059 00f3 05       		.byte	0x5
 4060 00f4 EB01     		.2byte	0x1eb
 4061 00f6 53000000 		.4byte	0x53
 4062 00fa 02       		.uleb128 0x2
 4063 00fb 04       		.byte	0x4
 4064 00fc 04       		.byte	0x4
 4065 00fd 0A050000 		.4byte	.LASF19
 4066 0101 02       		.uleb128 0x2
 4067 0102 08       		.byte	0x8
 4068 0103 04       		.byte	0x4
 4069 0104 8A020000 		.4byte	.LASF20
 4070 0108 0B       		.uleb128 0xb
 4071 0109 D6000000 		.4byte	0xd6
 4072 010d 05       		.uleb128 0x5
 4073 010e C0070000 		.4byte	.LASF22
 4074 0112 02       		.byte	0x2
 4075 0113 01       		.byte	0x1
 4076 0114 1C       		.byte	0x1c
 4077 0115 32010000 		.4byte	0x132
 4078 0119 0C       		.uleb128 0xc
 4079 011a E5020000 		.4byte	.LASF23
 4080 011e 01       		.byte	0x1
 4081 011f 1E       		.byte	0x1e
 4082 0120 D6000000 		.4byte	0xd6
 4083 0124 00       		.byte	0
 4084 0125 0C       		.uleb128 0xc
 4085 0126 AD030000 		.4byte	.LASF24
 4086 012a 01       		.byte	0x1
 4087 012b 1F       		.byte	0x1f
 4088 012c D6000000 		.4byte	0xd6
 4089 0130 01       		.byte	0x1
 4090 0131 00       		.byte	0
 4091 0132 05       		.uleb128 0x5
 4092 0133 A4030000 		.4byte	.LASF25
 4093 0137 04       		.byte	0x4
 4094 0138 01       		.byte	0x1
 4095 0139 26       		.byte	0x26
 4096 013a 57010000 		.4byte	0x157
ARM GAS  C:\Users\Kiwi\AppData\Local\Temp\cckzbvMb.s 			page 101


 4097 013e 0C       		.uleb128 0xc
 4098 013f 56050000 		.4byte	.LASF26
 4099 0143 01       		.byte	0x1
 4100 0144 28       		.byte	0x28
 4101 0145 E2000000 		.4byte	0xe2
 4102 0149 00       		.byte	0
 4103 014a 0C       		.uleb128 0xc
 4104 014b AD030000 		.4byte	.LASF24
 4105 014f 01       		.byte	0x1
 4106 0150 29       		.byte	0x29
 4107 0151 D6000000 		.4byte	0xd6
 4108 0155 02       		.byte	0x2
 4109 0156 00       		.byte	0
 4110 0157 0D       		.uleb128 0xd
 4111 0158 3A070000 		.4byte	.LASF27
 4112 015c 01       		.byte	0x1
 4113 015d BA       		.byte	0xba
 4114 015e D6000000 		.4byte	0xd6
 4115 0162 01       		.byte	0x1
 4116 0163 0D       		.uleb128 0xd
 4117 0164 7A030000 		.4byte	.LASF28
 4118 0168 01       		.byte	0x1
 4119 0169 CD       		.byte	0xcd
 4120 016a D6000000 		.4byte	0xd6
 4121 016e 01       		.byte	0x1
 4122 016f 0D       		.uleb128 0xd
 4123 0170 AF070000 		.4byte	.LASF29
 4124 0174 01       		.byte	0x1
 4125 0175 E0       		.byte	0xe0
 4126 0176 D6000000 		.4byte	0xd6
 4127 017a 01       		.byte	0x1
 4128 017b 0D       		.uleb128 0xd
 4129 017c 7D060000 		.4byte	.LASF30
 4130 0180 01       		.byte	0x1
 4131 0181 F2       		.byte	0xf2
 4132 0182 D6000000 		.4byte	0xd6
 4133 0186 01       		.byte	0x1
 4134 0187 0E       		.uleb128 0xe
 4135 0188 82020000 		.4byte	.LASF35
 4136 018c 01       		.byte	0x1
 4137 018d 8C01     		.2byte	0x18c
 4138 018f 01       		.byte	0x1
 4139 0190 B7010000 		.4byte	0x1b7
 4140 0194 0F       		.uleb128 0xf
 4141 0195 56050000 		.4byte	.LASF26
 4142 0199 01       		.byte	0x1
 4143 019a 8C01     		.2byte	0x18c
 4144 019c E2000000 		.4byte	0xe2
 4145 01a0 10       		.uleb128 0x10
 4146 01a1 7200     		.ascii	"r\000"
 4147 01a3 01       		.byte	0x1
 4148 01a4 8D01     		.2byte	0x18d
 4149 01a6 D6000000 		.4byte	0xd6
 4150 01aa 11       		.uleb128 0x11
 4151 01ab 10       		.uleb128 0x10
 4152 01ac 6100     		.ascii	"a\000"
 4153 01ae 01       		.byte	0x1
ARM GAS  C:\Users\Kiwi\AppData\Local\Temp\cckzbvMb.s 			page 102


 4154 01af A001     		.2byte	0x1a0
 4155 01b1 EE000000 		.4byte	0xee
 4156 01b5 00       		.byte	0
 4157 01b6 00       		.byte	0
 4158 01b7 12       		.uleb128 0x12
 4159 01b8 07040000 		.4byte	.LASF33
 4160 01bc 01       		.byte	0x1
 4161 01bd 0601     		.2byte	0x106
 4162 01bf 01       		.byte	0x1
 4163 01c0 39020000 		.4byte	0x239
 4164 01c4 13       		.uleb128 0x13
 4165 01c5 AE040000 		.4byte	.LASF31
 4166 01c9 01       		.byte	0x1
 4167 01ca 0701     		.2byte	0x107
 4168 01cc EE000000 		.4byte	0xee
 4169 01d0 13       		.uleb128 0x13
 4170 01d1 0B010000 		.4byte	.LASF32
 4171 01d5 01       		.byte	0x1
 4172 01d6 0801     		.2byte	0x108
 4173 01d8 EE000000 		.4byte	0xee
 4174 01dc 10       		.uleb128 0x10
 4175 01dd 7200     		.ascii	"r\000"
 4176 01df 01       		.byte	0x1
 4177 01e0 0901     		.2byte	0x109
 4178 01e2 D6000000 		.4byte	0xd6
 4179 01e6 10       		.uleb128 0x10
 4180 01e7 7300     		.ascii	"s\000"
 4181 01e9 01       		.byte	0x1
 4182 01ea 0A01     		.2byte	0x10a
 4183 01ec D6000000 		.4byte	0xd6
 4184 01f0 10       		.uleb128 0x10
 4185 01f1 65727200 		.ascii	"err\000"
 4186 01f5 01       		.byte	0x1
 4187 01f6 0B01     		.2byte	0x10b
 4188 01f8 68000000 		.4byte	0x68
 4189 01fc 14       		.uleb128 0x14
 4190 01fd 0C020000 		.4byte	0x20c
 4191 0201 10       		.uleb128 0x10
 4192 0202 6100     		.ascii	"a\000"
 4193 0204 01       		.byte	0x1
 4194 0205 1A01     		.2byte	0x11a
 4195 0207 EE000000 		.4byte	0xee
 4196 020b 00       		.byte	0
 4197 020c 14       		.uleb128 0x14
 4198 020d 1C020000 		.4byte	0x21c
 4199 0211 10       		.uleb128 0x10
 4200 0212 6100     		.ascii	"a\000"
 4201 0214 01       		.byte	0x1
 4202 0215 2F01     		.2byte	0x12f
 4203 0217 EE000000 		.4byte	0xee
 4204 021b 00       		.byte	0
 4205 021c 14       		.uleb128 0x14
 4206 021d 2C020000 		.4byte	0x22c
 4207 0221 10       		.uleb128 0x10
 4208 0222 6100     		.ascii	"a\000"
 4209 0224 01       		.byte	0x1
 4210 0225 4E01     		.2byte	0x14e
ARM GAS  C:\Users\Kiwi\AppData\Local\Temp\cckzbvMb.s 			page 103


 4211 0227 EE000000 		.4byte	0xee
 4212 022b 00       		.byte	0
 4213 022c 11       		.uleb128 0x11
 4214 022d 10       		.uleb128 0x10
 4215 022e 6100     		.ascii	"a\000"
 4216 0230 01       		.byte	0x1
 4217 0231 6301     		.2byte	0x163
 4218 0233 EE000000 		.4byte	0xee
 4219 0237 00       		.byte	0
 4220 0238 00       		.byte	0
 4221 0239 12       		.uleb128 0x12
 4222 023a 5A000000 		.4byte	.LASF34
 4223 023e 01       		.byte	0x1
 4224 023f B801     		.2byte	0x1b8
 4225 0241 01       		.byte	0x1
 4226 0242 69020000 		.4byte	0x269
 4227 0246 10       		.uleb128 0x10
 4228 0247 7200     		.ascii	"r\000"
 4229 0249 01       		.byte	0x1
 4230 024a B901     		.2byte	0x1b9
 4231 024c D6000000 		.4byte	0xd6
 4232 0250 10       		.uleb128 0x10
 4233 0251 65727200 		.ascii	"err\000"
 4234 0255 01       		.byte	0x1
 4235 0256 BA01     		.2byte	0x1ba
 4236 0258 E2000000 		.4byte	0xe2
 4237 025c 11       		.uleb128 0x11
 4238 025d 10       		.uleb128 0x10
 4239 025e 6100     		.ascii	"a\000"
 4240 0260 01       		.byte	0x1
 4241 0261 DA01     		.2byte	0x1da
 4242 0263 EE000000 		.4byte	0xee
 4243 0267 00       		.byte	0
 4244 0268 00       		.byte	0
 4245 0269 0E       		.uleb128 0xe
 4246 026a 4B050000 		.4byte	.LASF36
 4247 026e 01       		.byte	0x1
 4248 026f 9C02     		.2byte	0x29c
 4249 0271 01       		.byte	0x1
 4250 0272 E5020000 		.4byte	0x2e5
 4251 0276 15       		.uleb128 0x15
 4252 0277 68616400 		.ascii	"had\000"
 4253 027b 01       		.byte	0x1
 4254 027c 9C02     		.2byte	0x29c
 4255 027e D6000000 		.4byte	0xd6
 4256 0282 15       		.uleb128 0x15
 4257 0283 6D616400 		.ascii	"mad\000"
 4258 0287 01       		.byte	0x1
 4259 0288 9C02     		.2byte	0x29c
 4260 028a D6000000 		.4byte	0xd6
 4261 028e 15       		.uleb128 0x15
 4262 028f 6C616400 		.ascii	"lad\000"
 4263 0293 01       		.byte	0x1
 4264 0294 9C02     		.2byte	0x29c
 4265 0296 D6000000 		.4byte	0xd6
 4266 029a 15       		.uleb128 0x15
 4267 029b 64746100 		.ascii	"dta\000"
ARM GAS  C:\Users\Kiwi\AppData\Local\Temp\cckzbvMb.s 			page 104


 4268 029f 01       		.byte	0x1
 4269 02a0 9C02     		.2byte	0x29c
 4270 02a2 E5020000 		.4byte	0x2e5
 4271 02a6 15       		.uleb128 0x15
 4272 02a7 6C656E00 		.ascii	"len\000"
 4273 02ab 01       		.byte	0x1
 4274 02ac 9C02     		.2byte	0x29c
 4275 02ae E2000000 		.4byte	0xe2
 4276 02b2 10       		.uleb128 0x10
 4277 02b3 7200     		.ascii	"r\000"
 4278 02b5 01       		.byte	0x1
 4279 02b6 CE02     		.2byte	0x2ce
 4280 02b8 D6000000 		.4byte	0xd6
 4281 02bc 10       		.uleb128 0x10
 4282 02bd 65727200 		.ascii	"err\000"
 4283 02c1 01       		.byte	0x1
 4284 02c2 CF02     		.2byte	0x2cf
 4285 02c4 68000000 		.4byte	0x68
 4286 02c8 14       		.uleb128 0x14
 4287 02c9 D8020000 		.4byte	0x2d8
 4288 02cd 10       		.uleb128 0x10
 4289 02ce 6900     		.ascii	"i\000"
 4290 02d0 01       		.byte	0x1
 4291 02d1 BF02     		.2byte	0x2bf
 4292 02d3 68000000 		.4byte	0x68
 4293 02d7 00       		.byte	0
 4294 02d8 11       		.uleb128 0x11
 4295 02d9 10       		.uleb128 0x10
 4296 02da 6900     		.ascii	"i\000"
 4297 02dc 01       		.byte	0x1
 4298 02dd D002     		.2byte	0x2d0
 4299 02df 68000000 		.4byte	0x68
 4300 02e3 00       		.byte	0
 4301 02e4 00       		.byte	0
 4302 02e5 08       		.uleb128 0x8
 4303 02e6 04       		.byte	0x4
 4304 02e7 D6000000 		.4byte	0xd6
 4305 02eb 16       		.uleb128 0x16
 4306 02ec C5050000 		.4byte	.LASF37
 4307 02f0 01       		.byte	0x1
 4308 02f1 30       		.byte	0x30
 4309 02f2 00000000 		.4byte	.LFB64
 4310 02f6 30000000 		.4byte	.LFE64-.LFB64
 4311 02fa 01       		.uleb128 0x1
 4312 02fb 9C       		.byte	0x9c
 4313 02fc 0A030000 		.4byte	0x30a
 4314 0300 17       		.uleb128 0x17
 4315 0301 14000000 		.4byte	.LVL0
 4316 0305 53260000 		.4byte	0x2653
 4317 0309 00       		.byte	0
 4318 030a 16       		.uleb128 0x16
 4319 030b 61070000 		.4byte	.LASF38
 4320 030f 01       		.byte	0x1
 4321 0310 37       		.byte	0x37
 4322 0311 00000000 		.4byte	.LFB65
 4323 0315 30000000 		.4byte	.LFE65-.LFB65
 4324 0319 01       		.uleb128 0x1
ARM GAS  C:\Users\Kiwi\AppData\Local\Temp\cckzbvMb.s 			page 105


 4325 031a 9C       		.byte	0x9c
 4326 031b 29030000 		.4byte	0x329
 4327 031f 17       		.uleb128 0x17
 4328 0320 14000000 		.4byte	.LVL1
 4329 0324 5E260000 		.4byte	0x265e
 4330 0328 00       		.byte	0
 4331 0329 16       		.uleb128 0x16
 4332 032a DD000000 		.4byte	.LASF39
 4333 032e 01       		.byte	0x1
 4334 032f 3E       		.byte	0x3e
 4335 0330 00000000 		.4byte	.LFB66
 4336 0334 30000000 		.4byte	.LFE66-.LFB66
 4337 0338 01       		.uleb128 0x1
 4338 0339 9C       		.byte	0x9c
 4339 033a 48030000 		.4byte	0x348
 4340 033e 17       		.uleb128 0x17
 4341 033f 14000000 		.4byte	.LVL2
 4342 0343 69260000 		.4byte	0x2669
 4343 0347 00       		.byte	0
 4344 0348 16       		.uleb128 0x16
 4345 0349 7D040000 		.4byte	.LASF40
 4346 034d 01       		.byte	0x1
 4347 034e 45       		.byte	0x45
 4348 034f 00000000 		.4byte	.LFB67
 4349 0353 30000000 		.4byte	.LFE67-.LFB67
 4350 0357 01       		.uleb128 0x1
 4351 0358 9C       		.byte	0x9c
 4352 0359 67030000 		.4byte	0x367
 4353 035d 17       		.uleb128 0x17
 4354 035e 14000000 		.4byte	.LVL3
 4355 0362 74260000 		.4byte	0x2674
 4356 0366 00       		.byte	0
 4357 0367 16       		.uleb128 0x16
 4358 0368 76070000 		.4byte	.LASF41
 4359 036c 01       		.byte	0x1
 4360 036d 4C       		.byte	0x4c
 4361 036e 00000000 		.4byte	.LFB68
 4362 0372 12000000 		.4byte	.LFE68-.LFB68
 4363 0376 01       		.uleb128 0x1
 4364 0377 9C       		.byte	0x9c
 4365 0378 8F030000 		.4byte	0x38f
 4366 037c 17       		.uleb128 0x17
 4367 037d 06000000 		.4byte	.LVL4
 4368 0381 7F260000 		.4byte	0x267f
 4369 0385 18       		.uleb128 0x18
 4370 0386 12000000 		.4byte	.LVL5
 4371 038a 8A260000 		.4byte	0x268a
 4372 038e 00       		.byte	0
 4373 038f 16       		.uleb128 0x16
 4374 0390 FB040000 		.4byte	.LASF42
 4375 0394 01       		.byte	0x1
 4376 0395 51       		.byte	0x51
 4377 0396 00000000 		.4byte	.LFB69
 4378 039a 44000000 		.4byte	.LFE69-.LFB69
 4379 039e 01       		.uleb128 0x1
 4380 039f 9C       		.byte	0x9c
 4381 03a0 D3030000 		.4byte	0x3d3
ARM GAS  C:\Users\Kiwi\AppData\Local\Temp\cckzbvMb.s 			page 106


 4382 03a4 19       		.uleb128 0x19
 4383 03a5 0A000000 		.4byte	.LVL6
 4384 03a9 95260000 		.4byte	0x2695
 4385 03ad B7030000 		.4byte	0x3b7
 4386 03b1 1A       		.uleb128 0x1a
 4387 03b2 01       		.uleb128 0x1
 4388 03b3 50       		.byte	0x50
 4389 03b4 01       		.uleb128 0x1
 4390 03b5 30       		.byte	0x30
 4391 03b6 00       		.byte	0
 4392 03b7 17       		.uleb128 0x17
 4393 03b8 10000000 		.4byte	.LVL7
 4394 03bc A0260000 		.4byte	0x26a0
 4395 03c0 17       		.uleb128 0x17
 4396 03c1 16000000 		.4byte	.LVL8
 4397 03c5 AB260000 		.4byte	0x26ab
 4398 03c9 17       		.uleb128 0x17
 4399 03ca 28000000 		.4byte	.LVL9
 4400 03ce B6260000 		.4byte	0x26b6
 4401 03d2 00       		.byte	0
 4402 03d3 1B       		.uleb128 0x1b
 4403 03d4 72060000 		.4byte	.LASF51
 4404 03d8 01       		.byte	0x1
 4405 03d9 5D       		.byte	0x5d
 4406 03da 00000000 		.4byte	.LFB70
 4407 03de 18000000 		.4byte	.LFE70-.LFB70
 4408 03e2 01       		.uleb128 0x1
 4409 03e3 9C       		.byte	0x9c
 4410 03e4 1E040000 		.4byte	0x41e
 4411 03e8 19       		.uleb128 0x19
 4412 03e9 08000000 		.4byte	.LVL10
 4413 03ed C1260000 		.4byte	0x26c1
 4414 03f1 FB030000 		.4byte	0x3fb
 4415 03f5 1A       		.uleb128 0x1a
 4416 03f6 01       		.uleb128 0x1
 4417 03f7 50       		.byte	0x50
 4418 03f8 01       		.uleb128 0x1
 4419 03f9 31       		.byte	0x31
 4420 03fa 00       		.byte	0
 4421 03fb 19       		.uleb128 0x19
 4422 03fc 0E000000 		.4byte	.LVL11
 4423 0400 CC260000 		.4byte	0x26cc
 4424 0404 0E040000 		.4byte	0x40e
 4425 0408 1A       		.uleb128 0x1a
 4426 0409 01       		.uleb128 0x1
 4427 040a 50       		.byte	0x50
 4428 040b 01       		.uleb128 0x1
 4429 040c 36       		.byte	0x36
 4430 040d 00       		.byte	0
 4431 040e 1C       		.uleb128 0x1c
 4432 040f 18000000 		.4byte	.LVL12
 4433 0413 C1260000 		.4byte	0x26c1
 4434 0417 1A       		.uleb128 0x1a
 4435 0418 01       		.uleb128 0x1
 4436 0419 50       		.byte	0x50
 4437 041a 01       		.uleb128 0x1
 4438 041b 30       		.byte	0x30
ARM GAS  C:\Users\Kiwi\AppData\Local\Temp\cckzbvMb.s 			page 107


 4439 041c 00       		.byte	0
 4440 041d 00       		.byte	0
 4441 041e 1D       		.uleb128 0x1d
 4442 041f 3C050000 		.4byte	.LASF45
 4443 0423 01       		.byte	0x1
 4444 0424 6A       		.byte	0x6a
 4445 0425 68000000 		.4byte	0x68
 4446 0429 00000000 		.4byte	.LFB71
 4447 042d 40000000 		.4byte	.LFE71-.LFB71
 4448 0431 01       		.uleb128 0x1
 4449 0432 9C       		.byte	0x9c
 4450 0433 B0040000 		.4byte	0x4b0
 4451 0437 1E       		.uleb128 0x1e
 4452 0438 E1050000 		.4byte	.LASF47
 4453 043c 01       		.byte	0x1
 4454 043d 6A       		.byte	0x6a
 4455 043e B5000000 		.4byte	0xb5
 4456 0442 02       		.uleb128 0x2
 4457 0443 91       		.byte	0x91
 4458 0444 70       		.sleb128 -16
 4459 0445 1F       		.uleb128 0x1f
 4460 0446 20       		.uleb128 0x20
 4461 0447 15080000 		.4byte	.LASF43
 4462 044b 01       		.byte	0x1
 4463 044c 6F       		.byte	0x6f
 4464 044d B0040000 		.4byte	0x4b0
 4465 0451 03       		.uleb128 0x3
 4466 0452 91       		.byte	0x91
 4467 0453 E87E     		.sleb128 -152
 4468 0455 21       		.uleb128 0x21
 4469 0456 72657400 		.ascii	"ret\000"
 4470 045a 01       		.byte	0x1
 4471 045b 70       		.byte	0x70
 4472 045c 68000000 		.4byte	0x68
 4473 0460 00000000 		.4byte	.LLST0
 4474 0464 20       		.uleb128 0x20
 4475 0465 C9070000 		.4byte	.LASF44
 4476 0469 01       		.byte	0x1
 4477 046a 72       		.byte	0x72
 4478 046b CB000000 		.4byte	0xcb
 4479 046f 03       		.uleb128 0x3
 4480 0470 91       		.byte	0x91
 4481 0471 E47E     		.sleb128 -156
 4482 0473 19       		.uleb128 0x19
 4483 0474 18000000 		.4byte	.LVL14
 4484 0478 D7260000 		.4byte	0x26d7
 4485 047c 95040000 		.4byte	0x495
 4486 0480 1A       		.uleb128 0x1a
 4487 0481 01       		.uleb128 0x1
 4488 0482 50       		.byte	0x50
 4489 0483 03       		.uleb128 0x3
 4490 0484 91       		.byte	0x91
 4491 0485 C87E     		.sleb128 -184
 4492 0487 1A       		.uleb128 0x1a
 4493 0488 01       		.uleb128 0x1
 4494 0489 51       		.byte	0x51
 4495 048a 03       		.uleb128 0x3
ARM GAS  C:\Users\Kiwi\AppData\Local\Temp\cckzbvMb.s 			page 108


 4496 048b 91       		.byte	0x91
 4497 048c 50       		.sleb128 -48
 4498 048d 06       		.byte	0x6
 4499 048e 1A       		.uleb128 0x1a
 4500 048f 01       		.uleb128 0x1
 4501 0490 52       		.byte	0x52
 4502 0491 02       		.uleb128 0x2
 4503 0492 91       		.byte	0x91
 4504 0493 54       		.sleb128 -44
 4505 0494 00       		.byte	0
 4506 0495 17       		.uleb128 0x17
 4507 0496 1E000000 		.4byte	.LVL16
 4508 049a E2260000 		.4byte	0x26e2
 4509 049e 22       		.uleb128 0x22
 4510 049f 28000000 		.4byte	.LVL17
 4511 04a3 ED260000 		.4byte	0x26ed
 4512 04a7 1A       		.uleb128 0x1a
 4513 04a8 01       		.uleb128 0x1
 4514 04a9 50       		.byte	0x50
 4515 04aa 03       		.uleb128 0x3
 4516 04ab 91       		.byte	0x91
 4517 04ac C87E     		.sleb128 -184
 4518 04ae 00       		.byte	0
 4519 04af 00       		.byte	0
 4520 04b0 23       		.uleb128 0x23
 4521 04b1 AE000000 		.4byte	0xae
 4522 04b5 C0040000 		.4byte	0x4c0
 4523 04b9 24       		.uleb128 0x24
 4524 04ba A1000000 		.4byte	0xa1
 4525 04be 7F       		.byte	0x7f
 4526 04bf 00       		.byte	0
 4527 04c0 1D       		.uleb128 0x1d
 4528 04c1 EB030000 		.4byte	.LASF46
 4529 04c5 01       		.byte	0x1
 4530 04c6 7E       		.byte	0x7e
 4531 04c7 68000000 		.4byte	0x68
 4532 04cb 00000000 		.4byte	.LFB72
 4533 04cf 28000000 		.4byte	.LFE72-.LFB72
 4534 04d3 01       		.uleb128 0x1
 4535 04d4 9C       		.byte	0x9c
 4536 04d5 49050000 		.4byte	0x549
 4537 04d9 1E       		.uleb128 0x1e
 4538 04da E1050000 		.4byte	.LASF47
 4539 04de 01       		.byte	0x1
 4540 04df 7E       		.byte	0x7e
 4541 04e0 B5000000 		.4byte	0xb5
 4542 04e4 02       		.uleb128 0x2
 4543 04e5 91       		.byte	0x91
 4544 04e6 70       		.sleb128 -16
 4545 04e7 1F       		.uleb128 0x1f
 4546 04e8 20       		.uleb128 0x20
 4547 04e9 15080000 		.4byte	.LASF43
 4548 04ed 01       		.byte	0x1
 4549 04ee 80       		.byte	0x80
 4550 04ef B0040000 		.4byte	0x4b0
 4551 04f3 03       		.uleb128 0x3
 4552 04f4 91       		.byte	0x91
ARM GAS  C:\Users\Kiwi\AppData\Local\Temp\cckzbvMb.s 			page 109


 4553 04f5 E87E     		.sleb128 -152
 4554 04f7 21       		.uleb128 0x21
 4555 04f8 72657400 		.ascii	"ret\000"
 4556 04fc 01       		.byte	0x1
 4557 04fd 81       		.byte	0x81
 4558 04fe 68000000 		.4byte	0x68
 4559 0502 13000000 		.4byte	.LLST1
 4560 0506 20       		.uleb128 0x20
 4561 0507 C9070000 		.4byte	.LASF44
 4562 050b 01       		.byte	0x1
 4563 050c 83       		.byte	0x83
 4564 050d CB000000 		.4byte	0xcb
 4565 0511 03       		.uleb128 0x3
 4566 0512 91       		.byte	0x91
 4567 0513 E47E     		.sleb128 -156
 4568 0515 19       		.uleb128 0x19
 4569 0516 14000000 		.4byte	.LVL20
 4570 051a D7260000 		.4byte	0x26d7
 4571 051e 37050000 		.4byte	0x537
 4572 0522 1A       		.uleb128 0x1a
 4573 0523 01       		.uleb128 0x1
 4574 0524 50       		.byte	0x50
 4575 0525 03       		.uleb128 0x3
 4576 0526 91       		.byte	0x91
 4577 0527 C87E     		.sleb128 -184
 4578 0529 1A       		.uleb128 0x1a
 4579 052a 01       		.uleb128 0x1
 4580 052b 51       		.byte	0x51
 4581 052c 03       		.uleb128 0x3
 4582 052d 91       		.byte	0x91
 4583 052e 50       		.sleb128 -48
 4584 052f 06       		.byte	0x6
 4585 0530 1A       		.uleb128 0x1a
 4586 0531 01       		.uleb128 0x1
 4587 0532 52       		.byte	0x52
 4588 0533 02       		.uleb128 0x2
 4589 0534 91       		.byte	0x91
 4590 0535 54       		.sleb128 -44
 4591 0536 00       		.byte	0
 4592 0537 22       		.uleb128 0x22
 4593 0538 1C000000 		.4byte	.LVL23
 4594 053c F8260000 		.4byte	0x26f8
 4595 0540 1A       		.uleb128 0x1a
 4596 0541 01       		.uleb128 0x1
 4597 0542 50       		.byte	0x50
 4598 0543 03       		.uleb128 0x3
 4599 0544 91       		.byte	0x91
 4600 0545 C87E     		.sleb128 -184
 4601 0547 00       		.byte	0
 4602 0548 00       		.byte	0
 4603 0549 25       		.uleb128 0x25
 4604 054a 57010000 		.4byte	0x157
 4605 054e 00000000 		.4byte	.LFB73
 4606 0552 5C000000 		.4byte	.LFE73-.LFB73
 4607 0556 01       		.uleb128 0x1
 4608 0557 9C       		.byte	0x9c
 4609 0558 ED050000 		.4byte	0x5ed
ARM GAS  C:\Users\Kiwi\AppData\Local\Temp\cckzbvMb.s 			page 110


 4610 055c 19       		.uleb128 0x19
 4611 055d 0E000000 		.4byte	.LVL25
 4612 0561 03270000 		.4byte	0x2703
 4613 0565 6F050000 		.4byte	0x56f
 4614 0569 1A       		.uleb128 0x1a
 4615 056a 01       		.uleb128 0x1
 4616 056b 50       		.byte	0x50
 4617 056c 01       		.uleb128 0x1
 4618 056d 30       		.byte	0x30
 4619 056e 00       		.byte	0
 4620 056f 19       		.uleb128 0x19
 4621 0570 14000000 		.4byte	.LVL26
 4622 0574 1E040000 		.4byte	0x41e
 4623 0578 86050000 		.4byte	0x586
 4624 057c 1A       		.uleb128 0x1a
 4625 057d 01       		.uleb128 0x1
 4626 057e 50       		.byte	0x50
 4627 057f 05       		.uleb128 0x5
 4628 0580 03       		.byte	0x3
 4629 0581 00000000 		.4byte	.LC0
 4630 0585 00       		.byte	0
 4631 0586 17       		.uleb128 0x17
 4632 0587 18000000 		.4byte	.LVL27
 4633 058b 0E270000 		.4byte	0x270e
 4634 058f 19       		.uleb128 0x19
 4635 0590 22000000 		.4byte	.LVL28
 4636 0594 1E040000 		.4byte	0x41e
 4637 0598 A6050000 		.4byte	0x5a6
 4638 059c 1A       		.uleb128 0x1a
 4639 059d 01       		.uleb128 0x1
 4640 059e 50       		.byte	0x50
 4641 059f 05       		.uleb128 0x5
 4642 05a0 03       		.byte	0x3
 4643 05a1 13000000 		.4byte	.LC1
 4644 05a5 00       		.byte	0
 4645 05a6 19       		.uleb128 0x19
 4646 05a7 28000000 		.4byte	.LVL29
 4647 05ab CC260000 		.4byte	0x26cc
 4648 05af B9050000 		.4byte	0x5b9
 4649 05b3 1A       		.uleb128 0x1a
 4650 05b4 01       		.uleb128 0x1
 4651 05b5 50       		.byte	0x50
 4652 05b6 01       		.uleb128 0x1
 4653 05b7 3A       		.byte	0x3a
 4654 05b8 00       		.byte	0
 4655 05b9 17       		.uleb128 0x17
 4656 05ba 2E000000 		.4byte	.LVL30
 4657 05be 0E270000 		.4byte	0x270e
 4658 05c2 19       		.uleb128 0x19
 4659 05c3 36000000 		.4byte	.LVL31
 4660 05c7 1E040000 		.4byte	0x41e
 4661 05cb D9050000 		.4byte	0x5d9
 4662 05cf 1A       		.uleb128 0x1a
 4663 05d0 01       		.uleb128 0x1
 4664 05d1 50       		.byte	0x50
 4665 05d2 05       		.uleb128 0x5
 4666 05d3 03       		.byte	0x3
ARM GAS  C:\Users\Kiwi\AppData\Local\Temp\cckzbvMb.s 			page 111


 4667 05d4 15000000 		.4byte	.LC2
 4668 05d8 00       		.byte	0
 4669 05d9 22       		.uleb128 0x22
 4670 05da 3E000000 		.4byte	.LVL32
 4671 05de 1E040000 		.4byte	0x41e
 4672 05e2 1A       		.uleb128 0x1a
 4673 05e3 01       		.uleb128 0x1
 4674 05e4 50       		.byte	0x50
 4675 05e5 05       		.uleb128 0x5
 4676 05e6 03       		.byte	0x3
 4677 05e7 1A000000 		.4byte	.LC3
 4678 05eb 00       		.byte	0
 4679 05ec 00       		.byte	0
 4680 05ed 25       		.uleb128 0x25
 4681 05ee 63010000 		.4byte	0x163
 4682 05f2 00000000 		.4byte	.LFB74
 4683 05f6 30000000 		.4byte	.LFE74-.LFB74
 4684 05fa 01       		.uleb128 0x1
 4685 05fb 9C       		.byte	0x9c
 4686 05fc 39060000 		.4byte	0x639
 4687 0600 19       		.uleb128 0x19
 4688 0601 0E000000 		.4byte	.LVL33
 4689 0605 03270000 		.4byte	0x2703
 4690 0609 13060000 		.4byte	0x613
 4691 060d 1A       		.uleb128 0x1a
 4692 060e 01       		.uleb128 0x1
 4693 060f 50       		.byte	0x50
 4694 0610 01       		.uleb128 0x1
 4695 0611 30       		.byte	0x30
 4696 0612 00       		.byte	0
 4697 0613 17       		.uleb128 0x17
 4698 0614 12000000 		.4byte	.LVL34
 4699 0618 0E270000 		.4byte	0x270e
 4700 061c 19       		.uleb128 0x19
 4701 061d 1A000000 		.4byte	.LVL35
 4702 0621 CC260000 		.4byte	0x26cc
 4703 0625 2F060000 		.4byte	0x62f
 4704 0629 1A       		.uleb128 0x1a
 4705 062a 01       		.uleb128 0x1
 4706 062b 50       		.byte	0x50
 4707 062c 01       		.uleb128 0x1
 4708 062d 31       		.byte	0x31
 4709 062e 00       		.byte	0
 4710 062f 17       		.uleb128 0x17
 4711 0630 20000000 		.4byte	.LVL36
 4712 0634 0E270000 		.4byte	0x270e
 4713 0638 00       		.byte	0
 4714 0639 25       		.uleb128 0x25
 4715 063a 6F010000 		.4byte	0x16f
 4716 063e 00000000 		.4byte	.LFB75
 4717 0642 60000000 		.4byte	.LFE75-.LFB75
 4718 0646 01       		.uleb128 0x1
 4719 0647 9C       		.byte	0x9c
 4720 0648 DD060000 		.4byte	0x6dd
 4721 064c 19       		.uleb128 0x19
 4722 064d 0E000000 		.4byte	.LVL37
 4723 0651 03270000 		.4byte	0x2703
ARM GAS  C:\Users\Kiwi\AppData\Local\Temp\cckzbvMb.s 			page 112


 4724 0655 5F060000 		.4byte	0x65f
 4725 0659 1A       		.uleb128 0x1a
 4726 065a 01       		.uleb128 0x1
 4727 065b 50       		.byte	0x50
 4728 065c 01       		.uleb128 0x1
 4729 065d 31       		.byte	0x31
 4730 065e 00       		.byte	0
 4731 065f 19       		.uleb128 0x19
 4732 0660 14000000 		.4byte	.LVL38
 4733 0664 1E040000 		.4byte	0x41e
 4734 0668 76060000 		.4byte	0x676
 4735 066c 1A       		.uleb128 0x1a
 4736 066d 01       		.uleb128 0x1
 4737 066e 50       		.byte	0x50
 4738 066f 05       		.uleb128 0x5
 4739 0670 03       		.byte	0x3
 4740 0671 23000000 		.4byte	.LC4
 4741 0675 00       		.byte	0
 4742 0676 17       		.uleb128 0x17
 4743 0677 18000000 		.4byte	.LVL39
 4744 067b 0E270000 		.4byte	0x270e
 4745 067f 19       		.uleb128 0x19
 4746 0680 22000000 		.4byte	.LVL40
 4747 0684 1E040000 		.4byte	0x41e
 4748 0688 96060000 		.4byte	0x696
 4749 068c 1A       		.uleb128 0x1a
 4750 068d 01       		.uleb128 0x1
 4751 068e 50       		.byte	0x50
 4752 068f 05       		.uleb128 0x5
 4753 0690 03       		.byte	0x3
 4754 0691 13000000 		.4byte	.LC1
 4755 0695 00       		.byte	0
 4756 0696 19       		.uleb128 0x19
 4757 0697 28000000 		.4byte	.LVL41
 4758 069b CC260000 		.4byte	0x26cc
 4759 069f A9060000 		.4byte	0x6a9
 4760 06a3 1A       		.uleb128 0x1a
 4761 06a4 01       		.uleb128 0x1
 4762 06a5 50       		.byte	0x50
 4763 06a6 01       		.uleb128 0x1
 4764 06a7 3A       		.byte	0x3a
 4765 06a8 00       		.byte	0
 4766 06a9 17       		.uleb128 0x17
 4767 06aa 2E000000 		.4byte	.LVL42
 4768 06ae 0E270000 		.4byte	0x270e
 4769 06b2 19       		.uleb128 0x19
 4770 06b3 3A000000 		.4byte	.LVL43
 4771 06b7 1E040000 		.4byte	0x41e
 4772 06bb C9060000 		.4byte	0x6c9
 4773 06bf 1A       		.uleb128 0x1a
 4774 06c0 01       		.uleb128 0x1
 4775 06c1 50       		.byte	0x50
 4776 06c2 05       		.uleb128 0x5
 4777 06c3 03       		.byte	0x3
 4778 06c4 15000000 		.4byte	.LC2
 4779 06c8 00       		.byte	0
 4780 06c9 22       		.uleb128 0x22
ARM GAS  C:\Users\Kiwi\AppData\Local\Temp\cckzbvMb.s 			page 113


 4781 06ca 42000000 		.4byte	.LVL44
 4782 06ce 1E040000 		.4byte	0x41e
 4783 06d2 1A       		.uleb128 0x1a
 4784 06d3 01       		.uleb128 0x1
 4785 06d4 50       		.byte	0x50
 4786 06d5 05       		.uleb128 0x5
 4787 06d6 03       		.byte	0x3
 4788 06d7 1A000000 		.4byte	.LC3
 4789 06db 00       		.byte	0
 4790 06dc 00       		.byte	0
 4791 06dd 25       		.uleb128 0x25
 4792 06de 7B010000 		.4byte	0x17b
 4793 06e2 00000000 		.4byte	.LFB76
 4794 06e6 30000000 		.4byte	.LFE76-.LFB76
 4795 06ea 01       		.uleb128 0x1
 4796 06eb 9C       		.byte	0x9c
 4797 06ec 29070000 		.4byte	0x729
 4798 06f0 19       		.uleb128 0x19
 4799 06f1 0E000000 		.4byte	.LVL45
 4800 06f5 03270000 		.4byte	0x2703
 4801 06f9 03070000 		.4byte	0x703
 4802 06fd 1A       		.uleb128 0x1a
 4803 06fe 01       		.uleb128 0x1
 4804 06ff 50       		.byte	0x50
 4805 0700 01       		.uleb128 0x1
 4806 0701 31       		.byte	0x31
 4807 0702 00       		.byte	0
 4808 0703 17       		.uleb128 0x17
 4809 0704 12000000 		.4byte	.LVL46
 4810 0708 0E270000 		.4byte	0x270e
 4811 070c 19       		.uleb128 0x19
 4812 070d 1C000000 		.4byte	.LVL47
 4813 0711 CC260000 		.4byte	0x26cc
 4814 0715 1F070000 		.4byte	0x71f
 4815 0719 1A       		.uleb128 0x1a
 4816 071a 01       		.uleb128 0x1
 4817 071b 50       		.byte	0x50
 4818 071c 01       		.uleb128 0x1
 4819 071d 31       		.byte	0x31
 4820 071e 00       		.byte	0
 4821 071f 17       		.uleb128 0x17
 4822 0720 22000000 		.4byte	.LVL48
 4823 0724 0E270000 		.4byte	0x270e
 4824 0728 00       		.byte	0
 4825 0729 25       		.uleb128 0x25
 4826 072a 87010000 		.4byte	0x187
 4827 072e 00000000 		.4byte	.LFB78
 4828 0732 B4000000 		.4byte	.LFE78-.LFB78
 4829 0736 01       		.uleb128 0x1
 4830 0737 9C       		.byte	0x9c
 4831 0738 11090000 		.4byte	0x911
 4832 073c 26       		.uleb128 0x26
 4833 073d 94010000 		.4byte	0x194
 4834 0741 3C000000 		.4byte	.LLST2
 4835 0745 27       		.uleb128 0x27
 4836 0746 A0010000 		.4byte	0x1a0
 4837 074a 28       		.uleb128 0x28
ARM GAS  C:\Users\Kiwi\AppData\Local\Temp\cckzbvMb.s 			page 114


 4838 074b 00000000 		.4byte	.Ldebug_ranges0+0
 4839 074f 07090000 		.4byte	0x907
 4840 0753 26       		.uleb128 0x26
 4841 0754 94010000 		.4byte	0x194
 4842 0758 5D000000 		.4byte	.LLST3
 4843 075c 29       		.uleb128 0x29
 4844 075d 00000000 		.4byte	.Ldebug_ranges0+0
 4845 0761 2A       		.uleb128 0x2a
 4846 0762 A0010000 		.4byte	0x1a0
 4847 0766 70000000 		.4byte	.LLST4
 4848 076a 2B       		.uleb128 0x2b
 4849 076b 30000000 		.4byte	.LBB31
 4850 076f 4E000000 		.4byte	.LBE31-.LBB31
 4851 0773 2B080000 		.4byte	0x82b
 4852 0777 2A       		.uleb128 0x2a
 4853 0778 AB010000 		.4byte	0x1ab
 4854 077c 83000000 		.4byte	.LLST5
 4855 0780 19       		.uleb128 0x19
 4856 0781 42000000 		.4byte	.LVL59
 4857 0785 19270000 		.4byte	0x2719
 4858 0789 9A070000 		.4byte	0x79a
 4859 078d 1A       		.uleb128 0x1a
 4860 078e 01       		.uleb128 0x1
 4861 078f 50       		.byte	0x50
 4862 0790 08       		.uleb128 0x8
 4863 0791 74       		.byte	0x74
 4864 0792 00       		.sleb128 0
 4865 0793 09       		.byte	0x9
 4866 0794 F4       		.byte	0xf4
 4867 0795 24       		.byte	0x24
 4868 0796 09       		.byte	0x9
 4869 0797 FC       		.byte	0xfc
 4870 0798 25       		.byte	0x25
 4871 0799 00       		.byte	0
 4872 079a 19       		.uleb128 0x19
 4873 079b 48000000 		.4byte	.LVL60
 4874 079f 24270000 		.4byte	0x2724
 4875 07a3 AE070000 		.4byte	0x7ae
 4876 07a7 1A       		.uleb128 0x1a
 4877 07a8 01       		.uleb128 0x1
 4878 07a9 50       		.byte	0x50
 4879 07aa 02       		.uleb128 0x2
 4880 07ab 74       		.byte	0x74
 4881 07ac 00       		.sleb128 0
 4882 07ad 00       		.byte	0
 4883 07ae 19       		.uleb128 0x19
 4884 07af 4E000000 		.4byte	.LVL61
 4885 07b3 2F270000 		.4byte	0x272f
 4886 07b7 C1070000 		.4byte	0x7c1
 4887 07bb 1A       		.uleb128 0x1a
 4888 07bc 01       		.uleb128 0x1
 4889 07bd 50       		.byte	0x50
 4890 07be 01       		.uleb128 0x1
 4891 07bf 35       		.byte	0x35
 4892 07c0 00       		.byte	0
 4893 07c1 17       		.uleb128 0x17
 4894 07c2 52000000 		.4byte	.LVL62
ARM GAS  C:\Users\Kiwi\AppData\Local\Temp\cckzbvMb.s 			page 115


 4895 07c6 3A270000 		.4byte	0x273a
 4896 07ca 19       		.uleb128 0x19
 4897 07cb 5A000000 		.4byte	.LVL64
 4898 07cf 2F270000 		.4byte	0x272f
 4899 07d3 DD070000 		.4byte	0x7dd
 4900 07d7 1A       		.uleb128 0x1a
 4901 07d8 01       		.uleb128 0x1
 4902 07d9 50       		.byte	0x50
 4903 07da 01       		.uleb128 0x1
 4904 07db 35       		.byte	0x35
 4905 07dc 00       		.byte	0
 4906 07dd 19       		.uleb128 0x19
 4907 07de 68000000 		.4byte	.LVL65
 4908 07e2 1E040000 		.4byte	0x41e
 4909 07e6 FA070000 		.4byte	0x7fa
 4910 07ea 1A       		.uleb128 0x1a
 4911 07eb 01       		.uleb128 0x1
 4912 07ec 50       		.byte	0x50
 4913 07ed 05       		.uleb128 0x5
 4914 07ee 03       		.byte	0x3
 4915 07ef 3C000000 		.4byte	.LC5
 4916 07f3 1A       		.uleb128 0x1a
 4917 07f4 01       		.uleb128 0x1
 4918 07f5 51       		.byte	0x51
 4919 07f6 02       		.uleb128 0x2
 4920 07f7 74       		.byte	0x74
 4921 07f8 00       		.sleb128 0
 4922 07f9 00       		.byte	0
 4923 07fa 19       		.uleb128 0x19
 4924 07fb 70000000 		.4byte	.LVL66
 4925 07ff 1E040000 		.4byte	0x41e
 4926 0803 17080000 		.4byte	0x817
 4927 0807 1A       		.uleb128 0x1a
 4928 0808 01       		.uleb128 0x1
 4929 0809 50       		.byte	0x50
 4930 080a 05       		.uleb128 0x5
 4931 080b 03       		.byte	0x3
 4932 080c 43000000 		.4byte	.LC6
 4933 0810 1A       		.uleb128 0x1a
 4934 0811 01       		.uleb128 0x1
 4935 0812 51       		.byte	0x51
 4936 0813 02       		.uleb128 0x2
 4937 0814 77       		.byte	0x77
 4938 0815 00       		.sleb128 0
 4939 0816 00       		.byte	0
 4940 0817 22       		.uleb128 0x22
 4941 0818 7A000000 		.4byte	.LVL67
 4942 081c 1E040000 		.4byte	0x41e
 4943 0820 1A       		.uleb128 0x1a
 4944 0821 01       		.uleb128 0x1
 4945 0822 50       		.byte	0x50
 4946 0823 05       		.uleb128 0x5
 4947 0824 03       		.byte	0x3
 4948 0825 48000000 		.4byte	.LC7
 4949 0829 00       		.byte	0
 4950 082a 00       		.byte	0
 4951 082b 19       		.uleb128 0x19
ARM GAS  C:\Users\Kiwi\AppData\Local\Temp\cckzbvMb.s 			page 116


 4952 082c 12000000 		.4byte	.LVL52
 4953 0830 45270000 		.4byte	0x2745
 4954 0834 3E080000 		.4byte	0x83e
 4955 0838 1A       		.uleb128 0x1a
 4956 0839 01       		.uleb128 0x1
 4957 083a 50       		.byte	0x50
 4958 083b 01       		.uleb128 0x1
 4959 083c 3F       		.byte	0x3f
 4960 083d 00       		.byte	0
 4961 083e 19       		.uleb128 0x19
 4962 083f 18000000 		.4byte	.LVL53
 4963 0843 24270000 		.4byte	0x2724
 4964 0847 51080000 		.4byte	0x851
 4965 084b 1A       		.uleb128 0x1a
 4966 084c 01       		.uleb128 0x1
 4967 084d 50       		.byte	0x50
 4968 084e 01       		.uleb128 0x1
 4969 084f 30       		.byte	0x30
 4970 0850 00       		.byte	0
 4971 0851 19       		.uleb128 0x19
 4972 0852 1E000000 		.4byte	.LVL54
 4973 0856 50270000 		.4byte	0x2750
 4974 085a 64080000 		.4byte	0x864
 4975 085e 1A       		.uleb128 0x1a
 4976 085f 01       		.uleb128 0x1
 4977 0860 50       		.byte	0x50
 4978 0861 01       		.uleb128 0x1
 4979 0862 3C       		.byte	0x3c
 4980 0863 00       		.byte	0
 4981 0864 19       		.uleb128 0x19
 4982 0865 24000000 		.4byte	.LVL55
 4983 0869 19270000 		.4byte	0x2719
 4984 086d 77080000 		.4byte	0x877
 4985 0871 1A       		.uleb128 0x1a
 4986 0872 01       		.uleb128 0x1
 4987 0873 50       		.byte	0x50
 4988 0874 01       		.uleb128 0x1
 4989 0875 30       		.byte	0x30
 4990 0876 00       		.byte	0
 4991 0877 19       		.uleb128 0x19
 4992 0878 2A000000 		.4byte	.LVL56
 4993 087c 5B270000 		.4byte	0x275b
 4994 0880 8A080000 		.4byte	0x88a
 4995 0884 1A       		.uleb128 0x1a
 4996 0885 01       		.uleb128 0x1
 4997 0886 50       		.byte	0x50
 4998 0887 01       		.uleb128 0x1
 4999 0888 3C       		.byte	0x3c
 5000 0889 00       		.byte	0
 5001 088a 19       		.uleb128 0x19
 5002 088b 30000000 		.4byte	.LVL57
 5003 088f 45270000 		.4byte	0x2745
 5004 0893 9D080000 		.4byte	0x89d
 5005 0897 1A       		.uleb128 0x1a
 5006 0898 01       		.uleb128 0x1
 5007 0899 50       		.byte	0x50
 5008 089a 01       		.uleb128 0x1
ARM GAS  C:\Users\Kiwi\AppData\Local\Temp\cckzbvMb.s 			page 117


 5009 089b 3A       		.byte	0x3a
 5010 089c 00       		.byte	0
 5011 089d 19       		.uleb128 0x19
 5012 089e 84000000 		.4byte	.LVL70
 5013 08a2 45270000 		.4byte	0x2745
 5014 08a6 B0080000 		.4byte	0x8b0
 5015 08aa 1A       		.uleb128 0x1a
 5016 08ab 01       		.uleb128 0x1
 5017 08ac 50       		.byte	0x50
 5018 08ad 01       		.uleb128 0x1
 5019 08ae 37       		.byte	0x37
 5020 08af 00       		.byte	0
 5021 08b0 19       		.uleb128 0x19
 5022 08b1 8A000000 		.4byte	.LVL71
 5023 08b5 24270000 		.4byte	0x2724
 5024 08b9 C3080000 		.4byte	0x8c3
 5025 08bd 1A       		.uleb128 0x1a
 5026 08be 01       		.uleb128 0x1
 5027 08bf 50       		.byte	0x50
 5028 08c0 01       		.uleb128 0x1
 5029 08c1 30       		.byte	0x30
 5030 08c2 00       		.byte	0
 5031 08c3 19       		.uleb128 0x19
 5032 08c4 90000000 		.4byte	.LVL72
 5033 08c8 50270000 		.4byte	0x2750
 5034 08cc D6080000 		.4byte	0x8d6
 5035 08d0 1A       		.uleb128 0x1a
 5036 08d1 01       		.uleb128 0x1
 5037 08d2 50       		.byte	0x50
 5038 08d3 01       		.uleb128 0x1
 5039 08d4 32       		.byte	0x32
 5040 08d5 00       		.byte	0
 5041 08d6 19       		.uleb128 0x19
 5042 08d7 96000000 		.4byte	.LVL73
 5043 08db 19270000 		.4byte	0x2719
 5044 08df E9080000 		.4byte	0x8e9
 5045 08e3 1A       		.uleb128 0x1a
 5046 08e4 01       		.uleb128 0x1
 5047 08e5 50       		.byte	0x50
 5048 08e6 01       		.uleb128 0x1
 5049 08e7 30       		.byte	0x30
 5050 08e8 00       		.byte	0
 5051 08e9 19       		.uleb128 0x19
 5052 08ea 9C000000 		.4byte	.LVL74
 5053 08ee 5B270000 		.4byte	0x275b
 5054 08f2 FC080000 		.4byte	0x8fc
 5055 08f6 1A       		.uleb128 0x1a
 5056 08f7 01       		.uleb128 0x1
 5057 08f8 50       		.byte	0x50
 5058 08f9 01       		.uleb128 0x1
 5059 08fa 32       		.byte	0x32
 5060 08fb 00       		.byte	0
 5061 08fc 18       		.uleb128 0x18
 5062 08fd A4000000 		.4byte	.LVL76
 5063 0901 6F010000 		.4byte	0x16f
 5064 0905 00       		.byte	0
 5065 0906 00       		.byte	0
ARM GAS  C:\Users\Kiwi\AppData\Local\Temp\cckzbvMb.s 			page 118


 5066 0907 17       		.uleb128 0x17
 5067 0908 08000000 		.4byte	.LVL50
 5068 090c 57010000 		.4byte	0x157
 5069 0910 00       		.byte	0
 5070 0911 25       		.uleb128 0x25
 5071 0912 B7010000 		.4byte	0x1b7
 5072 0916 00000000 		.4byte	.LFB77
 5073 091a 34020000 		.4byte	.LFE77-.LFB77
 5074 091e 01       		.uleb128 0x1
 5075 091f 9C       		.byte	0x9c
 5076 0920 C60E0000 		.4byte	0xec6
 5077 0924 2C       		.uleb128 0x2c
 5078 0925 C4010000 		.4byte	0x1c4
 5079 0929 00       		.byte	0
 5080 092a 2D       		.uleb128 0x2d
 5081 092b D0010000 		.4byte	0x1d0
 5082 092f 00000100 		.4byte	0x10000
 5083 0933 27       		.uleb128 0x27
 5084 0934 DC010000 		.4byte	0x1dc
 5085 0938 27       		.uleb128 0x27
 5086 0939 E6010000 		.4byte	0x1e6
 5087 093d 2C       		.uleb128 0x2c
 5088 093e F0010000 		.4byte	0x1f0
 5089 0942 00       		.byte	0
 5090 0943 28       		.uleb128 0x28
 5091 0944 18000000 		.4byte	.Ldebug_ranges0+0x18
 5092 0948 BC0E0000 		.4byte	0xebc
 5093 094c 27       		.uleb128 0x27
 5094 094d C4010000 		.4byte	0x1c4
 5095 0951 27       		.uleb128 0x27
 5096 0952 D0010000 		.4byte	0x1d0
 5097 0956 2A       		.uleb128 0x2a
 5098 0957 DC010000 		.4byte	0x1dc
 5099 095b 96000000 		.4byte	.LLST6
 5100 095f 2A       		.uleb128 0x2a
 5101 0960 E6010000 		.4byte	0x1e6
 5102 0964 A9000000 		.4byte	.LLST7
 5103 0968 2A       		.uleb128 0x2a
 5104 0969 F0010000 		.4byte	0x1f0
 5105 096d C7000000 		.4byte	.LLST8
 5106 0971 2B       		.uleb128 0x2b
 5107 0972 32000000 		.4byte	.LBB42
 5108 0976 60000000 		.4byte	.LBE42-.LBB42
 5109 097a 800A0000 		.4byte	0xa80
 5110 097e 2A       		.uleb128 0x2a
 5111 097f 01020000 		.4byte	0x201
 5112 0983 E6000000 		.4byte	.LLST9
 5113 0987 19       		.uleb128 0x19
 5114 0988 40000000 		.4byte	.LVL86
 5115 098c 19270000 		.4byte	0x2719
 5116 0990 9B090000 		.4byte	0x99b
 5117 0994 1A       		.uleb128 0x1a
 5118 0995 01       		.uleb128 0x1
 5119 0996 50       		.byte	0x50
 5120 0997 02       		.uleb128 0x2
 5121 0998 76       		.byte	0x76
 5122 0999 00       		.sleb128 0
ARM GAS  C:\Users\Kiwi\AppData\Local\Temp\cckzbvMb.s 			page 119


 5123 099a 00       		.byte	0
 5124 099b 19       		.uleb128 0x19
 5125 099c 46000000 		.4byte	.LVL87
 5126 09a0 24270000 		.4byte	0x2724
 5127 09a4 AF090000 		.4byte	0x9af
 5128 09a8 1A       		.uleb128 0x1a
 5129 09a9 01       		.uleb128 0x1
 5130 09aa 50       		.byte	0x50
 5131 09ab 02       		.uleb128 0x2
 5132 09ac 75       		.byte	0x75
 5133 09ad 00       		.sleb128 0
 5134 09ae 00       		.byte	0
 5135 09af 19       		.uleb128 0x19
 5136 09b0 4C000000 		.4byte	.LVL88
 5137 09b4 66270000 		.4byte	0x2766
 5138 09b8 C3090000 		.4byte	0x9c3
 5139 09bc 1A       		.uleb128 0x1a
 5140 09bd 01       		.uleb128 0x1
 5141 09be 50       		.byte	0x50
 5142 09bf 02       		.uleb128 0x2
 5143 09c0 76       		.byte	0x76
 5144 09c1 00       		.sleb128 0
 5145 09c2 00       		.byte	0
 5146 09c3 19       		.uleb128 0x19
 5147 09c4 52000000 		.4byte	.LVL89
 5148 09c8 45270000 		.4byte	0x2745
 5149 09cc D6090000 		.4byte	0x9d6
 5150 09d0 1A       		.uleb128 0x1a
 5151 09d1 01       		.uleb128 0x1
 5152 09d2 50       		.byte	0x50
 5153 09d3 01       		.uleb128 0x1
 5154 09d4 4C       		.byte	0x4c
 5155 09d5 00       		.byte	0
 5156 09d6 19       		.uleb128 0x19
 5157 09d7 58000000 		.4byte	.LVL90
 5158 09db 2F270000 		.4byte	0x272f
 5159 09df E9090000 		.4byte	0x9e9
 5160 09e3 1A       		.uleb128 0x1a
 5161 09e4 01       		.uleb128 0x1
 5162 09e5 50       		.byte	0x50
 5163 09e6 01       		.uleb128 0x1
 5164 09e7 31       		.byte	0x31
 5165 09e8 00       		.byte	0
 5166 09e9 19       		.uleb128 0x19
 5167 09ea 5E000000 		.4byte	.LVL91
 5168 09ee 45270000 		.4byte	0x2745
 5169 09f2 FC090000 		.4byte	0x9fc
 5170 09f6 1A       		.uleb128 0x1a
 5171 09f7 01       		.uleb128 0x1
 5172 09f8 50       		.byte	0x50
 5173 09f9 01       		.uleb128 0x1
 5174 09fa 3F       		.byte	0x3f
 5175 09fb 00       		.byte	0
 5176 09fc 19       		.uleb128 0x19
 5177 09fd 64000000 		.4byte	.LVL92
 5178 0a01 2F270000 		.4byte	0x272f
 5179 0a05 0F0A0000 		.4byte	0xa0f
ARM GAS  C:\Users\Kiwi\AppData\Local\Temp\cckzbvMb.s 			page 120


 5180 0a09 1A       		.uleb128 0x1a
 5181 0a0a 01       		.uleb128 0x1
 5182 0a0b 50       		.byte	0x50
 5183 0a0c 01       		.uleb128 0x1
 5184 0a0d 31       		.byte	0x31
 5185 0a0e 00       		.byte	0
 5186 0a0f 19       		.uleb128 0x19
 5187 0a10 6C000000 		.4byte	.LVL93
 5188 0a14 24270000 		.4byte	0x2724
 5189 0a18 230A0000 		.4byte	0xa23
 5190 0a1c 1A       		.uleb128 0x1a
 5191 0a1d 01       		.uleb128 0x1
 5192 0a1e 50       		.byte	0x50
 5193 0a1f 02       		.uleb128 0x2
 5194 0a20 75       		.byte	0x75
 5195 0a21 01       		.sleb128 1
 5196 0a22 00       		.byte	0
 5197 0a23 19       		.uleb128 0x19
 5198 0a24 72000000 		.4byte	.LVL94
 5199 0a28 66270000 		.4byte	0x2766
 5200 0a2c 370A0000 		.4byte	0xa37
 5201 0a30 1A       		.uleb128 0x1a
 5202 0a31 01       		.uleb128 0x1
 5203 0a32 50       		.byte	0x50
 5204 0a33 02       		.uleb128 0x2
 5205 0a34 75       		.byte	0x75
 5206 0a35 00       		.sleb128 0
 5207 0a36 00       		.byte	0
 5208 0a37 19       		.uleb128 0x19
 5209 0a38 78000000 		.4byte	.LVL95
 5210 0a3c 45270000 		.4byte	0x2745
 5211 0a40 4A0A0000 		.4byte	0xa4a
 5212 0a44 1A       		.uleb128 0x1a
 5213 0a45 01       		.uleb128 0x1
 5214 0a46 50       		.byte	0x50
 5215 0a47 01       		.uleb128 0x1
 5216 0a48 4C       		.byte	0x4c
 5217 0a49 00       		.byte	0
 5218 0a4a 19       		.uleb128 0x19
 5219 0a4b 7E000000 		.4byte	.LVL96
 5220 0a4f 2F270000 		.4byte	0x272f
 5221 0a53 5D0A0000 		.4byte	0xa5d
 5222 0a57 1A       		.uleb128 0x1a
 5223 0a58 01       		.uleb128 0x1
 5224 0a59 50       		.byte	0x50
 5225 0a5a 01       		.uleb128 0x1
 5226 0a5b 31       		.byte	0x31
 5227 0a5c 00       		.byte	0
 5228 0a5d 19       		.uleb128 0x19
 5229 0a5e 84000000 		.4byte	.LVL97
 5230 0a62 45270000 		.4byte	0x2745
 5231 0a66 700A0000 		.4byte	0xa70
 5232 0a6a 1A       		.uleb128 0x1a
 5233 0a6b 01       		.uleb128 0x1
 5234 0a6c 50       		.byte	0x50
 5235 0a6d 01       		.uleb128 0x1
 5236 0a6e 3F       		.byte	0x3f
ARM GAS  C:\Users\Kiwi\AppData\Local\Temp\cckzbvMb.s 			page 121


 5237 0a6f 00       		.byte	0
 5238 0a70 22       		.uleb128 0x22
 5239 0a71 8C000000 		.4byte	.LVL99
 5240 0a75 2F270000 		.4byte	0x272f
 5241 0a79 1A       		.uleb128 0x1a
 5242 0a7a 01       		.uleb128 0x1
 5243 0a7b 50       		.byte	0x50
 5244 0a7c 01       		.uleb128 0x1
 5245 0a7d 31       		.byte	0x31
 5246 0a7e 00       		.byte	0
 5247 0a7f 00       		.byte	0
 5248 0a80 2B       		.uleb128 0x2b
 5249 0a81 A0000000 		.4byte	.LBB43
 5250 0a85 6E000000 		.4byte	.LBE43-.LBB43
 5251 0a89 6D0B0000 		.4byte	0xb6d
 5252 0a8d 2A       		.uleb128 0x2a
 5253 0a8e 11020000 		.4byte	0x211
 5254 0a92 1D010000 		.4byte	.LLST10
 5255 0a96 19       		.uleb128 0x19
 5256 0a97 AE000000 		.4byte	.LVL103
 5257 0a9b 19270000 		.4byte	0x2719
 5258 0a9f AA0A0000 		.4byte	0xaaa
 5259 0aa3 1A       		.uleb128 0x1a
 5260 0aa4 01       		.uleb128 0x1
 5261 0aa5 50       		.byte	0x50
 5262 0aa6 02       		.uleb128 0x2
 5263 0aa7 76       		.byte	0x76
 5264 0aa8 00       		.sleb128 0
 5265 0aa9 00       		.byte	0
 5266 0aaa 19       		.uleb128 0x19
 5267 0aab B4000000 		.4byte	.LVL104
 5268 0aaf 24270000 		.4byte	0x2724
 5269 0ab3 BE0A0000 		.4byte	0xabe
 5270 0ab7 1A       		.uleb128 0x1a
 5271 0ab8 01       		.uleb128 0x1
 5272 0ab9 50       		.byte	0x50
 5273 0aba 02       		.uleb128 0x2
 5274 0abb 77       		.byte	0x77
 5275 0abc 00       		.sleb128 0
 5276 0abd 00       		.byte	0
 5277 0abe 19       		.uleb128 0x19
 5278 0abf BA000000 		.4byte	.LVL105
 5279 0ac3 2F270000 		.4byte	0x272f
 5280 0ac7 D10A0000 		.4byte	0xad1
 5281 0acb 1A       		.uleb128 0x1a
 5282 0acc 01       		.uleb128 0x1
 5283 0acd 50       		.byte	0x50
 5284 0ace 01       		.uleb128 0x1
 5285 0acf 32       		.byte	0x32
 5286 0ad0 00       		.byte	0
 5287 0ad1 17       		.uleb128 0x17
 5288 0ad2 BE000000 		.4byte	.LVL106
 5289 0ad6 3A270000 		.4byte	0x273a
 5290 0ada 19       		.uleb128 0x19
 5291 0adb C6000000 		.4byte	.LVL108
 5292 0adf 2F270000 		.4byte	0x272f
 5293 0ae3 ED0A0000 		.4byte	0xaed
ARM GAS  C:\Users\Kiwi\AppData\Local\Temp\cckzbvMb.s 			page 122


 5294 0ae7 1A       		.uleb128 0x1a
 5295 0ae8 01       		.uleb128 0x1
 5296 0ae9 50       		.byte	0x50
 5297 0aea 01       		.uleb128 0x1
 5298 0aeb 31       		.byte	0x31
 5299 0aec 00       		.byte	0
 5300 0aed 19       		.uleb128 0x19
 5301 0aee E0000000 		.4byte	.LVL110
 5302 0af2 1E040000 		.4byte	0x41e
 5303 0af6 160B0000 		.4byte	0xb16
 5304 0afa 1A       		.uleb128 0x1a
 5305 0afb 01       		.uleb128 0x1
 5306 0afc 50       		.byte	0x50
 5307 0afd 05       		.uleb128 0x5
 5308 0afe 03       		.byte	0x3
 5309 0aff 77000000 		.4byte	.LC10
 5310 0b03 1A       		.uleb128 0x1a
 5311 0b04 01       		.uleb128 0x1
 5312 0b05 51       		.byte	0x51
 5313 0b06 02       		.uleb128 0x2
 5314 0b07 74       		.byte	0x74
 5315 0b08 00       		.sleb128 0
 5316 0b09 1A       		.uleb128 0x1a
 5317 0b0a 01       		.uleb128 0x1
 5318 0b0b 52       		.byte	0x52
 5319 0b0c 02       		.uleb128 0x2
 5320 0b0d 76       		.byte	0x76
 5321 0b0e 00       		.sleb128 0
 5322 0b0f 1A       		.uleb128 0x1a
 5323 0b10 01       		.uleb128 0x1
 5324 0b11 53       		.byte	0x53
 5325 0b12 02       		.uleb128 0x2
 5326 0b13 78       		.byte	0x78
 5327 0b14 00       		.sleb128 0
 5328 0b15 00       		.byte	0
 5329 0b16 19       		.uleb128 0x19
 5330 0b17 EA000000 		.4byte	.LVL112
 5331 0b1b 87010000 		.4byte	0x187
 5332 0b1f 2E0B0000 		.4byte	0xb2e
 5333 0b23 1A       		.uleb128 0x1a
 5334 0b24 01       		.uleb128 0x1
 5335 0b25 50       		.byte	0x50
 5336 0b26 06       		.uleb128 0x6
 5337 0b27 74       		.byte	0x74
 5338 0b28 00       		.sleb128 0
 5339 0b29 0A       		.byte	0xa
 5340 0b2a 00FF     		.2byte	0xff00
 5341 0b2c 1A       		.byte	0x1a
 5342 0b2d 00       		.byte	0
 5343 0b2e 17       		.uleb128 0x17
 5344 0b2f EE000000 		.4byte	.LVL113
 5345 0b33 57010000 		.4byte	0x157
 5346 0b37 19       		.uleb128 0x19
 5347 0b38 FA000000 		.4byte	.LVL114
 5348 0b3c 50270000 		.4byte	0x2750
 5349 0b40 4A0B0000 		.4byte	0xb4a
 5350 0b44 1A       		.uleb128 0x1a
ARM GAS  C:\Users\Kiwi\AppData\Local\Temp\cckzbvMb.s 			page 123


 5351 0b45 01       		.uleb128 0x1
 5352 0b46 50       		.byte	0x50
 5353 0b47 01       		.uleb128 0x1
 5354 0b48 3C       		.byte	0x3c
 5355 0b49 00       		.byte	0
 5356 0b4a 19       		.uleb128 0x19
 5357 0b4b 00010000 		.4byte	.LVL115
 5358 0b4f 5B270000 		.4byte	0x275b
 5359 0b53 5D0B0000 		.4byte	0xb5d
 5360 0b57 1A       		.uleb128 0x1a
 5361 0b58 01       		.uleb128 0x1
 5362 0b59 50       		.byte	0x50
 5363 0b5a 01       		.uleb128 0x1
 5364 0b5b 3C       		.byte	0x3c
 5365 0b5c 00       		.byte	0
 5366 0b5d 22       		.uleb128 0x22
 5367 0b5e 06010000 		.4byte	.LVL116
 5368 0b62 45270000 		.4byte	0x2745
 5369 0b66 1A       		.uleb128 0x1a
 5370 0b67 01       		.uleb128 0x1
 5371 0b68 50       		.byte	0x50
 5372 0b69 01       		.uleb128 0x1
 5373 0b6a 3A       		.byte	0x3a
 5374 0b6b 00       		.byte	0
 5375 0b6c 00       		.byte	0
 5376 0b6d 2B       		.uleb128 0x2b
 5377 0b6e 1A010000 		.4byte	.LBB44
 5378 0b72 64000000 		.4byte	.LBE44-.LBB44
 5379 0b76 7E0C0000 		.4byte	0xc7e
 5380 0b7a 2A       		.uleb128 0x2a
 5381 0b7b 21020000 		.4byte	0x221
 5382 0b7f 3C010000 		.4byte	.LLST11
 5383 0b83 19       		.uleb128 0x19
 5384 0b84 28010000 		.4byte	.LVL121
 5385 0b88 19270000 		.4byte	0x2719
 5386 0b8c 970B0000 		.4byte	0xb97
 5387 0b90 1A       		.uleb128 0x1a
 5388 0b91 01       		.uleb128 0x1
 5389 0b92 50       		.byte	0x50
 5390 0b93 02       		.uleb128 0x2
 5391 0b94 77       		.byte	0x77
 5392 0b95 00       		.sleb128 0
 5393 0b96 00       		.byte	0
 5394 0b97 19       		.uleb128 0x19
 5395 0b98 2E010000 		.4byte	.LVL122
 5396 0b9c 24270000 		.4byte	0x2724
 5397 0ba0 AB0B0000 		.4byte	0xbab
 5398 0ba4 1A       		.uleb128 0x1a
 5399 0ba5 01       		.uleb128 0x1
 5400 0ba6 50       		.byte	0x50
 5401 0ba7 02       		.uleb128 0x2
 5402 0ba8 76       		.byte	0x76
 5403 0ba9 00       		.sleb128 0
 5404 0baa 00       		.byte	0
 5405 0bab 19       		.uleb128 0x19
 5406 0bac 36010000 		.4byte	.LVL123
 5407 0bb0 66270000 		.4byte	0x2766
ARM GAS  C:\Users\Kiwi\AppData\Local\Temp\cckzbvMb.s 			page 124


 5408 0bb4 C00B0000 		.4byte	0xbc0
 5409 0bb8 1A       		.uleb128 0x1a
 5410 0bb9 01       		.uleb128 0x1
 5411 0bba 50       		.byte	0x50
 5412 0bbb 03       		.uleb128 0x3
 5413 0bbc 77       		.byte	0x77
 5414 0bbd 00       		.sleb128 0
 5415 0bbe 20       		.byte	0x20
 5416 0bbf 00       		.byte	0
 5417 0bc0 19       		.uleb128 0x19
 5418 0bc1 3C010000 		.4byte	.LVL124
 5419 0bc5 45270000 		.4byte	0x2745
 5420 0bc9 D30B0000 		.4byte	0xbd3
 5421 0bcd 1A       		.uleb128 0x1a
 5422 0bce 01       		.uleb128 0x1
 5423 0bcf 50       		.byte	0x50
 5424 0bd0 01       		.uleb128 0x1
 5425 0bd1 4C       		.byte	0x4c
 5426 0bd2 00       		.byte	0
 5427 0bd3 19       		.uleb128 0x19
 5428 0bd4 42010000 		.4byte	.LVL125
 5429 0bd8 2F270000 		.4byte	0x272f
 5430 0bdc E60B0000 		.4byte	0xbe6
 5431 0be0 1A       		.uleb128 0x1a
 5432 0be1 01       		.uleb128 0x1
 5433 0be2 50       		.byte	0x50
 5434 0be3 01       		.uleb128 0x1
 5435 0be4 31       		.byte	0x31
 5436 0be5 00       		.byte	0
 5437 0be6 19       		.uleb128 0x19
 5438 0be7 48010000 		.4byte	.LVL126
 5439 0beb 45270000 		.4byte	0x2745
 5440 0bef F90B0000 		.4byte	0xbf9
 5441 0bf3 1A       		.uleb128 0x1a
 5442 0bf4 01       		.uleb128 0x1
 5443 0bf5 50       		.byte	0x50
 5444 0bf6 01       		.uleb128 0x1
 5445 0bf7 3F       		.byte	0x3f
 5446 0bf8 00       		.byte	0
 5447 0bf9 19       		.uleb128 0x19
 5448 0bfa 4E010000 		.4byte	.LVL127
 5449 0bfe 2F270000 		.4byte	0x272f
 5450 0c02 0C0C0000 		.4byte	0xc0c
 5451 0c06 1A       		.uleb128 0x1a
 5452 0c07 01       		.uleb128 0x1
 5453 0c08 50       		.byte	0x50
 5454 0c09 01       		.uleb128 0x1
 5455 0c0a 31       		.byte	0x31
 5456 0c0b 00       		.byte	0
 5457 0c0c 19       		.uleb128 0x19
 5458 0c0d 56010000 		.4byte	.LVL128
 5459 0c11 24270000 		.4byte	0x2724
 5460 0c15 200C0000 		.4byte	0xc20
 5461 0c19 1A       		.uleb128 0x1a
 5462 0c1a 01       		.uleb128 0x1
 5463 0c1b 50       		.byte	0x50
 5464 0c1c 02       		.uleb128 0x2
ARM GAS  C:\Users\Kiwi\AppData\Local\Temp\cckzbvMb.s 			page 125


 5465 0c1d 76       		.byte	0x76
 5466 0c1e 01       		.sleb128 1
 5467 0c1f 00       		.byte	0
 5468 0c20 19       		.uleb128 0x19
 5469 0c21 5E010000 		.4byte	.LVL129
 5470 0c25 66270000 		.4byte	0x2766
 5471 0c29 350C0000 		.4byte	0xc35
 5472 0c2d 1A       		.uleb128 0x1a
 5473 0c2e 01       		.uleb128 0x1
 5474 0c2f 50       		.byte	0x50
 5475 0c30 03       		.uleb128 0x3
 5476 0c31 76       		.byte	0x76
 5477 0c32 00       		.sleb128 0
 5478 0c33 20       		.byte	0x20
 5479 0c34 00       		.byte	0
 5480 0c35 19       		.uleb128 0x19
 5481 0c36 64010000 		.4byte	.LVL130
 5482 0c3a 45270000 		.4byte	0x2745
 5483 0c3e 480C0000 		.4byte	0xc48
 5484 0c42 1A       		.uleb128 0x1a
 5485 0c43 01       		.uleb128 0x1
 5486 0c44 50       		.byte	0x50
 5487 0c45 01       		.uleb128 0x1
 5488 0c46 4C       		.byte	0x4c
 5489 0c47 00       		.byte	0
 5490 0c48 19       		.uleb128 0x19
 5491 0c49 6A010000 		.4byte	.LVL131
 5492 0c4d 2F270000 		.4byte	0x272f
 5493 0c51 5B0C0000 		.4byte	0xc5b
 5494 0c55 1A       		.uleb128 0x1a
 5495 0c56 01       		.uleb128 0x1
 5496 0c57 50       		.byte	0x50
 5497 0c58 01       		.uleb128 0x1
 5498 0c59 31       		.byte	0x31
 5499 0c5a 00       		.byte	0
 5500 0c5b 19       		.uleb128 0x19
 5501 0c5c 70010000 		.4byte	.LVL132
 5502 0c60 45270000 		.4byte	0x2745
 5503 0c64 6E0C0000 		.4byte	0xc6e
 5504 0c68 1A       		.uleb128 0x1a
 5505 0c69 01       		.uleb128 0x1
 5506 0c6a 50       		.byte	0x50
 5507 0c6b 01       		.uleb128 0x1
 5508 0c6c 3F       		.byte	0x3f
 5509 0c6d 00       		.byte	0
 5510 0c6e 22       		.uleb128 0x22
 5511 0c6f 78010000 		.4byte	.LVL134
 5512 0c73 2F270000 		.4byte	0x272f
 5513 0c77 1A       		.uleb128 0x1a
 5514 0c78 01       		.uleb128 0x1
 5515 0c79 50       		.byte	0x50
 5516 0c7a 01       		.uleb128 0x1
 5517 0c7b 31       		.byte	0x31
 5518 0c7c 00       		.byte	0
 5519 0c7d 00       		.byte	0
 5520 0c7e 2B       		.uleb128 0x2b
 5521 0c7f 8A010000 		.4byte	.LBB45
ARM GAS  C:\Users\Kiwi\AppData\Local\Temp\cckzbvMb.s 			page 126


 5522 0c83 48000000 		.4byte	.LBE45-.LBB45
 5523 0c87 0B0D0000 		.4byte	0xd0b
 5524 0c8b 2A       		.uleb128 0x2a
 5525 0c8c 2D020000 		.4byte	0x22d
 5526 0c90 73010000 		.4byte	.LLST12
 5527 0c94 19       		.uleb128 0x19
 5528 0c95 98010000 		.4byte	.LVL138
 5529 0c99 19270000 		.4byte	0x2719
 5530 0c9d A80C0000 		.4byte	0xca8
 5531 0ca1 1A       		.uleb128 0x1a
 5532 0ca2 01       		.uleb128 0x1
 5533 0ca3 50       		.byte	0x50
 5534 0ca4 02       		.uleb128 0x2
 5535 0ca5 74       		.byte	0x74
 5536 0ca6 00       		.sleb128 0
 5537 0ca7 00       		.byte	0
 5538 0ca8 19       		.uleb128 0x19
 5539 0ca9 9E010000 		.4byte	.LVL139
 5540 0cad 24270000 		.4byte	0x2724
 5541 0cb1 BC0C0000 		.4byte	0xcbc
 5542 0cb5 1A       		.uleb128 0x1a
 5543 0cb6 01       		.uleb128 0x1
 5544 0cb7 50       		.byte	0x50
 5545 0cb8 02       		.uleb128 0x2
 5546 0cb9 77       		.byte	0x77
 5547 0cba 00       		.sleb128 0
 5548 0cbb 00       		.byte	0
 5549 0cbc 19       		.uleb128 0x19
 5550 0cbd A4010000 		.4byte	.LVL140
 5551 0cc1 2F270000 		.4byte	0x272f
 5552 0cc5 CF0C0000 		.4byte	0xccf
 5553 0cc9 1A       		.uleb128 0x1a
 5554 0cca 01       		.uleb128 0x1
 5555 0ccb 50       		.byte	0x50
 5556 0ccc 01       		.uleb128 0x1
 5557 0ccd 31       		.byte	0x31
 5558 0cce 00       		.byte	0
 5559 0ccf 17       		.uleb128 0x17
 5560 0cd0 A8010000 		.4byte	.LVL141
 5561 0cd4 3A270000 		.4byte	0x273a
 5562 0cd8 19       		.uleb128 0x19
 5563 0cd9 B0010000 		.4byte	.LVL143
 5564 0cdd 2F270000 		.4byte	0x272f
 5565 0ce1 EB0C0000 		.4byte	0xceb
 5566 0ce5 1A       		.uleb128 0x1a
 5567 0ce6 01       		.uleb128 0x1
 5568 0ce7 50       		.byte	0x50
 5569 0ce8 01       		.uleb128 0x1
 5570 0ce9 31       		.byte	0x31
 5571 0cea 00       		.byte	0
 5572 0ceb 22       		.uleb128 0x22
 5573 0cec C8010000 		.4byte	.LVL145
 5574 0cf0 1E040000 		.4byte	0x41e
 5575 0cf4 1A       		.uleb128 0x1a
 5576 0cf5 01       		.uleb128 0x1
 5577 0cf6 50       		.byte	0x50
 5578 0cf7 05       		.uleb128 0x5
ARM GAS  C:\Users\Kiwi\AppData\Local\Temp\cckzbvMb.s 			page 127


 5579 0cf8 03       		.byte	0x3
 5580 0cf9 77000000 		.4byte	.LC10
 5581 0cfd 1A       		.uleb128 0x1a
 5582 0cfe 01       		.uleb128 0x1
 5583 0cff 51       		.byte	0x51
 5584 0d00 02       		.uleb128 0x2
 5585 0d01 76       		.byte	0x76
 5586 0d02 00       		.sleb128 0
 5587 0d03 1A       		.uleb128 0x1a
 5588 0d04 01       		.uleb128 0x1
 5589 0d05 53       		.byte	0x53
 5590 0d06 02       		.uleb128 0x2
 5591 0d07 78       		.byte	0x78
 5592 0d08 00       		.sleb128 0
 5593 0d09 00       		.byte	0
 5594 0d0a 00       		.byte	0
 5595 0d0b 19       		.uleb128 0x19
 5596 0d0c 14000000 		.4byte	.LVL79
 5597 0d10 24270000 		.4byte	0x2724
 5598 0d14 1E0D0000 		.4byte	0xd1e
 5599 0d18 1A       		.uleb128 0x1a
 5600 0d19 01       		.uleb128 0x1
 5601 0d1a 50       		.byte	0x50
 5602 0d1b 01       		.uleb128 0x1
 5603 0d1c 30       		.byte	0x30
 5604 0d1d 00       		.byte	0
 5605 0d1e 19       		.uleb128 0x19
 5606 0d1f 1A000000 		.4byte	.LVL80
 5607 0d23 50270000 		.4byte	0x2750
 5608 0d27 310D0000 		.4byte	0xd31
 5609 0d2b 1A       		.uleb128 0x1a
 5610 0d2c 01       		.uleb128 0x1
 5611 0d2d 50       		.byte	0x50
 5612 0d2e 01       		.uleb128 0x1
 5613 0d2f 3C       		.byte	0x3c
 5614 0d30 00       		.byte	0
 5615 0d31 19       		.uleb128 0x19
 5616 0d32 20000000 		.4byte	.LVL81
 5617 0d36 19270000 		.4byte	0x2719
 5618 0d3a 440D0000 		.4byte	0xd44
 5619 0d3e 1A       		.uleb128 0x1a
 5620 0d3f 01       		.uleb128 0x1
 5621 0d40 50       		.byte	0x50
 5622 0d41 01       		.uleb128 0x1
 5623 0d42 30       		.byte	0x30
 5624 0d43 00       		.byte	0
 5625 0d44 19       		.uleb128 0x19
 5626 0d45 26000000 		.4byte	.LVL82
 5627 0d49 5B270000 		.4byte	0x275b
 5628 0d4d 570D0000 		.4byte	0xd57
 5629 0d51 1A       		.uleb128 0x1a
 5630 0d52 01       		.uleb128 0x1
 5631 0d53 50       		.byte	0x50
 5632 0d54 01       		.uleb128 0x1
 5633 0d55 3C       		.byte	0x3c
 5634 0d56 00       		.byte	0
 5635 0d57 19       		.uleb128 0x19
ARM GAS  C:\Users\Kiwi\AppData\Local\Temp\cckzbvMb.s 			page 128


 5636 0d58 2C000000 		.4byte	.LVL83
 5637 0d5c 45270000 		.4byte	0x2745
 5638 0d60 6A0D0000 		.4byte	0xd6a
 5639 0d64 1A       		.uleb128 0x1a
 5640 0d65 01       		.uleb128 0x1
 5641 0d66 50       		.byte	0x50
 5642 0d67 01       		.uleb128 0x1
 5643 0d68 3F       		.byte	0x3f
 5644 0d69 00       		.byte	0
 5645 0d6a 19       		.uleb128 0x19
 5646 0d6b 32000000 		.4byte	.LVL84
 5647 0d6f 1E040000 		.4byte	0x41e
 5648 0d73 810D0000 		.4byte	0xd81
 5649 0d77 1A       		.uleb128 0x1a
 5650 0d78 01       		.uleb128 0x1
 5651 0d79 50       		.byte	0x50
 5652 0d7a 05       		.uleb128 0x5
 5653 0d7b 03       		.byte	0x3
 5654 0d7c 4B000000 		.4byte	.LC8
 5655 0d80 00       		.byte	0
 5656 0d81 19       		.uleb128 0x19
 5657 0d82 98000000 		.4byte	.LVL100
 5658 0d86 1E040000 		.4byte	0x41e
 5659 0d8a 980D0000 		.4byte	0xd98
 5660 0d8e 1A       		.uleb128 0x1a
 5661 0d8f 01       		.uleb128 0x1
 5662 0d90 50       		.byte	0x50
 5663 0d91 05       		.uleb128 0x5
 5664 0d92 03       		.byte	0x3
 5665 0d93 67000000 		.4byte	.LC9
 5666 0d97 00       		.byte	0
 5667 0d98 19       		.uleb128 0x19
 5668 0d99 A0000000 		.4byte	.LVL101
 5669 0d9d 45270000 		.4byte	0x2745
 5670 0da1 AB0D0000 		.4byte	0xdab
 5671 0da5 1A       		.uleb128 0x1a
 5672 0da6 01       		.uleb128 0x1
 5673 0da7 50       		.byte	0x50
 5674 0da8 01       		.uleb128 0x1
 5675 0da9 3A       		.byte	0x3a
 5676 0daa 00       		.byte	0
 5677 0dab 19       		.uleb128 0x19
 5678 0dac 14010000 		.4byte	.LVL118
 5679 0db0 45270000 		.4byte	0x2745
 5680 0db4 BE0D0000 		.4byte	0xdbe
 5681 0db8 1A       		.uleb128 0x1a
 5682 0db9 01       		.uleb128 0x1
 5683 0dba 50       		.byte	0x50
 5684 0dbb 01       		.uleb128 0x1
 5685 0dbc 3F       		.byte	0x3f
 5686 0dbd 00       		.byte	0
 5687 0dbe 19       		.uleb128 0x19
 5688 0dbf 1A010000 		.4byte	.LVL119
 5689 0dc3 1E040000 		.4byte	0x41e
 5690 0dc7 D50D0000 		.4byte	0xdd5
 5691 0dcb 1A       		.uleb128 0x1a
 5692 0dcc 01       		.uleb128 0x1
ARM GAS  C:\Users\Kiwi\AppData\Local\Temp\cckzbvMb.s 			page 129


 5693 0dcd 50       		.byte	0x50
 5694 0dce 05       		.uleb128 0x5
 5695 0dcf 03       		.byte	0x3
 5696 0dd0 A6000000 		.4byte	.LC11
 5697 0dd4 00       		.byte	0
 5698 0dd5 19       		.uleb128 0x19
 5699 0dd6 84010000 		.4byte	.LVL135
 5700 0dda 1E040000 		.4byte	0x41e
 5701 0dde EC0D0000 		.4byte	0xdec
 5702 0de2 1A       		.uleb128 0x1a
 5703 0de3 01       		.uleb128 0x1
 5704 0de4 50       		.byte	0x50
 5705 0de5 05       		.uleb128 0x5
 5706 0de6 03       		.byte	0x3
 5707 0de7 67000000 		.4byte	.LC9
 5708 0deb 00       		.byte	0
 5709 0dec 19       		.uleb128 0x19
 5710 0ded 8A010000 		.4byte	.LVL136
 5711 0df1 45270000 		.4byte	0x2745
 5712 0df5 FF0D0000 		.4byte	0xdff
 5713 0df9 1A       		.uleb128 0x1a
 5714 0dfa 01       		.uleb128 0x1
 5715 0dfb 50       		.byte	0x50
 5716 0dfc 01       		.uleb128 0x1
 5717 0dfd 3A       		.byte	0x3a
 5718 0dfe 00       		.byte	0
 5719 0dff 19       		.uleb128 0x19
 5720 0e00 D8010000 		.4byte	.LVL148
 5721 0e04 45270000 		.4byte	0x2745
 5722 0e08 120E0000 		.4byte	0xe12
 5723 0e0c 1A       		.uleb128 0x1a
 5724 0e0d 01       		.uleb128 0x1
 5725 0e0e 50       		.byte	0x50
 5726 0e0f 01       		.uleb128 0x1
 5727 0e10 37       		.byte	0x37
 5728 0e11 00       		.byte	0
 5729 0e12 19       		.uleb128 0x19
 5730 0e13 DE010000 		.4byte	.LVL149
 5731 0e17 24270000 		.4byte	0x2724
 5732 0e1b 250E0000 		.4byte	0xe25
 5733 0e1f 1A       		.uleb128 0x1a
 5734 0e20 01       		.uleb128 0x1
 5735 0e21 50       		.byte	0x50
 5736 0e22 01       		.uleb128 0x1
 5737 0e23 30       		.byte	0x30
 5738 0e24 00       		.byte	0
 5739 0e25 19       		.uleb128 0x19
 5740 0e26 E4010000 		.4byte	.LVL150
 5741 0e2a 50270000 		.4byte	0x2750
 5742 0e2e 380E0000 		.4byte	0xe38
 5743 0e32 1A       		.uleb128 0x1a
 5744 0e33 01       		.uleb128 0x1
 5745 0e34 50       		.byte	0x50
 5746 0e35 01       		.uleb128 0x1
 5747 0e36 32       		.byte	0x32
 5748 0e37 00       		.byte	0
 5749 0e38 19       		.uleb128 0x19
ARM GAS  C:\Users\Kiwi\AppData\Local\Temp\cckzbvMb.s 			page 130


 5750 0e39 EA010000 		.4byte	.LVL151
 5751 0e3d 19270000 		.4byte	0x2719
 5752 0e41 4B0E0000 		.4byte	0xe4b
 5753 0e45 1A       		.uleb128 0x1a
 5754 0e46 01       		.uleb128 0x1
 5755 0e47 50       		.byte	0x50
 5756 0e48 01       		.uleb128 0x1
 5757 0e49 30       		.byte	0x30
 5758 0e4a 00       		.byte	0
 5759 0e4b 19       		.uleb128 0x19
 5760 0e4c F0010000 		.4byte	.LVL152
 5761 0e50 5B270000 		.4byte	0x275b
 5762 0e54 5E0E0000 		.4byte	0xe5e
 5763 0e58 1A       		.uleb128 0x1a
 5764 0e59 01       		.uleb128 0x1
 5765 0e5a 50       		.byte	0x50
 5766 0e5b 01       		.uleb128 0x1
 5767 0e5c 32       		.byte	0x32
 5768 0e5d 00       		.byte	0
 5769 0e5e 19       		.uleb128 0x19
 5770 0e5f FA010000 		.4byte	.LVL153
 5771 0e63 1E040000 		.4byte	0x41e
 5772 0e67 7B0E0000 		.4byte	0xe7b
 5773 0e6b 1A       		.uleb128 0x1a
 5774 0e6c 01       		.uleb128 0x1
 5775 0e6d 50       		.byte	0x50
 5776 0e6e 05       		.uleb128 0x5
 5777 0e6f 03       		.byte	0x3
 5778 0e70 CB000000 		.4byte	.LC12
 5779 0e74 1A       		.uleb128 0x1a
 5780 0e75 01       		.uleb128 0x1
 5781 0e76 51       		.byte	0x51
 5782 0e77 02       		.uleb128 0x2
 5783 0e78 75       		.byte	0x75
 5784 0e79 00       		.sleb128 0
 5785 0e7a 00       		.byte	0
 5786 0e7b 19       		.uleb128 0x19
 5787 0e7c 02020000 		.4byte	.LVL154
 5788 0e80 1E040000 		.4byte	0x41e
 5789 0e84 920E0000 		.4byte	0xe92
 5790 0e88 1A       		.uleb128 0x1a
 5791 0e89 01       		.uleb128 0x1
 5792 0e8a 50       		.byte	0x50
 5793 0e8b 05       		.uleb128 0x5
 5794 0e8c 03       		.byte	0x3
 5795 0e8d E1000000 		.4byte	.LC13
 5796 0e91 00       		.byte	0
 5797 0e92 17       		.uleb128 0x17
 5798 0e93 06020000 		.4byte	.LVL155
 5799 0e97 6F010000 		.4byte	0x16f
 5800 0e9b 19       		.uleb128 0x19
 5801 0e9c 0C020000 		.4byte	.LVL156
 5802 0ea0 1E040000 		.4byte	0x41e
 5803 0ea4 B20E0000 		.4byte	0xeb2
 5804 0ea8 1A       		.uleb128 0x1a
 5805 0ea9 01       		.uleb128 0x1
 5806 0eaa 50       		.byte	0x50
ARM GAS  C:\Users\Kiwi\AppData\Local\Temp\cckzbvMb.s 			page 131


 5807 0eab 05       		.uleb128 0x5
 5808 0eac 03       		.byte	0x3
 5809 0ead F7000000 		.4byte	.LC14
 5810 0eb1 00       		.byte	0
 5811 0eb2 18       		.uleb128 0x18
 5812 0eb3 14020000 		.4byte	.LVL158
 5813 0eb7 D3030000 		.4byte	0x3d3
 5814 0ebb 00       		.byte	0
 5815 0ebc 17       		.uleb128 0x17
 5816 0ebd 08000000 		.4byte	.LVL78
 5817 0ec1 57010000 		.4byte	0x157
 5818 0ec5 00       		.byte	0
 5819 0ec6 25       		.uleb128 0x25
 5820 0ec7 39020000 		.4byte	0x239
 5821 0ecb 00000000 		.4byte	.LFB79
 5822 0ecf C8010000 		.4byte	.LFE79-.LFB79
 5823 0ed3 01       		.uleb128 0x1
 5824 0ed4 9C       		.byte	0x9c
 5825 0ed5 B3130000 		.4byte	0x13b3
 5826 0ed9 27       		.uleb128 0x27
 5827 0eda 46020000 		.4byte	0x246
 5828 0ede 2C       		.uleb128 0x2c
 5829 0edf 50020000 		.4byte	0x250
 5830 0ee3 00       		.byte	0
 5831 0ee4 28       		.uleb128 0x28
 5832 0ee5 30000000 		.4byte	.Ldebug_ranges0+0x30
 5833 0ee9 A9130000 		.4byte	0x13a9
 5834 0eed 2A       		.uleb128 0x2a
 5835 0eee 46020000 		.4byte	0x246
 5836 0ef2 92010000 		.4byte	.LLST13
 5837 0ef6 2A       		.uleb128 0x2a
 5838 0ef7 50020000 		.4byte	0x250
 5839 0efb A5010000 		.4byte	.LLST14
 5840 0eff 2B       		.uleb128 0x2b
 5841 0f00 44000000 		.4byte	.LBB53
 5842 0f04 26010000 		.4byte	.LBE53-.LBB53
 5843 0f08 3C120000 		.4byte	0x123c
 5844 0f0c 2A       		.uleb128 0x2a
 5845 0f0d 5D020000 		.4byte	0x25d
 5846 0f11 DA010000 		.4byte	.LLST15
 5847 0f15 19       		.uleb128 0x19
 5848 0f16 50000000 		.4byte	.LVL171
 5849 0f1a 19270000 		.4byte	0x2719
 5850 0f1e 2F0F0000 		.4byte	0xf2f
 5851 0f22 1A       		.uleb128 0x1a
 5852 0f23 01       		.uleb128 0x1
 5853 0f24 50       		.byte	0x50
 5854 0f25 08       		.uleb128 0x8
 5855 0f26 75       		.byte	0x75
 5856 0f27 00       		.sleb128 0
 5857 0f28 09       		.byte	0x9
 5858 0f29 F4       		.byte	0xf4
 5859 0f2a 24       		.byte	0x24
 5860 0f2b 09       		.byte	0x9
 5861 0f2c FC       		.byte	0xfc
 5862 0f2d 25       		.byte	0x25
 5863 0f2e 00       		.byte	0
ARM GAS  C:\Users\Kiwi\AppData\Local\Temp\cckzbvMb.s 			page 132


 5864 0f2f 19       		.uleb128 0x19
 5865 0f30 56000000 		.4byte	.LVL172
 5866 0f34 24270000 		.4byte	0x2724
 5867 0f38 430F0000 		.4byte	0xf43
 5868 0f3c 1A       		.uleb128 0x1a
 5869 0f3d 01       		.uleb128 0x1
 5870 0f3e 50       		.byte	0x50
 5871 0f3f 02       		.uleb128 0x2
 5872 0f40 75       		.byte	0x75
 5873 0f41 00       		.sleb128 0
 5874 0f42 00       		.byte	0
 5875 0f43 19       		.uleb128 0x19
 5876 0f44 5C000000 		.4byte	.LVL173
 5877 0f48 71270000 		.4byte	0x2771
 5878 0f4c 560F0000 		.4byte	0xf56
 5879 0f50 1A       		.uleb128 0x1a
 5880 0f51 01       		.uleb128 0x1
 5881 0f52 50       		.byte	0x50
 5882 0f53 01       		.uleb128 0x1
 5883 0f54 30       		.byte	0x30
 5884 0f55 00       		.byte	0
 5885 0f56 19       		.uleb128 0x19
 5886 0f57 62000000 		.4byte	.LVL174
 5887 0f5b 2F270000 		.4byte	0x272f
 5888 0f5f 690F0000 		.4byte	0xf69
 5889 0f63 1A       		.uleb128 0x1a
 5890 0f64 01       		.uleb128 0x1
 5891 0f65 50       		.byte	0x50
 5892 0f66 01       		.uleb128 0x1
 5893 0f67 35       		.byte	0x35
 5894 0f68 00       		.byte	0
 5895 0f69 17       		.uleb128 0x17
 5896 0f6a 66000000 		.4byte	.LVL175
 5897 0f6e 3A270000 		.4byte	0x273a
 5898 0f72 19       		.uleb128 0x19
 5899 0f73 6E000000 		.4byte	.LVL177
 5900 0f77 71270000 		.4byte	0x2771
 5901 0f7b 850F0000 		.4byte	0xf85
 5902 0f7f 1A       		.uleb128 0x1a
 5903 0f80 01       		.uleb128 0x1
 5904 0f81 50       		.byte	0x50
 5905 0f82 01       		.uleb128 0x1
 5906 0f83 31       		.byte	0x31
 5907 0f84 00       		.byte	0
 5908 0f85 19       		.uleb128 0x19
 5909 0f86 74000000 		.4byte	.LVL178
 5910 0f8a 2F270000 		.4byte	0x272f
 5911 0f8e 980F0000 		.4byte	0xf98
 5912 0f92 1A       		.uleb128 0x1a
 5913 0f93 01       		.uleb128 0x1
 5914 0f94 50       		.byte	0x50
 5915 0f95 01       		.uleb128 0x1
 5916 0f96 35       		.byte	0x35
 5917 0f97 00       		.byte	0
 5918 0f98 19       		.uleb128 0x19
 5919 0f99 7A000000 		.4byte	.LVL179
 5920 0f9d 66270000 		.4byte	0x2766
ARM GAS  C:\Users\Kiwi\AppData\Local\Temp\cckzbvMb.s 			page 133


 5921 0fa1 AC0F0000 		.4byte	0xfac
 5922 0fa5 1A       		.uleb128 0x1a
 5923 0fa6 01       		.uleb128 0x1
 5924 0fa7 50       		.byte	0x50
 5925 0fa8 02       		.uleb128 0x2
 5926 0fa9 09       		.byte	0x9
 5927 0faa A5       		.byte	0xa5
 5928 0fab 00       		.byte	0
 5929 0fac 19       		.uleb128 0x19
 5930 0fad 80000000 		.4byte	.LVL180
 5931 0fb1 45270000 		.4byte	0x2745
 5932 0fb5 BF0F0000 		.4byte	0xfbf
 5933 0fb9 1A       		.uleb128 0x1a
 5934 0fba 01       		.uleb128 0x1
 5935 0fbb 50       		.byte	0x50
 5936 0fbc 01       		.uleb128 0x1
 5937 0fbd 47       		.byte	0x47
 5938 0fbe 00       		.byte	0
 5939 0fbf 19       		.uleb128 0x19
 5940 0fc0 86000000 		.4byte	.LVL181
 5941 0fc4 7C270000 		.4byte	0x277c
 5942 0fc8 D20F0000 		.4byte	0xfd2
 5943 0fcc 1A       		.uleb128 0x1a
 5944 0fcd 01       		.uleb128 0x1
 5945 0fce 50       		.byte	0x50
 5946 0fcf 01       		.uleb128 0x1
 5947 0fd0 30       		.byte	0x30
 5948 0fd1 00       		.byte	0
 5949 0fd2 19       		.uleb128 0x19
 5950 0fd3 8C000000 		.4byte	.LVL182
 5951 0fd7 2F270000 		.4byte	0x272f
 5952 0fdb E50F0000 		.4byte	0xfe5
 5953 0fdf 1A       		.uleb128 0x1a
 5954 0fe0 01       		.uleb128 0x1
 5955 0fe1 50       		.byte	0x50
 5956 0fe2 01       		.uleb128 0x1
 5957 0fe3 35       		.byte	0x35
 5958 0fe4 00       		.byte	0
 5959 0fe5 19       		.uleb128 0x19
 5960 0fe6 92000000 		.4byte	.LVL183
 5961 0fea 7C270000 		.4byte	0x277c
 5962 0fee F80F0000 		.4byte	0xff8
 5963 0ff2 1A       		.uleb128 0x1a
 5964 0ff3 01       		.uleb128 0x1
 5965 0ff4 50       		.byte	0x50
 5966 0ff5 01       		.uleb128 0x1
 5967 0ff6 31       		.byte	0x31
 5968 0ff7 00       		.byte	0
 5969 0ff8 19       		.uleb128 0x19
 5970 0ff9 98000000 		.4byte	.LVL184
 5971 0ffd 45270000 		.4byte	0x2745
 5972 1001 0B100000 		.4byte	0x100b
 5973 1005 1A       		.uleb128 0x1a
 5974 1006 01       		.uleb128 0x1
 5975 1007 50       		.byte	0x50
 5976 1008 01       		.uleb128 0x1
 5977 1009 37       		.byte	0x37
ARM GAS  C:\Users\Kiwi\AppData\Local\Temp\cckzbvMb.s 			page 134


 5978 100a 00       		.byte	0
 5979 100b 19       		.uleb128 0x19
 5980 100c 9E000000 		.4byte	.LVL185
 5981 1010 2F270000 		.4byte	0x272f
 5982 1014 1E100000 		.4byte	0x101e
 5983 1018 1A       		.uleb128 0x1a
 5984 1019 01       		.uleb128 0x1
 5985 101a 50       		.byte	0x50
 5986 101b 01       		.uleb128 0x1
 5987 101c 35       		.byte	0x35
 5988 101d 00       		.byte	0
 5989 101e 19       		.uleb128 0x19
 5990 101f A4000000 		.4byte	.LVL186
 5991 1023 71270000 		.4byte	0x2771
 5992 1027 31100000 		.4byte	0x1031
 5993 102b 1A       		.uleb128 0x1a
 5994 102c 01       		.uleb128 0x1
 5995 102d 50       		.byte	0x50
 5996 102e 01       		.uleb128 0x1
 5997 102f 30       		.byte	0x30
 5998 1030 00       		.byte	0
 5999 1031 19       		.uleb128 0x19
 6000 1032 AA000000 		.4byte	.LVL187
 6001 1036 2F270000 		.4byte	0x272f
 6002 103a 44100000 		.4byte	0x1044
 6003 103e 1A       		.uleb128 0x1a
 6004 103f 01       		.uleb128 0x1
 6005 1040 50       		.byte	0x50
 6006 1041 01       		.uleb128 0x1
 6007 1042 35       		.byte	0x35
 6008 1043 00       		.byte	0
 6009 1044 17       		.uleb128 0x17
 6010 1045 AE000000 		.4byte	.LVL188
 6011 1049 3A270000 		.4byte	0x273a
 6012 104d 17       		.uleb128 0x17
 6013 104e B6000000 		.4byte	.LVL189
 6014 1052 3A270000 		.4byte	0x273a
 6015 1056 19       		.uleb128 0x19
 6016 1057 C2000000 		.4byte	.LVL190
 6017 105b 1E040000 		.4byte	0x41e
 6018 105f 79100000 		.4byte	0x1079
 6019 1063 1A       		.uleb128 0x1a
 6020 1064 01       		.uleb128 0x1
 6021 1065 50       		.byte	0x50
 6022 1066 05       		.uleb128 0x5
 6023 1067 03       		.byte	0x3
 6024 1068 62010000 		.4byte	.LC16
 6025 106c 1A       		.uleb128 0x1a
 6026 106d 01       		.uleb128 0x1
 6027 106e 51       		.byte	0x51
 6028 106f 02       		.uleb128 0x2
 6029 1070 75       		.byte	0x75
 6030 1071 00       		.sleb128 0
 6031 1072 1A       		.uleb128 0x1a
 6032 1073 01       		.uleb128 0x1
 6033 1074 52       		.byte	0x52
 6034 1075 02       		.uleb128 0x2
ARM GAS  C:\Users\Kiwi\AppData\Local\Temp\cckzbvMb.s 			page 135


 6035 1076 08       		.byte	0x8
 6036 1077 A5       		.byte	0xa5
 6037 1078 00       		.byte	0
 6038 1079 19       		.uleb128 0x19
 6039 107a CC000000 		.4byte	.LVL193
 6040 107e 71270000 		.4byte	0x2771
 6041 1082 8C100000 		.4byte	0x108c
 6042 1086 1A       		.uleb128 0x1a
 6043 1087 01       		.uleb128 0x1
 6044 1088 50       		.byte	0x50
 6045 1089 01       		.uleb128 0x1
 6046 108a 31       		.byte	0x31
 6047 108b 00       		.byte	0
 6048 108c 19       		.uleb128 0x19
 6049 108d D2000000 		.4byte	.LVL194
 6050 1091 2F270000 		.4byte	0x272f
 6051 1095 9F100000 		.4byte	0x109f
 6052 1099 1A       		.uleb128 0x1a
 6053 109a 01       		.uleb128 0x1
 6054 109b 50       		.byte	0x50
 6055 109c 01       		.uleb128 0x1
 6056 109d 35       		.byte	0x35
 6057 109e 00       		.byte	0
 6058 109f 19       		.uleb128 0x19
 6059 10a0 D8000000 		.4byte	.LVL195
 6060 10a4 66270000 		.4byte	0x2766
 6061 10a8 B3100000 		.4byte	0x10b3
 6062 10ac 1A       		.uleb128 0x1a
 6063 10ad 01       		.uleb128 0x1
 6064 10ae 50       		.byte	0x50
 6065 10af 02       		.uleb128 0x2
 6066 10b0 08       		.byte	0x8
 6067 10b1 5A       		.byte	0x5a
 6068 10b2 00       		.byte	0
 6069 10b3 19       		.uleb128 0x19
 6070 10b4 DE000000 		.4byte	.LVL196
 6071 10b8 45270000 		.4byte	0x2745
 6072 10bc C6100000 		.4byte	0x10c6
 6073 10c0 1A       		.uleb128 0x1a
 6074 10c1 01       		.uleb128 0x1
 6075 10c2 50       		.byte	0x50
 6076 10c3 01       		.uleb128 0x1
 6077 10c4 47       		.byte	0x47
 6078 10c5 00       		.byte	0
 6079 10c6 19       		.uleb128 0x19
 6080 10c7 E4000000 		.4byte	.LVL197
 6081 10cb 7C270000 		.4byte	0x277c
 6082 10cf D9100000 		.4byte	0x10d9
 6083 10d3 1A       		.uleb128 0x1a
 6084 10d4 01       		.uleb128 0x1
 6085 10d5 50       		.byte	0x50
 6086 10d6 01       		.uleb128 0x1
 6087 10d7 30       		.byte	0x30
 6088 10d8 00       		.byte	0
 6089 10d9 19       		.uleb128 0x19
 6090 10da EA000000 		.4byte	.LVL198
 6091 10de 2F270000 		.4byte	0x272f
ARM GAS  C:\Users\Kiwi\AppData\Local\Temp\cckzbvMb.s 			page 136


 6092 10e2 EC100000 		.4byte	0x10ec
 6093 10e6 1A       		.uleb128 0x1a
 6094 10e7 01       		.uleb128 0x1
 6095 10e8 50       		.byte	0x50
 6096 10e9 01       		.uleb128 0x1
 6097 10ea 35       		.byte	0x35
 6098 10eb 00       		.byte	0
 6099 10ec 19       		.uleb128 0x19
 6100 10ed F0000000 		.4byte	.LVL199
 6101 10f1 7C270000 		.4byte	0x277c
 6102 10f5 FF100000 		.4byte	0x10ff
 6103 10f9 1A       		.uleb128 0x1a
 6104 10fa 01       		.uleb128 0x1
 6105 10fb 50       		.byte	0x50
 6106 10fc 01       		.uleb128 0x1
 6107 10fd 31       		.byte	0x31
 6108 10fe 00       		.byte	0
 6109 10ff 19       		.uleb128 0x19
 6110 1100 F6000000 		.4byte	.LVL200
 6111 1104 45270000 		.4byte	0x2745
 6112 1108 12110000 		.4byte	0x1112
 6113 110c 1A       		.uleb128 0x1a
 6114 110d 01       		.uleb128 0x1
 6115 110e 50       		.byte	0x50
 6116 110f 01       		.uleb128 0x1
 6117 1110 37       		.byte	0x37
 6118 1111 00       		.byte	0
 6119 1112 19       		.uleb128 0x19
 6120 1113 FC000000 		.4byte	.LVL201
 6121 1117 2F270000 		.4byte	0x272f
 6122 111b 25110000 		.4byte	0x1125
 6123 111f 1A       		.uleb128 0x1a
 6124 1120 01       		.uleb128 0x1
 6125 1121 50       		.byte	0x50
 6126 1122 01       		.uleb128 0x1
 6127 1123 35       		.byte	0x35
 6128 1124 00       		.byte	0
 6129 1125 19       		.uleb128 0x19
 6130 1126 02010000 		.4byte	.LVL202
 6131 112a 71270000 		.4byte	0x2771
 6132 112e 38110000 		.4byte	0x1138
 6133 1132 1A       		.uleb128 0x1a
 6134 1133 01       		.uleb128 0x1
 6135 1134 50       		.byte	0x50
 6136 1135 01       		.uleb128 0x1
 6137 1136 30       		.byte	0x30
 6138 1137 00       		.byte	0
 6139 1138 19       		.uleb128 0x19
 6140 1139 08010000 		.4byte	.LVL203
 6141 113d 2F270000 		.4byte	0x272f
 6142 1141 4B110000 		.4byte	0x114b
 6143 1145 1A       		.uleb128 0x1a
 6144 1146 01       		.uleb128 0x1
 6145 1147 50       		.byte	0x50
 6146 1148 01       		.uleb128 0x1
 6147 1149 35       		.byte	0x35
 6148 114a 00       		.byte	0
ARM GAS  C:\Users\Kiwi\AppData\Local\Temp\cckzbvMb.s 			page 137


 6149 114b 17       		.uleb128 0x17
 6150 114c 0C010000 		.4byte	.LVL204
 6151 1150 3A270000 		.4byte	0x273a
 6152 1154 17       		.uleb128 0x17
 6153 1155 14010000 		.4byte	.LVL205
 6154 1159 3A270000 		.4byte	0x273a
 6155 115d 19       		.uleb128 0x19
 6156 115e 20010000 		.4byte	.LVL206
 6157 1162 1E040000 		.4byte	0x41e
 6158 1166 80110000 		.4byte	0x1180
 6159 116a 1A       		.uleb128 0x1a
 6160 116b 01       		.uleb128 0x1
 6161 116c 50       		.byte	0x50
 6162 116d 05       		.uleb128 0x5
 6163 116e 03       		.byte	0x3
 6164 116f 62010000 		.4byte	.LC16
 6165 1173 1A       		.uleb128 0x1a
 6166 1174 01       		.uleb128 0x1
 6167 1175 51       		.byte	0x51
 6168 1176 02       		.uleb128 0x2
 6169 1177 75       		.byte	0x75
 6170 1178 00       		.sleb128 0
 6171 1179 1A       		.uleb128 0x1a
 6172 117a 01       		.uleb128 0x1
 6173 117b 52       		.byte	0x52
 6174 117c 02       		.uleb128 0x2
 6175 117d 08       		.byte	0x8
 6176 117e 5A       		.byte	0x5a
 6177 117f 00       		.byte	0
 6178 1180 19       		.uleb128 0x19
 6179 1181 2A010000 		.4byte	.LVL209
 6180 1185 71270000 		.4byte	0x2771
 6181 1189 93110000 		.4byte	0x1193
 6182 118d 1A       		.uleb128 0x1a
 6183 118e 01       		.uleb128 0x1
 6184 118f 50       		.byte	0x50
 6185 1190 01       		.uleb128 0x1
 6186 1191 31       		.byte	0x31
 6187 1192 00       		.byte	0
 6188 1193 19       		.uleb128 0x19
 6189 1194 30010000 		.4byte	.LVL210
 6190 1198 2F270000 		.4byte	0x272f
 6191 119c A6110000 		.4byte	0x11a6
 6192 11a0 1A       		.uleb128 0x1a
 6193 11a1 01       		.uleb128 0x1
 6194 11a2 50       		.byte	0x50
 6195 11a3 01       		.uleb128 0x1
 6196 11a4 35       		.byte	0x35
 6197 11a5 00       		.byte	0
 6198 11a6 19       		.uleb128 0x19
 6199 11a7 36010000 		.4byte	.LVL211
 6200 11ab CC260000 		.4byte	0x26cc
 6201 11af B9110000 		.4byte	0x11b9
 6202 11b3 1A       		.uleb128 0x1a
 6203 11b4 01       		.uleb128 0x1
 6204 11b5 50       		.byte	0x50
 6205 11b6 01       		.uleb128 0x1
ARM GAS  C:\Users\Kiwi\AppData\Local\Temp\cckzbvMb.s 			page 138


 6206 11b7 31       		.byte	0x31
 6207 11b8 00       		.byte	0
 6208 11b9 19       		.uleb128 0x19
 6209 11ba 3C010000 		.4byte	.LVL212
 6210 11be 66270000 		.4byte	0x2766
 6211 11c2 CD110000 		.4byte	0x11cd
 6212 11c6 1A       		.uleb128 0x1a
 6213 11c7 01       		.uleb128 0x1
 6214 11c8 50       		.byte	0x50
 6215 11c9 02       		.uleb128 0x2
 6216 11ca 76       		.byte	0x76
 6217 11cb 00       		.sleb128 0
 6218 11cc 00       		.byte	0
 6219 11cd 19       		.uleb128 0x19
 6220 11ce 42010000 		.4byte	.LVL213
 6221 11d2 45270000 		.4byte	0x2745
 6222 11d6 E0110000 		.4byte	0x11e0
 6223 11da 1A       		.uleb128 0x1a
 6224 11db 01       		.uleb128 0x1
 6225 11dc 50       		.byte	0x50
 6226 11dd 01       		.uleb128 0x1
 6227 11de 47       		.byte	0x47
 6228 11df 00       		.byte	0
 6229 11e0 19       		.uleb128 0x19
 6230 11e1 48010000 		.4byte	.LVL214
 6231 11e5 7C270000 		.4byte	0x277c
 6232 11e9 F3110000 		.4byte	0x11f3
 6233 11ed 1A       		.uleb128 0x1a
 6234 11ee 01       		.uleb128 0x1
 6235 11ef 50       		.byte	0x50
 6236 11f0 01       		.uleb128 0x1
 6237 11f1 30       		.byte	0x30
 6238 11f2 00       		.byte	0
 6239 11f3 19       		.uleb128 0x19
 6240 11f4 4E010000 		.4byte	.LVL215
 6241 11f8 2F270000 		.4byte	0x272f
 6242 11fc 06120000 		.4byte	0x1206
 6243 1200 1A       		.uleb128 0x1a
 6244 1201 01       		.uleb128 0x1
 6245 1202 50       		.byte	0x50
 6246 1203 01       		.uleb128 0x1
 6247 1204 35       		.byte	0x35
 6248 1205 00       		.byte	0
 6249 1206 19       		.uleb128 0x19
 6250 1207 54010000 		.4byte	.LVL216
 6251 120b 7C270000 		.4byte	0x277c
 6252 120f 19120000 		.4byte	0x1219
 6253 1213 1A       		.uleb128 0x1a
 6254 1214 01       		.uleb128 0x1
 6255 1215 50       		.byte	0x50
 6256 1216 01       		.uleb128 0x1
 6257 1217 31       		.byte	0x31
 6258 1218 00       		.byte	0
 6259 1219 19       		.uleb128 0x19
 6260 121a 5A010000 		.4byte	.LVL217
 6261 121e 45270000 		.4byte	0x2745
 6262 1222 2C120000 		.4byte	0x122c
ARM GAS  C:\Users\Kiwi\AppData\Local\Temp\cckzbvMb.s 			page 139


 6263 1226 1A       		.uleb128 0x1a
 6264 1227 01       		.uleb128 0x1
 6265 1228 50       		.byte	0x50
 6266 1229 01       		.uleb128 0x1
 6267 122a 37       		.byte	0x37
 6268 122b 00       		.byte	0
 6269 122c 22       		.uleb128 0x22
 6270 122d 62010000 		.4byte	.LVL219
 6271 1231 2F270000 		.4byte	0x272f
 6272 1235 1A       		.uleb128 0x1a
 6273 1236 01       		.uleb128 0x1
 6274 1237 50       		.byte	0x50
 6275 1238 01       		.uleb128 0x1
 6276 1239 35       		.byte	0x35
 6277 123a 00       		.byte	0
 6278 123b 00       		.byte	0
 6279 123c 19       		.uleb128 0x19
 6280 123d 12000000 		.4byte	.LVL161
 6281 1241 24270000 		.4byte	0x2724
 6282 1245 4F120000 		.4byte	0x124f
 6283 1249 1A       		.uleb128 0x1a
 6284 124a 01       		.uleb128 0x1
 6285 124b 50       		.byte	0x50
 6286 124c 01       		.uleb128 0x1
 6287 124d 30       		.byte	0x30
 6288 124e 00       		.byte	0
 6289 124f 19       		.uleb128 0x19
 6290 1250 18000000 		.4byte	.LVL162
 6291 1254 50270000 		.4byte	0x2750
 6292 1258 62120000 		.4byte	0x1262
 6293 125c 1A       		.uleb128 0x1a
 6294 125d 01       		.uleb128 0x1
 6295 125e 50       		.byte	0x50
 6296 125f 01       		.uleb128 0x1
 6297 1260 3C       		.byte	0x3c
 6298 1261 00       		.byte	0
 6299 1262 19       		.uleb128 0x19
 6300 1263 1E000000 		.4byte	.LVL163
 6301 1267 19270000 		.4byte	0x2719
 6302 126b 75120000 		.4byte	0x1275
 6303 126f 1A       		.uleb128 0x1a
 6304 1270 01       		.uleb128 0x1
 6305 1271 50       		.byte	0x50
 6306 1272 01       		.uleb128 0x1
 6307 1273 30       		.byte	0x30
 6308 1274 00       		.byte	0
 6309 1275 19       		.uleb128 0x19
 6310 1276 24000000 		.4byte	.LVL164
 6311 127a 5B270000 		.4byte	0x275b
 6312 127e 88120000 		.4byte	0x1288
 6313 1282 1A       		.uleb128 0x1a
 6314 1283 01       		.uleb128 0x1
 6315 1284 50       		.byte	0x50
 6316 1285 01       		.uleb128 0x1
 6317 1286 3C       		.byte	0x3c
 6318 1287 00       		.byte	0
 6319 1288 19       		.uleb128 0x19
ARM GAS  C:\Users\Kiwi\AppData\Local\Temp\cckzbvMb.s 			page 140


 6320 1289 2A000000 		.4byte	.LVL165
 6321 128d 7C270000 		.4byte	0x277c
 6322 1291 9B120000 		.4byte	0x129b
 6323 1295 1A       		.uleb128 0x1a
 6324 1296 01       		.uleb128 0x1
 6325 1297 50       		.byte	0x50
 6326 1298 01       		.uleb128 0x1
 6327 1299 31       		.byte	0x31
 6328 129a 00       		.byte	0
 6329 129b 19       		.uleb128 0x19
 6330 129c 30000000 		.4byte	.LVL166
 6331 12a0 87270000 		.4byte	0x2787
 6332 12a4 AE120000 		.4byte	0x12ae
 6333 12a8 1A       		.uleb128 0x1a
 6334 12a9 01       		.uleb128 0x1
 6335 12aa 50       		.byte	0x50
 6336 12ab 01       		.uleb128 0x1
 6337 12ac 3C       		.byte	0x3c
 6338 12ad 00       		.byte	0
 6339 12ae 19       		.uleb128 0x19
 6340 12af 36000000 		.4byte	.LVL167
 6341 12b3 71270000 		.4byte	0x2771
 6342 12b7 C1120000 		.4byte	0x12c1
 6343 12bb 1A       		.uleb128 0x1a
 6344 12bc 01       		.uleb128 0x1
 6345 12bd 50       		.byte	0x50
 6346 12be 01       		.uleb128 0x1
 6347 12bf 31       		.byte	0x31
 6348 12c0 00       		.byte	0
 6349 12c1 19       		.uleb128 0x19
 6350 12c2 3C000000 		.4byte	.LVL168
 6351 12c6 92270000 		.4byte	0x2792
 6352 12ca D4120000 		.4byte	0x12d4
 6353 12ce 1A       		.uleb128 0x1a
 6354 12cf 01       		.uleb128 0x1
 6355 12d0 50       		.byte	0x50
 6356 12d1 01       		.uleb128 0x1
 6357 12d2 3C       		.byte	0x3c
 6358 12d3 00       		.byte	0
 6359 12d4 19       		.uleb128 0x19
 6360 12d5 42000000 		.4byte	.LVL169
 6361 12d9 1E040000 		.4byte	0x41e
 6362 12dd EB120000 		.4byte	0x12eb
 6363 12e1 1A       		.uleb128 0x1a
 6364 12e2 01       		.uleb128 0x1
 6365 12e3 50       		.byte	0x50
 6366 12e4 05       		.uleb128 0x5
 6367 12e5 03       		.byte	0x3
 6368 12e6 38010000 		.4byte	.LC15
 6369 12ea 00       		.byte	0
 6370 12eb 19       		.uleb128 0x19
 6371 12ec 70010000 		.4byte	.LVL220
 6372 12f0 45270000 		.4byte	0x2745
 6373 12f4 FE120000 		.4byte	0x12fe
 6374 12f8 1A       		.uleb128 0x1a
 6375 12f9 01       		.uleb128 0x1
 6376 12fa 50       		.byte	0x50
ARM GAS  C:\Users\Kiwi\AppData\Local\Temp\cckzbvMb.s 			page 141


 6377 12fb 01       		.uleb128 0x1
 6378 12fc 37       		.byte	0x37
 6379 12fd 00       		.byte	0
 6380 12fe 19       		.uleb128 0x19
 6381 12ff 76010000 		.4byte	.LVL221
 6382 1303 24270000 		.4byte	0x2724
 6383 1307 11130000 		.4byte	0x1311
 6384 130b 1A       		.uleb128 0x1a
 6385 130c 01       		.uleb128 0x1
 6386 130d 50       		.byte	0x50
 6387 130e 01       		.uleb128 0x1
 6388 130f 30       		.byte	0x30
 6389 1310 00       		.byte	0
 6390 1311 19       		.uleb128 0x19
 6391 1312 7C010000 		.4byte	.LVL222
 6392 1316 50270000 		.4byte	0x2750
 6393 131a 24130000 		.4byte	0x1324
 6394 131e 1A       		.uleb128 0x1a
 6395 131f 01       		.uleb128 0x1
 6396 1320 50       		.byte	0x50
 6397 1321 01       		.uleb128 0x1
 6398 1322 32       		.byte	0x32
 6399 1323 00       		.byte	0
 6400 1324 19       		.uleb128 0x19
 6401 1325 82010000 		.4byte	.LVL223
 6402 1329 19270000 		.4byte	0x2719
 6403 132d 37130000 		.4byte	0x1337
 6404 1331 1A       		.uleb128 0x1a
 6405 1332 01       		.uleb128 0x1
 6406 1333 50       		.byte	0x50
 6407 1334 01       		.uleb128 0x1
 6408 1335 30       		.byte	0x30
 6409 1336 00       		.byte	0
 6410 1337 19       		.uleb128 0x19
 6411 1338 88010000 		.4byte	.LVL224
 6412 133c 5B270000 		.4byte	0x275b
 6413 1340 4A130000 		.4byte	0x134a
 6414 1344 1A       		.uleb128 0x1a
 6415 1345 01       		.uleb128 0x1
 6416 1346 50       		.byte	0x50
 6417 1347 01       		.uleb128 0x1
 6418 1348 32       		.byte	0x32
 6419 1349 00       		.byte	0
 6420 134a 19       		.uleb128 0x19
 6421 134b 8E010000 		.4byte	.LVL225
 6422 134f 71270000 		.4byte	0x2771
 6423 1353 5D130000 		.4byte	0x135d
 6424 1357 1A       		.uleb128 0x1a
 6425 1358 01       		.uleb128 0x1
 6426 1359 50       		.byte	0x50
 6427 135a 01       		.uleb128 0x1
 6428 135b 31       		.byte	0x31
 6429 135c 00       		.byte	0
 6430 135d 19       		.uleb128 0x19
 6431 135e 94010000 		.4byte	.LVL226
 6432 1362 92270000 		.4byte	0x2792
 6433 1366 70130000 		.4byte	0x1370
ARM GAS  C:\Users\Kiwi\AppData\Local\Temp\cckzbvMb.s 			page 142


 6434 136a 1A       		.uleb128 0x1a
 6435 136b 01       		.uleb128 0x1
 6436 136c 50       		.byte	0x50
 6437 136d 01       		.uleb128 0x1
 6438 136e 32       		.byte	0x32
 6439 136f 00       		.byte	0
 6440 1370 19       		.uleb128 0x19
 6441 1371 9A010000 		.4byte	.LVL227
 6442 1375 7C270000 		.4byte	0x277c
 6443 1379 83130000 		.4byte	0x1383
 6444 137d 1A       		.uleb128 0x1a
 6445 137e 01       		.uleb128 0x1
 6446 137f 50       		.byte	0x50
 6447 1380 01       		.uleb128 0x1
 6448 1381 31       		.byte	0x31
 6449 1382 00       		.byte	0
 6450 1383 19       		.uleb128 0x19
 6451 1384 A0010000 		.4byte	.LVL228
 6452 1388 87270000 		.4byte	0x2787
 6453 138c 96130000 		.4byte	0x1396
 6454 1390 1A       		.uleb128 0x1a
 6455 1391 01       		.uleb128 0x1
 6456 1392 50       		.byte	0x50
 6457 1393 01       		.uleb128 0x1
 6458 1394 32       		.byte	0x32
 6459 1395 00       		.byte	0
 6460 1396 17       		.uleb128 0x17
 6461 1397 AE010000 		.4byte	.LVL229
 6462 139b 1E040000 		.4byte	0x41e
 6463 139f 18       		.uleb128 0x18
 6464 13a0 B6010000 		.4byte	.LVL231
 6465 13a4 6F010000 		.4byte	0x16f
 6466 13a8 00       		.byte	0
 6467 13a9 17       		.uleb128 0x17
 6468 13aa 06000000 		.4byte	.LVL160
 6469 13ae 57010000 		.4byte	0x157
 6470 13b2 00       		.byte	0
 6471 13b3 2E       		.uleb128 0x2e
 6472 13b4 20050000 		.4byte	.LASF48
 6473 13b8 01       		.byte	0x1
 6474 13b9 2A02     		.2byte	0x22a
 6475 13bb 00000000 		.4byte	.LFB80
 6476 13bf 30000000 		.4byte	.LFE80-.LFB80
 6477 13c3 01       		.uleb128 0x1
 6478 13c4 9C       		.byte	0x9c
 6479 13c5 62140000 		.4byte	0x1462
 6480 13c9 2F       		.uleb128 0x2f
 6481 13ca E5020000 		.4byte	.LASF23
 6482 13ce 01       		.byte	0x1
 6483 13cf 2A02     		.2byte	0x22a
 6484 13d1 D6000000 		.4byte	0xd6
 6485 13d5 13020000 		.4byte	.LLST16
 6486 13d9 2F       		.uleb128 0x2f
 6487 13da EA020000 		.4byte	.LASF49
 6488 13de 01       		.byte	0x1
 6489 13df 2A02     		.2byte	0x22a
 6490 13e1 D6000000 		.4byte	0xd6
ARM GAS  C:\Users\Kiwi\AppData\Local\Temp\cckzbvMb.s 			page 143


 6491 13e5 34020000 		.4byte	.LLST17
 6492 13e9 17       		.uleb128 0x17
 6493 13ea 08000000 		.4byte	.LVL233
 6494 13ee 24270000 		.4byte	0x2724
 6495 13f2 19       		.uleb128 0x19
 6496 13f3 0E000000 		.4byte	.LVL234
 6497 13f7 66270000 		.4byte	0x2766
 6498 13fb 06140000 		.4byte	0x1406
 6499 13ff 1A       		.uleb128 0x1a
 6500 1400 01       		.uleb128 0x1
 6501 1401 50       		.byte	0x50
 6502 1402 02       		.uleb128 0x2
 6503 1403 74       		.byte	0x74
 6504 1404 00       		.sleb128 0
 6505 1405 00       		.byte	0
 6506 1406 19       		.uleb128 0x19
 6507 1407 14000000 		.4byte	.LVL235
 6508 140b 45270000 		.4byte	0x2745
 6509 140f 19140000 		.4byte	0x1419
 6510 1413 1A       		.uleb128 0x1a
 6511 1414 01       		.uleb128 0x1
 6512 1415 50       		.byte	0x50
 6513 1416 01       		.uleb128 0x1
 6514 1417 47       		.byte	0x47
 6515 1418 00       		.byte	0
 6516 1419 19       		.uleb128 0x19
 6517 141a 1A000000 		.4byte	.LVL236
 6518 141e 9D270000 		.4byte	0x279d
 6519 1422 2C140000 		.4byte	0x142c
 6520 1426 1A       		.uleb128 0x1a
 6521 1427 01       		.uleb128 0x1
 6522 1428 50       		.byte	0x50
 6523 1429 01       		.uleb128 0x1
 6524 142a 30       		.byte	0x30
 6525 142b 00       		.byte	0
 6526 142c 19       		.uleb128 0x19
 6527 142d 20000000 		.4byte	.LVL237
 6528 1431 2F270000 		.4byte	0x272f
 6529 1435 3F140000 		.4byte	0x143f
 6530 1439 1A       		.uleb128 0x1a
 6531 143a 01       		.uleb128 0x1
 6532 143b 50       		.byte	0x50
 6533 143c 01       		.uleb128 0x1
 6534 143d 34       		.byte	0x34
 6535 143e 00       		.byte	0
 6536 143f 19       		.uleb128 0x19
 6537 1440 26000000 		.4byte	.LVL238
 6538 1444 9D270000 		.4byte	0x279d
 6539 1448 52140000 		.4byte	0x1452
 6540 144c 1A       		.uleb128 0x1a
 6541 144d 01       		.uleb128 0x1
 6542 144e 50       		.byte	0x50
 6543 144f 01       		.uleb128 0x1
 6544 1450 31       		.byte	0x31
 6545 1451 00       		.byte	0
 6546 1452 1C       		.uleb128 0x1c
 6547 1453 30000000 		.4byte	.LVL239
ARM GAS  C:\Users\Kiwi\AppData\Local\Temp\cckzbvMb.s 			page 144


 6548 1457 45270000 		.4byte	0x2745
 6549 145b 1A       		.uleb128 0x1a
 6550 145c 01       		.uleb128 0x1
 6551 145d 50       		.byte	0x50
 6552 145e 01       		.uleb128 0x1
 6553 145f 37       		.byte	0x37
 6554 1460 00       		.byte	0
 6555 1461 00       		.byte	0
 6556 1462 30       		.uleb128 0x30
 6557 1463 6A060000 		.4byte	.LASF50
 6558 1467 01       		.byte	0x1
 6559 1468 3702     		.2byte	0x237
 6560 146a D6000000 		.4byte	0xd6
 6561 146e 00000000 		.4byte	.LFB81
 6562 1472 22000000 		.4byte	.LFE81-.LFB81
 6563 1476 01       		.uleb128 0x1
 6564 1477 9C       		.byte	0x9c
 6565 1478 E2140000 		.4byte	0x14e2
 6566 147c 2F       		.uleb128 0x2f
 6567 147d E5020000 		.4byte	.LASF23
 6568 1481 01       		.byte	0x1
 6569 1482 3702     		.2byte	0x237
 6570 1484 D6000000 		.4byte	0xd6
 6571 1488 55020000 		.4byte	.LLST18
 6572 148c 31       		.uleb128 0x31
 6573 148d 72657300 		.ascii	"res\000"
 6574 1491 01       		.byte	0x1
 6575 1492 3902     		.2byte	0x239
 6576 1494 D6000000 		.4byte	0xd6
 6577 1498 01       		.uleb128 0x1
 6578 1499 54       		.byte	0x54
 6579 149a 17       		.uleb128 0x17
 6580 149b 06000000 		.4byte	.LVL241
 6581 149f 24270000 		.4byte	0x2724
 6582 14a3 19       		.uleb128 0x19
 6583 14a4 0C000000 		.4byte	.LVL242
 6584 14a8 A8270000 		.4byte	0x27a8
 6585 14ac B6140000 		.4byte	0x14b6
 6586 14b0 1A       		.uleb128 0x1a
 6587 14b1 01       		.uleb128 0x1
 6588 14b2 50       		.byte	0x50
 6589 14b3 01       		.uleb128 0x1
 6590 14b4 30       		.byte	0x30
 6591 14b5 00       		.byte	0
 6592 14b6 19       		.uleb128 0x19
 6593 14b7 12000000 		.4byte	.LVL243
 6594 14bb 2F270000 		.4byte	0x272f
 6595 14bf C9140000 		.4byte	0x14c9
 6596 14c3 1A       		.uleb128 0x1a
 6597 14c4 01       		.uleb128 0x1
 6598 14c5 50       		.byte	0x50
 6599 14c6 01       		.uleb128 0x1
 6600 14c7 34       		.byte	0x34
 6601 14c8 00       		.byte	0
 6602 14c9 17       		.uleb128 0x17
 6603 14ca 16000000 		.4byte	.LVL244
 6604 14ce 3A270000 		.4byte	0x273a
ARM GAS  C:\Users\Kiwi\AppData\Local\Temp\cckzbvMb.s 			page 145


 6605 14d2 22       		.uleb128 0x22
 6606 14d3 1E000000 		.4byte	.LVL246
 6607 14d7 A8270000 		.4byte	0x27a8
 6608 14db 1A       		.uleb128 0x1a
 6609 14dc 01       		.uleb128 0x1
 6610 14dd 50       		.byte	0x50
 6611 14de 01       		.uleb128 0x1
 6612 14df 31       		.byte	0x31
 6613 14e0 00       		.byte	0
 6614 14e1 00       		.byte	0
 6615 14e2 32       		.uleb128 0x32
 6616 14e3 13060000 		.4byte	.LASF52
 6617 14e7 01       		.byte	0x1
 6618 14e8 4902     		.2byte	0x249
 6619 14ea 00000000 		.4byte	.LFB82
 6620 14ee 2C010000 		.4byte	.LFE82-.LFB82
 6621 14f2 01       		.uleb128 0x1
 6622 14f3 9C       		.byte	0x9c
 6623 14f4 54170000 		.4byte	0x1754
 6624 14f8 33       		.uleb128 0x33
 6625 14f9 6900     		.ascii	"i\000"
 6626 14fb 01       		.byte	0x1
 6627 14fc 4E02     		.2byte	0x24e
 6628 14fe D6000000 		.4byte	0xd6
 6629 1502 76020000 		.4byte	.LLST19
 6630 1506 34       		.uleb128 0x34
 6631 1507 15080000 		.4byte	.LASF43
 6632 150b 01       		.byte	0x1
 6633 150c 4F02     		.2byte	0x24f
 6634 150e 54170000 		.4byte	0x1754
 6635 1512 03       		.uleb128 0x3
 6636 1513 91       		.byte	0x91
 6637 1514 987F     		.sleb128 -104
 6638 1516 33       		.uleb128 0x33
 6639 1517 7200     		.ascii	"r\000"
 6640 1519 01       		.byte	0x1
 6641 151a 6202     		.2byte	0x262
 6642 151c E2000000 		.4byte	0xe2
 6643 1520 8A020000 		.4byte	.LLST20
 6644 1524 33       		.uleb128 0x33
 6645 1525 68616400 		.ascii	"had\000"
 6646 1529 01       		.byte	0x1
 6647 152a 6202     		.2byte	0x262
 6648 152c E2000000 		.4byte	0xe2
 6649 1530 A8020000 		.4byte	.LLST21
 6650 1534 33       		.uleb128 0x33
 6651 1535 6D616400 		.ascii	"mad\000"
 6652 1539 01       		.byte	0x1
 6653 153a 6202     		.2byte	0x262
 6654 153c E2000000 		.4byte	0xe2
 6655 1540 D4020000 		.4byte	.LLST22
 6656 1544 33       		.uleb128 0x33
 6657 1545 6C616400 		.ascii	"lad\000"
 6658 1549 01       		.byte	0x1
 6659 154a 6202     		.2byte	0x262
 6660 154c E2000000 		.4byte	0xe2
 6661 1550 0D030000 		.4byte	.LLST23
ARM GAS  C:\Users\Kiwi\AppData\Local\Temp\cckzbvMb.s 			page 146


 6662 1554 33       		.uleb128 0x33
 6663 1555 63686B00 		.ascii	"chk\000"
 6664 1559 01       		.byte	0x1
 6665 155a 6202     		.2byte	0x262
 6666 155c E2000000 		.4byte	0xe2
 6667 1560 44030000 		.4byte	.LLST24
 6668 1564 17       		.uleb128 0x17
 6669 1565 0A000000 		.4byte	.LVL247
 6670 1569 57010000 		.4byte	0x157
 6671 156d 19       		.uleb128 0x19
 6672 156e 16000000 		.4byte	.LVL249
 6673 1572 24270000 		.4byte	0x2724
 6674 1576 80150000 		.4byte	0x1580
 6675 157a 1A       		.uleb128 0x1a
 6676 157b 01       		.uleb128 0x1
 6677 157c 50       		.byte	0x50
 6678 157d 01       		.uleb128 0x1
 6679 157e 30       		.byte	0x30
 6680 157f 00       		.byte	0
 6681 1580 19       		.uleb128 0x19
 6682 1581 1C000000 		.4byte	.LVL250
 6683 1585 19270000 		.4byte	0x2719
 6684 1589 93150000 		.4byte	0x1593
 6685 158d 1A       		.uleb128 0x1a
 6686 158e 01       		.uleb128 0x1
 6687 158f 50       		.byte	0x50
 6688 1590 01       		.uleb128 0x1
 6689 1591 30       		.byte	0x30
 6690 1592 00       		.byte	0
 6691 1593 19       		.uleb128 0x19
 6692 1594 22000000 		.4byte	.LVL251
 6693 1598 A8270000 		.4byte	0x27a8
 6694 159c A6150000 		.4byte	0x15a6
 6695 15a0 1A       		.uleb128 0x1a
 6696 15a1 01       		.uleb128 0x1
 6697 15a2 50       		.byte	0x50
 6698 15a3 01       		.uleb128 0x1
 6699 15a4 31       		.byte	0x31
 6700 15a5 00       		.byte	0
 6701 15a6 19       		.uleb128 0x19
 6702 15a7 28000000 		.4byte	.LVL252
 6703 15ab 9D270000 		.4byte	0x279d
 6704 15af B9150000 		.4byte	0x15b9
 6705 15b3 1A       		.uleb128 0x1a
 6706 15b4 01       		.uleb128 0x1
 6707 15b5 50       		.byte	0x50
 6708 15b6 01       		.uleb128 0x1
 6709 15b7 31       		.byte	0x31
 6710 15b8 00       		.byte	0
 6711 15b9 19       		.uleb128 0x19
 6712 15ba 2E000000 		.4byte	.LVL253
 6713 15be 50270000 		.4byte	0x2750
 6714 15c2 CC150000 		.4byte	0x15cc
 6715 15c6 1A       		.uleb128 0x1a
 6716 15c7 01       		.uleb128 0x1
 6717 15c8 50       		.byte	0x50
 6718 15c9 01       		.uleb128 0x1
ARM GAS  C:\Users\Kiwi\AppData\Local\Temp\cckzbvMb.s 			page 147


 6719 15ca 3C       		.byte	0x3c
 6720 15cb 00       		.byte	0
 6721 15cc 19       		.uleb128 0x19
 6722 15cd 34000000 		.4byte	.LVL254
 6723 15d1 5B270000 		.4byte	0x275b
 6724 15d5 DF150000 		.4byte	0x15df
 6725 15d9 1A       		.uleb128 0x1a
 6726 15da 01       		.uleb128 0x1
 6727 15db 50       		.byte	0x50
 6728 15dc 01       		.uleb128 0x1
 6729 15dd 3C       		.byte	0x3c
 6730 15de 00       		.byte	0
 6731 15df 19       		.uleb128 0x19
 6732 15e0 3A000000 		.4byte	.LVL255
 6733 15e4 B3270000 		.4byte	0x27b3
 6734 15e8 F2150000 		.4byte	0x15f2
 6735 15ec 1A       		.uleb128 0x1a
 6736 15ed 01       		.uleb128 0x1
 6737 15ee 50       		.byte	0x50
 6738 15ef 01       		.uleb128 0x1
 6739 15f0 3C       		.byte	0x3c
 6740 15f1 00       		.byte	0
 6741 15f2 19       		.uleb128 0x19
 6742 15f3 40000000 		.4byte	.LVL256
 6743 15f7 BE270000 		.4byte	0x27be
 6744 15fb 05160000 		.4byte	0x1605
 6745 15ff 1A       		.uleb128 0x1a
 6746 1600 01       		.uleb128 0x1
 6747 1601 50       		.byte	0x50
 6748 1602 01       		.uleb128 0x1
 6749 1603 3C       		.byte	0x3c
 6750 1604 00       		.byte	0
 6751 1605 19       		.uleb128 0x19
 6752 1606 5A000000 		.4byte	.LVL259
 6753 160a 1E040000 		.4byte	0x41e
 6754 160e 28160000 		.4byte	0x1628
 6755 1612 1A       		.uleb128 0x1a
 6756 1613 01       		.uleb128 0x1
 6757 1614 50       		.byte	0x50
 6758 1615 05       		.uleb128 0x5
 6759 1616 03       		.byte	0x3
 6760 1617 B8010000 		.4byte	.LC19
 6761 161b 1A       		.uleb128 0x1a
 6762 161c 01       		.uleb128 0x1
 6763 161d 51       		.byte	0x51
 6764 161e 02       		.uleb128 0x2
 6765 161f 76       		.byte	0x76
 6766 1620 00       		.sleb128 0
 6767 1621 1A       		.uleb128 0x1a
 6768 1622 01       		.uleb128 0x1
 6769 1623 52       		.byte	0x52
 6770 1624 02       		.uleb128 0x2
 6771 1625 74       		.byte	0x74
 6772 1626 00       		.sleb128 0
 6773 1627 00       		.byte	0
 6774 1628 19       		.uleb128 0x19
 6775 1629 64000000 		.4byte	.LVL261
ARM GAS  C:\Users\Kiwi\AppData\Local\Temp\cckzbvMb.s 			page 148


 6776 162d B3130000 		.4byte	0x13b3
 6777 1631 42160000 		.4byte	0x1642
 6778 1635 1A       		.uleb128 0x1a
 6779 1636 01       		.uleb128 0x1
 6780 1637 50       		.byte	0x50
 6781 1638 02       		.uleb128 0x2
 6782 1639 08       		.byte	0x8
 6783 163a 61       		.byte	0x61
 6784 163b 1A       		.uleb128 0x1a
 6785 163c 01       		.uleb128 0x1
 6786 163d 51       		.byte	0x51
 6787 163e 02       		.uleb128 0x2
 6788 163f 79       		.byte	0x79
 6789 1640 00       		.sleb128 0
 6790 1641 00       		.byte	0
 6791 1642 19       		.uleb128 0x19
 6792 1643 6C000000 		.4byte	.LVL262
 6793 1647 B3130000 		.4byte	0x13b3
 6794 164b 5C160000 		.4byte	0x165c
 6795 164f 1A       		.uleb128 0x1a
 6796 1650 01       		.uleb128 0x1
 6797 1651 50       		.byte	0x50
 6798 1652 02       		.uleb128 0x2
 6799 1653 08       		.byte	0x8
 6800 1654 62       		.byte	0x62
 6801 1655 1A       		.uleb128 0x1a
 6802 1656 01       		.uleb128 0x1
 6803 1657 51       		.byte	0x51
 6804 1658 02       		.uleb128 0x2
 6805 1659 75       		.byte	0x75
 6806 165a 00       		.sleb128 0
 6807 165b 00       		.byte	0
 6808 165c 19       		.uleb128 0x19
 6809 165d 74000000 		.4byte	.LVL263
 6810 1661 B3130000 		.4byte	0x13b3
 6811 1665 76160000 		.4byte	0x1676
 6812 1669 1A       		.uleb128 0x1a
 6813 166a 01       		.uleb128 0x1
 6814 166b 50       		.byte	0x50
 6815 166c 02       		.uleb128 0x2
 6816 166d 08       		.byte	0x8
 6817 166e 63       		.byte	0x63
 6818 166f 1A       		.uleb128 0x1a
 6819 1670 01       		.uleb128 0x1
 6820 1671 51       		.byte	0x51
 6821 1672 02       		.uleb128 0x2
 6822 1673 76       		.byte	0x76
 6823 1674 00       		.sleb128 0
 6824 1675 00       		.byte	0
 6825 1676 19       		.uleb128 0x19
 6826 1677 94000000 		.4byte	.LVL269
 6827 167b 1E040000 		.4byte	0x41e
 6828 167f 99160000 		.4byte	0x1699
 6829 1683 1A       		.uleb128 0x1a
 6830 1684 01       		.uleb128 0x1
 6831 1685 50       		.byte	0x50
 6832 1686 05       		.uleb128 0x5
ARM GAS  C:\Users\Kiwi\AppData\Local\Temp\cckzbvMb.s 			page 149


 6833 1687 03       		.byte	0x3
 6834 1688 CC010000 		.4byte	.LC20
 6835 168c 1A       		.uleb128 0x1a
 6836 168d 01       		.uleb128 0x1
 6837 168e 51       		.byte	0x51
 6838 168f 02       		.uleb128 0x2
 6839 1690 75       		.byte	0x75
 6840 1691 00       		.sleb128 0
 6841 1692 1A       		.uleb128 0x1a
 6842 1693 01       		.uleb128 0x1
 6843 1694 52       		.byte	0x52
 6844 1695 02       		.uleb128 0x2
 6845 1696 77       		.byte	0x77
 6846 1697 00       		.sleb128 0
 6847 1698 00       		.byte	0
 6848 1699 19       		.uleb128 0x19
 6849 169a 9A000000 		.4byte	.LVL270
 6850 169e 62140000 		.4byte	0x1462
 6851 16a2 AD160000 		.4byte	0x16ad
 6852 16a6 1A       		.uleb128 0x1a
 6853 16a7 01       		.uleb128 0x1
 6854 16a8 50       		.byte	0x50
 6855 16a9 02       		.uleb128 0x2
 6856 16aa 08       		.byte	0x8
 6857 16ab 60       		.byte	0x60
 6858 16ac 00       		.byte	0
 6859 16ad 17       		.uleb128 0x17
 6860 16ae BE000000 		.4byte	.LVL275
 6861 16b2 E2260000 		.4byte	0x26e2
 6862 16b6 19       		.uleb128 0x19
 6863 16b7 C8000000 		.4byte	.LVL276
 6864 16bb ED260000 		.4byte	0x26ed
 6865 16bf CA160000 		.4byte	0x16ca
 6866 16c3 1A       		.uleb128 0x1a
 6867 16c4 01       		.uleb128 0x1
 6868 16c5 50       		.byte	0x50
 6869 16c6 02       		.uleb128 0x2
 6870 16c7 7D       		.byte	0x7d
 6871 16c8 00       		.sleb128 0
 6872 16c9 00       		.byte	0
 6873 16ca 19       		.uleb128 0x19
 6874 16cb DA000000 		.4byte	.LVL279
 6875 16cf 1E040000 		.4byte	0x41e
 6876 16d3 E7160000 		.4byte	0x16e7
 6877 16d7 1A       		.uleb128 0x1a
 6878 16d8 01       		.uleb128 0x1
 6879 16d9 50       		.byte	0x50
 6880 16da 05       		.uleb128 0x5
 6881 16db 03       		.byte	0x3
 6882 16dc DA010000 		.4byte	.LC21
 6883 16e0 1A       		.uleb128 0x1a
 6884 16e1 01       		.uleb128 0x1
 6885 16e2 51       		.byte	0x51
 6886 16e3 02       		.uleb128 0x2
 6887 16e4 74       		.byte	0x74
 6888 16e5 00       		.sleb128 0
 6889 16e6 00       		.byte	0
ARM GAS  C:\Users\Kiwi\AppData\Local\Temp\cckzbvMb.s 			page 150


 6890 16e7 19       		.uleb128 0x19
 6891 16e8 F6000000 		.4byte	.LVL285
 6892 16ec 1E040000 		.4byte	0x41e
 6893 16f0 FE160000 		.4byte	0x16fe
 6894 16f4 1A       		.uleb128 0x1a
 6895 16f5 01       		.uleb128 0x1
 6896 16f6 50       		.byte	0x50
 6897 16f7 05       		.uleb128 0x5
 6898 16f8 03       		.byte	0x3
 6899 16f9 E1010000 		.4byte	.LC22
 6900 16fd 00       		.byte	0
 6901 16fe 19       		.uleb128 0x19
 6902 16ff FC000000 		.4byte	.LVL286
 6903 1703 50270000 		.4byte	0x2750
 6904 1707 11170000 		.4byte	0x1711
 6905 170b 1A       		.uleb128 0x1a
 6906 170c 01       		.uleb128 0x1
 6907 170d 50       		.byte	0x50
 6908 170e 01       		.uleb128 0x1
 6909 170f 32       		.byte	0x32
 6910 1710 00       		.byte	0
 6911 1711 19       		.uleb128 0x19
 6912 1712 02010000 		.4byte	.LVL287
 6913 1716 5B270000 		.4byte	0x275b
 6914 171a 24170000 		.4byte	0x1724
 6915 171e 1A       		.uleb128 0x1a
 6916 171f 01       		.uleb128 0x1
 6917 1720 50       		.byte	0x50
 6918 1721 01       		.uleb128 0x1
 6919 1722 32       		.byte	0x32
 6920 1723 00       		.byte	0
 6921 1724 19       		.uleb128 0x19
 6922 1725 08010000 		.4byte	.LVL288
 6923 1729 B3270000 		.4byte	0x27b3
 6924 172d 37170000 		.4byte	0x1737
 6925 1731 1A       		.uleb128 0x1a
 6926 1732 01       		.uleb128 0x1
 6927 1733 50       		.byte	0x50
 6928 1734 01       		.uleb128 0x1
 6929 1735 32       		.byte	0x32
 6930 1736 00       		.byte	0
 6931 1737 19       		.uleb128 0x19
 6932 1738 0E010000 		.4byte	.LVL289
 6933 173c BE270000 		.4byte	0x27be
 6934 1740 4A170000 		.4byte	0x174a
 6935 1744 1A       		.uleb128 0x1a
 6936 1745 01       		.uleb128 0x1
 6937 1746 50       		.byte	0x50
 6938 1747 01       		.uleb128 0x1
 6939 1748 32       		.byte	0x32
 6940 1749 00       		.byte	0
 6941 174a 17       		.uleb128 0x17
 6942 174b 12010000 		.4byte	.LVL290
 6943 174f 6F010000 		.4byte	0x16f
 6944 1753 00       		.byte	0
 6945 1754 23       		.uleb128 0x23
 6946 1755 AE000000 		.4byte	0xae
ARM GAS  C:\Users\Kiwi\AppData\Local\Temp\cckzbvMb.s 			page 151


 6947 1759 64170000 		.4byte	0x1764
 6948 175d 24       		.uleb128 0x24
 6949 175e A1000000 		.4byte	0xa1
 6950 1762 3F       		.byte	0x3f
 6951 1763 00       		.byte	0
 6952 1764 25       		.uleb128 0x25
 6953 1765 69020000 		.4byte	0x269
 6954 1769 00000000 		.4byte	.LFB83
 6955 176d E8000000 		.4byte	.LFE83-.LFB83
 6956 1771 01       		.uleb128 0x1
 6957 1772 9C       		.byte	0x9c
 6958 1773 121A0000 		.4byte	0x1a12
 6959 1777 26       		.uleb128 0x26
 6960 1778 76020000 		.4byte	0x276
 6961 177c 95030000 		.4byte	.LLST25
 6962 1780 26       		.uleb128 0x26
 6963 1781 82020000 		.4byte	0x282
 6964 1785 B6030000 		.4byte	.LLST26
 6965 1789 26       		.uleb128 0x26
 6966 178a 8E020000 		.4byte	0x28e
 6967 178e D7030000 		.4byte	.LLST27
 6968 1792 26       		.uleb128 0x26
 6969 1793 9A020000 		.4byte	0x29a
 6970 1797 F8030000 		.4byte	.LLST28
 6971 179b 26       		.uleb128 0x26
 6972 179c A6020000 		.4byte	0x2a6
 6973 17a0 3D040000 		.4byte	.LLST29
 6974 17a4 27       		.uleb128 0x27
 6975 17a5 B2020000 		.4byte	0x2b2
 6976 17a9 27       		.uleb128 0x27
 6977 17aa BC020000 		.4byte	0x2bc
 6978 17ae 28       		.uleb128 0x28
 6979 17af 48000000 		.4byte	.Ldebug_ranges0+0x48
 6980 17b3 081A0000 		.4byte	0x1a08
 6981 17b7 26       		.uleb128 0x26
 6982 17b8 A6020000 		.4byte	0x2a6
 6983 17bc 75040000 		.4byte	.LLST30
 6984 17c0 26       		.uleb128 0x26
 6985 17c1 9A020000 		.4byte	0x29a
 6986 17c5 94040000 		.4byte	.LLST31
 6987 17c9 26       		.uleb128 0x26
 6988 17ca 8E020000 		.4byte	0x28e
 6989 17ce B5040000 		.4byte	.LLST32
 6990 17d2 26       		.uleb128 0x26
 6991 17d3 82020000 		.4byte	0x282
 6992 17d7 C8040000 		.4byte	.LLST33
 6993 17db 26       		.uleb128 0x26
 6994 17dc 76020000 		.4byte	0x276
 6995 17e0 DB040000 		.4byte	.LLST34
 6996 17e4 29       		.uleb128 0x29
 6997 17e5 48000000 		.4byte	.Ldebug_ranges0+0x48
 6998 17e9 2A       		.uleb128 0x2a
 6999 17ea B2020000 		.4byte	0x2b2
 7000 17ee EE040000 		.4byte	.LLST35
 7001 17f2 2A       		.uleb128 0x2a
 7002 17f3 BC020000 		.4byte	0x2bc
 7003 17f7 01050000 		.4byte	.LLST36
ARM GAS  C:\Users\Kiwi\AppData\Local\Temp\cckzbvMb.s 			page 152


 7004 17fb 2B       		.uleb128 0x2b
 7005 17fc 62000000 		.4byte	.LBB62
 7006 1800 12000000 		.4byte	.LBE62-.LBB62
 7007 1804 22180000 		.4byte	0x1822
 7008 1808 2A       		.uleb128 0x2a
 7009 1809 CD020000 		.4byte	0x2cd
 7010 180d 20050000 		.4byte	.LLST37
 7011 1811 22       		.uleb128 0x22
 7012 1812 72000000 		.4byte	.LVL307
 7013 1816 B3130000 		.4byte	0x13b3
 7014 181a 1A       		.uleb128 0x1a
 7015 181b 01       		.uleb128 0x1
 7016 181c 50       		.byte	0x50
 7017 181d 02       		.uleb128 0x2
 7018 181e 08       		.byte	0x8
 7019 181f 60       		.byte	0x60
 7020 1820 00       		.byte	0
 7021 1821 00       		.byte	0
 7022 1822 2B       		.uleb128 0x2b
 7023 1823 90000000 		.4byte	.LBB63
 7024 1827 18000000 		.4byte	.LBE63-.LBB63
 7025 182b 49180000 		.4byte	0x1849
 7026 182f 2A       		.uleb128 0x2a
 7027 1830 D9020000 		.4byte	0x2d9
 7028 1834 65050000 		.4byte	.LLST38
 7029 1838 22       		.uleb128 0x22
 7030 1839 9C000000 		.4byte	.LVL313
 7031 183d 62140000 		.4byte	0x1462
 7032 1841 1A       		.uleb128 0x1a
 7033 1842 01       		.uleb128 0x1
 7034 1843 50       		.byte	0x50
 7035 1844 02       		.uleb128 0x2
 7036 1845 08       		.byte	0x8
 7037 1846 60       		.byte	0x60
 7038 1847 00       		.byte	0
 7039 1848 00       		.byte	0
 7040 1849 19       		.uleb128 0x19
 7041 184a 1E000000 		.4byte	.LVL294
 7042 184e 24270000 		.4byte	0x2724
 7043 1852 5C180000 		.4byte	0x185c
 7044 1856 1A       		.uleb128 0x1a
 7045 1857 01       		.uleb128 0x1
 7046 1858 50       		.byte	0x50
 7047 1859 01       		.uleb128 0x1
 7048 185a 30       		.byte	0x30
 7049 185b 00       		.byte	0
 7050 185c 19       		.uleb128 0x19
 7051 185d 24000000 		.4byte	.LVL295
 7052 1861 19270000 		.4byte	0x2719
 7053 1865 6F180000 		.4byte	0x186f
 7054 1869 1A       		.uleb128 0x1a
 7055 186a 01       		.uleb128 0x1
 7056 186b 50       		.byte	0x50
 7057 186c 01       		.uleb128 0x1
 7058 186d 30       		.byte	0x30
 7059 186e 00       		.byte	0
 7060 186f 19       		.uleb128 0x19
ARM GAS  C:\Users\Kiwi\AppData\Local\Temp\cckzbvMb.s 			page 153


 7061 1870 2A000000 		.4byte	.LVL296
 7062 1874 A8270000 		.4byte	0x27a8
 7063 1878 82180000 		.4byte	0x1882
 7064 187c 1A       		.uleb128 0x1a
 7065 187d 01       		.uleb128 0x1
 7066 187e 50       		.byte	0x50
 7067 187f 01       		.uleb128 0x1
 7068 1880 31       		.byte	0x31
 7069 1881 00       		.byte	0
 7070 1882 19       		.uleb128 0x19
 7071 1883 30000000 		.4byte	.LVL297
 7072 1887 9D270000 		.4byte	0x279d
 7073 188b 95180000 		.4byte	0x1895
 7074 188f 1A       		.uleb128 0x1a
 7075 1890 01       		.uleb128 0x1
 7076 1891 50       		.byte	0x50
 7077 1892 01       		.uleb128 0x1
 7078 1893 31       		.byte	0x31
 7079 1894 00       		.byte	0
 7080 1895 19       		.uleb128 0x19
 7081 1896 36000000 		.4byte	.LVL298
 7082 189a 50270000 		.4byte	0x2750
 7083 189e A8180000 		.4byte	0x18a8
 7084 18a2 1A       		.uleb128 0x1a
 7085 18a3 01       		.uleb128 0x1
 7086 18a4 50       		.byte	0x50
 7087 18a5 01       		.uleb128 0x1
 7088 18a6 3C       		.byte	0x3c
 7089 18a7 00       		.byte	0
 7090 18a8 19       		.uleb128 0x19
 7091 18a9 3C000000 		.4byte	.LVL299
 7092 18ad 5B270000 		.4byte	0x275b
 7093 18b1 BB180000 		.4byte	0x18bb
 7094 18b5 1A       		.uleb128 0x1a
 7095 18b6 01       		.uleb128 0x1
 7096 18b7 50       		.byte	0x50
 7097 18b8 01       		.uleb128 0x1
 7098 18b9 3C       		.byte	0x3c
 7099 18ba 00       		.byte	0
 7100 18bb 19       		.uleb128 0x19
 7101 18bc 42000000 		.4byte	.LVL300
 7102 18c0 B3270000 		.4byte	0x27b3
 7103 18c4 CE180000 		.4byte	0x18ce
 7104 18c8 1A       		.uleb128 0x1a
 7105 18c9 01       		.uleb128 0x1
 7106 18ca 50       		.byte	0x50
 7107 18cb 01       		.uleb128 0x1
 7108 18cc 3C       		.byte	0x3c
 7109 18cd 00       		.byte	0
 7110 18ce 19       		.uleb128 0x19
 7111 18cf 48000000 		.4byte	.LVL301
 7112 18d3 BE270000 		.4byte	0x27be
 7113 18d7 E1180000 		.4byte	0x18e1
 7114 18db 1A       		.uleb128 0x1a
 7115 18dc 01       		.uleb128 0x1
 7116 18dd 50       		.byte	0x50
 7117 18de 01       		.uleb128 0x1
ARM GAS  C:\Users\Kiwi\AppData\Local\Temp\cckzbvMb.s 			page 154


 7118 18df 3C       		.byte	0x3c
 7119 18e0 00       		.byte	0
 7120 18e1 19       		.uleb128 0x19
 7121 18e2 50000000 		.4byte	.LVL302
 7122 18e6 B3130000 		.4byte	0x13b3
 7123 18ea FB180000 		.4byte	0x18fb
 7124 18ee 1A       		.uleb128 0x1a
 7125 18ef 01       		.uleb128 0x1
 7126 18f0 50       		.byte	0x50
 7127 18f1 02       		.uleb128 0x2
 7128 18f2 08       		.byte	0x8
 7129 18f3 61       		.byte	0x61
 7130 18f4 1A       		.uleb128 0x1a
 7131 18f5 01       		.uleb128 0x1
 7132 18f6 51       		.byte	0x51
 7133 18f7 02       		.uleb128 0x2
 7134 18f8 79       		.byte	0x79
 7135 18f9 00       		.sleb128 0
 7136 18fa 00       		.byte	0
 7137 18fb 19       		.uleb128 0x19
 7138 18fc 58000000 		.4byte	.LVL303
 7139 1900 B3130000 		.4byte	0x13b3
 7140 1904 15190000 		.4byte	0x1915
 7141 1908 1A       		.uleb128 0x1a
 7142 1909 01       		.uleb128 0x1
 7143 190a 50       		.byte	0x50
 7144 190b 02       		.uleb128 0x2
 7145 190c 08       		.byte	0x8
 7146 190d 62       		.byte	0x62
 7147 190e 1A       		.uleb128 0x1a
 7148 190f 01       		.uleb128 0x1
 7149 1910 51       		.byte	0x51
 7150 1911 02       		.uleb128 0x2
 7151 1912 78       		.byte	0x78
 7152 1913 00       		.sleb128 0
 7153 1914 00       		.byte	0
 7154 1915 19       		.uleb128 0x19
 7155 1916 60000000 		.4byte	.LVL304
 7156 191a B3130000 		.4byte	0x13b3
 7157 191e 2F190000 		.4byte	0x192f
 7158 1922 1A       		.uleb128 0x1a
 7159 1923 01       		.uleb128 0x1
 7160 1924 50       		.byte	0x50
 7161 1925 02       		.uleb128 0x2
 7162 1926 08       		.byte	0x8
 7163 1927 63       		.byte	0x63
 7164 1928 1A       		.uleb128 0x1a
 7165 1929 01       		.uleb128 0x1
 7166 192a 51       		.byte	0x51
 7167 192b 02       		.uleb128 0x2
 7168 192c 76       		.byte	0x76
 7169 192d 00       		.sleb128 0
 7170 192e 00       		.byte	0
 7171 192f 19       		.uleb128 0x19
 7172 1930 7C000000 		.4byte	.LVL308
 7173 1934 B3130000 		.4byte	0x13b3
 7174 1938 49190000 		.4byte	0x1949
ARM GAS  C:\Users\Kiwi\AppData\Local\Temp\cckzbvMb.s 			page 155


 7175 193c 1A       		.uleb128 0x1a
 7176 193d 01       		.uleb128 0x1
 7177 193e 50       		.byte	0x50
 7178 193f 02       		.uleb128 0x2
 7179 1940 08       		.byte	0x8
 7180 1941 61       		.byte	0x61
 7181 1942 1A       		.uleb128 0x1a
 7182 1943 01       		.uleb128 0x1
 7183 1944 51       		.byte	0x51
 7184 1945 02       		.uleb128 0x2
 7185 1946 79       		.byte	0x79
 7186 1947 00       		.sleb128 0
 7187 1948 00       		.byte	0
 7188 1949 19       		.uleb128 0x19
 7189 194a 84000000 		.4byte	.LVL309
 7190 194e B3130000 		.4byte	0x13b3
 7191 1952 63190000 		.4byte	0x1963
 7192 1956 1A       		.uleb128 0x1a
 7193 1957 01       		.uleb128 0x1
 7194 1958 50       		.byte	0x50
 7195 1959 02       		.uleb128 0x2
 7196 195a 08       		.byte	0x8
 7197 195b 62       		.byte	0x62
 7198 195c 1A       		.uleb128 0x1a
 7199 195d 01       		.uleb128 0x1
 7200 195e 51       		.byte	0x51
 7201 195f 02       		.uleb128 0x2
 7202 1960 78       		.byte	0x78
 7203 1961 00       		.sleb128 0
 7204 1962 00       		.byte	0
 7205 1963 19       		.uleb128 0x19
 7206 1964 8C000000 		.4byte	.LVL310
 7207 1968 B3130000 		.4byte	0x13b3
 7208 196c 7D190000 		.4byte	0x197d
 7209 1970 1A       		.uleb128 0x1a
 7210 1971 01       		.uleb128 0x1
 7211 1972 50       		.byte	0x50
 7212 1973 02       		.uleb128 0x2
 7213 1974 08       		.byte	0x8
 7214 1975 63       		.byte	0x63
 7215 1976 1A       		.uleb128 0x1a
 7216 1977 01       		.uleb128 0x1
 7217 1978 51       		.byte	0x51
 7218 1979 02       		.uleb128 0x2
 7219 197a 76       		.byte	0x76
 7220 197b 00       		.sleb128 0
 7221 197c 00       		.byte	0
 7222 197d 19       		.uleb128 0x19
 7223 197e B0000000 		.4byte	.LVL317
 7224 1982 1E040000 		.4byte	0x41e
 7225 1986 94190000 		.4byte	0x1994
 7226 198a 1A       		.uleb128 0x1a
 7227 198b 01       		.uleb128 0x1
 7228 198c 50       		.byte	0x50
 7229 198d 05       		.uleb128 0x5
 7230 198e 03       		.byte	0x3
 7231 198f 15000000 		.4byte	.LC2
ARM GAS  C:\Users\Kiwi\AppData\Local\Temp\cckzbvMb.s 			page 156


 7232 1993 00       		.byte	0
 7233 1994 19       		.uleb128 0x19
 7234 1995 BA000000 		.4byte	.LVL318
 7235 1999 1E040000 		.4byte	0x41e
 7236 199d B1190000 		.4byte	0x19b1
 7237 19a1 1A       		.uleb128 0x1a
 7238 19a2 01       		.uleb128 0x1
 7239 19a3 50       		.byte	0x50
 7240 19a4 05       		.uleb128 0x5
 7241 19a5 03       		.byte	0x3
 7242 19a6 EF010000 		.4byte	.LC23
 7243 19aa 1A       		.uleb128 0x1a
 7244 19ab 01       		.uleb128 0x1
 7245 19ac 51       		.byte	0x51
 7246 19ad 02       		.uleb128 0x2
 7247 19ae 74       		.byte	0x74
 7248 19af 00       		.sleb128 0
 7249 19b0 00       		.byte	0
 7250 19b1 19       		.uleb128 0x19
 7251 19b2 C0000000 		.4byte	.LVL319
 7252 19b6 50270000 		.4byte	0x2750
 7253 19ba C4190000 		.4byte	0x19c4
 7254 19be 1A       		.uleb128 0x1a
 7255 19bf 01       		.uleb128 0x1
 7256 19c0 50       		.byte	0x50
 7257 19c1 01       		.uleb128 0x1
 7258 19c2 32       		.byte	0x32
 7259 19c3 00       		.byte	0
 7260 19c4 19       		.uleb128 0x19
 7261 19c5 C6000000 		.4byte	.LVL320
 7262 19c9 5B270000 		.4byte	0x275b
 7263 19cd D7190000 		.4byte	0x19d7
 7264 19d1 1A       		.uleb128 0x1a
 7265 19d2 01       		.uleb128 0x1
 7266 19d3 50       		.byte	0x50
 7267 19d4 01       		.uleb128 0x1
 7268 19d5 32       		.byte	0x32
 7269 19d6 00       		.byte	0
 7270 19d7 19       		.uleb128 0x19
 7271 19d8 CC000000 		.4byte	.LVL321
 7272 19dc B3270000 		.4byte	0x27b3
 7273 19e0 EA190000 		.4byte	0x19ea
 7274 19e4 1A       		.uleb128 0x1a
 7275 19e5 01       		.uleb128 0x1
 7276 19e6 50       		.byte	0x50
 7277 19e7 01       		.uleb128 0x1
 7278 19e8 32       		.byte	0x32
 7279 19e9 00       		.byte	0
 7280 19ea 19       		.uleb128 0x19
 7281 19eb D2000000 		.4byte	.LVL322
 7282 19ef BE270000 		.4byte	0x27be
 7283 19f3 FD190000 		.4byte	0x19fd
 7284 19f7 1A       		.uleb128 0x1a
 7285 19f8 01       		.uleb128 0x1
 7286 19f9 50       		.byte	0x50
 7287 19fa 01       		.uleb128 0x1
 7288 19fb 32       		.byte	0x32
ARM GAS  C:\Users\Kiwi\AppData\Local\Temp\cckzbvMb.s 			page 157


 7289 19fc 00       		.byte	0
 7290 19fd 18       		.uleb128 0x18
 7291 19fe DA000000 		.4byte	.LVL324
 7292 1a02 7B010000 		.4byte	0x17b
 7293 1a06 00       		.byte	0
 7294 1a07 00       		.byte	0
 7295 1a08 17       		.uleb128 0x17
 7296 1a09 14000000 		.4byte	.LVL292
 7297 1a0d 63010000 		.4byte	0x163
 7298 1a11 00       		.byte	0
 7299 1a12 2E       		.uleb128 0x2e
 7300 1a13 84050000 		.4byte	.LASF53
 7301 1a17 01       		.byte	0x1
 7302 1a18 F102     		.2byte	0x2f1
 7303 1a1a 00000000 		.4byte	.LFB84
 7304 1a1e 50010000 		.4byte	.LFE84-.LFB84
 7305 1a22 01       		.uleb128 0x1
 7306 1a23 9C       		.byte	0x9c
 7307 1a24 F61A0000 		.4byte	0x1af6
 7308 1a28 2F       		.uleb128 0x2f
 7309 1a29 95060000 		.4byte	.LASF54
 7310 1a2d 01       		.byte	0x1
 7311 1a2e F102     		.2byte	0x2f1
 7312 1a30 A8000000 		.4byte	0xa8
 7313 1a34 AA050000 		.4byte	.LLST39
 7314 1a38 35       		.uleb128 0x35
 7315 1a39 99070000 		.4byte	.LASF55
 7316 1a3d 01       		.byte	0x1
 7317 1a3e F202     		.2byte	0x2f2
 7318 1a40 A8000000 		.4byte	0xa8
 7319 1a44 D6050000 		.4byte	.LLST40
 7320 1a48 34       		.uleb128 0x34
 7321 1a49 3D040000 		.4byte	.LASF56
 7322 1a4d 01       		.byte	0x1
 7323 1a4e F302     		.2byte	0x2f3
 7324 1a50 F61A0000 		.4byte	0x1af6
 7325 1a54 03       		.uleb128 0x3
 7326 1a55 91       		.byte	0x91
 7327 1a56 B87F     		.sleb128 -72
 7328 1a58 35       		.uleb128 0x35
 7329 1a59 17070000 		.4byte	.LASF57
 7330 1a5d 01       		.byte	0x1
 7331 1a5e F402     		.2byte	0x2f4
 7332 1a60 D6000000 		.4byte	0xd6
 7333 1a64 31060000 		.4byte	.LLST41
 7334 1a68 33       		.uleb128 0x33
 7335 1a69 63686B00 		.ascii	"chk\000"
 7336 1a6d 01       		.byte	0x1
 7337 1a6e 1903     		.2byte	0x319
 7338 1a70 E2000000 		.4byte	0xe2
 7339 1a74 C2060000 		.4byte	.LLST42
 7340 1a78 28       		.uleb128 0x28
 7341 1a79 60000000 		.4byte	.Ldebug_ranges0+0x60
 7342 1a7d 901A0000 		.4byte	0x1a90
 7343 1a81 33       		.uleb128 0x33
 7344 1a82 6900     		.ascii	"i\000"
 7345 1a84 01       		.byte	0x1
ARM GAS  C:\Users\Kiwi\AppData\Local\Temp\cckzbvMb.s 			page 158


 7346 1a85 1F03     		.2byte	0x31f
 7347 1a87 68000000 		.4byte	0x68
 7348 1a8b F7060000 		.4byte	.LLST43
 7349 1a8f 00       		.byte	0
 7350 1a90 19       		.uleb128 0x19
 7351 1a91 1E000000 		.4byte	.LVL329
 7352 1a95 C9270000 		.4byte	0x27c9
 7353 1a99 A41A0000 		.4byte	0x1aa4
 7354 1a9d 1A       		.uleb128 0x1a
 7355 1a9e 01       		.uleb128 0x1
 7356 1a9f 50       		.byte	0x50
 7357 1aa0 02       		.uleb128 0x2
 7358 1aa1 75       		.byte	0x75
 7359 1aa2 00       		.sleb128 0
 7360 1aa3 00       		.byte	0
 7361 1aa4 17       		.uleb128 0x17
 7362 1aa5 7C000000 		.4byte	.LVL339
 7363 1aa9 1E040000 		.4byte	0x41e
 7364 1aad 17       		.uleb128 0x17
 7365 1aae D6000000 		.4byte	.LVL353
 7366 1ab2 1E040000 		.4byte	0x41e
 7367 1ab6 19       		.uleb128 0x19
 7368 1ab7 FE000000 		.4byte	.LVL354
 7369 1abb 69020000 		.4byte	0x269
 7370 1abf CB1A0000 		.4byte	0x1acb
 7371 1ac3 1A       		.uleb128 0x1a
 7372 1ac4 01       		.uleb128 0x1
 7373 1ac5 53       		.byte	0x53
 7374 1ac6 03       		.uleb128 0x3
 7375 1ac7 91       		.byte	0x91
 7376 1ac8 BC7F     		.sleb128 -68
 7377 1aca 00       		.byte	0
 7378 1acb 19       		.uleb128 0x19
 7379 1acc 06010000 		.4byte	.LVL355
 7380 1ad0 1E040000 		.4byte	0x41e
 7381 1ad4 E21A0000 		.4byte	0x1ae2
 7382 1ad8 1A       		.uleb128 0x1a
 7383 1ad9 01       		.uleb128 0x1
 7384 1ada 50       		.byte	0x50
 7385 1adb 05       		.uleb128 0x5
 7386 1adc 03       		.byte	0x3
 7387 1add A4020000 		.4byte	.LC28
 7388 1ae1 00       		.byte	0
 7389 1ae2 22       		.uleb128 0x22
 7390 1ae3 2A010000 		.4byte	.LVL356
 7391 1ae7 1E040000 		.4byte	0x41e
 7392 1aeb 1A       		.uleb128 0x1a
 7393 1aec 01       		.uleb128 0x1
 7394 1aed 50       		.byte	0x50
 7395 1aee 05       		.uleb128 0x5
 7396 1aef 03       		.byte	0x3
 7397 1af0 EF020000 		.4byte	.LC30
 7398 1af4 00       		.byte	0
 7399 1af5 00       		.byte	0
 7400 1af6 23       		.uleb128 0x23
 7401 1af7 D6000000 		.4byte	0xd6
 7402 1afb 061B0000 		.4byte	0x1b06
ARM GAS  C:\Users\Kiwi\AppData\Local\Temp\cckzbvMb.s 			page 159


 7403 1aff 24       		.uleb128 0x24
 7404 1b00 A1000000 		.4byte	0xa1
 7405 1b04 24       		.byte	0x24
 7406 1b05 00       		.byte	0
 7407 1b06 32       		.uleb128 0x32
 7408 1b07 57040000 		.4byte	.LASF58
 7409 1b0b 01       		.byte	0x1
 7410 1b0c 4803     		.2byte	0x348
 7411 1b0e 00000000 		.4byte	.LFB85
 7412 1b12 8C000000 		.4byte	.LFE85-.LFB85
 7413 1b16 01       		.uleb128 0x1
 7414 1b17 9C       		.byte	0x9c
 7415 1b18 361C0000 		.4byte	0x1c36
 7416 1b1c 34       		.uleb128 0x34
 7417 1b1d FC050000 		.4byte	.LASF59
 7418 1b21 01       		.byte	0x1
 7419 1b22 4903     		.2byte	0x349
 7420 1b24 B0040000 		.4byte	0x4b0
 7421 1b28 03       		.uleb128 0x3
 7422 1b29 91       		.byte	0x91
 7423 1b2a E87D     		.sleb128 -280
 7424 1b2c 34       		.uleb128 0x34
 7425 1b2d 95060000 		.4byte	.LASF54
 7426 1b31 01       		.byte	0x1
 7427 1b32 4A03     		.2byte	0x34a
 7428 1b34 B0040000 		.4byte	0x4b0
 7429 1b38 03       		.uleb128 0x3
 7430 1b39 91       		.byte	0x91
 7431 1b3a E87E     		.sleb128 -152
 7432 1b3c 35       		.uleb128 0x35
 7433 1b3d E8050000 		.4byte	.LASF60
 7434 1b41 01       		.byte	0x1
 7435 1b42 4B03     		.2byte	0x34b
 7436 1b44 A8000000 		.4byte	0xa8
 7437 1b48 22070000 		.4byte	.LLST44
 7438 1b4c 35       		.uleb128 0x35
 7439 1b4d 1E070000 		.4byte	.LASF61
 7440 1b51 01       		.byte	0x1
 7441 1b52 4C03     		.2byte	0x34c
 7442 1b54 68000000 		.4byte	0x68
 7443 1b58 40070000 		.4byte	.LLST45
 7444 1b5c 33       		.uleb128 0x33
 7445 1b5d 72656D00 		.ascii	"rem\000"
 7446 1b61 01       		.byte	0x1
 7447 1b62 4D03     		.2byte	0x34d
 7448 1b64 68000000 		.4byte	0x68
 7449 1b68 6A070000 		.4byte	.LLST46
 7450 1b6c 17       		.uleb128 0x17
 7451 1b6d 10000000 		.4byte	.LVL360
 7452 1b71 D4270000 		.4byte	0x27d4
 7453 1b75 19       		.uleb128 0x19
 7454 1b76 1A000000 		.4byte	.LVL361
 7455 1b7a DF270000 		.4byte	0x27df
 7456 1b7e 8F1B0000 		.4byte	0x1b8f
 7457 1b82 1A       		.uleb128 0x1a
 7458 1b83 01       		.uleb128 0x1
 7459 1b84 50       		.byte	0x50
ARM GAS  C:\Users\Kiwi\AppData\Local\Temp\cckzbvMb.s 			page 160


 7460 1b85 08       		.uleb128 0x8
 7461 1b86 76       		.byte	0x76
 7462 1b87 00       		.sleb128 0
 7463 1b88 74       		.byte	0x74
 7464 1b89 00       		.sleb128 0
 7465 1b8a 22       		.byte	0x22
 7466 1b8b 75       		.byte	0x75
 7467 1b8c 00       		.sleb128 0
 7468 1b8d 22       		.byte	0x22
 7469 1b8e 00       		.byte	0
 7470 1b8f 19       		.uleb128 0x19
 7471 1b90 2E000000 		.4byte	.LVL363
 7472 1b94 1E040000 		.4byte	0x41e
 7473 1b98 A61B0000 		.4byte	0x1ba6
 7474 1b9c 1A       		.uleb128 0x1a
 7475 1b9d 01       		.uleb128 0x1
 7476 1b9e 50       		.byte	0x50
 7477 1b9f 05       		.uleb128 0x5
 7478 1ba0 03       		.byte	0x3
 7479 1ba1 15030000 		.4byte	.LC31
 7480 1ba5 00       		.byte	0
 7481 1ba6 19       		.uleb128 0x19
 7482 1ba7 3E000000 		.4byte	.LVL365
 7483 1bab EA270000 		.4byte	0x27ea
 7484 1baf C51B0000 		.4byte	0x1bc5
 7485 1bb3 1A       		.uleb128 0x1a
 7486 1bb4 01       		.uleb128 0x1
 7487 1bb5 50       		.byte	0x50
 7488 1bb6 02       		.uleb128 0x2
 7489 1bb7 76       		.byte	0x76
 7490 1bb8 00       		.sleb128 0
 7491 1bb9 1A       		.uleb128 0x1a
 7492 1bba 01       		.uleb128 0x1
 7493 1bbb 51       		.byte	0x51
 7494 1bbc 01       		.uleb128 0x1
 7495 1bbd 3D       		.byte	0x3d
 7496 1bbe 1A       		.uleb128 0x1a
 7497 1bbf 01       		.uleb128 0x1
 7498 1bc0 52       		.byte	0x52
 7499 1bc1 02       		.uleb128 0x2
 7500 1bc2 77       		.byte	0x77
 7501 1bc3 00       		.sleb128 0
 7502 1bc4 00       		.byte	0
 7503 1bc5 19       		.uleb128 0x19
 7504 1bc6 52000000 		.4byte	.LVL367
 7505 1bca F5270000 		.4byte	0x27f5
 7506 1bce E61B0000 		.4byte	0x1be6
 7507 1bd2 1A       		.uleb128 0x1a
 7508 1bd3 01       		.uleb128 0x1
 7509 1bd4 50       		.byte	0x50
 7510 1bd5 03       		.uleb128 0x3
 7511 1bd6 91       		.byte	0x91
 7512 1bd7 E87E     		.sleb128 -152
 7513 1bd9 1A       		.uleb128 0x1a
 7514 1bda 01       		.uleb128 0x1
 7515 1bdb 51       		.byte	0x51
 7516 1bdc 02       		.uleb128 0x2
ARM GAS  C:\Users\Kiwi\AppData\Local\Temp\cckzbvMb.s 			page 161


 7517 1bdd 76       		.byte	0x76
 7518 1bde 00       		.sleb128 0
 7519 1bdf 1A       		.uleb128 0x1a
 7520 1be0 01       		.uleb128 0x1
 7521 1be1 52       		.byte	0x52
 7522 1be2 02       		.uleb128 0x2
 7523 1be3 75       		.byte	0x75
 7524 1be4 00       		.sleb128 0
 7525 1be5 00       		.byte	0
 7526 1be6 19       		.uleb128 0x19
 7527 1be7 6C000000 		.4byte	.LVL369
 7528 1beb 00280000 		.4byte	0x2800
 7529 1bef 061C0000 		.4byte	0x1c06
 7530 1bf3 1A       		.uleb128 0x1a
 7531 1bf4 01       		.uleb128 0x1
 7532 1bf5 50       		.byte	0x50
 7533 1bf6 02       		.uleb128 0x2
 7534 1bf7 76       		.byte	0x76
 7535 1bf8 00       		.sleb128 0
 7536 1bf9 1A       		.uleb128 0x1a
 7537 1bfa 01       		.uleb128 0x1
 7538 1bfb 51       		.byte	0x51
 7539 1bfc 02       		.uleb128 0x2
 7540 1bfd 78       		.byte	0x78
 7541 1bfe 01       		.sleb128 1
 7542 1bff 1A       		.uleb128 0x1a
 7543 1c00 01       		.uleb128 0x1
 7544 1c01 52       		.byte	0x52
 7545 1c02 02       		.uleb128 0x2
 7546 1c03 75       		.byte	0x75
 7547 1c04 00       		.sleb128 0
 7548 1c05 00       		.byte	0
 7549 1c06 19       		.uleb128 0x19
 7550 1c07 74000000 		.4byte	.LVL370
 7551 1c0b 1E040000 		.4byte	0x41e
 7552 1c0f 241C0000 		.4byte	0x1c24
 7553 1c13 1A       		.uleb128 0x1a
 7554 1c14 01       		.uleb128 0x1
 7555 1c15 50       		.byte	0x50
 7556 1c16 05       		.uleb128 0x5
 7557 1c17 03       		.byte	0x3
 7558 1c18 30030000 		.4byte	.LC32
 7559 1c1c 1A       		.uleb128 0x1a
 7560 1c1d 01       		.uleb128 0x1
 7561 1c1e 51       		.byte	0x51
 7562 1c1f 03       		.uleb128 0x3
 7563 1c20 91       		.byte	0x91
 7564 1c21 E87E     		.sleb128 -152
 7565 1c23 00       		.byte	0
 7566 1c24 22       		.uleb128 0x22
 7567 1c25 7A000000 		.4byte	.LVL371
 7568 1c29 121A0000 		.4byte	0x1a12
 7569 1c2d 1A       		.uleb128 0x1a
 7570 1c2e 01       		.uleb128 0x1
 7571 1c2f 50       		.byte	0x50
 7572 1c30 03       		.uleb128 0x3
 7573 1c31 91       		.byte	0x91
ARM GAS  C:\Users\Kiwi\AppData\Local\Temp\cckzbvMb.s 			page 162


 7574 1c32 E87E     		.sleb128 -152
 7575 1c34 00       		.byte	0
 7576 1c35 00       		.byte	0
 7577 1c36 32       		.uleb128 0x32
 7578 1c37 4E040000 		.4byte	.LASF62
 7579 1c3b 01       		.byte	0x1
 7580 1c3c 6503     		.2byte	0x365
 7581 1c3e 00000000 		.4byte	.LFB86
 7582 1c42 88000000 		.4byte	.LFE86-.LFB86
 7583 1c46 01       		.uleb128 0x1
 7584 1c47 9C       		.byte	0x9c
 7585 1c48 711D0000 		.4byte	0x1d71
 7586 1c4c 19       		.uleb128 0x19
 7587 1c4d 0A000000 		.4byte	.LVL372
 7588 1c51 1E040000 		.4byte	0x41e
 7589 1c55 601C0000 		.4byte	0x1c60
 7590 1c59 1A       		.uleb128 0x1a
 7591 1c5a 01       		.uleb128 0x1
 7592 1c5b 50       		.byte	0x50
 7593 1c5c 02       		.uleb128 0x2
 7594 1c5d 74       		.byte	0x74
 7595 1c5e 00       		.sleb128 0
 7596 1c5f 00       		.byte	0
 7597 1c60 19       		.uleb128 0x19
 7598 1c61 10000000 		.4byte	.LVL373
 7599 1c65 1E040000 		.4byte	0x41e
 7600 1c69 771C0000 		.4byte	0x1c77
 7601 1c6d 1A       		.uleb128 0x1a
 7602 1c6e 01       		.uleb128 0x1
 7603 1c6f 50       		.byte	0x50
 7604 1c70 05       		.uleb128 0x5
 7605 1c71 03       		.byte	0x3
 7606 1c72 35030000 		.4byte	.LC33
 7607 1c76 00       		.byte	0
 7608 1c77 19       		.uleb128 0x19
 7609 1c78 16000000 		.4byte	.LVL374
 7610 1c7c 1E040000 		.4byte	0x41e
 7611 1c80 8E1C0000 		.4byte	0x1c8e
 7612 1c84 1A       		.uleb128 0x1a
 7613 1c85 01       		.uleb128 0x1
 7614 1c86 50       		.byte	0x50
 7615 1c87 05       		.uleb128 0x5
 7616 1c88 03       		.byte	0x3
 7617 1c89 62030000 		.4byte	.LC34
 7618 1c8d 00       		.byte	0
 7619 1c8e 19       		.uleb128 0x19
 7620 1c8f 1C000000 		.4byte	.LVL375
 7621 1c93 1E040000 		.4byte	0x41e
 7622 1c97 A51C0000 		.4byte	0x1ca5
 7623 1c9b 1A       		.uleb128 0x1a
 7624 1c9c 01       		.uleb128 0x1
 7625 1c9d 50       		.byte	0x50
 7626 1c9e 05       		.uleb128 0x5
 7627 1c9f 03       		.byte	0x3
 7628 1ca0 B3030000 		.4byte	.LC35
 7629 1ca4 00       		.byte	0
 7630 1ca5 19       		.uleb128 0x19
ARM GAS  C:\Users\Kiwi\AppData\Local\Temp\cckzbvMb.s 			page 163


 7631 1ca6 22000000 		.4byte	.LVL376
 7632 1caa 1E040000 		.4byte	0x41e
 7633 1cae BC1C0000 		.4byte	0x1cbc
 7634 1cb2 1A       		.uleb128 0x1a
 7635 1cb3 01       		.uleb128 0x1
 7636 1cb4 50       		.byte	0x50
 7637 1cb5 05       		.uleb128 0x5
 7638 1cb6 03       		.byte	0x3
 7639 1cb7 F8030000 		.4byte	.LC36
 7640 1cbb 00       		.byte	0
 7641 1cbc 19       		.uleb128 0x19
 7642 1cbd 28000000 		.4byte	.LVL377
 7643 1cc1 1E040000 		.4byte	0x41e
 7644 1cc5 D31C0000 		.4byte	0x1cd3
 7645 1cc9 1A       		.uleb128 0x1a
 7646 1cca 01       		.uleb128 0x1
 7647 1ccb 50       		.byte	0x50
 7648 1ccc 05       		.uleb128 0x5
 7649 1ccd 03       		.byte	0x3
 7650 1cce 3E040000 		.4byte	.LC37
 7651 1cd2 00       		.byte	0
 7652 1cd3 19       		.uleb128 0x19
 7653 1cd4 2E000000 		.4byte	.LVL378
 7654 1cd8 1E040000 		.4byte	0x41e
 7655 1cdc EA1C0000 		.4byte	0x1cea
 7656 1ce0 1A       		.uleb128 0x1a
 7657 1ce1 01       		.uleb128 0x1
 7658 1ce2 50       		.byte	0x50
 7659 1ce3 05       		.uleb128 0x5
 7660 1ce4 03       		.byte	0x3
 7661 1ce5 83040000 		.4byte	.LC38
 7662 1ce9 00       		.byte	0
 7663 1cea 19       		.uleb128 0x19
 7664 1ceb 34000000 		.4byte	.LVL379
 7665 1cef 1E040000 		.4byte	0x41e
 7666 1cf3 011D0000 		.4byte	0x1d01
 7667 1cf7 1A       		.uleb128 0x1a
 7668 1cf8 01       		.uleb128 0x1
 7669 1cf9 50       		.byte	0x50
 7670 1cfa 05       		.uleb128 0x5
 7671 1cfb 03       		.byte	0x3
 7672 1cfc 9D040000 		.4byte	.LC39
 7673 1d00 00       		.byte	0
 7674 1d01 19       		.uleb128 0x19
 7675 1d02 3A000000 		.4byte	.LVL380
 7676 1d06 1E040000 		.4byte	0x41e
 7677 1d0a 181D0000 		.4byte	0x1d18
 7678 1d0e 1A       		.uleb128 0x1a
 7679 1d0f 01       		.uleb128 0x1
 7680 1d10 50       		.byte	0x50
 7681 1d11 05       		.uleb128 0x5
 7682 1d12 03       		.byte	0x3
 7683 1d13 C5040000 		.4byte	.LC40
 7684 1d17 00       		.byte	0
 7685 1d18 19       		.uleb128 0x19
 7686 1d19 40000000 		.4byte	.LVL381
 7687 1d1d 1E040000 		.4byte	0x41e
ARM GAS  C:\Users\Kiwi\AppData\Local\Temp\cckzbvMb.s 			page 164


 7688 1d21 2F1D0000 		.4byte	0x1d2f
 7689 1d25 1A       		.uleb128 0x1a
 7690 1d26 01       		.uleb128 0x1
 7691 1d27 50       		.byte	0x50
 7692 1d28 05       		.uleb128 0x5
 7693 1d29 03       		.byte	0x3
 7694 1d2a FE040000 		.4byte	.LC41
 7695 1d2e 00       		.byte	0
 7696 1d2f 19       		.uleb128 0x19
 7697 1d30 46000000 		.4byte	.LVL382
 7698 1d34 1E040000 		.4byte	0x41e
 7699 1d38 461D0000 		.4byte	0x1d46
 7700 1d3c 1A       		.uleb128 0x1a
 7701 1d3d 01       		.uleb128 0x1
 7702 1d3e 50       		.byte	0x50
 7703 1d3f 05       		.uleb128 0x5
 7704 1d40 03       		.byte	0x3
 7705 1d41 4A050000 		.4byte	.LC42
 7706 1d45 00       		.byte	0
 7707 1d46 19       		.uleb128 0x19
 7708 1d47 4C000000 		.4byte	.LVL383
 7709 1d4b 1E040000 		.4byte	0x41e
 7710 1d4f 5D1D0000 		.4byte	0x1d5d
 7711 1d53 1A       		.uleb128 0x1a
 7712 1d54 01       		.uleb128 0x1
 7713 1d55 50       		.byte	0x50
 7714 1d56 05       		.uleb128 0x5
 7715 1d57 03       		.byte	0x3
 7716 1d58 71050000 		.4byte	.LC43
 7717 1d5c 00       		.byte	0
 7718 1d5d 1C       		.uleb128 0x1c
 7719 1d5e 56000000 		.4byte	.LVL384
 7720 1d62 1E040000 		.4byte	0x41e
 7721 1d66 1A       		.uleb128 0x1a
 7722 1d67 01       		.uleb128 0x1
 7723 1d68 50       		.byte	0x50
 7724 1d69 05       		.uleb128 0x5
 7725 1d6a 03       		.byte	0x3
 7726 1d6b 48000000 		.4byte	.LC7
 7727 1d6f 00       		.byte	0
 7728 1d70 00       		.byte	0
 7729 1d71 36       		.uleb128 0x36
 7730 1d72 E9070000 		.4byte	.LASF161
 7731 1d76 01       		.byte	0x1
 7732 1d77 8203     		.2byte	0x382
 7733 1d79 68000000 		.4byte	0x68
 7734 1d7d 00000000 		.4byte	.LFB87
 7735 1d81 3C050000 		.4byte	.LFE87-.LFB87
 7736 1d85 01       		.uleb128 0x1
 7737 1d86 9C       		.byte	0x9c
 7738 1d87 F1240000 		.4byte	0x24f1
 7739 1d8b 35       		.uleb128 0x35
 7740 1d8c 8E030000 		.4byte	.LASF63
 7741 1d90 01       		.byte	0x1
 7742 1d91 B203     		.2byte	0x3b2
 7743 1d93 EE000000 		.4byte	0xee
 7744 1d97 94070000 		.4byte	.LLST47
ARM GAS  C:\Users\Kiwi\AppData\Local\Temp\cckzbvMb.s 			page 165


 7745 1d9b 35       		.uleb128 0x35
 7746 1d9c 91020000 		.4byte	.LASF64
 7747 1da0 01       		.byte	0x1
 7748 1da1 DC03     		.2byte	0x3dc
 7749 1da3 68000000 		.4byte	0x68
 7750 1da7 A7070000 		.4byte	.LLST48
 7751 1dab 35       		.uleb128 0x35
 7752 1dac 69020000 		.4byte	.LASF65
 7753 1db0 01       		.byte	0x1
 7754 1db1 DD03     		.2byte	0x3dd
 7755 1db3 68000000 		.4byte	0x68
 7756 1db7 DE070000 		.4byte	.LLST49
 7757 1dbb 34       		.uleb128 0x34
 7758 1dbc 95060000 		.4byte	.LASF54
 7759 1dc0 01       		.byte	0x1
 7760 1dc1 E203     		.2byte	0x3e2
 7761 1dc3 B0040000 		.4byte	0x4b0
 7762 1dc7 03       		.uleb128 0x3
 7763 1dc8 91       		.byte	0x91
 7764 1dc9 D87E     		.sleb128 -168
 7765 1dcb 34       		.uleb128 0x34
 7766 1dcc FC050000 		.4byte	.LASF59
 7767 1dd0 01       		.byte	0x1
 7768 1dd1 E303     		.2byte	0x3e3
 7769 1dd3 F1240000 		.4byte	0x24f1
 7770 1dd7 03       		.uleb128 0x3
 7771 1dd8 91       		.byte	0x91
 7772 1dd9 987E     		.sleb128 -232
 7773 1ddb 33       		.uleb128 0x33
 7774 1ddc 636800   		.ascii	"ch\000"
 7775 1ddf 01       		.byte	0x1
 7776 1de0 E503     		.2byte	0x3e5
 7777 1de2 AE000000 		.4byte	0xae
 7778 1de6 2B080000 		.4byte	.LLST50
 7779 1dea 33       		.uleb128 0x33
 7780 1deb 6C656E00 		.ascii	"len\000"
 7781 1def 01       		.byte	0x1
 7782 1df0 E703     		.2byte	0x3e7
 7783 1df2 68000000 		.4byte	0x68
 7784 1df6 55080000 		.4byte	.LLST51
 7785 1dfa 35       		.uleb128 0x35
 7786 1dfb F8070000 		.4byte	.LASF66
 7787 1dff 01       		.byte	0x1
 7788 1e00 E803     		.2byte	0x3e8
 7789 1e02 D6000000 		.4byte	0xd6
 7790 1e06 73080000 		.4byte	.LLST52
 7791 1e0a 2B       		.uleb128 0x2b
 7792 1e0b F8010000 		.4byte	.LBB68
 7793 1e0f 44030000 		.4byte	.LBE68-.LBB68
 7794 1e13 66210000 		.4byte	0x2166
 7795 1e17 35       		.uleb128 0x35
 7796 1e18 1E070000 		.4byte	.LASF61
 7797 1e1c 01       		.byte	0x1
 7798 1e1d 1C04     		.2byte	0x41c
 7799 1e1f 68000000 		.4byte	0x68
 7800 1e23 A5090000 		.4byte	.LLST53
 7801 1e27 2B       		.uleb128 0x2b
ARM GAS  C:\Users\Kiwi\AppData\Local\Temp\cckzbvMb.s 			page 166


 7802 1e28 0C020000 		.4byte	.LBB69
 7803 1e2c 30030000 		.4byte	.LBE69-.LBB69
 7804 1e30 54210000 		.4byte	0x2154
 7805 1e34 33       		.uleb128 0x33
 7806 1e35 6900     		.ascii	"i\000"
 7807 1e37 01       		.byte	0x1
 7808 1e38 1D04     		.2byte	0x41d
 7809 1e3a 68000000 		.4byte	0x68
 7810 1e3e BE090000 		.4byte	.LLST54
 7811 1e42 37       		.uleb128 0x37
 7812 1e43 34020000 		.4byte	.LBB70
 7813 1e47 08030000 		.4byte	.LBE70-.LBB70
 7814 1e4b 35       		.uleb128 0x35
 7815 1e4c 92040000 		.4byte	.LASF67
 7816 1e50 01       		.byte	0x1
 7817 1e51 2A04     		.2byte	0x42a
 7818 1e53 68000000 		.4byte	0x68
 7819 1e57 6F0A0000 		.4byte	.LLST55
 7820 1e5b 19       		.uleb128 0x19
 7821 1e5c 3A020000 		.4byte	.LVL453
 7822 1e60 C9270000 		.4byte	0x27c9
 7823 1e64 701E0000 		.4byte	0x1e70
 7824 1e68 1A       		.uleb128 0x1a
 7825 1e69 01       		.uleb128 0x1
 7826 1e6a 50       		.byte	0x50
 7827 1e6b 03       		.uleb128 0x3
 7828 1e6c 91       		.byte	0x91
 7829 1e6d D87E     		.sleb128 -168
 7830 1e6f 00       		.byte	0
 7831 1e70 19       		.uleb128 0x19
 7832 1e71 4E020000 		.4byte	.LVL455
 7833 1e75 1E040000 		.4byte	0x41e
 7834 1e79 871E0000 		.4byte	0x1e87
 7835 1e7d 1A       		.uleb128 0x1a
 7836 1e7e 01       		.uleb128 0x1
 7837 1e7f 50       		.byte	0x50
 7838 1e80 05       		.uleb128 0x5
 7839 1e81 03       		.byte	0x3
 7840 1e82 D1060000 		.4byte	.LC57
 7841 1e86 00       		.byte	0
 7842 1e87 19       		.uleb128 0x19
 7843 1e88 58020000 		.4byte	.LVL458
 7844 1e8c 1E040000 		.4byte	0x41e
 7845 1e90 9E1E0000 		.4byte	0x1e9e
 7846 1e94 1A       		.uleb128 0x1a
 7847 1e95 01       		.uleb128 0x1
 7848 1e96 50       		.byte	0x50
 7849 1e97 05       		.uleb128 0x5
 7850 1e98 03       		.byte	0x3
 7851 1e99 48000000 		.4byte	.LC7
 7852 1e9d 00       		.byte	0
 7853 1e9e 19       		.uleb128 0x19
 7854 1e9f 66020000 		.4byte	.LVL459
 7855 1ea3 121A0000 		.4byte	0x1a12
 7856 1ea7 B21E0000 		.4byte	0x1eb2
 7857 1eab 1A       		.uleb128 0x1a
 7858 1eac 01       		.uleb128 0x1
ARM GAS  C:\Users\Kiwi\AppData\Local\Temp\cckzbvMb.s 			page 167


 7859 1ead 50       		.byte	0x50
 7860 1eae 02       		.uleb128 0x2
 7861 1eaf 76       		.byte	0x76
 7862 1eb0 00       		.sleb128 0
 7863 1eb1 00       		.byte	0
 7864 1eb2 19       		.uleb128 0x19
 7865 1eb3 7C020000 		.4byte	.LVL462
 7866 1eb7 09280000 		.4byte	0x2809
 7867 1ebb D41E0000 		.4byte	0x1ed4
 7868 1ebf 1A       		.uleb128 0x1a
 7869 1ec0 01       		.uleb128 0x1
 7870 1ec1 50       		.byte	0x50
 7871 1ec2 02       		.uleb128 0x2
 7872 1ec3 76       		.byte	0x76
 7873 1ec4 00       		.sleb128 0
 7874 1ec5 1A       		.uleb128 0x1a
 7875 1ec6 01       		.uleb128 0x1
 7876 1ec7 51       		.byte	0x51
 7877 1ec8 05       		.uleb128 0x5
 7878 1ec9 03       		.byte	0x3
 7879 1eca D5060000 		.4byte	.LC58
 7880 1ece 1A       		.uleb128 0x1a
 7881 1ecf 01       		.uleb128 0x1
 7882 1ed0 52       		.byte	0x52
 7883 1ed1 01       		.uleb128 0x1
 7884 1ed2 34       		.byte	0x34
 7885 1ed3 00       		.byte	0
 7886 1ed4 19       		.uleb128 0x19
 7887 1ed5 86020000 		.4byte	.LVL463
 7888 1ed9 14280000 		.4byte	0x2814
 7889 1edd F11E0000 		.4byte	0x1ef1
 7890 1ee1 1A       		.uleb128 0x1a
 7891 1ee2 01       		.uleb128 0x1
 7892 1ee3 50       		.byte	0x50
 7893 1ee4 02       		.uleb128 0x2
 7894 1ee5 76       		.byte	0x76
 7895 1ee6 00       		.sleb128 0
 7896 1ee7 1A       		.uleb128 0x1a
 7897 1ee8 01       		.uleb128 0x1
 7898 1ee9 51       		.byte	0x51
 7899 1eea 05       		.uleb128 0x5
 7900 1eeb 03       		.byte	0x3
 7901 1eec DA060000 		.4byte	.LC59
 7902 1ef0 00       		.byte	0
 7903 1ef1 19       		.uleb128 0x19
 7904 1ef2 90020000 		.4byte	.LVL464
 7905 1ef6 14280000 		.4byte	0x2814
 7906 1efa 0E1F0000 		.4byte	0x1f0e
 7907 1efe 1A       		.uleb128 0x1a
 7908 1eff 01       		.uleb128 0x1
 7909 1f00 50       		.byte	0x50
 7910 1f01 02       		.uleb128 0x2
 7911 1f02 76       		.byte	0x76
 7912 1f03 00       		.sleb128 0
 7913 1f04 1A       		.uleb128 0x1a
 7914 1f05 01       		.uleb128 0x1
 7915 1f06 51       		.byte	0x51
ARM GAS  C:\Users\Kiwi\AppData\Local\Temp\cckzbvMb.s 			page 168


 7916 1f07 05       		.uleb128 0x5
 7917 1f08 03       		.byte	0x3
 7918 1f09 DC060000 		.4byte	.LC60
 7919 1f0d 00       		.byte	0
 7920 1f0e 17       		.uleb128 0x17
 7921 1f0f 9C020000 		.4byte	.LVL465
 7922 1f13 361C0000 		.4byte	0x1c36
 7923 1f17 19       		.uleb128 0x19
 7924 1f18 B0020000 		.4byte	.LVL468
 7925 1f1c 14280000 		.4byte	0x2814
 7926 1f20 341F0000 		.4byte	0x1f34
 7927 1f24 1A       		.uleb128 0x1a
 7928 1f25 01       		.uleb128 0x1
 7929 1f26 50       		.byte	0x50
 7930 1f27 02       		.uleb128 0x2
 7931 1f28 76       		.byte	0x76
 7932 1f29 00       		.sleb128 0
 7933 1f2a 1A       		.uleb128 0x1a
 7934 1f2b 01       		.uleb128 0x1
 7935 1f2c 51       		.byte	0x51
 7936 1f2d 05       		.uleb128 0x5
 7937 1f2e 03       		.byte	0x3
 7938 1f2f DE060000 		.4byte	.LC61
 7939 1f33 00       		.byte	0
 7940 1f34 17       		.uleb128 0x17
 7941 1f35 BE020000 		.4byte	.LVL469
 7942 1f39 E2140000 		.4byte	0x14e2
 7943 1f3d 19       		.uleb128 0x19
 7944 1f3e D2020000 		.4byte	.LVL472
 7945 1f42 14280000 		.4byte	0x2814
 7946 1f46 5A1F0000 		.4byte	0x1f5a
 7947 1f4a 1A       		.uleb128 0x1a
 7948 1f4b 01       		.uleb128 0x1
 7949 1f4c 50       		.byte	0x50
 7950 1f4d 02       		.uleb128 0x2
 7951 1f4e 76       		.byte	0x76
 7952 1f4f 00       		.sleb128 0
 7953 1f50 1A       		.uleb128 0x1a
 7954 1f51 01       		.uleb128 0x1
 7955 1f52 51       		.byte	0x51
 7956 1f53 05       		.uleb128 0x5
 7957 1f54 03       		.byte	0x3
 7958 1f55 E4060000 		.4byte	.LC62
 7959 1f59 00       		.byte	0
 7960 1f5a 19       		.uleb128 0x19
 7961 1f5b 68030000 		.4byte	.LVL477
 7962 1f5f 14280000 		.4byte	0x2814
 7963 1f63 771F0000 		.4byte	0x1f77
 7964 1f67 1A       		.uleb128 0x1a
 7965 1f68 01       		.uleb128 0x1
 7966 1f69 50       		.byte	0x50
 7967 1f6a 02       		.uleb128 0x2
 7968 1f6b 76       		.byte	0x76
 7969 1f6c 00       		.sleb128 0
 7970 1f6d 1A       		.uleb128 0x1a
 7971 1f6e 01       		.uleb128 0x1
 7972 1f6f 51       		.byte	0x51
ARM GAS  C:\Users\Kiwi\AppData\Local\Temp\cckzbvMb.s 			page 169


 7973 1f70 05       		.uleb128 0x5
 7974 1f71 03       		.byte	0x3
 7975 1f72 EA060000 		.4byte	.LC63
 7976 1f76 00       		.byte	0
 7977 1f77 19       		.uleb128 0x19
 7978 1f78 7A030000 		.4byte	.LVL478
 7979 1f7c 87010000 		.4byte	0x187
 7980 1f80 8C1F0000 		.4byte	0x1f8c
 7981 1f84 1A       		.uleb128 0x1a
 7982 1f85 01       		.uleb128 0x1
 7983 1f86 50       		.byte	0x50
 7984 1f87 03       		.uleb128 0x3
 7985 1f88 0B       		.byte	0xb
 7986 1f89 00F0     		.2byte	0xf000
 7987 1f8b 00       		.byte	0
 7988 1f8c 19       		.uleb128 0x19
 7989 1f8d 8E030000 		.4byte	.LVL481
 7990 1f91 14280000 		.4byte	0x2814
 7991 1f95 A91F0000 		.4byte	0x1fa9
 7992 1f99 1A       		.uleb128 0x1a
 7993 1f9a 01       		.uleb128 0x1
 7994 1f9b 50       		.byte	0x50
 7995 1f9c 02       		.uleb128 0x2
 7996 1f9d 76       		.byte	0x76
 7997 1f9e 00       		.sleb128 0
 7998 1f9f 1A       		.uleb128 0x1a
 7999 1fa0 01       		.uleb128 0x1
 8000 1fa1 51       		.byte	0x51
 8001 1fa2 05       		.uleb128 0x5
 8002 1fa3 03       		.byte	0x3
 8003 1fa4 ED060000 		.4byte	.LC64
 8004 1fa8 00       		.byte	0
 8005 1fa9 17       		.uleb128 0x17
 8006 1faa 9C030000 		.4byte	.LVL482
 8007 1fae 39020000 		.4byte	0x239
 8008 1fb2 19       		.uleb128 0x19
 8009 1fb3 B0030000 		.4byte	.LVL485
 8010 1fb7 14280000 		.4byte	0x2814
 8011 1fbb CF1F0000 		.4byte	0x1fcf
 8012 1fbf 1A       		.uleb128 0x1a
 8013 1fc0 01       		.uleb128 0x1
 8014 1fc1 50       		.byte	0x50
 8015 1fc2 02       		.uleb128 0x2
 8016 1fc3 76       		.byte	0x76
 8017 1fc4 00       		.sleb128 0
 8018 1fc5 1A       		.uleb128 0x1a
 8019 1fc6 01       		.uleb128 0x1
 8020 1fc7 51       		.byte	0x51
 8021 1fc8 05       		.uleb128 0x5
 8022 1fc9 03       		.byte	0x3
 8023 1fca F5060000 		.4byte	.LC65
 8024 1fce 00       		.byte	0
 8025 1fcf 17       		.uleb128 0x17
 8026 1fd0 BE030000 		.4byte	.LVL486
 8027 1fd4 061B0000 		.4byte	0x1b06
 8028 1fd8 19       		.uleb128 0x19
 8029 1fd9 D2030000 		.4byte	.LVL489
ARM GAS  C:\Users\Kiwi\AppData\Local\Temp\cckzbvMb.s 			page 170


 8030 1fdd 14280000 		.4byte	0x2814
 8031 1fe1 F51F0000 		.4byte	0x1ff5
 8032 1fe5 1A       		.uleb128 0x1a
 8033 1fe6 01       		.uleb128 0x1
 8034 1fe7 50       		.byte	0x50
 8035 1fe8 02       		.uleb128 0x2
 8036 1fe9 76       		.byte	0x76
 8037 1fea 00       		.sleb128 0
 8038 1feb 1A       		.uleb128 0x1a
 8039 1fec 01       		.uleb128 0x1
 8040 1fed 51       		.byte	0x51
 8041 1fee 05       		.uleb128 0x5
 8042 1fef 03       		.byte	0x3
 8043 1ff0 F9060000 		.4byte	.LC66
 8044 1ff4 00       		.byte	0
 8045 1ff5 17       		.uleb128 0x17
 8046 1ff6 E0030000 		.4byte	.LVL490
 8047 1ffa B7010000 		.4byte	0x1b7
 8048 1ffe 19       		.uleb128 0x19
 8049 1fff F4030000 		.4byte	.LVL493
 8050 2003 14280000 		.4byte	0x2814
 8051 2007 1B200000 		.4byte	0x201b
 8052 200b 1A       		.uleb128 0x1a
 8053 200c 01       		.uleb128 0x1
 8054 200d 50       		.byte	0x50
 8055 200e 02       		.uleb128 0x2
 8056 200f 76       		.byte	0x76
 8057 2010 00       		.sleb128 0
 8058 2011 1A       		.uleb128 0x1a
 8059 2012 01       		.uleb128 0x1
 8060 2013 51       		.byte	0x51
 8061 2014 05       		.uleb128 0x5
 8062 2015 03       		.byte	0x3
 8063 2016 01070000 		.4byte	.LC67
 8064 201a 00       		.byte	0
 8065 201b 17       		.uleb128 0x17
 8066 201c 02040000 		.4byte	.LVL494
 8067 2020 D3030000 		.4byte	0x3d3
 8068 2024 19       		.uleb128 0x19
 8069 2025 0A040000 		.4byte	.LVL495
 8070 2029 1E040000 		.4byte	0x41e
 8071 202d 41200000 		.4byte	0x2041
 8072 2031 1A       		.uleb128 0x1a
 8073 2032 01       		.uleb128 0x1
 8074 2033 50       		.byte	0x50
 8075 2034 05       		.uleb128 0x5
 8076 2035 03       		.byte	0x3
 8077 2036 07070000 		.4byte	.LC68
 8078 203a 1A       		.uleb128 0x1a
 8079 203b 01       		.uleb128 0x1
 8080 203c 51       		.byte	0x51
 8081 203d 02       		.uleb128 0x2
 8082 203e 76       		.byte	0x76
 8083 203f 00       		.sleb128 0
 8084 2040 00       		.byte	0
 8085 2041 19       		.uleb128 0x19
 8086 2042 1E040000 		.4byte	.LVL498
ARM GAS  C:\Users\Kiwi\AppData\Local\Temp\cckzbvMb.s 			page 171


 8087 2046 14280000 		.4byte	0x2814
 8088 204a 5E200000 		.4byte	0x205e
 8089 204e 1A       		.uleb128 0x1a
 8090 204f 01       		.uleb128 0x1
 8091 2050 50       		.byte	0x50
 8092 2051 02       		.uleb128 0x2
 8093 2052 76       		.byte	0x76
 8094 2053 00       		.sleb128 0
 8095 2054 1A       		.uleb128 0x1a
 8096 2055 01       		.uleb128 0x1
 8097 2056 51       		.byte	0x51
 8098 2057 05       		.uleb128 0x5
 8099 2058 03       		.byte	0x3
 8100 2059 15070000 		.4byte	.LC69
 8101 205d 00       		.byte	0
 8102 205e 17       		.uleb128 0x17
 8103 205f 2C040000 		.4byte	.LVL499
 8104 2063 1F280000 		.4byte	0x281f
 8105 2067 19       		.uleb128 0x19
 8106 2068 40040000 		.4byte	.LVL501
 8107 206c 1E040000 		.4byte	0x41e
 8108 2070 84200000 		.4byte	0x2084
 8109 2074 1A       		.uleb128 0x1a
 8110 2075 01       		.uleb128 0x1
 8111 2076 50       		.byte	0x50
 8112 2077 05       		.uleb128 0x5
 8113 2078 03       		.byte	0x3
 8114 2079 1C070000 		.4byte	.LC70
 8115 207d 1A       		.uleb128 0x1a
 8116 207e 01       		.uleb128 0x1
 8117 207f 51       		.byte	0x51
 8118 2080 02       		.uleb128 0x2
 8119 2081 76       		.byte	0x76
 8120 2082 00       		.sleb128 0
 8121 2083 00       		.byte	0
 8122 2084 19       		.uleb128 0x19
 8123 2085 52040000 		.4byte	.LVL504
 8124 2089 14280000 		.4byte	0x2814
 8125 208d A1200000 		.4byte	0x20a1
 8126 2091 1A       		.uleb128 0x1a
 8127 2092 01       		.uleb128 0x1
 8128 2093 50       		.byte	0x50
 8129 2094 02       		.uleb128 0x2
 8130 2095 76       		.byte	0x76
 8131 2096 00       		.sleb128 0
 8132 2097 1A       		.uleb128 0x1a
 8133 2098 01       		.uleb128 0x1
 8134 2099 51       		.byte	0x51
 8135 209a 05       		.uleb128 0x5
 8136 209b 03       		.byte	0x3
 8137 209c 2D070000 		.4byte	.LC71
 8138 20a0 00       		.byte	0
 8139 20a1 17       		.uleb128 0x17
 8140 20a2 60040000 		.4byte	.LVL505
 8141 20a6 1F280000 		.4byte	0x281f
 8142 20aa 19       		.uleb128 0x19
 8143 20ab 6E040000 		.4byte	.LVL506
ARM GAS  C:\Users\Kiwi\AppData\Local\Temp\cckzbvMb.s 			page 172


 8144 20af 1E040000 		.4byte	0x41e
 8145 20b3 C1200000 		.4byte	0x20c1
 8146 20b7 1A       		.uleb128 0x1a
 8147 20b8 01       		.uleb128 0x1
 8148 20b9 50       		.byte	0x50
 8149 20ba 05       		.uleb128 0x5
 8150 20bb 03       		.byte	0x3
 8151 20bc 31070000 		.4byte	.LC72
 8152 20c0 00       		.byte	0
 8153 20c1 19       		.uleb128 0x19
 8154 20c2 82040000 		.4byte	.LVL509
 8155 20c6 14280000 		.4byte	0x2814
 8156 20ca DE200000 		.4byte	0x20de
 8157 20ce 1A       		.uleb128 0x1a
 8158 20cf 01       		.uleb128 0x1
 8159 20d0 50       		.byte	0x50
 8160 20d1 02       		.uleb128 0x2
 8161 20d2 76       		.byte	0x76
 8162 20d3 00       		.sleb128 0
 8163 20d4 1A       		.uleb128 0x1a
 8164 20d5 01       		.uleb128 0x1
 8165 20d6 51       		.byte	0x51
 8166 20d7 05       		.uleb128 0x5
 8167 20d8 03       		.byte	0x3
 8168 20d9 67070000 		.4byte	.LC73
 8169 20dd 00       		.byte	0
 8170 20de 17       		.uleb128 0x17
 8171 20df A2040000 		.4byte	.LVL512
 8172 20e3 2A280000 		.4byte	0x282a
 8173 20e7 17       		.uleb128 0x17
 8174 20e8 A8040000 		.4byte	.LVL514
 8175 20ec 35280000 		.4byte	0x2835
 8176 20f0 19       		.uleb128 0x19
 8177 20f1 CC040000 		.4byte	.LVL521
 8178 20f5 1E040000 		.4byte	0x41e
 8179 20f9 0D210000 		.4byte	0x210d
 8180 20fd 1A       		.uleb128 0x1a
 8181 20fe 01       		.uleb128 0x1
 8182 20ff 50       		.byte	0x50
 8183 2100 05       		.uleb128 0x5
 8184 2101 03       		.byte	0x3
 8185 2102 6C070000 		.4byte	.LC74
 8186 2106 1A       		.uleb128 0x1a
 8187 2107 01       		.uleb128 0x1
 8188 2108 51       		.byte	0x51
 8189 2109 02       		.uleb128 0x2
 8190 210a 76       		.byte	0x76
 8191 210b 00       		.sleb128 0
 8192 210c 00       		.byte	0
 8193 210d 19       		.uleb128 0x19
 8194 210e D4040000 		.4byte	.LVL522
 8195 2112 1E040000 		.4byte	0x41e
 8196 2116 24210000 		.4byte	0x2124
 8197 211a 1A       		.uleb128 0x1a
 8198 211b 01       		.uleb128 0x1
 8199 211c 50       		.byte	0x50
 8200 211d 05       		.uleb128 0x5
ARM GAS  C:\Users\Kiwi\AppData\Local\Temp\cckzbvMb.s 			page 173


 8201 211e 03       		.byte	0x3
 8202 211f BD060000 		.4byte	.LC55
 8203 2123 00       		.byte	0
 8204 2124 19       		.uleb128 0x19
 8205 2125 E2040000 		.4byte	.LVL524
 8206 2129 C9270000 		.4byte	0x27c9
 8207 212d 39210000 		.4byte	0x2139
 8208 2131 1A       		.uleb128 0x1a
 8209 2132 01       		.uleb128 0x1
 8210 2133 50       		.byte	0x50
 8211 2134 03       		.uleb128 0x3
 8212 2135 91       		.byte	0x91
 8213 2136 D87E     		.sleb128 -168
 8214 2138 00       		.byte	0
 8215 2139 17       		.uleb128 0x17
 8216 213a FA040000 		.4byte	.LVL526
 8217 213e E2260000 		.4byte	0x26e2
 8218 2142 22       		.uleb128 0x22
 8219 2143 04050000 		.4byte	.LVL527
 8220 2147 40280000 		.4byte	0x2840
 8221 214b 1A       		.uleb128 0x1a
 8222 214c 01       		.uleb128 0x1
 8223 214d 50       		.byte	0x50
 8224 214e 02       		.uleb128 0x2
 8225 214f 76       		.byte	0x76
 8226 2150 00       		.sleb128 0
 8227 2151 00       		.byte	0
 8228 2152 00       		.byte	0
 8229 2153 00       		.byte	0
 8230 2154 22       		.uleb128 0x22
 8231 2155 FE010000 		.4byte	.LVL447
 8232 2159 DF270000 		.4byte	0x27df
 8233 215d 1A       		.uleb128 0x1a
 8234 215e 01       		.uleb128 0x1
 8235 215f 50       		.byte	0x50
 8236 2160 03       		.uleb128 0x3
 8237 2161 91       		.byte	0x91
 8238 2162 987E     		.sleb128 -232
 8239 2164 00       		.byte	0
 8240 2165 00       		.byte	0
 8241 2166 19       		.uleb128 0x19
 8242 2167 0E000000 		.4byte	.LVL385
 8243 216b 4B280000 		.4byte	0x284b
 8244 216f 7D210000 		.4byte	0x217d
 8245 2173 1A       		.uleb128 0x1a
 8246 2174 01       		.uleb128 0x1
 8247 2175 50       		.byte	0x50
 8248 2176 05       		.uleb128 0x5
 8249 2177 03       		.byte	0x3
 8250 2178 00000000 		.4byte	UART_OUT_RCM_Handler
 8251 217c 00       		.byte	0
 8252 217d 19       		.uleb128 0x19
 8253 217e 14000000 		.4byte	.LVL386
 8254 2182 56280000 		.4byte	0x2856
 8255 2186 94210000 		.4byte	0x2194
 8256 218a 1A       		.uleb128 0x1a
 8257 218b 01       		.uleb128 0x1
ARM GAS  C:\Users\Kiwi\AppData\Local\Temp\cckzbvMb.s 			page 174


 8258 218c 50       		.byte	0x50
 8259 218d 05       		.uleb128 0x5
 8260 218e 03       		.byte	0x3
 8261 218f 00000000 		.4byte	UART_OUT_RCU_Handler
 8262 2193 00       		.byte	0
 8263 2194 19       		.uleb128 0x19
 8264 2195 1A000000 		.4byte	.LVL387
 8265 2199 61280000 		.4byte	0x2861
 8266 219d AB210000 		.4byte	0x21ab
 8267 21a1 1A       		.uleb128 0x1a
 8268 21a2 01       		.uleb128 0x1
 8269 21a3 50       		.byte	0x50
 8270 21a4 05       		.uleb128 0x5
 8271 21a5 03       		.byte	0x3
 8272 21a6 00000000 		.4byte	UART_OUT_ROD_Handler
 8273 21aa 00       		.byte	0
 8274 21ab 19       		.uleb128 0x19
 8275 21ac 20000000 		.4byte	.LVL388
 8276 21b0 6C280000 		.4byte	0x286c
 8277 21b4 C2210000 		.4byte	0x21c2
 8278 21b8 1A       		.uleb128 0x1a
 8279 21b9 01       		.uleb128 0x1
 8280 21ba 50       		.byte	0x50
 8281 21bb 05       		.uleb128 0x5
 8282 21bc 03       		.byte	0x3
 8283 21bd 00000000 		.4byte	UART_OUT_RST_Handler
 8284 21c1 00       		.byte	0
 8285 21c2 19       		.uleb128 0x19
 8286 21c3 26000000 		.4byte	.LVL389
 8287 21c7 77280000 		.4byte	0x2877
 8288 21cb D9210000 		.4byte	0x21d9
 8289 21cf 1A       		.uleb128 0x1a
 8290 21d0 01       		.uleb128 0x1
 8291 21d1 50       		.byte	0x50
 8292 21d2 05       		.uleb128 0x5
 8293 21d3 03       		.byte	0x3
 8294 21d4 00000000 		.4byte	UART_IN_RRD_Handler
 8295 21d8 00       		.byte	0
 8296 21d9 19       		.uleb128 0x19
 8297 21da 2C000000 		.4byte	.LVL390
 8298 21de 82280000 		.4byte	0x2882
 8299 21e2 F0210000 		.4byte	0x21f0
 8300 21e6 1A       		.uleb128 0x1a
 8301 21e7 01       		.uleb128 0x1
 8302 21e8 50       		.byte	0x50
 8303 21e9 05       		.uleb128 0x5
 8304 21ea 03       		.byte	0x3
 8305 21eb 00000000 		.4byte	M1_Int_Handler
 8306 21ef 00       		.byte	0
 8307 21f0 17       		.uleb128 0x17
 8308 21f1 30000000 		.4byte	.LVL391
 8309 21f5 8D280000 		.4byte	0x288d
 8310 21f9 17       		.uleb128 0x17
 8311 21fa 34000000 		.4byte	.LVL392
 8312 21fe 98280000 		.4byte	0x2898
 8313 2202 17       		.uleb128 0x17
 8314 2203 38000000 		.4byte	.LVL393
ARM GAS  C:\Users\Kiwi\AppData\Local\Temp\cckzbvMb.s 			page 175


 8315 2207 A3280000 		.4byte	0x28a3
 8316 220b 17       		.uleb128 0x17
 8317 220c 3C000000 		.4byte	.LVL394
 8318 2210 AE280000 		.4byte	0x28ae
 8319 2214 19       		.uleb128 0x19
 8320 2215 44000000 		.4byte	.LVL395
 8321 2219 B9280000 		.4byte	0x28b9
 8322 221d 2D220000 		.4byte	0x222d
 8323 2221 1A       		.uleb128 0x1a
 8324 2222 01       		.uleb128 0x1
 8325 2223 50       		.byte	0x50
 8326 2224 02       		.uleb128 0x2
 8327 2225 08       		.byte	0x8
 8328 2226 3C       		.byte	0x3c
 8329 2227 1A       		.uleb128 0x1a
 8330 2228 01       		.uleb128 0x1
 8331 2229 51       		.byte	0x51
 8332 222a 01       		.uleb128 0x1
 8333 222b 30       		.byte	0x30
 8334 222c 00       		.byte	0
 8335 222d 17       		.uleb128 0x17
 8336 222e 4E000000 		.4byte	.LVL396
 8337 2232 C4280000 		.4byte	0x28c4
 8338 2236 17       		.uleb128 0x17
 8339 2237 58000000 		.4byte	.LVL397
 8340 223b C4280000 		.4byte	0x28c4
 8341 223f 19       		.uleb128 0x19
 8342 2240 60000000 		.4byte	.LVL398
 8343 2244 CF280000 		.4byte	0x28cf
 8344 2248 53220000 		.4byte	0x2253
 8345 224c 1A       		.uleb128 0x1a
 8346 224d 01       		.uleb128 0x1
 8347 224e 50       		.byte	0x50
 8348 224f 02       		.uleb128 0x2
 8349 2250 08       		.byte	0x8
 8350 2251 3C       		.byte	0x3c
 8351 2252 00       		.byte	0
 8352 2253 17       		.uleb128 0x17
 8353 2254 64000000 		.4byte	.LVL399
 8354 2258 DA280000 		.4byte	0x28da
 8355 225c 19       		.uleb128 0x19
 8356 225d 6A000000 		.4byte	.LVL400
 8357 2261 E5280000 		.4byte	0x28e5
 8358 2265 6F220000 		.4byte	0x226f
 8359 2269 1A       		.uleb128 0x1a
 8360 226a 01       		.uleb128 0x1
 8361 226b 50       		.byte	0x50
 8362 226c 01       		.uleb128 0x1
 8363 226d 32       		.byte	0x32
 8364 226e 00       		.byte	0
 8365 226f 19       		.uleb128 0x19
 8366 2270 70000000 		.4byte	.LVL401
 8367 2274 F0280000 		.4byte	0x28f0
 8368 2278 82220000 		.4byte	0x2282
 8369 227c 1A       		.uleb128 0x1a
 8370 227d 01       		.uleb128 0x1
 8371 227e 50       		.byte	0x50
ARM GAS  C:\Users\Kiwi\AppData\Local\Temp\cckzbvMb.s 			page 176


 8372 227f 01       		.uleb128 0x1
 8373 2280 31       		.byte	0x31
 8374 2281 00       		.byte	0
 8375 2282 19       		.uleb128 0x19
 8376 2283 76000000 		.4byte	.LVL402
 8377 2287 FB280000 		.4byte	0x28fb
 8378 228b 96220000 		.4byte	0x2296
 8379 228f 1A       		.uleb128 0x1a
 8380 2290 01       		.uleb128 0x1
 8381 2291 50       		.byte	0x50
 8382 2292 02       		.uleb128 0x2
 8383 2293 74       		.byte	0x74
 8384 2294 00       		.sleb128 0
 8385 2295 00       		.byte	0
 8386 2296 19       		.uleb128 0x19
 8387 2297 7E000000 		.4byte	.LVL403
 8388 229b 06290000 		.4byte	0x2906
 8389 229f B0220000 		.4byte	0x22b0
 8390 22a3 1A       		.uleb128 0x1a
 8391 22a4 01       		.uleb128 0x1
 8392 22a5 50       		.byte	0x50
 8393 22a6 02       		.uleb128 0x2
 8394 22a7 74       		.byte	0x74
 8395 22a8 00       		.sleb128 0
 8396 22a9 1A       		.uleb128 0x1a
 8397 22aa 01       		.uleb128 0x1
 8398 22ab 51       		.byte	0x51
 8399 22ac 02       		.uleb128 0x2
 8400 22ad 74       		.byte	0x74
 8401 22ae 00       		.sleb128 0
 8402 22af 00       		.byte	0
 8403 22b0 19       		.uleb128 0x19
 8404 22b1 84000000 		.4byte	.LVL404
 8405 22b5 11290000 		.4byte	0x2911
 8406 22b9 C7220000 		.4byte	0x22c7
 8407 22bd 1A       		.uleb128 0x1a
 8408 22be 01       		.uleb128 0x1
 8409 22bf 50       		.byte	0x50
 8410 22c0 05       		.uleb128 0x5
 8411 22c1 03       		.byte	0x3
 8412 22c2 93050000 		.4byte	.LC44
 8413 22c6 00       		.byte	0
 8414 22c7 19       		.uleb128 0x19
 8415 22c8 8A000000 		.4byte	.LVL405
 8416 22cc 11290000 		.4byte	0x2911
 8417 22d0 DE220000 		.4byte	0x22de
 8418 22d4 1A       		.uleb128 0x1a
 8419 22d5 01       		.uleb128 0x1
 8420 22d6 50       		.byte	0x50
 8421 22d7 05       		.uleb128 0x5
 8422 22d8 03       		.byte	0x3
 8423 22d9 9E050000 		.4byte	.LC45
 8424 22dd 00       		.byte	0
 8425 22de 19       		.uleb128 0x19
 8426 22df 90000000 		.4byte	.LVL406
 8427 22e3 11290000 		.4byte	0x2911
 8428 22e7 F5220000 		.4byte	0x22f5
ARM GAS  C:\Users\Kiwi\AppData\Local\Temp\cckzbvMb.s 			page 177


 8429 22eb 1A       		.uleb128 0x1a
 8430 22ec 01       		.uleb128 0x1
 8431 22ed 50       		.byte	0x50
 8432 22ee 05       		.uleb128 0x5
 8433 22ef 03       		.byte	0x3
 8434 22f0 A7050000 		.4byte	.LC46
 8435 22f4 00       		.byte	0
 8436 22f5 17       		.uleb128 0x17
 8437 22f6 94000000 		.4byte	.LVL407
 8438 22fa 1C290000 		.4byte	0x291c
 8439 22fe 17       		.uleb128 0x17
 8440 22ff 98000000 		.4byte	.LVL408
 8441 2303 1F280000 		.4byte	0x281f
 8442 2307 19       		.uleb128 0x19
 8443 2308 A4000000 		.4byte	.LVL409
 8444 230c 27290000 		.4byte	0x2927
 8445 2310 1F230000 		.4byte	0x231f
 8446 2314 1A       		.uleb128 0x1a
 8447 2315 01       		.uleb128 0x1
 8448 2316 50       		.byte	0x50
 8449 2317 01       		.uleb128 0x1
 8450 2318 30       		.byte	0x30
 8451 2319 1A       		.uleb128 0x1a
 8452 231a 01       		.uleb128 0x1
 8453 231b 51       		.byte	0x51
 8454 231c 01       		.uleb128 0x1
 8455 231d 31       		.byte	0x31
 8456 231e 00       		.byte	0
 8457 231f 17       		.uleb128 0x17
 8458 2320 A8000000 		.4byte	.LVL410
 8459 2324 1F280000 		.4byte	0x281f
 8460 2328 17       		.uleb128 0x17
 8461 2329 AE000000 		.4byte	.LVL412
 8462 232d 33290000 		.4byte	0x2933
 8463 2331 17       		.uleb128 0x17
 8464 2332 B4000000 		.4byte	.LVL413
 8465 2336 1F280000 		.4byte	0x281f
 8466 233a 17       		.uleb128 0x17
 8467 233b C0000000 		.4byte	.LVL414
 8468 233f 3F290000 		.4byte	0x293f
 8469 2343 17       		.uleb128 0x17
 8470 2344 C8000000 		.4byte	.LVL415
 8471 2348 1F280000 		.4byte	0x281f
 8472 234c 19       		.uleb128 0x19
 8473 234d D6000000 		.4byte	.LVL416
 8474 2351 CC260000 		.4byte	0x26cc
 8475 2355 5F230000 		.4byte	0x235f
 8476 2359 1A       		.uleb128 0x1a
 8477 235a 01       		.uleb128 0x1
 8478 235b 50       		.byte	0x50
 8479 235c 01       		.uleb128 0x1
 8480 235d 31       		.byte	0x31
 8481 235e 00       		.byte	0
 8482 235f 19       		.uleb128 0x19
 8483 2360 E2000000 		.4byte	.LVL417
 8484 2364 1E040000 		.4byte	0x41e
 8485 2368 76230000 		.4byte	0x2376
ARM GAS  C:\Users\Kiwi\AppData\Local\Temp\cckzbvMb.s 			page 178


 8486 236c 1A       		.uleb128 0x1a
 8487 236d 01       		.uleb128 0x1
 8488 236e 50       		.byte	0x50
 8489 236f 05       		.uleb128 0x5
 8490 2370 03       		.byte	0x3
 8491 2371 B2050000 		.4byte	.LC47
 8492 2375 00       		.byte	0
 8493 2376 19       		.uleb128 0x19
 8494 2377 E8000000 		.4byte	.LVL418
 8495 237b 1E040000 		.4byte	0x41e
 8496 237f 8D230000 		.4byte	0x238d
 8497 2383 1A       		.uleb128 0x1a
 8498 2384 01       		.uleb128 0x1
 8499 2385 50       		.byte	0x50
 8500 2386 05       		.uleb128 0x5
 8501 2387 03       		.byte	0x3
 8502 2388 B3050000 		.4byte	.LC48
 8503 238c 00       		.byte	0
 8504 238d 19       		.uleb128 0x19
 8505 238e EE000000 		.4byte	.LVL419
 8506 2392 1E040000 		.4byte	0x41e
 8507 2396 A4230000 		.4byte	0x23a4
 8508 239a 1A       		.uleb128 0x1a
 8509 239b 01       		.uleb128 0x1
 8510 239c 50       		.byte	0x50
 8511 239d 05       		.uleb128 0x5
 8512 239e 03       		.byte	0x3
 8513 239f E8050000 		.4byte	.LC49
 8514 23a3 00       		.byte	0
 8515 23a4 17       		.uleb128 0x17
 8516 23a5 F2000000 		.4byte	.LVL420
 8517 23a9 4A290000 		.4byte	0x294a
 8518 23ad 19       		.uleb128 0x19
 8519 23ae FC000000 		.4byte	.LVL421
 8520 23b2 55290000 		.4byte	0x2955
 8521 23b6 C1230000 		.4byte	0x23c1
 8522 23ba 1A       		.uleb128 0x1a
 8523 23bb 01       		.uleb128 0x1
 8524 23bc 50       		.byte	0x50
 8525 23bd 02       		.uleb128 0x2
 8526 23be 08       		.byte	0x8
 8527 23bf 20       		.byte	0x20
 8528 23c0 00       		.byte	0
 8529 23c1 19       		.uleb128 0x19
 8530 23c2 02010000 		.4byte	.LVL422
 8531 23c6 1E040000 		.4byte	0x41e
 8532 23ca D8230000 		.4byte	0x23d8
 8533 23ce 1A       		.uleb128 0x1a
 8534 23cf 01       		.uleb128 0x1
 8535 23d0 50       		.byte	0x50
 8536 23d1 05       		.uleb128 0x5
 8537 23d2 03       		.byte	0x3
 8538 23d3 0A060000 		.4byte	.LC50
 8539 23d7 00       		.byte	0
 8540 23d8 19       		.uleb128 0x19
 8541 23d9 0A010000 		.4byte	.LVL423
 8542 23dd 55290000 		.4byte	0x2955
ARM GAS  C:\Users\Kiwi\AppData\Local\Temp\cckzbvMb.s 			page 179


 8543 23e1 EB230000 		.4byte	0x23eb
 8544 23e5 1A       		.uleb128 0x1a
 8545 23e6 01       		.uleb128 0x1
 8546 23e7 50       		.byte	0x50
 8547 23e8 01       		.uleb128 0x1
 8548 23e9 30       		.byte	0x30
 8549 23ea 00       		.byte	0
 8550 23eb 19       		.uleb128 0x19
 8551 23ec 10010000 		.4byte	.LVL424
 8552 23f0 1E040000 		.4byte	0x41e
 8553 23f4 02240000 		.4byte	0x2402
 8554 23f8 1A       		.uleb128 0x1a
 8555 23f9 01       		.uleb128 0x1
 8556 23fa 50       		.byte	0x50
 8557 23fb 05       		.uleb128 0x5
 8558 23fc 03       		.byte	0x3
 8559 23fd 3A060000 		.4byte	.LC51
 8560 2401 00       		.byte	0
 8561 2402 19       		.uleb128 0x19
 8562 2403 16010000 		.4byte	.LVL425
 8563 2407 C0040000 		.4byte	0x4c0
 8564 240b 19240000 		.4byte	0x2419
 8565 240f 1A       		.uleb128 0x1a
 8566 2410 01       		.uleb128 0x1
 8567 2411 50       		.byte	0x50
 8568 2412 05       		.uleb128 0x5
 8569 2413 03       		.byte	0x3
 8570 2414 68060000 		.4byte	.LC52
 8571 2418 00       		.byte	0
 8572 2419 17       		.uleb128 0x17
 8573 241a 26010000 		.4byte	.LVL426
 8574 241e 1E040000 		.4byte	0x41e
 8575 2422 19       		.uleb128 0x19
 8576 2423 30010000 		.4byte	.LVL427
 8577 2427 95260000 		.4byte	0x2695
 8578 242b 35240000 		.4byte	0x2435
 8579 242f 1A       		.uleb128 0x1a
 8580 2430 01       		.uleb128 0x1
 8581 2431 50       		.byte	0x50
 8582 2432 01       		.uleb128 0x1
 8583 2433 31       		.byte	0x31
 8584 2434 00       		.byte	0
 8585 2435 17       		.uleb128 0x17
 8586 2436 34010000 		.4byte	.LVL428
 8587 243a D3030000 		.4byte	0x3d3
 8588 243e 17       		.uleb128 0x17
 8589 243f 38010000 		.4byte	.LVL429
 8590 2443 2A280000 		.4byte	0x282a
 8591 2447 19       		.uleb128 0x19
 8592 2448 44010000 		.4byte	.LVL431
 8593 244c 1E040000 		.4byte	0x41e
 8594 2450 5E240000 		.4byte	0x245e
 8595 2454 1A       		.uleb128 0x1a
 8596 2455 01       		.uleb128 0x1
 8597 2456 50       		.byte	0x50
 8598 2457 05       		.uleb128 0x5
 8599 2458 03       		.byte	0x3
ARM GAS  C:\Users\Kiwi\AppData\Local\Temp\cckzbvMb.s 			page 180


 8600 2459 BD060000 		.4byte	.LC55
 8601 245d 00       		.byte	0
 8602 245e 17       		.uleb128 0x17
 8603 245f 78010000 		.4byte	.LVL433
 8604 2463 60290000 		.4byte	0x2960
 8605 2467 19       		.uleb128 0x19
 8606 2468 A6010000 		.4byte	.LVL434
 8607 246c 1E040000 		.4byte	0x41e
 8608 2470 7E240000 		.4byte	0x247e
 8609 2474 1A       		.uleb128 0x1a
 8610 2475 01       		.uleb128 0x1
 8611 2476 50       		.byte	0x50
 8612 2477 05       		.uleb128 0x5
 8613 2478 03       		.byte	0x3
 8614 2479 C2060000 		.4byte	.LC56
 8615 247d 00       		.byte	0
 8616 247e 17       		.uleb128 0x17
 8617 247f AE010000 		.4byte	.LVL436
 8618 2483 8D280000 		.4byte	0x288d
 8619 2487 17       		.uleb128 0x17
 8620 2488 B2010000 		.4byte	.LVL437
 8621 248c 2A280000 		.4byte	0x282a
 8622 2490 19       		.uleb128 0x19
 8623 2491 B8010000 		.4byte	.LVL438
 8624 2495 1E040000 		.4byte	0x41e
 8625 2499 A7240000 		.4byte	0x24a7
 8626 249d 1A       		.uleb128 0x1a
 8627 249e 01       		.uleb128 0x1
 8628 249f 50       		.byte	0x50
 8629 24a0 05       		.uleb128 0x5
 8630 24a1 03       		.byte	0x3
 8631 24a2 BD060000 		.4byte	.LC55
 8632 24a6 00       		.byte	0
 8633 24a7 19       		.uleb128 0x19
 8634 24a8 D2010000 		.4byte	.LVL440
 8635 24ac 95260000 		.4byte	0x2695
 8636 24b0 BA240000 		.4byte	0x24ba
 8637 24b4 1A       		.uleb128 0x1a
 8638 24b5 01       		.uleb128 0x1
 8639 24b6 50       		.byte	0x50
 8640 24b7 01       		.uleb128 0x1
 8641 24b8 31       		.byte	0x31
 8642 24b9 00       		.byte	0
 8643 24ba 17       		.uleb128 0x17
 8644 24bb D6010000 		.4byte	.LVL441
 8645 24bf 6B290000 		.4byte	0x296b
 8646 24c3 17       		.uleb128 0x17
 8647 24c4 DC010000 		.4byte	.LVL442
 8648 24c8 76290000 		.4byte	0x2976
 8649 24cc 17       		.uleb128 0x17
 8650 24cd E2010000 		.4byte	.LVL443
 8651 24d1 81290000 		.4byte	0x2981
 8652 24d5 17       		.uleb128 0x17
 8653 24d6 E6010000 		.4byte	.LVL444
 8654 24da 7F260000 		.4byte	0x267f
 8655 24de 17       		.uleb128 0x17
 8656 24df F0010000 		.4byte	.LVL445
ARM GAS  C:\Users\Kiwi\AppData\Local\Temp\cckzbvMb.s 			page 181


 8657 24e3 8A260000 		.4byte	0x268a
 8658 24e7 17       		.uleb128 0x17
 8659 24e8 F4010000 		.4byte	.LVL446
 8660 24ec D4270000 		.4byte	0x27d4
 8661 24f0 00       		.byte	0
 8662 24f1 23       		.uleb128 0x23
 8663 24f2 D6000000 		.4byte	0xd6
 8664 24f6 01250000 		.4byte	0x2501
 8665 24fa 24       		.uleb128 0x24
 8666 24fb A1000000 		.4byte	0xa1
 8667 24ff 3F       		.byte	0x3f
 8668 2500 00       		.byte	0
 8669 2501 38       		.uleb128 0x38
 8670 2502 FE000000 		.4byte	.LASF68
 8671 2506 07       		.byte	0x7
 8672 2507 1207     		.2byte	0x712
 8673 2509 0D250000 		.4byte	0x250d
 8674 250d 0B       		.uleb128 0xb
 8675 250e C0000000 		.4byte	0xc0
 8676 2512 39       		.uleb128 0x39
 8677 2513 DA050000 		.4byte	.LASF69
 8678 2517 01       		.byte	0x1
 8679 2518 13       		.byte	0x13
 8680 2519 68000000 		.4byte	0x68
 8681 251d 05       		.uleb128 0x5
 8682 251e 03       		.byte	0x3
 8683 251f 00000000 		.4byte	noUART
 8684 2523 39       		.uleb128 0x39
 8685 2524 AE020000 		.4byte	.LASF70
 8686 2528 01       		.byte	0x1
 8687 2529 14       		.byte	0x14
 8688 252a E2000000 		.4byte	0xe2
 8689 252e 05       		.uleb128 0x5
 8690 252f 03       		.byte	0x3
 8691 2530 00000000 		.4byte	extaddr
 8692 2534 39       		.uleb128 0x39
 8693 2535 96030000 		.4byte	.LASF71
 8694 2539 01       		.byte	0x1
 8695 253a 15       		.byte	0x15
 8696 253b EE000000 		.4byte	0xee
 8697 253f 05       		.uleb128 0x5
 8698 2540 03       		.byte	0x3
 8699 2541 00000000 		.4byte	cntTime
 8700 2545 39       		.uleb128 0x39
 8701 2546 27000000 		.4byte	.LASF72
 8702 254a 01       		.byte	0x1
 8703 254b 16       		.byte	0x16
 8704 254c EE000000 		.4byte	0xee
 8705 2550 05       		.uleb128 0x5
 8706 2551 03       		.byte	0x3
 8707 2552 00000000 		.4byte	cntLines
 8708 2556 39       		.uleb128 0x39
 8709 2557 75040000 		.4byte	.LASF73
 8710 255b 01       		.byte	0x1
 8711 255c 17       		.byte	0x17
 8712 255d EE000000 		.4byte	0xee
 8713 2561 05       		.uleb128 0x5
ARM GAS  C:\Users\Kiwi\AppData\Local\Temp\cckzbvMb.s 			page 182


 8714 2562 03       		.byte	0x3
 8715 2563 00000000 		.4byte	cntErrs
 8716 2567 39       		.uleb128 0x39
 8717 2568 54030000 		.4byte	.LASF74
 8718 256c 01       		.byte	0x1
 8719 256d 18       		.byte	0x18
 8720 256e D6000000 		.4byte	0xd6
 8721 2572 05       		.uleb128 0x5
 8722 2573 03       		.byte	0x3
 8723 2574 00000000 		.4byte	waitForBus
 8724 2578 39       		.uleb128 0x39
 8725 2579 35050000 		.4byte	.LASF75
 8726 257d 01       		.byte	0x1
 8727 257e 1A       		.byte	0x1a
 8728 257f 68000000 		.4byte	0x68
 8729 2583 05       		.uleb128 0x5
 8730 2584 03       		.byte	0x3
 8731 2585 00000000 		.4byte	noOLED
 8732 2589 23       		.uleb128 0x23
 8733 258a 0D010000 		.4byte	0x10d
 8734 258e 99250000 		.4byte	0x2599
 8735 2592 24       		.uleb128 0x24
 8736 2593 A1000000 		.4byte	0xa1
 8737 2597 FF       		.byte	0xff
 8738 2598 00       		.byte	0
 8739 2599 39       		.uleb128 0x39
 8740 259a 39000000 		.4byte	.LASF76
 8741 259e 01       		.byte	0x1
 8742 259f 22       		.byte	0x22
 8743 25a0 89250000 		.4byte	0x2589
 8744 25a4 05       		.uleb128 0x5
 8745 25a5 03       		.byte	0x3
 8746 25a6 00000000 		.4byte	intQueue
 8747 25aa 39       		.uleb128 0x39
 8748 25ab AB060000 		.4byte	.LASF77
 8749 25af 01       		.byte	0x1
 8750 25b0 23       		.byte	0x23
 8751 25b1 08010000 		.4byte	0x108
 8752 25b5 05       		.uleb128 0x5
 8753 25b6 03       		.byte	0x3
 8754 25b7 00000000 		.4byte	intCnt
 8755 25bb 39       		.uleb128 0x39
 8756 25bc 01080000 		.4byte	.LASF78
 8757 25c0 01       		.byte	0x1
 8758 25c1 24       		.byte	0x24
 8759 25c2 08010000 		.4byte	0x108
 8760 25c6 05       		.uleb128 0x5
 8761 25c7 03       		.byte	0x3
 8762 25c8 00000000 		.4byte	rdCnt
 8763 25cc 23       		.uleb128 0x23
 8764 25cd 32010000 		.4byte	0x132
 8765 25d1 DC250000 		.4byte	0x25dc
 8766 25d5 24       		.uleb128 0x24
 8767 25d6 A1000000 		.4byte	0xa1
 8768 25da FF       		.byte	0xff
 8769 25db 00       		.byte	0
 8770 25dc 39       		.uleb128 0x39
ARM GAS  C:\Users\Kiwi\AppData\Local\Temp\cckzbvMb.s 			page 183


 8771 25dd 6E020000 		.4byte	.LASF79
 8772 25e1 01       		.byte	0x1
 8773 25e2 2C       		.byte	0x2c
 8774 25e3 CC250000 		.4byte	0x25cc
 8775 25e7 05       		.uleb128 0x5
 8776 25e8 03       		.byte	0x3
 8777 25e9 00000000 		.4byte	instQueue
 8778 25ed 39       		.uleb128 0x39
 8779 25ee 4F060000 		.4byte	.LASF80
 8780 25f2 01       		.byte	0x1
 8781 25f3 2D       		.byte	0x2d
 8782 25f4 08010000 		.4byte	0x108
 8783 25f8 05       		.uleb128 0x5
 8784 25f9 03       		.byte	0x3
 8785 25fa 00000000 		.4byte	instCnt
 8786 25fe 39       		.uleb128 0x39
 8787 25ff EE070000 		.4byte	.LASF81
 8788 2603 01       		.byte	0x1
 8789 2604 2E       		.byte	0x2e
 8790 2605 08010000 		.4byte	0x108
 8791 2609 05       		.uleb128 0x5
 8792 260a 03       		.byte	0x3
 8793 260b 00000000 		.4byte	instRdCnt
 8794 260f 23       		.uleb128 0x23
 8795 2610 AE000000 		.4byte	0xae
 8796 2614 1F260000 		.4byte	0x261f
 8797 2618 24       		.uleb128 0x24
 8798 2619 A1000000 		.4byte	0xa1
 8799 261d 0F       		.byte	0xf
 8800 261e 00       		.byte	0
 8801 261f 3A       		.uleb128 0x3a
 8802 2620 DD020000 		.4byte	.LASF82
 8803 2624 01       		.byte	0x1
 8804 2625 4602     		.2byte	0x246
 8805 2627 0F260000 		.4byte	0x260f
 8806 262b 05       		.uleb128 0x5
 8807 262c 03       		.byte	0x3
 8808 262d 00000000 		.4byte	HexChar
 8809 2631 23       		.uleb128 0x23
 8810 2632 AE000000 		.4byte	0xae
 8811 2636 41260000 		.4byte	0x2641
 8812 263a 24       		.uleb128 0x24
 8813 263b A1000000 		.4byte	0xa1
 8814 263f 02       		.byte	0x2
 8815 2640 00       		.byte	0
 8816 2641 3B       		.uleb128 0x3b
 8817 2642 64766100 		.ascii	"dva\000"
 8818 2646 01       		.byte	0x1
 8819 2647 4702     		.2byte	0x247
 8820 2649 31260000 		.4byte	0x2631
 8821 264d 05       		.uleb128 0x5
 8822 264e 03       		.byte	0x3
 8823 264f 00000000 		.4byte	dva
 8824 2653 3C       		.uleb128 0x3c
 8825 2654 71030000 		.4byte	.LASF83
 8826 2658 71030000 		.4byte	.LASF83
 8827 265c 08       		.byte	0x8
ARM GAS  C:\Users\Kiwi\AppData\Local\Temp\cckzbvMb.s 			page 184


 8828 265d 30       		.byte	0x30
 8829 265e 3C       		.uleb128 0x3c
 8830 265f E0040000 		.4byte	.LASF84
 8831 2663 E0040000 		.4byte	.LASF84
 8832 2667 09       		.byte	0x9
 8833 2668 30       		.byte	0x30
 8834 2669 3C       		.uleb128 0x3c
 8835 266a 09020000 		.4byte	.LASF85
 8836 266e 09020000 		.4byte	.LASF85
 8837 2672 0A       		.byte	0xa
 8838 2673 30       		.byte	0x30
 8839 2674 3C       		.uleb128 0x3c
 8840 2675 1C080000 		.4byte	.LASF86
 8841 2679 1C080000 		.4byte	.LASF86
 8842 267d 0B       		.byte	0xb
 8843 267e 30       		.byte	0x30
 8844 267f 3C       		.uleb128 0x3c
 8845 2680 13010000 		.4byte	.LASF87
 8846 2684 13010000 		.4byte	.LASF87
 8847 2688 0C       		.byte	0xc
 8848 2689 30       		.byte	0x30
 8849 268a 3C       		.uleb128 0x3c
 8850 268b C5040000 		.4byte	.LASF88
 8851 268f C5040000 		.4byte	.LASF88
 8852 2693 0C       		.byte	0xc
 8853 2694 2F       		.byte	0x2f
 8854 2695 3C       		.uleb128 0x3c
 8855 2696 60040000 		.4byte	.LASF89
 8856 269a 60040000 		.4byte	.LASF89
 8857 269e 0D       		.byte	0xd
 8858 269f 26       		.byte	0x26
 8859 26a0 3C       		.uleb128 0x3c
 8860 26a1 EA060000 		.4byte	.LASF90
 8861 26a5 EA060000 		.4byte	.LASF90
 8862 26a9 0E       		.byte	0xe
 8863 26aa 30       		.byte	0x30
 8864 26ab 3C       		.uleb128 0x3c
 8865 26ac 0A070000 		.4byte	.LASF91
 8866 26b0 0A070000 		.4byte	.LASF91
 8867 26b4 0F       		.byte	0xf
 8868 26b5 30       		.byte	0x30
 8869 26b6 3C       		.uleb128 0x3c
 8870 26b7 F2000000 		.4byte	.LASF92
 8871 26bb F2000000 		.4byte	.LASF92
 8872 26bf 10       		.byte	0x10
 8873 26c0 30       		.byte	0x30
 8874 26c1 3C       		.uleb128 0x3c
 8875 26c2 5B050000 		.4byte	.LASF93
 8876 26c6 5B050000 		.4byte	.LASF93
 8877 26ca 11       		.byte	0x11
 8878 26cb 26       		.byte	0x26
 8879 26cc 3C       		.uleb128 0x3c
 8880 26cd 7C000000 		.4byte	.LASF94
 8881 26d1 7C000000 		.4byte	.LASF94
 8882 26d5 12       		.byte	0x12
 8883 26d6 76       		.byte	0x76
 8884 26d7 3C       		.uleb128 0x3c
ARM GAS  C:\Users\Kiwi\AppData\Local\Temp\cckzbvMb.s 			page 185


 8885 26d8 9D060000 		.4byte	.LASF95
 8886 26dc 9D060000 		.4byte	.LASF95
 8887 26e0 13       		.byte	0x13
 8888 26e1 C5       		.byte	0xc5
 8889 26e2 3C       		.uleb128 0x3c
 8890 26e3 97050000 		.4byte	.LASF96
 8891 26e7 97050000 		.4byte	.LASF96
 8892 26eb 14       		.byte	0x14
 8893 26ec 28       		.byte	0x28
 8894 26ed 3C       		.uleb128 0x3c
 8895 26ee E9040000 		.4byte	.LASF97
 8896 26f2 E9040000 		.4byte	.LASF97
 8897 26f6 14       		.byte	0x14
 8898 26f7 24       		.byte	0x24
 8899 26f8 3C       		.uleb128 0x3c
 8900 26f9 8A070000 		.4byte	.LASF98
 8901 26fd 8A070000 		.4byte	.LASF98
 8902 2701 15       		.byte	0x15
 8903 2702 8B       		.byte	0x8b
 8904 2703 3C       		.uleb128 0x3c
 8905 2704 FD010000 		.4byte	.LASF99
 8906 2708 FD010000 		.4byte	.LASF99
 8907 270c 16       		.byte	0x16
 8908 270d 26       		.byte	0x26
 8909 270e 3C       		.uleb128 0x3c
 8910 270f DE070000 		.4byte	.LASF100
 8911 2713 DE070000 		.4byte	.LASF100
 8912 2717 17       		.byte	0x17
 8913 2718 29       		.byte	0x29
 8914 2719 3C       		.uleb128 0x3c
 8915 271a 29050000 		.4byte	.LASF101
 8916 271e 29050000 		.4byte	.LASF101
 8917 2722 18       		.byte	0x18
 8918 2723 26       		.byte	0x26
 8919 2724 3C       		.uleb128 0x3c
 8920 2725 AA050000 		.4byte	.LASF102
 8921 2729 AA050000 		.4byte	.LASF102
 8922 272d 19       		.byte	0x19
 8923 272e 26       		.byte	0x26
 8924 272f 3C       		.uleb128 0x3c
 8925 2730 78020000 		.4byte	.LASF103
 8926 2734 78020000 		.4byte	.LASF103
 8927 2738 12       		.byte	0x12
 8928 2739 77       		.byte	0x77
 8929 273a 3C       		.uleb128 0x3c
 8930 273b 7B050000 		.4byte	.LASF104
 8931 273f 7B050000 		.4byte	.LASF104
 8932 2743 1A       		.byte	0x1a
 8933 2744 29       		.byte	0x29
 8934 2745 3C       		.uleb128 0x3c
 8935 2746 B6050000 		.4byte	.LASF105
 8936 274a B6050000 		.4byte	.LASF105
 8937 274e 1B       		.byte	0x1b
 8938 274f 2F       		.byte	0x2f
 8939 2750 3C       		.uleb128 0x3c
 8940 2751 F7060000 		.4byte	.LASF106
 8941 2755 F7060000 		.4byte	.LASF106
ARM GAS  C:\Users\Kiwi\AppData\Local\Temp\cckzbvMb.s 			page 186


 8942 2759 19       		.byte	0x19
 8943 275a 27       		.byte	0x27
 8944 275b 3C       		.uleb128 0x3c
 8945 275c 57060000 		.4byte	.LASF107
 8946 2760 57060000 		.4byte	.LASF107
 8947 2764 18       		.byte	0x18
 8948 2765 27       		.byte	0x27
 8949 2766 3C       		.uleb128 0x3c
 8950 2767 35010000 		.4byte	.LASF108
 8951 276b 35010000 		.4byte	.LASF108
 8952 276f 1C       		.byte	0x1c
 8953 2770 2F       		.byte	0x2f
 8954 2771 3C       		.uleb128 0x3c
 8955 2772 45040000 		.4byte	.LASF109
 8956 2776 45040000 		.4byte	.LASF109
 8957 277a 1D       		.byte	0x1d
 8958 277b 26       		.byte	0x26
 8959 277c 3C       		.uleb128 0x3c
 8960 277d 30000000 		.4byte	.LASF110
 8961 2781 30000000 		.4byte	.LASF110
 8962 2785 1E       		.byte	0x1e
 8963 2786 26       		.byte	0x26
 8964 2787 3C       		.uleb128 0x3c
 8965 2788 47070000 		.4byte	.LASF111
 8966 278c 47070000 		.4byte	.LASF111
 8967 2790 1E       		.byte	0x1e
 8968 2791 27       		.byte	0x27
 8969 2792 3C       		.uleb128 0x3c
 8970 2793 F0020000 		.4byte	.LASF112
 8971 2797 F0020000 		.4byte	.LASF112
 8972 279b 1D       		.byte	0x1d
 8973 279c 27       		.byte	0x27
 8974 279d 3C       		.uleb128 0x3c
 8975 279e 07000000 		.4byte	.LASF113
 8976 27a2 07000000 		.4byte	.LASF113
 8977 27a6 1F       		.byte	0x1f
 8978 27a7 26       		.byte	0x26
 8979 27a8 3C       		.uleb128 0x3c
 8980 27a9 57070000 		.4byte	.LASF114
 8981 27ad 57070000 		.4byte	.LASF114
 8982 27b1 20       		.byte	0x20
 8983 27b2 26       		.byte	0x26
 8984 27b3 3C       		.uleb128 0x3c
 8985 27b4 9E070000 		.4byte	.LASF115
 8986 27b8 9E070000 		.4byte	.LASF115
 8987 27bc 20       		.byte	0x20
 8988 27bd 27       		.byte	0x27
 8989 27be 3C       		.uleb128 0x3c
 8990 27bf CF040000 		.4byte	.LASF116
 8991 27c3 CF040000 		.4byte	.LASF116
 8992 27c7 1F       		.byte	0x1f
 8993 27c8 27       		.byte	0x27
 8994 27c9 3C       		.uleb128 0x3c
 8995 27ca D3030000 		.4byte	.LASF117
 8996 27ce D3030000 		.4byte	.LASF117
 8997 27d2 21       		.byte	0x21
 8998 27d3 21       		.byte	0x21
ARM GAS  C:\Users\Kiwi\AppData\Local\Temp\cckzbvMb.s 			page 187


 8999 27d4 3C       		.uleb128 0x3c
 9000 27d5 33030000 		.4byte	.LASF118
 9001 27d9 33030000 		.4byte	.LASF118
 9002 27dd 14       		.byte	0x14
 9003 27de 29       		.byte	0x29
 9004 27df 3C       		.uleb128 0x3c
 9005 27e0 12020000 		.4byte	.LASF119
 9006 27e4 12020000 		.4byte	.LASF119
 9007 27e8 14       		.byte	0x14
 9008 27e9 2B       		.byte	0x2b
 9009 27ea 3C       		.uleb128 0x3c
 9010 27eb EA010000 		.4byte	.LASF120
 9011 27ef EA010000 		.4byte	.LASF120
 9012 27f3 21       		.byte	0x21
 9013 27f4 15       		.byte	0x15
 9014 27f5 3C       		.uleb128 0x3c
 9015 27f6 64000000 		.4byte	.LASF121
 9016 27fa 64000000 		.4byte	.LASF121
 9017 27fe 21       		.byte	0x21
 9018 27ff 24       		.byte	0x24
 9019 2800 3D       		.uleb128 0x3d
 9020 2801 62020000 		.4byte	.LASF162
 9021 2805 62020000 		.4byte	.LASF162
 9022 2809 3C       		.uleb128 0x3c
 9023 280a 8F050000 		.4byte	.LASF122
 9024 280e 8F050000 		.4byte	.LASF122
 9025 2812 21       		.byte	0x21
 9026 2813 23       		.byte	0x23
 9027 2814 3C       		.uleb128 0x3c
 9028 2815 11000000 		.4byte	.LASF123
 9029 2819 11000000 		.4byte	.LASF123
 9030 281d 21       		.byte	0x21
 9031 281e 1C       		.byte	0x1c
 9032 281f 3C       		.uleb128 0x3c
 9033 2820 1C060000 		.4byte	.LASF124
 9034 2824 1C060000 		.4byte	.LASF124
 9035 2828 22       		.byte	0x22
 9036 2829 5D       		.byte	0x5d
 9037 282a 3C       		.uleb128 0x3c
 9038 282b D6060000 		.4byte	.LASF125
 9039 282f D6060000 		.4byte	.LASF125
 9040 2833 23       		.byte	0x23
 9041 2834 28       		.byte	0x28
 9042 2835 3C       		.uleb128 0x3c
 9043 2836 99020000 		.4byte	.LASF126
 9044 283a 99020000 		.4byte	.LASF126
 9045 283e 23       		.byte	0x23
 9046 283f 23       		.byte	0x23
 9047 2840 3C       		.uleb128 0x3c
 9048 2841 10050000 		.4byte	.LASF127
 9049 2845 10050000 		.4byte	.LASF127
 9050 2849 14       		.byte	0x14
 9051 284a 25       		.byte	0x25
 9052 284b 3C       		.uleb128 0x3c
 9053 284c 6C000000 		.4byte	.LASF128
 9054 2850 6C000000 		.4byte	.LASF128
 9055 2854 24       		.byte	0x24
ARM GAS  C:\Users\Kiwi\AppData\Local\Temp\cckzbvMb.s 			page 188


 9056 2855 18       		.byte	0x18
 9057 2856 3C       		.uleb128 0x3c
 9058 2857 CE070000 		.4byte	.LASF129
 9059 285b CE070000 		.4byte	.LASF129
 9060 285f 25       		.byte	0x25
 9061 2860 18       		.byte	0x18
 9062 2861 3C       		.uleb128 0x3c
 9063 2862 2A020000 		.4byte	.LASF130
 9064 2866 2A020000 		.4byte	.LASF130
 9065 286a 26       		.byte	0x26
 9066 286b 18       		.byte	0x18
 9067 286c 3C       		.uleb128 0x3c
 9068 286d 42000000 		.4byte	.LASF131
 9069 2871 42000000 		.4byte	.LASF131
 9070 2875 27       		.byte	0x27
 9071 2876 18       		.byte	0x18
 9072 2877 3C       		.uleb128 0x3c
 9073 2878 F7030000 		.4byte	.LASF132
 9074 287c F7030000 		.4byte	.LASF132
 9075 2880 28       		.byte	0x28
 9076 2881 18       		.byte	0x18
 9077 2882 3C       		.uleb128 0x3c
 9078 2883 18000000 		.4byte	.LASF133
 9079 2887 18000000 		.4byte	.LASF133
 9080 288b 23       		.byte	0x23
 9081 288c 18       		.byte	0x18
 9082 288d 3C       		.uleb128 0x3c
 9083 288e B6020000 		.4byte	.LASF134
 9084 2892 B6020000 		.4byte	.LASF134
 9085 2896 23       		.byte	0x23
 9086 2897 25       		.byte	0x25
 9087 2898 3C       		.uleb128 0x3c
 9088 2899 47030000 		.4byte	.LASF135
 9089 289d 47030000 		.4byte	.LASF135
 9090 28a1 22       		.byte	0x22
 9091 28a2 4F       		.byte	0x4f
 9092 28a3 3C       		.uleb128 0x3c
 9093 28a4 11040000 		.4byte	.LASF136
 9094 28a8 11040000 		.4byte	.LASF136
 9095 28ac 29       		.byte	0x29
 9096 28ad 93       		.byte	0x93
 9097 28ae 3C       		.uleb128 0x3c
 9098 28af 9B000000 		.4byte	.LASF137
 9099 28b3 9B000000 		.4byte	.LASF137
 9100 28b7 15       		.byte	0x15
 9101 28b8 54       		.byte	0x54
 9102 28b9 3C       		.uleb128 0x3c
 9103 28ba C5020000 		.4byte	.LASF138
 9104 28be C5020000 		.4byte	.LASF138
 9105 28c2 29       		.byte	0x29
 9106 28c3 B1       		.byte	0xb1
 9107 28c4 3C       		.uleb128 0x3c
 9108 28c5 B2060000 		.4byte	.LASF139
 9109 28c9 B2060000 		.4byte	.LASF139
 9110 28cd 29       		.byte	0x29
 9111 28ce B5       		.byte	0xb5
 9112 28cf 3C       		.uleb128 0x3c
ARM GAS  C:\Users\Kiwi\AppData\Local\Temp\cckzbvMb.s 			page 189


 9113 28d0 C9060000 		.4byte	.LASF140
 9114 28d4 C9060000 		.4byte	.LASF140
 9115 28d8 2A       		.byte	0x2a
 9116 28d9 34       		.byte	0x34
 9117 28da 3C       		.uleb128 0x3c
 9118 28db B7040000 		.4byte	.LASF141
 9119 28df B7040000 		.4byte	.LASF141
 9120 28e3 2A       		.byte	0x2a
 9121 28e4 36       		.byte	0x36
 9122 28e5 3C       		.uleb128 0x3c
 9123 28e6 00030000 		.4byte	.LASF142
 9124 28ea 00030000 		.4byte	.LASF142
 9125 28ee 2A       		.byte	0x2a
 9126 28ef 42       		.byte	0x42
 9127 28f0 3C       		.uleb128 0x3c
 9128 28f1 47020000 		.4byte	.LASF143
 9129 28f5 47020000 		.4byte	.LASF143
 9130 28f9 2A       		.byte	0x2a
 9131 28fa 43       		.byte	0x43
 9132 28fb 3C       		.uleb128 0x3c
 9133 28fc EE050000 		.4byte	.LASF144
 9134 2900 EE050000 		.4byte	.LASF144
 9135 2904 2A       		.byte	0x2a
 9136 2905 44       		.byte	0x44
 9137 2906 3C       		.uleb128 0x3c
 9138 2907 07080000 		.4byte	.LASF145
 9139 290b 07080000 		.4byte	.LASF145
 9140 290f 2A       		.byte	0x2a
 9141 2910 41       		.byte	0x41
 9142 2911 3C       		.uleb128 0x3c
 9143 2912 F1010000 		.4byte	.LASF146
 9144 2916 F1010000 		.4byte	.LASF146
 9145 291a 2A       		.byte	0x2a
 9146 291b 49       		.byte	0x49
 9147 291c 3C       		.uleb128 0x3c
 9148 291d 2F060000 		.4byte	.LASF147
 9149 2921 2F060000 		.4byte	.LASF147
 9150 2925 2A       		.byte	0x2a
 9151 2926 35       		.byte	0x35
 9152 2927 3E       		.uleb128 0x3e
 9153 2928 C5030000 		.4byte	.LASF148
 9154 292c C5030000 		.4byte	.LASF148
 9155 2930 2B       		.byte	0x2b
 9156 2931 2A01     		.2byte	0x12a
 9157 2933 3E       		.uleb128 0x3e
 9158 2934 1C010000 		.4byte	.LASF149
 9159 2938 1C010000 		.4byte	.LASF149
 9160 293c 2B       		.byte	0x2b
 9161 293d 2D01     		.2byte	0x12d
 9162 293f 3C       		.uleb128 0x3c
 9163 2940 02060000 		.4byte	.LASF150
 9164 2944 02060000 		.4byte	.LASF150
 9165 2948 14       		.byte	0x14
 9166 2949 22       		.byte	0x22
 9167 294a 3C       		.uleb128 0x3c
 9168 294b 1D030000 		.4byte	.LASF151
 9169 294f 1D030000 		.4byte	.LASF151
ARM GAS  C:\Users\Kiwi\AppData\Local\Temp\cckzbvMb.s 			page 190


 9170 2953 2C       		.byte	0x2c
 9171 2954 29       		.byte	0x29
 9172 2955 3C       		.uleb128 0x3c
 9173 2956 33040000 		.4byte	.LASF152
 9174 295a 33040000 		.4byte	.LASF152
 9175 295e 2D       		.byte	0x2d
 9176 295f 2F       		.byte	0x2f
 9177 2960 3C       		.uleb128 0x3c
 9178 2961 3A020000 		.4byte	.LASF153
 9179 2965 3A020000 		.4byte	.LASF153
 9180 2969 15       		.byte	0x15
 9181 296a 8A       		.byte	0x8a
 9182 296b 3C       		.uleb128 0x3c
 9183 296c 25070000 		.4byte	.LASF154
 9184 2970 25070000 		.4byte	.LASF154
 9185 2974 15       		.byte	0x15
 9186 2975 73       		.byte	0x73
 9187 2976 3C       		.uleb128 0x3c
 9188 2977 10030000 		.4byte	.LASF155
 9189 297b 10030000 		.4byte	.LASF155
 9190 297f 15       		.byte	0x15
 9191 2980 72       		.byte	0x72
 9192 2981 3C       		.uleb128 0x3c
 9193 2982 DA030000 		.4byte	.LASF156
 9194 2986 DA030000 		.4byte	.LASF156
 9195 298a 2E       		.byte	0x2e
 9196 298b 2F       		.byte	0x2f
 9197 298c 00       		.byte	0
 9198              		.section	.debug_abbrev,"",%progbits
 9199              	.Ldebug_abbrev0:
 9200 0000 01       		.uleb128 0x1
 9201 0001 11       		.uleb128 0x11
 9202 0002 01       		.byte	0x1
 9203 0003 25       		.uleb128 0x25
 9204 0004 0E       		.uleb128 0xe
 9205 0005 13       		.uleb128 0x13
 9206 0006 0B       		.uleb128 0xb
 9207 0007 03       		.uleb128 0x3
 9208 0008 0E       		.uleb128 0xe
 9209 0009 1B       		.uleb128 0x1b
 9210 000a 0E       		.uleb128 0xe
 9211 000b 55       		.uleb128 0x55
 9212 000c 17       		.uleb128 0x17
 9213 000d 11       		.uleb128 0x11
 9214 000e 01       		.uleb128 0x1
 9215 000f 10       		.uleb128 0x10
 9216 0010 17       		.uleb128 0x17
 9217 0011 00       		.byte	0
 9218 0012 00       		.byte	0
 9219 0013 02       		.uleb128 0x2
 9220 0014 24       		.uleb128 0x24
 9221 0015 00       		.byte	0
 9222 0016 0B       		.uleb128 0xb
 9223 0017 0B       		.uleb128 0xb
 9224 0018 3E       		.uleb128 0x3e
 9225 0019 0B       		.uleb128 0xb
 9226 001a 03       		.uleb128 0x3
ARM GAS  C:\Users\Kiwi\AppData\Local\Temp\cckzbvMb.s 			page 191


 9227 001b 0E       		.uleb128 0xe
 9228 001c 00       		.byte	0
 9229 001d 00       		.byte	0
 9230 001e 03       		.uleb128 0x3
 9231 001f 16       		.uleb128 0x16
 9232 0020 00       		.byte	0
 9233 0021 03       		.uleb128 0x3
 9234 0022 0E       		.uleb128 0xe
 9235 0023 3A       		.uleb128 0x3a
 9236 0024 0B       		.uleb128 0xb
 9237 0025 3B       		.uleb128 0x3b
 9238 0026 0B       		.uleb128 0xb
 9239 0027 49       		.uleb128 0x49
 9240 0028 13       		.uleb128 0x13
 9241 0029 00       		.byte	0
 9242 002a 00       		.byte	0
 9243 002b 04       		.uleb128 0x4
 9244 002c 24       		.uleb128 0x24
 9245 002d 00       		.byte	0
 9246 002e 0B       		.uleb128 0xb
 9247 002f 0B       		.uleb128 0xb
 9248 0030 3E       		.uleb128 0x3e
 9249 0031 0B       		.uleb128 0xb
 9250 0032 03       		.uleb128 0x3
 9251 0033 08       		.uleb128 0x8
 9252 0034 00       		.byte	0
 9253 0035 00       		.byte	0
 9254 0036 05       		.uleb128 0x5
 9255 0037 13       		.uleb128 0x13
 9256 0038 01       		.byte	0x1
 9257 0039 03       		.uleb128 0x3
 9258 003a 0E       		.uleb128 0xe
 9259 003b 0B       		.uleb128 0xb
 9260 003c 0B       		.uleb128 0xb
 9261 003d 3A       		.uleb128 0x3a
 9262 003e 0B       		.uleb128 0xb
 9263 003f 3B       		.uleb128 0x3b
 9264 0040 0B       		.uleb128 0xb
 9265 0041 01       		.uleb128 0x1
 9266 0042 13       		.uleb128 0x13
 9267 0043 00       		.byte	0
 9268 0044 00       		.byte	0
 9269 0045 06       		.uleb128 0x6
 9270 0046 0D       		.uleb128 0xd
 9271 0047 00       		.byte	0
 9272 0048 03       		.uleb128 0x3
 9273 0049 0E       		.uleb128 0xe
 9274 004a 49       		.uleb128 0x49
 9275 004b 13       		.uleb128 0x13
 9276 004c 38       		.uleb128 0x38
 9277 004d 0B       		.uleb128 0xb
 9278 004e 34       		.uleb128 0x34
 9279 004f 19       		.uleb128 0x19
 9280 0050 00       		.byte	0
 9281 0051 00       		.byte	0
 9282 0052 07       		.uleb128 0x7
 9283 0053 0F       		.uleb128 0xf
ARM GAS  C:\Users\Kiwi\AppData\Local\Temp\cckzbvMb.s 			page 192


 9284 0054 00       		.byte	0
 9285 0055 0B       		.uleb128 0xb
 9286 0056 0B       		.uleb128 0xb
 9287 0057 00       		.byte	0
 9288 0058 00       		.byte	0
 9289 0059 08       		.uleb128 0x8
 9290 005a 0F       		.uleb128 0xf
 9291 005b 00       		.byte	0
 9292 005c 0B       		.uleb128 0xb
 9293 005d 0B       		.uleb128 0xb
 9294 005e 49       		.uleb128 0x49
 9295 005f 13       		.uleb128 0x13
 9296 0060 00       		.byte	0
 9297 0061 00       		.byte	0
 9298 0062 09       		.uleb128 0x9
 9299 0063 26       		.uleb128 0x26
 9300 0064 00       		.byte	0
 9301 0065 49       		.uleb128 0x49
 9302 0066 13       		.uleb128 0x13
 9303 0067 00       		.byte	0
 9304 0068 00       		.byte	0
 9305 0069 0A       		.uleb128 0xa
 9306 006a 16       		.uleb128 0x16
 9307 006b 00       		.byte	0
 9308 006c 03       		.uleb128 0x3
 9309 006d 0E       		.uleb128 0xe
 9310 006e 3A       		.uleb128 0x3a
 9311 006f 0B       		.uleb128 0xb
 9312 0070 3B       		.uleb128 0x3b
 9313 0071 05       		.uleb128 0x5
 9314 0072 49       		.uleb128 0x49
 9315 0073 13       		.uleb128 0x13
 9316 0074 00       		.byte	0
 9317 0075 00       		.byte	0
 9318 0076 0B       		.uleb128 0xb
 9319 0077 35       		.uleb128 0x35
 9320 0078 00       		.byte	0
 9321 0079 49       		.uleb128 0x49
 9322 007a 13       		.uleb128 0x13
 9323 007b 00       		.byte	0
 9324 007c 00       		.byte	0
 9325 007d 0C       		.uleb128 0xc
 9326 007e 0D       		.uleb128 0xd
 9327 007f 00       		.byte	0
 9328 0080 03       		.uleb128 0x3
 9329 0081 0E       		.uleb128 0xe
 9330 0082 3A       		.uleb128 0x3a
 9331 0083 0B       		.uleb128 0xb
 9332 0084 3B       		.uleb128 0x3b
 9333 0085 0B       		.uleb128 0xb
 9334 0086 49       		.uleb128 0x49
 9335 0087 13       		.uleb128 0x13
 9336 0088 38       		.uleb128 0x38
 9337 0089 0B       		.uleb128 0xb
 9338 008a 00       		.byte	0
 9339 008b 00       		.byte	0
 9340 008c 0D       		.uleb128 0xd
ARM GAS  C:\Users\Kiwi\AppData\Local\Temp\cckzbvMb.s 			page 193


 9341 008d 2E       		.uleb128 0x2e
 9342 008e 00       		.byte	0
 9343 008f 3F       		.uleb128 0x3f
 9344 0090 19       		.uleb128 0x19
 9345 0091 03       		.uleb128 0x3
 9346 0092 0E       		.uleb128 0xe
 9347 0093 3A       		.uleb128 0x3a
 9348 0094 0B       		.uleb128 0xb
 9349 0095 3B       		.uleb128 0x3b
 9350 0096 0B       		.uleb128 0xb
 9351 0097 49       		.uleb128 0x49
 9352 0098 13       		.uleb128 0x13
 9353 0099 20       		.uleb128 0x20
 9354 009a 0B       		.uleb128 0xb
 9355 009b 00       		.byte	0
 9356 009c 00       		.byte	0
 9357 009d 0E       		.uleb128 0xe
 9358 009e 2E       		.uleb128 0x2e
 9359 009f 01       		.byte	0x1
 9360 00a0 3F       		.uleb128 0x3f
 9361 00a1 19       		.uleb128 0x19
 9362 00a2 03       		.uleb128 0x3
 9363 00a3 0E       		.uleb128 0xe
 9364 00a4 3A       		.uleb128 0x3a
 9365 00a5 0B       		.uleb128 0xb
 9366 00a6 3B       		.uleb128 0x3b
 9367 00a7 05       		.uleb128 0x5
 9368 00a8 27       		.uleb128 0x27
 9369 00a9 19       		.uleb128 0x19
 9370 00aa 20       		.uleb128 0x20
 9371 00ab 0B       		.uleb128 0xb
 9372 00ac 01       		.uleb128 0x1
 9373 00ad 13       		.uleb128 0x13
 9374 00ae 00       		.byte	0
 9375 00af 00       		.byte	0
 9376 00b0 0F       		.uleb128 0xf
 9377 00b1 05       		.uleb128 0x5
 9378 00b2 00       		.byte	0
 9379 00b3 03       		.uleb128 0x3
 9380 00b4 0E       		.uleb128 0xe
 9381 00b5 3A       		.uleb128 0x3a
 9382 00b6 0B       		.uleb128 0xb
 9383 00b7 3B       		.uleb128 0x3b
 9384 00b8 05       		.uleb128 0x5
 9385 00b9 49       		.uleb128 0x49
 9386 00ba 13       		.uleb128 0x13
 9387 00bb 00       		.byte	0
 9388 00bc 00       		.byte	0
 9389 00bd 10       		.uleb128 0x10
 9390 00be 34       		.uleb128 0x34
 9391 00bf 00       		.byte	0
 9392 00c0 03       		.uleb128 0x3
 9393 00c1 08       		.uleb128 0x8
 9394 00c2 3A       		.uleb128 0x3a
 9395 00c3 0B       		.uleb128 0xb
 9396 00c4 3B       		.uleb128 0x3b
 9397 00c5 05       		.uleb128 0x5
ARM GAS  C:\Users\Kiwi\AppData\Local\Temp\cckzbvMb.s 			page 194


 9398 00c6 49       		.uleb128 0x49
 9399 00c7 13       		.uleb128 0x13
 9400 00c8 00       		.byte	0
 9401 00c9 00       		.byte	0
 9402 00ca 11       		.uleb128 0x11
 9403 00cb 0B       		.uleb128 0xb
 9404 00cc 01       		.byte	0x1
 9405 00cd 00       		.byte	0
 9406 00ce 00       		.byte	0
 9407 00cf 12       		.uleb128 0x12
 9408 00d0 2E       		.uleb128 0x2e
 9409 00d1 01       		.byte	0x1
 9410 00d2 3F       		.uleb128 0x3f
 9411 00d3 19       		.uleb128 0x19
 9412 00d4 03       		.uleb128 0x3
 9413 00d5 0E       		.uleb128 0xe
 9414 00d6 3A       		.uleb128 0x3a
 9415 00d7 0B       		.uleb128 0xb
 9416 00d8 3B       		.uleb128 0x3b
 9417 00d9 05       		.uleb128 0x5
 9418 00da 20       		.uleb128 0x20
 9419 00db 0B       		.uleb128 0xb
 9420 00dc 01       		.uleb128 0x1
 9421 00dd 13       		.uleb128 0x13
 9422 00de 00       		.byte	0
 9423 00df 00       		.byte	0
 9424 00e0 13       		.uleb128 0x13
 9425 00e1 34       		.uleb128 0x34
 9426 00e2 00       		.byte	0
 9427 00e3 03       		.uleb128 0x3
 9428 00e4 0E       		.uleb128 0xe
 9429 00e5 3A       		.uleb128 0x3a
 9430 00e6 0B       		.uleb128 0xb
 9431 00e7 3B       		.uleb128 0x3b
 9432 00e8 05       		.uleb128 0x5
 9433 00e9 49       		.uleb128 0x49
 9434 00ea 13       		.uleb128 0x13
 9435 00eb 00       		.byte	0
 9436 00ec 00       		.byte	0
 9437 00ed 14       		.uleb128 0x14
 9438 00ee 0B       		.uleb128 0xb
 9439 00ef 01       		.byte	0x1
 9440 00f0 01       		.uleb128 0x1
 9441 00f1 13       		.uleb128 0x13
 9442 00f2 00       		.byte	0
 9443 00f3 00       		.byte	0
 9444 00f4 15       		.uleb128 0x15
 9445 00f5 05       		.uleb128 0x5
 9446 00f6 00       		.byte	0
 9447 00f7 03       		.uleb128 0x3
 9448 00f8 08       		.uleb128 0x8
 9449 00f9 3A       		.uleb128 0x3a
 9450 00fa 0B       		.uleb128 0xb
 9451 00fb 3B       		.uleb128 0x3b
 9452 00fc 05       		.uleb128 0x5
 9453 00fd 49       		.uleb128 0x49
 9454 00fe 13       		.uleb128 0x13
ARM GAS  C:\Users\Kiwi\AppData\Local\Temp\cckzbvMb.s 			page 195


 9455 00ff 00       		.byte	0
 9456 0100 00       		.byte	0
 9457 0101 16       		.uleb128 0x16
 9458 0102 2E       		.uleb128 0x2e
 9459 0103 01       		.byte	0x1
 9460 0104 3F       		.uleb128 0x3f
 9461 0105 19       		.uleb128 0x19
 9462 0106 03       		.uleb128 0x3
 9463 0107 0E       		.uleb128 0xe
 9464 0108 3A       		.uleb128 0x3a
 9465 0109 0B       		.uleb128 0xb
 9466 010a 3B       		.uleb128 0x3b
 9467 010b 0B       		.uleb128 0xb
 9468 010c 27       		.uleb128 0x27
 9469 010d 19       		.uleb128 0x19
 9470 010e 11       		.uleb128 0x11
 9471 010f 01       		.uleb128 0x1
 9472 0110 12       		.uleb128 0x12
 9473 0111 06       		.uleb128 0x6
 9474 0112 40       		.uleb128 0x40
 9475 0113 18       		.uleb128 0x18
 9476 0114 9742     		.uleb128 0x2117
 9477 0116 19       		.uleb128 0x19
 9478 0117 01       		.uleb128 0x1
 9479 0118 13       		.uleb128 0x13
 9480 0119 00       		.byte	0
 9481 011a 00       		.byte	0
 9482 011b 17       		.uleb128 0x17
 9483 011c 898201   		.uleb128 0x4109
 9484 011f 00       		.byte	0
 9485 0120 11       		.uleb128 0x11
 9486 0121 01       		.uleb128 0x1
 9487 0122 31       		.uleb128 0x31
 9488 0123 13       		.uleb128 0x13
 9489 0124 00       		.byte	0
 9490 0125 00       		.byte	0
 9491 0126 18       		.uleb128 0x18
 9492 0127 898201   		.uleb128 0x4109
 9493 012a 00       		.byte	0
 9494 012b 11       		.uleb128 0x11
 9495 012c 01       		.uleb128 0x1
 9496 012d 9542     		.uleb128 0x2115
 9497 012f 19       		.uleb128 0x19
 9498 0130 31       		.uleb128 0x31
 9499 0131 13       		.uleb128 0x13
 9500 0132 00       		.byte	0
 9501 0133 00       		.byte	0
 9502 0134 19       		.uleb128 0x19
 9503 0135 898201   		.uleb128 0x4109
 9504 0138 01       		.byte	0x1
 9505 0139 11       		.uleb128 0x11
 9506 013a 01       		.uleb128 0x1
 9507 013b 31       		.uleb128 0x31
 9508 013c 13       		.uleb128 0x13
 9509 013d 01       		.uleb128 0x1
 9510 013e 13       		.uleb128 0x13
 9511 013f 00       		.byte	0
ARM GAS  C:\Users\Kiwi\AppData\Local\Temp\cckzbvMb.s 			page 196


 9512 0140 00       		.byte	0
 9513 0141 1A       		.uleb128 0x1a
 9514 0142 8A8201   		.uleb128 0x410a
 9515 0145 00       		.byte	0
 9516 0146 02       		.uleb128 0x2
 9517 0147 18       		.uleb128 0x18
 9518 0148 9142     		.uleb128 0x2111
 9519 014a 18       		.uleb128 0x18
 9520 014b 00       		.byte	0
 9521 014c 00       		.byte	0
 9522 014d 1B       		.uleb128 0x1b
 9523 014e 2E       		.uleb128 0x2e
 9524 014f 01       		.byte	0x1
 9525 0150 3F       		.uleb128 0x3f
 9526 0151 19       		.uleb128 0x19
 9527 0152 03       		.uleb128 0x3
 9528 0153 0E       		.uleb128 0xe
 9529 0154 3A       		.uleb128 0x3a
 9530 0155 0B       		.uleb128 0xb
 9531 0156 3B       		.uleb128 0x3b
 9532 0157 0B       		.uleb128 0xb
 9533 0158 11       		.uleb128 0x11
 9534 0159 01       		.uleb128 0x1
 9535 015a 12       		.uleb128 0x12
 9536 015b 06       		.uleb128 0x6
 9537 015c 40       		.uleb128 0x40
 9538 015d 18       		.uleb128 0x18
 9539 015e 9742     		.uleb128 0x2117
 9540 0160 19       		.uleb128 0x19
 9541 0161 01       		.uleb128 0x1
 9542 0162 13       		.uleb128 0x13
 9543 0163 00       		.byte	0
 9544 0164 00       		.byte	0
 9545 0165 1C       		.uleb128 0x1c
 9546 0166 898201   		.uleb128 0x4109
 9547 0169 01       		.byte	0x1
 9548 016a 11       		.uleb128 0x11
 9549 016b 01       		.uleb128 0x1
 9550 016c 9542     		.uleb128 0x2115
 9551 016e 19       		.uleb128 0x19
 9552 016f 31       		.uleb128 0x31
 9553 0170 13       		.uleb128 0x13
 9554 0171 00       		.byte	0
 9555 0172 00       		.byte	0
 9556 0173 1D       		.uleb128 0x1d
 9557 0174 2E       		.uleb128 0x2e
 9558 0175 01       		.byte	0x1
 9559 0176 3F       		.uleb128 0x3f
 9560 0177 19       		.uleb128 0x19
 9561 0178 03       		.uleb128 0x3
 9562 0179 0E       		.uleb128 0xe
 9563 017a 3A       		.uleb128 0x3a
 9564 017b 0B       		.uleb128 0xb
 9565 017c 3B       		.uleb128 0x3b
 9566 017d 0B       		.uleb128 0xb
 9567 017e 27       		.uleb128 0x27
 9568 017f 19       		.uleb128 0x19
ARM GAS  C:\Users\Kiwi\AppData\Local\Temp\cckzbvMb.s 			page 197


 9569 0180 49       		.uleb128 0x49
 9570 0181 13       		.uleb128 0x13
 9571 0182 11       		.uleb128 0x11
 9572 0183 01       		.uleb128 0x1
 9573 0184 12       		.uleb128 0x12
 9574 0185 06       		.uleb128 0x6
 9575 0186 40       		.uleb128 0x40
 9576 0187 18       		.uleb128 0x18
 9577 0188 9742     		.uleb128 0x2117
 9578 018a 19       		.uleb128 0x19
 9579 018b 01       		.uleb128 0x1
 9580 018c 13       		.uleb128 0x13
 9581 018d 00       		.byte	0
 9582 018e 00       		.byte	0
 9583 018f 1E       		.uleb128 0x1e
 9584 0190 05       		.uleb128 0x5
 9585 0191 00       		.byte	0
 9586 0192 03       		.uleb128 0x3
 9587 0193 0E       		.uleb128 0xe
 9588 0194 3A       		.uleb128 0x3a
 9589 0195 0B       		.uleb128 0xb
 9590 0196 3B       		.uleb128 0x3b
 9591 0197 0B       		.uleb128 0xb
 9592 0198 49       		.uleb128 0x49
 9593 0199 13       		.uleb128 0x13
 9594 019a 02       		.uleb128 0x2
 9595 019b 18       		.uleb128 0x18
 9596 019c 00       		.byte	0
 9597 019d 00       		.byte	0
 9598 019e 1F       		.uleb128 0x1f
 9599 019f 18       		.uleb128 0x18
 9600 01a0 00       		.byte	0
 9601 01a1 00       		.byte	0
 9602 01a2 00       		.byte	0
 9603 01a3 20       		.uleb128 0x20
 9604 01a4 34       		.uleb128 0x34
 9605 01a5 00       		.byte	0
 9606 01a6 03       		.uleb128 0x3
 9607 01a7 0E       		.uleb128 0xe
 9608 01a8 3A       		.uleb128 0x3a
 9609 01a9 0B       		.uleb128 0xb
 9610 01aa 3B       		.uleb128 0x3b
 9611 01ab 0B       		.uleb128 0xb
 9612 01ac 49       		.uleb128 0x49
 9613 01ad 13       		.uleb128 0x13
 9614 01ae 02       		.uleb128 0x2
 9615 01af 18       		.uleb128 0x18
 9616 01b0 00       		.byte	0
 9617 01b1 00       		.byte	0
 9618 01b2 21       		.uleb128 0x21
 9619 01b3 34       		.uleb128 0x34
 9620 01b4 00       		.byte	0
 9621 01b5 03       		.uleb128 0x3
 9622 01b6 08       		.uleb128 0x8
 9623 01b7 3A       		.uleb128 0x3a
 9624 01b8 0B       		.uleb128 0xb
 9625 01b9 3B       		.uleb128 0x3b
ARM GAS  C:\Users\Kiwi\AppData\Local\Temp\cckzbvMb.s 			page 198


 9626 01ba 0B       		.uleb128 0xb
 9627 01bb 49       		.uleb128 0x49
 9628 01bc 13       		.uleb128 0x13
 9629 01bd 02       		.uleb128 0x2
 9630 01be 17       		.uleb128 0x17
 9631 01bf 00       		.byte	0
 9632 01c0 00       		.byte	0
 9633 01c1 22       		.uleb128 0x22
 9634 01c2 898201   		.uleb128 0x4109
 9635 01c5 01       		.byte	0x1
 9636 01c6 11       		.uleb128 0x11
 9637 01c7 01       		.uleb128 0x1
 9638 01c8 31       		.uleb128 0x31
 9639 01c9 13       		.uleb128 0x13
 9640 01ca 00       		.byte	0
 9641 01cb 00       		.byte	0
 9642 01cc 23       		.uleb128 0x23
 9643 01cd 01       		.uleb128 0x1
 9644 01ce 01       		.byte	0x1
 9645 01cf 49       		.uleb128 0x49
 9646 01d0 13       		.uleb128 0x13
 9647 01d1 01       		.uleb128 0x1
 9648 01d2 13       		.uleb128 0x13
 9649 01d3 00       		.byte	0
 9650 01d4 00       		.byte	0
 9651 01d5 24       		.uleb128 0x24
 9652 01d6 21       		.uleb128 0x21
 9653 01d7 00       		.byte	0
 9654 01d8 49       		.uleb128 0x49
 9655 01d9 13       		.uleb128 0x13
 9656 01da 2F       		.uleb128 0x2f
 9657 01db 0B       		.uleb128 0xb
 9658 01dc 00       		.byte	0
 9659 01dd 00       		.byte	0
 9660 01de 25       		.uleb128 0x25
 9661 01df 2E       		.uleb128 0x2e
 9662 01e0 01       		.byte	0x1
 9663 01e1 31       		.uleb128 0x31
 9664 01e2 13       		.uleb128 0x13
 9665 01e3 11       		.uleb128 0x11
 9666 01e4 01       		.uleb128 0x1
 9667 01e5 12       		.uleb128 0x12
 9668 01e6 06       		.uleb128 0x6
 9669 01e7 40       		.uleb128 0x40
 9670 01e8 18       		.uleb128 0x18
 9671 01e9 9742     		.uleb128 0x2117
 9672 01eb 19       		.uleb128 0x19
 9673 01ec 01       		.uleb128 0x1
 9674 01ed 13       		.uleb128 0x13
 9675 01ee 00       		.byte	0
 9676 01ef 00       		.byte	0
 9677 01f0 26       		.uleb128 0x26
 9678 01f1 05       		.uleb128 0x5
 9679 01f2 00       		.byte	0
 9680 01f3 31       		.uleb128 0x31
 9681 01f4 13       		.uleb128 0x13
 9682 01f5 02       		.uleb128 0x2
ARM GAS  C:\Users\Kiwi\AppData\Local\Temp\cckzbvMb.s 			page 199


 9683 01f6 17       		.uleb128 0x17
 9684 01f7 00       		.byte	0
 9685 01f8 00       		.byte	0
 9686 01f9 27       		.uleb128 0x27
 9687 01fa 34       		.uleb128 0x34
 9688 01fb 00       		.byte	0
 9689 01fc 31       		.uleb128 0x31
 9690 01fd 13       		.uleb128 0x13
 9691 01fe 00       		.byte	0
 9692 01ff 00       		.byte	0
 9693 0200 28       		.uleb128 0x28
 9694 0201 0B       		.uleb128 0xb
 9695 0202 01       		.byte	0x1
 9696 0203 55       		.uleb128 0x55
 9697 0204 17       		.uleb128 0x17
 9698 0205 01       		.uleb128 0x1
 9699 0206 13       		.uleb128 0x13
 9700 0207 00       		.byte	0
 9701 0208 00       		.byte	0
 9702 0209 29       		.uleb128 0x29
 9703 020a 0B       		.uleb128 0xb
 9704 020b 01       		.byte	0x1
 9705 020c 55       		.uleb128 0x55
 9706 020d 17       		.uleb128 0x17
 9707 020e 00       		.byte	0
 9708 020f 00       		.byte	0
 9709 0210 2A       		.uleb128 0x2a
 9710 0211 34       		.uleb128 0x34
 9711 0212 00       		.byte	0
 9712 0213 31       		.uleb128 0x31
 9713 0214 13       		.uleb128 0x13
 9714 0215 02       		.uleb128 0x2
 9715 0216 17       		.uleb128 0x17
 9716 0217 00       		.byte	0
 9717 0218 00       		.byte	0
 9718 0219 2B       		.uleb128 0x2b
 9719 021a 0B       		.uleb128 0xb
 9720 021b 01       		.byte	0x1
 9721 021c 11       		.uleb128 0x11
 9722 021d 01       		.uleb128 0x1
 9723 021e 12       		.uleb128 0x12
 9724 021f 06       		.uleb128 0x6
 9725 0220 01       		.uleb128 0x1
 9726 0221 13       		.uleb128 0x13
 9727 0222 00       		.byte	0
 9728 0223 00       		.byte	0
 9729 0224 2C       		.uleb128 0x2c
 9730 0225 34       		.uleb128 0x34
 9731 0226 00       		.byte	0
 9732 0227 31       		.uleb128 0x31
 9733 0228 13       		.uleb128 0x13
 9734 0229 1C       		.uleb128 0x1c
 9735 022a 0B       		.uleb128 0xb
 9736 022b 00       		.byte	0
 9737 022c 00       		.byte	0
 9738 022d 2D       		.uleb128 0x2d
 9739 022e 34       		.uleb128 0x34
ARM GAS  C:\Users\Kiwi\AppData\Local\Temp\cckzbvMb.s 			page 200


 9740 022f 00       		.byte	0
 9741 0230 31       		.uleb128 0x31
 9742 0231 13       		.uleb128 0x13
 9743 0232 1C       		.uleb128 0x1c
 9744 0233 06       		.uleb128 0x6
 9745 0234 00       		.byte	0
 9746 0235 00       		.byte	0
 9747 0236 2E       		.uleb128 0x2e
 9748 0237 2E       		.uleb128 0x2e
 9749 0238 01       		.byte	0x1
 9750 0239 3F       		.uleb128 0x3f
 9751 023a 19       		.uleb128 0x19
 9752 023b 03       		.uleb128 0x3
 9753 023c 0E       		.uleb128 0xe
 9754 023d 3A       		.uleb128 0x3a
 9755 023e 0B       		.uleb128 0xb
 9756 023f 3B       		.uleb128 0x3b
 9757 0240 05       		.uleb128 0x5
 9758 0241 27       		.uleb128 0x27
 9759 0242 19       		.uleb128 0x19
 9760 0243 11       		.uleb128 0x11
 9761 0244 01       		.uleb128 0x1
 9762 0245 12       		.uleb128 0x12
 9763 0246 06       		.uleb128 0x6
 9764 0247 40       		.uleb128 0x40
 9765 0248 18       		.uleb128 0x18
 9766 0249 9742     		.uleb128 0x2117
 9767 024b 19       		.uleb128 0x19
 9768 024c 01       		.uleb128 0x1
 9769 024d 13       		.uleb128 0x13
 9770 024e 00       		.byte	0
 9771 024f 00       		.byte	0
 9772 0250 2F       		.uleb128 0x2f
 9773 0251 05       		.uleb128 0x5
 9774 0252 00       		.byte	0
 9775 0253 03       		.uleb128 0x3
 9776 0254 0E       		.uleb128 0xe
 9777 0255 3A       		.uleb128 0x3a
 9778 0256 0B       		.uleb128 0xb
 9779 0257 3B       		.uleb128 0x3b
 9780 0258 05       		.uleb128 0x5
 9781 0259 49       		.uleb128 0x49
 9782 025a 13       		.uleb128 0x13
 9783 025b 02       		.uleb128 0x2
 9784 025c 17       		.uleb128 0x17
 9785 025d 00       		.byte	0
 9786 025e 00       		.byte	0
 9787 025f 30       		.uleb128 0x30
 9788 0260 2E       		.uleb128 0x2e
 9789 0261 01       		.byte	0x1
 9790 0262 3F       		.uleb128 0x3f
 9791 0263 19       		.uleb128 0x19
 9792 0264 03       		.uleb128 0x3
 9793 0265 0E       		.uleb128 0xe
 9794 0266 3A       		.uleb128 0x3a
 9795 0267 0B       		.uleb128 0xb
 9796 0268 3B       		.uleb128 0x3b
ARM GAS  C:\Users\Kiwi\AppData\Local\Temp\cckzbvMb.s 			page 201


 9797 0269 05       		.uleb128 0x5
 9798 026a 27       		.uleb128 0x27
 9799 026b 19       		.uleb128 0x19
 9800 026c 49       		.uleb128 0x49
 9801 026d 13       		.uleb128 0x13
 9802 026e 11       		.uleb128 0x11
 9803 026f 01       		.uleb128 0x1
 9804 0270 12       		.uleb128 0x12
 9805 0271 06       		.uleb128 0x6
 9806 0272 40       		.uleb128 0x40
 9807 0273 18       		.uleb128 0x18
 9808 0274 9742     		.uleb128 0x2117
 9809 0276 19       		.uleb128 0x19
 9810 0277 01       		.uleb128 0x1
 9811 0278 13       		.uleb128 0x13
 9812 0279 00       		.byte	0
 9813 027a 00       		.byte	0
 9814 027b 31       		.uleb128 0x31
 9815 027c 34       		.uleb128 0x34
 9816 027d 00       		.byte	0
 9817 027e 03       		.uleb128 0x3
 9818 027f 08       		.uleb128 0x8
 9819 0280 3A       		.uleb128 0x3a
 9820 0281 0B       		.uleb128 0xb
 9821 0282 3B       		.uleb128 0x3b
 9822 0283 05       		.uleb128 0x5
 9823 0284 49       		.uleb128 0x49
 9824 0285 13       		.uleb128 0x13
 9825 0286 02       		.uleb128 0x2
 9826 0287 18       		.uleb128 0x18
 9827 0288 00       		.byte	0
 9828 0289 00       		.byte	0
 9829 028a 32       		.uleb128 0x32
 9830 028b 2E       		.uleb128 0x2e
 9831 028c 01       		.byte	0x1
 9832 028d 3F       		.uleb128 0x3f
 9833 028e 19       		.uleb128 0x19
 9834 028f 03       		.uleb128 0x3
 9835 0290 0E       		.uleb128 0xe
 9836 0291 3A       		.uleb128 0x3a
 9837 0292 0B       		.uleb128 0xb
 9838 0293 3B       		.uleb128 0x3b
 9839 0294 05       		.uleb128 0x5
 9840 0295 11       		.uleb128 0x11
 9841 0296 01       		.uleb128 0x1
 9842 0297 12       		.uleb128 0x12
 9843 0298 06       		.uleb128 0x6
 9844 0299 40       		.uleb128 0x40
 9845 029a 18       		.uleb128 0x18
 9846 029b 9742     		.uleb128 0x2117
 9847 029d 19       		.uleb128 0x19
 9848 029e 01       		.uleb128 0x1
 9849 029f 13       		.uleb128 0x13
 9850 02a0 00       		.byte	0
 9851 02a1 00       		.byte	0
 9852 02a2 33       		.uleb128 0x33
 9853 02a3 34       		.uleb128 0x34
ARM GAS  C:\Users\Kiwi\AppData\Local\Temp\cckzbvMb.s 			page 202


 9854 02a4 00       		.byte	0
 9855 02a5 03       		.uleb128 0x3
 9856 02a6 08       		.uleb128 0x8
 9857 02a7 3A       		.uleb128 0x3a
 9858 02a8 0B       		.uleb128 0xb
 9859 02a9 3B       		.uleb128 0x3b
 9860 02aa 05       		.uleb128 0x5
 9861 02ab 49       		.uleb128 0x49
 9862 02ac 13       		.uleb128 0x13
 9863 02ad 02       		.uleb128 0x2
 9864 02ae 17       		.uleb128 0x17
 9865 02af 00       		.byte	0
 9866 02b0 00       		.byte	0
 9867 02b1 34       		.uleb128 0x34
 9868 02b2 34       		.uleb128 0x34
 9869 02b3 00       		.byte	0
 9870 02b4 03       		.uleb128 0x3
 9871 02b5 0E       		.uleb128 0xe
 9872 02b6 3A       		.uleb128 0x3a
 9873 02b7 0B       		.uleb128 0xb
 9874 02b8 3B       		.uleb128 0x3b
 9875 02b9 05       		.uleb128 0x5
 9876 02ba 49       		.uleb128 0x49
 9877 02bb 13       		.uleb128 0x13
 9878 02bc 02       		.uleb128 0x2
 9879 02bd 18       		.uleb128 0x18
 9880 02be 00       		.byte	0
 9881 02bf 00       		.byte	0
 9882 02c0 35       		.uleb128 0x35
 9883 02c1 34       		.uleb128 0x34
 9884 02c2 00       		.byte	0
 9885 02c3 03       		.uleb128 0x3
 9886 02c4 0E       		.uleb128 0xe
 9887 02c5 3A       		.uleb128 0x3a
 9888 02c6 0B       		.uleb128 0xb
 9889 02c7 3B       		.uleb128 0x3b
 9890 02c8 05       		.uleb128 0x5
 9891 02c9 49       		.uleb128 0x49
 9892 02ca 13       		.uleb128 0x13
 9893 02cb 02       		.uleb128 0x2
 9894 02cc 17       		.uleb128 0x17
 9895 02cd 00       		.byte	0
 9896 02ce 00       		.byte	0
 9897 02cf 36       		.uleb128 0x36
 9898 02d0 2E       		.uleb128 0x2e
 9899 02d1 01       		.byte	0x1
 9900 02d2 3F       		.uleb128 0x3f
 9901 02d3 19       		.uleb128 0x19
 9902 02d4 03       		.uleb128 0x3
 9903 02d5 0E       		.uleb128 0xe
 9904 02d6 3A       		.uleb128 0x3a
 9905 02d7 0B       		.uleb128 0xb
 9906 02d8 3B       		.uleb128 0x3b
 9907 02d9 05       		.uleb128 0x5
 9908 02da 27       		.uleb128 0x27
 9909 02db 19       		.uleb128 0x19
 9910 02dc 49       		.uleb128 0x49
ARM GAS  C:\Users\Kiwi\AppData\Local\Temp\cckzbvMb.s 			page 203


 9911 02dd 13       		.uleb128 0x13
 9912 02de 8701     		.uleb128 0x87
 9913 02e0 19       		.uleb128 0x19
 9914 02e1 11       		.uleb128 0x11
 9915 02e2 01       		.uleb128 0x1
 9916 02e3 12       		.uleb128 0x12
 9917 02e4 06       		.uleb128 0x6
 9918 02e5 40       		.uleb128 0x40
 9919 02e6 18       		.uleb128 0x18
 9920 02e7 9742     		.uleb128 0x2117
 9921 02e9 19       		.uleb128 0x19
 9922 02ea 01       		.uleb128 0x1
 9923 02eb 13       		.uleb128 0x13
 9924 02ec 00       		.byte	0
 9925 02ed 00       		.byte	0
 9926 02ee 37       		.uleb128 0x37
 9927 02ef 0B       		.uleb128 0xb
 9928 02f0 01       		.byte	0x1
 9929 02f1 11       		.uleb128 0x11
 9930 02f2 01       		.uleb128 0x1
 9931 02f3 12       		.uleb128 0x12
 9932 02f4 06       		.uleb128 0x6
 9933 02f5 00       		.byte	0
 9934 02f6 00       		.byte	0
 9935 02f7 38       		.uleb128 0x38
 9936 02f8 34       		.uleb128 0x34
 9937 02f9 00       		.byte	0
 9938 02fa 03       		.uleb128 0x3
 9939 02fb 0E       		.uleb128 0xe
 9940 02fc 3A       		.uleb128 0x3a
 9941 02fd 0B       		.uleb128 0xb
 9942 02fe 3B       		.uleb128 0x3b
 9943 02ff 05       		.uleb128 0x5
 9944 0300 49       		.uleb128 0x49
 9945 0301 13       		.uleb128 0x13
 9946 0302 3F       		.uleb128 0x3f
 9947 0303 19       		.uleb128 0x19
 9948 0304 3C       		.uleb128 0x3c
 9949 0305 19       		.uleb128 0x19
 9950 0306 00       		.byte	0
 9951 0307 00       		.byte	0
 9952 0308 39       		.uleb128 0x39
 9953 0309 34       		.uleb128 0x34
 9954 030a 00       		.byte	0
 9955 030b 03       		.uleb128 0x3
 9956 030c 0E       		.uleb128 0xe
 9957 030d 3A       		.uleb128 0x3a
 9958 030e 0B       		.uleb128 0xb
 9959 030f 3B       		.uleb128 0x3b
 9960 0310 0B       		.uleb128 0xb
 9961 0311 49       		.uleb128 0x49
 9962 0312 13       		.uleb128 0x13
 9963 0313 3F       		.uleb128 0x3f
 9964 0314 19       		.uleb128 0x19
 9965 0315 02       		.uleb128 0x2
 9966 0316 18       		.uleb128 0x18
 9967 0317 00       		.byte	0
ARM GAS  C:\Users\Kiwi\AppData\Local\Temp\cckzbvMb.s 			page 204


 9968 0318 00       		.byte	0
 9969 0319 3A       		.uleb128 0x3a
 9970 031a 34       		.uleb128 0x34
 9971 031b 00       		.byte	0
 9972 031c 03       		.uleb128 0x3
 9973 031d 0E       		.uleb128 0xe
 9974 031e 3A       		.uleb128 0x3a
 9975 031f 0B       		.uleb128 0xb
 9976 0320 3B       		.uleb128 0x3b
 9977 0321 05       		.uleb128 0x5
 9978 0322 49       		.uleb128 0x49
 9979 0323 13       		.uleb128 0x13
 9980 0324 3F       		.uleb128 0x3f
 9981 0325 19       		.uleb128 0x19
 9982 0326 02       		.uleb128 0x2
 9983 0327 18       		.uleb128 0x18
 9984 0328 00       		.byte	0
 9985 0329 00       		.byte	0
 9986 032a 3B       		.uleb128 0x3b
 9987 032b 34       		.uleb128 0x34
 9988 032c 00       		.byte	0
 9989 032d 03       		.uleb128 0x3
 9990 032e 08       		.uleb128 0x8
 9991 032f 3A       		.uleb128 0x3a
 9992 0330 0B       		.uleb128 0xb
 9993 0331 3B       		.uleb128 0x3b
 9994 0332 05       		.uleb128 0x5
 9995 0333 49       		.uleb128 0x49
 9996 0334 13       		.uleb128 0x13
 9997 0335 3F       		.uleb128 0x3f
 9998 0336 19       		.uleb128 0x19
 9999 0337 02       		.uleb128 0x2
 10000 0338 18       		.uleb128 0x18
 10001 0339 00       		.byte	0
 10002 033a 00       		.byte	0
 10003 033b 3C       		.uleb128 0x3c
 10004 033c 2E       		.uleb128 0x2e
 10005 033d 00       		.byte	0
 10006 033e 3F       		.uleb128 0x3f
 10007 033f 19       		.uleb128 0x19
 10008 0340 3C       		.uleb128 0x3c
 10009 0341 19       		.uleb128 0x19
 10010 0342 6E       		.uleb128 0x6e
 10011 0343 0E       		.uleb128 0xe
 10012 0344 03       		.uleb128 0x3
 10013 0345 0E       		.uleb128 0xe
 10014 0346 3A       		.uleb128 0x3a
 10015 0347 0B       		.uleb128 0xb
 10016 0348 3B       		.uleb128 0x3b
 10017 0349 0B       		.uleb128 0xb
 10018 034a 00       		.byte	0
 10019 034b 00       		.byte	0
 10020 034c 3D       		.uleb128 0x3d
 10021 034d 2E       		.uleb128 0x2e
 10022 034e 00       		.byte	0
 10023 034f 3F       		.uleb128 0x3f
 10024 0350 19       		.uleb128 0x19
ARM GAS  C:\Users\Kiwi\AppData\Local\Temp\cckzbvMb.s 			page 205


 10025 0351 3C       		.uleb128 0x3c
 10026 0352 19       		.uleb128 0x19
 10027 0353 6E       		.uleb128 0x6e
 10028 0354 0E       		.uleb128 0xe
 10029 0355 03       		.uleb128 0x3
 10030 0356 0E       		.uleb128 0xe
 10031 0357 00       		.byte	0
 10032 0358 00       		.byte	0
 10033 0359 3E       		.uleb128 0x3e
 10034 035a 2E       		.uleb128 0x2e
 10035 035b 00       		.byte	0
 10036 035c 3F       		.uleb128 0x3f
 10037 035d 19       		.uleb128 0x19
 10038 035e 3C       		.uleb128 0x3c
 10039 035f 19       		.uleb128 0x19
 10040 0360 6E       		.uleb128 0x6e
 10041 0361 0E       		.uleb128 0xe
 10042 0362 03       		.uleb128 0x3
 10043 0363 0E       		.uleb128 0xe
 10044 0364 3A       		.uleb128 0x3a
 10045 0365 0B       		.uleb128 0xb
 10046 0366 3B       		.uleb128 0x3b
 10047 0367 05       		.uleb128 0x5
 10048 0368 00       		.byte	0
 10049 0369 00       		.byte	0
 10050 036a 00       		.byte	0
 10051              		.section	.debug_loc,"",%progbits
 10052              	.Ldebug_loc0:
 10053              	.LLST0:
 10054 0000 1A000000 		.4byte	.LVL15
 10055 0004 2C000000 		.4byte	.LVL18
 10056 0008 0100     		.2byte	0x1
 10057 000a 54       		.byte	0x54
 10058 000b 00000000 		.4byte	0
 10059 000f 00000000 		.4byte	0
 10060              	.LLST1:
 10061 0013 16000000 		.4byte	.LVL21
 10062 0017 18000000 		.4byte	.LVL22
 10063 001b 0100     		.2byte	0x1
 10064 001d 50       		.byte	0x50
 10065 001e 18000000 		.4byte	.LVL22
 10066 0022 24000000 		.4byte	.LVL24
 10067 0026 0100     		.2byte	0x1
 10068 0028 54       		.byte	0x54
 10069 0029 24000000 		.4byte	.LVL24
 10070 002d 28000000 		.4byte	.LFE72
 10071 0031 0100     		.2byte	0x1
 10072 0033 50       		.byte	0x50
 10073 0034 00000000 		.4byte	0
 10074 0038 00000000 		.4byte	0
 10075              	.LLST2:
 10076 003c 00000000 		.4byte	.LVL49
 10077 0040 07000000 		.4byte	.LVL50-1
 10078 0044 0100     		.2byte	0x1
 10079 0046 50       		.byte	0x50
 10080 0047 07000000 		.4byte	.LVL50-1
 10081 004b B4000000 		.4byte	.LFE78
ARM GAS  C:\Users\Kiwi\AppData\Local\Temp\cckzbvMb.s 			page 206


 10082 004f 0400     		.2byte	0x4
 10083 0051 F3       		.byte	0xf3
 10084 0052 01       		.uleb128 0x1
 10085 0053 50       		.byte	0x50
 10086 0054 9F       		.byte	0x9f
 10087 0055 00000000 		.4byte	0
 10088 0059 00000000 		.4byte	0
 10089              	.LLST3:
 10090 005d 0C000000 		.4byte	.LVL51
 10091 0061 A0000000 		.4byte	.LVL75
 10092 0065 0100     		.2byte	0x1
 10093 0067 55       		.byte	0x55
 10094 0068 00000000 		.4byte	0
 10095 006c 00000000 		.4byte	0
 10096              	.LLST4:
 10097 0070 54000000 		.4byte	.LVL63
 10098 0074 7E000000 		.4byte	.LVL69
 10099 0078 0100     		.2byte	0x1
 10100 007a 57       		.byte	0x57
 10101 007b 00000000 		.4byte	0
 10102 007f 00000000 		.4byte	0
 10103              	.LLST5:
 10104 0083 32000000 		.4byte	.LVL58
 10105 0087 A0000000 		.4byte	.LVL75
 10106 008b 0100     		.2byte	0x1
 10107 008d 54       		.byte	0x54
 10108 008e 00000000 		.4byte	0
 10109 0092 00000000 		.4byte	0
 10110              	.LLST6:
 10111 0096 C0000000 		.4byte	.LVL107
 10112 009a 10020000 		.4byte	.LVL157
 10113 009e 0100     		.2byte	0x1
 10114 00a0 58       		.byte	0x58
 10115 00a1 00000000 		.4byte	0
 10116 00a5 00000000 		.4byte	0
 10117              	.LLST7:
 10118 00a9 D0000000 		.4byte	.LVL109
 10119 00ad 1C010000 		.4byte	.LVL120
 10120 00b1 0100     		.2byte	0x1
 10121 00b3 56       		.byte	0x56
 10122 00b4 BA010000 		.4byte	.LVL144
 10123 00b8 C7010000 		.4byte	.LVL145-1
 10124 00bc 0100     		.2byte	0x1
 10125 00be 52       		.byte	0x52
 10126 00bf 00000000 		.4byte	0
 10127 00c3 00000000 		.4byte	0
 10128              	.LLST8:
 10129 00c7 A0000000 		.4byte	.LVL101
 10130 00cb A2000000 		.4byte	.LVL102
 10131 00cf 0200     		.2byte	0x2
 10132 00d1 30       		.byte	0x30
 10133 00d2 9F       		.byte	0x9f
 10134 00d3 A2000000 		.4byte	.LVL102
 10135 00d7 10020000 		.4byte	.LVL157
 10136 00db 0100     		.2byte	0x1
 10137 00dd 55       		.byte	0x55
 10138 00de 00000000 		.4byte	0
ARM GAS  C:\Users\Kiwi\AppData\Local\Temp\cckzbvMb.s 			page 207


 10139 00e2 00000000 		.4byte	0
 10140              	.LLST9:
 10141 00e6 32000000 		.4byte	.LVL84
 10142 00ea 34000000 		.4byte	.LVL85
 10143 00ee 0200     		.2byte	0x2
 10144 00f0 30       		.byte	0x30
 10145 00f1 9F       		.byte	0x9f
 10146 00f2 34000000 		.4byte	.LVL85
 10147 00f6 86000000 		.4byte	.LVL98
 10148 00fa 0100     		.2byte	0x1
 10149 00fc 54       		.byte	0x54
 10150 00fd 86000000 		.4byte	.LVL98
 10151 0101 8C000000 		.4byte	.LVL99
 10152 0105 0300     		.2byte	0x3
 10153 0107 74       		.byte	0x74
 10154 0108 7E       		.sleb128 -2
 10155 0109 9F       		.byte	0x9f
 10156 010a 8C000000 		.4byte	.LVL99
 10157 010e A2000000 		.4byte	.LVL102
 10158 0112 0100     		.2byte	0x1
 10159 0114 54       		.byte	0x54
 10160 0115 00000000 		.4byte	0
 10161 0119 00000000 		.4byte	0
 10162              	.LLST10:
 10163 011d A0000000 		.4byte	.LVL101
 10164 0121 A2000000 		.4byte	.LVL102
 10165 0125 0200     		.2byte	0x2
 10166 0127 30       		.byte	0x30
 10167 0128 9F       		.byte	0x9f
 10168 0129 A2000000 		.4byte	.LVL102
 10169 012d 1C010000 		.4byte	.LVL120
 10170 0131 0100     		.2byte	0x1
 10171 0133 54       		.byte	0x54
 10172 0134 00000000 		.4byte	0
 10173 0138 00000000 		.4byte	0
 10174              	.LLST11:
 10175 013c 1A010000 		.4byte	.LVL119
 10176 0140 1C010000 		.4byte	.LVL120
 10177 0144 0200     		.2byte	0x2
 10178 0146 30       		.byte	0x30
 10179 0147 9F       		.byte	0x9f
 10180 0148 1C010000 		.4byte	.LVL120
 10181 014c 72010000 		.4byte	.LVL133
 10182 0150 0100     		.2byte	0x1
 10183 0152 54       		.byte	0x54
 10184 0153 72010000 		.4byte	.LVL133
 10185 0157 78010000 		.4byte	.LVL134
 10186 015b 0300     		.2byte	0x3
 10187 015d 74       		.byte	0x74
 10188 015e 7E       		.sleb128 -2
 10189 015f 9F       		.byte	0x9f
 10190 0160 78010000 		.4byte	.LVL134
 10191 0164 8C010000 		.4byte	.LVL137
 10192 0168 0100     		.2byte	0x1
 10193 016a 54       		.byte	0x54
 10194 016b 00000000 		.4byte	0
 10195 016f 00000000 		.4byte	0
ARM GAS  C:\Users\Kiwi\AppData\Local\Temp\cckzbvMb.s 			page 208


 10196              	.LLST12:
 10197 0173 8A010000 		.4byte	.LVL136
 10198 0177 8C010000 		.4byte	.LVL137
 10199 017b 0200     		.2byte	0x2
 10200 017d 30       		.byte	0x30
 10201 017e 9F       		.byte	0x9f
 10202 017f 8C010000 		.4byte	.LVL137
 10203 0183 10020000 		.4byte	.LVL157
 10204 0187 0100     		.2byte	0x1
 10205 0189 56       		.byte	0x56
 10206 018a 00000000 		.4byte	0
 10207 018e 00000000 		.4byte	0
 10208              	.LLST13:
 10209 0192 68000000 		.4byte	.LVL176
 10210 0196 B2010000 		.4byte	.LVL230
 10211 019a 0100     		.2byte	0x1
 10212 019c 56       		.byte	0x56
 10213 019d 00000000 		.4byte	0
 10214 01a1 00000000 		.4byte	0
 10215              	.LLST14:
 10216 01a5 42000000 		.4byte	.LVL169
 10217 01a9 48000000 		.4byte	.LVL170
 10218 01ad 0200     		.2byte	0x2
 10219 01af 30       		.byte	0x30
 10220 01b0 9F       		.byte	0x9f
 10221 01b1 48000000 		.4byte	.LVL170
 10222 01b5 C4000000 		.4byte	.LVL191
 10223 01b9 0100     		.2byte	0x1
 10224 01bb 54       		.byte	0x54
 10225 01bc C6000000 		.4byte	.LVL192
 10226 01c0 22010000 		.4byte	.LVL207
 10227 01c4 0100     		.2byte	0x1
 10228 01c6 54       		.byte	0x54
 10229 01c7 24010000 		.4byte	.LVL208
 10230 01cb B2010000 		.4byte	.LVL230
 10231 01cf 0100     		.2byte	0x1
 10232 01d1 54       		.byte	0x54
 10233 01d2 00000000 		.4byte	0
 10234 01d6 00000000 		.4byte	0
 10235              	.LLST15:
 10236 01da 42000000 		.4byte	.LVL169
 10237 01de 48000000 		.4byte	.LVL170
 10238 01e2 0400     		.2byte	0x4
 10239 01e4 0A       		.byte	0xa
 10240 01e5 00F8     		.2byte	0xf800
 10241 01e7 9F       		.byte	0x9f
 10242 01e8 48000000 		.4byte	.LVL170
 10243 01ec 5C010000 		.4byte	.LVL218
 10244 01f0 0100     		.2byte	0x1
 10245 01f2 55       		.byte	0x55
 10246 01f3 5C010000 		.4byte	.LVL218
 10247 01f7 62010000 		.4byte	.LVL219
 10248 01fb 0300     		.2byte	0x3
 10249 01fd 75       		.byte	0x75
 10250 01fe 7F       		.sleb128 -1
 10251 01ff 9F       		.byte	0x9f
 10252 0200 62010000 		.4byte	.LVL219
ARM GAS  C:\Users\Kiwi\AppData\Local\Temp\cckzbvMb.s 			page 209


 10253 0204 B2010000 		.4byte	.LVL230
 10254 0208 0100     		.2byte	0x1
 10255 020a 55       		.byte	0x55
 10256 020b 00000000 		.4byte	0
 10257 020f 00000000 		.4byte	0
 10258              	.LLST16:
 10259 0213 00000000 		.4byte	.LVL232
 10260 0217 07000000 		.4byte	.LVL233-1
 10261 021b 0100     		.2byte	0x1
 10262 021d 50       		.byte	0x50
 10263 021e 07000000 		.4byte	.LVL233-1
 10264 0222 30000000 		.4byte	.LFE80
 10265 0226 0400     		.2byte	0x4
 10266 0228 F3       		.byte	0xf3
 10267 0229 01       		.uleb128 0x1
 10268 022a 50       		.byte	0x50
 10269 022b 9F       		.byte	0x9f
 10270 022c 00000000 		.4byte	0
 10271 0230 00000000 		.4byte	0
 10272              	.LLST17:
 10273 0234 00000000 		.4byte	.LVL232
 10274 0238 07000000 		.4byte	.LVL233-1
 10275 023c 0100     		.2byte	0x1
 10276 023e 51       		.byte	0x51
 10277 023f 07000000 		.4byte	.LVL233-1
 10278 0243 30000000 		.4byte	.LFE80
 10279 0247 0400     		.2byte	0x4
 10280 0249 F3       		.byte	0xf3
 10281 024a 01       		.uleb128 0x1
 10282 024b 51       		.byte	0x51
 10283 024c 9F       		.byte	0x9f
 10284 024d 00000000 		.4byte	0
 10285 0251 00000000 		.4byte	0
 10286              	.LLST18:
 10287 0255 00000000 		.4byte	.LVL240
 10288 0259 05000000 		.4byte	.LVL241-1
 10289 025d 0100     		.2byte	0x1
 10290 025f 50       		.byte	0x50
 10291 0260 05000000 		.4byte	.LVL241-1
 10292 0264 22000000 		.4byte	.LFE81
 10293 0268 0400     		.2byte	0x4
 10294 026a F3       		.byte	0xf3
 10295 026b 01       		.uleb128 0x1
 10296 026c 50       		.byte	0x50
 10297 026d 9F       		.byte	0x9f
 10298 026e 00000000 		.4byte	0
 10299 0272 00000000 		.4byte	0
 10300              	.LLST19:
 10301 0276 10000000 		.4byte	.LVL248
 10302 027a 12010000 		.4byte	.LVL290
 10303 027e 0200     		.2byte	0x2
 10304 0280 30       		.byte	0x30
 10305 0281 9F       		.byte	0x9f
 10306 0282 00000000 		.4byte	0
 10307 0286 00000000 		.4byte	0
 10308              	.LLST20:
 10309 028a 9C000000 		.4byte	.LVL271
ARM GAS  C:\Users\Kiwi\AppData\Local\Temp\cckzbvMb.s 			page 210


 10310 028e A2000000 		.4byte	.LVL273
 10311 0292 0100     		.2byte	0x1
 10312 0294 53       		.byte	0x53
 10313 0295 A2000000 		.4byte	.LVL273
 10314 0299 A8000000 		.4byte	.LVL274
 10315 029d 0100     		.2byte	0x1
 10316 029f 50       		.byte	0x50
 10317 02a0 00000000 		.4byte	0
 10318 02a4 00000000 		.4byte	0
 10319              	.LLST21:
 10320 02a8 40000000 		.4byte	.LVL256
 10321 02ac 46000000 		.4byte	.LVL257
 10322 02b0 0200     		.2byte	0x2
 10323 02b2 30       		.byte	0x30
 10324 02b3 9F       		.byte	0x9f
 10325 02b4 46000000 		.4byte	.LVL257
 10326 02b8 EA000000 		.4byte	.LVL283
 10327 02bc 0100     		.2byte	0x1
 10328 02be 56       		.byte	0x56
 10329 02bf EA000000 		.4byte	.LVL283
 10330 02c3 EC000000 		.4byte	.LVL284
 10331 02c7 0300     		.2byte	0x3
 10332 02c9 76       		.byte	0x76
 10333 02ca 01       		.sleb128 1
 10334 02cb 9F       		.byte	0x9f
 10335 02cc 00000000 		.4byte	0
 10336 02d0 00000000 		.4byte	0
 10337              	.LLST22:
 10338 02d4 5A000000 		.4byte	.LVL259
 10339 02d8 5C000000 		.4byte	.LVL260
 10340 02dc 0200     		.2byte	0x2
 10341 02de 30       		.byte	0x30
 10342 02df 9F       		.byte	0x9f
 10343 02e0 78000000 		.4byte	.LVL264
 10344 02e4 E2000000 		.4byte	.LVL281
 10345 02e8 0100     		.2byte	0x1
 10346 02ea 5A       		.byte	0x5a
 10347 02eb E2000000 		.4byte	.LVL281
 10348 02ef E4000000 		.4byte	.LVL282
 10349 02f3 0300     		.2byte	0x3
 10350 02f5 75       		.byte	0x75
 10351 02f6 01       		.sleb128 1
 10352 02f7 9F       		.byte	0x9f
 10353 02f8 E4000000 		.4byte	.LVL282
 10354 02fc 12010000 		.4byte	.LVL290
 10355 0300 0300     		.2byte	0x3
 10356 0302 7A       		.byte	0x7a
 10357 0303 01       		.sleb128 1
 10358 0304 9F       		.byte	0x9f
 10359 0305 00000000 		.4byte	0
 10360 0309 00000000 		.4byte	0
 10361              	.LLST23:
 10362 030d 78000000 		.4byte	.LVL264
 10363 0311 7A000000 		.4byte	.LVL265
 10364 0315 0200     		.2byte	0x2
 10365 0317 30       		.byte	0x30
 10366 0318 9F       		.byte	0x9f
ARM GAS  C:\Users\Kiwi\AppData\Local\Temp\cckzbvMb.s 			page 211


 10367 0319 7C000000 		.4byte	.LVL266
 10368 031d 8C000000 		.4byte	.LVL268
 10369 0321 0100     		.2byte	0x1
 10370 0323 52       		.byte	0x52
 10371 0324 8C000000 		.4byte	.LVL268
 10372 0328 DA000000 		.4byte	.LVL279
 10373 032c 0100     		.2byte	0x1
 10374 032e 57       		.byte	0x57
 10375 032f DA000000 		.4byte	.LVL279
 10376 0333 DC000000 		.4byte	.LVL280
 10377 0337 0300     		.2byte	0x3
 10378 0339 77       		.byte	0x77
 10379 033a 01       		.sleb128 1
 10380 033b 9F       		.byte	0x9f
 10381 033c 00000000 		.4byte	0
 10382 0340 00000000 		.4byte	0
 10383              	.LLST24:
 10384 0344 46000000 		.4byte	.LVL257
 10385 0348 4E000000 		.4byte	.LVL258
 10386 034c 0300     		.2byte	0x3
 10387 034e 76       		.byte	0x76
 10388 034f 06       		.sleb128 6
 10389 0350 9F       		.byte	0x9f
 10390 0351 4E000000 		.4byte	.LVL258
 10391 0355 5C000000 		.4byte	.LVL260
 10392 0359 0100     		.2byte	0x1
 10393 035b 54       		.byte	0x54
 10394 035c 78000000 		.4byte	.LVL264
 10395 0360 7A000000 		.4byte	.LVL265
 10396 0364 0100     		.2byte	0x1
 10397 0366 54       		.byte	0x54
 10398 0367 7C000000 		.4byte	.LVL266
 10399 036b D0000000 		.4byte	.LVL277
 10400 036f 0100     		.2byte	0x1
 10401 0371 54       		.byte	0x54
 10402 0372 D0000000 		.4byte	.LVL277
 10403 0376 D2000000 		.4byte	.LVL278
 10404 037a 0600     		.2byte	0x6
 10405 037c 74       		.byte	0x74
 10406 037d 00       		.sleb128 0
 10407 037e 08       		.byte	0x8
 10408 037f FF       		.byte	0xff
 10409 0380 1A       		.byte	0x1a
 10410 0381 9F       		.byte	0x9f
 10411 0382 D2000000 		.4byte	.LVL278
 10412 0386 12010000 		.4byte	.LVL290
 10413 038a 0100     		.2byte	0x1
 10414 038c 54       		.byte	0x54
 10415 038d 00000000 		.4byte	0
 10416 0391 00000000 		.4byte	0
 10417              	.LLST25:
 10418 0395 00000000 		.4byte	.LVL291
 10419 0399 13000000 		.4byte	.LVL292-1
 10420 039d 0100     		.2byte	0x1
 10421 039f 50       		.byte	0x50
 10422 03a0 13000000 		.4byte	.LVL292-1
 10423 03a4 E8000000 		.4byte	.LFE83
ARM GAS  C:\Users\Kiwi\AppData\Local\Temp\cckzbvMb.s 			page 212


 10424 03a8 0400     		.2byte	0x4
 10425 03aa F3       		.byte	0xf3
 10426 03ab 01       		.uleb128 0x1
 10427 03ac 50       		.byte	0x50
 10428 03ad 9F       		.byte	0x9f
 10429 03ae 00000000 		.4byte	0
 10430 03b2 00000000 		.4byte	0
 10431              	.LLST26:
 10432 03b6 00000000 		.4byte	.LVL291
 10433 03ba 13000000 		.4byte	.LVL292-1
 10434 03be 0100     		.2byte	0x1
 10435 03c0 51       		.byte	0x51
 10436 03c1 13000000 		.4byte	.LVL292-1
 10437 03c5 E8000000 		.4byte	.LFE83
 10438 03c9 0400     		.2byte	0x4
 10439 03cb F3       		.byte	0xf3
 10440 03cc 01       		.uleb128 0x1
 10441 03cd 51       		.byte	0x51
 10442 03ce 9F       		.byte	0x9f
 10443 03cf 00000000 		.4byte	0
 10444 03d3 00000000 		.4byte	0
 10445              	.LLST27:
 10446 03d7 00000000 		.4byte	.LVL291
 10447 03db 13000000 		.4byte	.LVL292-1
 10448 03df 0100     		.2byte	0x1
 10449 03e1 52       		.byte	0x52
 10450 03e2 13000000 		.4byte	.LVL292-1
 10451 03e6 E8000000 		.4byte	.LFE83
 10452 03ea 0400     		.2byte	0x4
 10453 03ec F3       		.byte	0xf3
 10454 03ed 01       		.uleb128 0x1
 10455 03ee 52       		.byte	0x52
 10456 03ef 9F       		.byte	0x9f
 10457 03f0 00000000 		.4byte	0
 10458 03f4 00000000 		.4byte	0
 10459              	.LLST28:
 10460 03f8 00000000 		.4byte	.LVL291
 10461 03fc 13000000 		.4byte	.LVL292-1
 10462 0400 0100     		.2byte	0x1
 10463 0402 53       		.byte	0x53
 10464 0403 13000000 		.4byte	.LVL292-1
 10465 0407 D6000000 		.4byte	.LVL323
 10466 040b 0100     		.2byte	0x1
 10467 040d 55       		.byte	0x55
 10468 040e D6000000 		.4byte	.LVL323
 10469 0412 DA000000 		.4byte	.LVL324
 10470 0416 0400     		.2byte	0x4
 10471 0418 F3       		.byte	0xf3
 10472 0419 01       		.uleb128 0x1
 10473 041a 53       		.byte	0x53
 10474 041b 9F       		.byte	0x9f
 10475 041c DA000000 		.4byte	.LVL324
 10476 0420 DE000000 		.4byte	.LVL325
 10477 0424 0100     		.2byte	0x1
 10478 0426 55       		.byte	0x55
 10479 0427 DE000000 		.4byte	.LVL325
 10480 042b E8000000 		.4byte	.LFE83
ARM GAS  C:\Users\Kiwi\AppData\Local\Temp\cckzbvMb.s 			page 213


 10481 042f 0400     		.2byte	0x4
 10482 0431 F3       		.byte	0xf3
 10483 0432 01       		.uleb128 0x1
 10484 0433 53       		.byte	0x53
 10485 0434 9F       		.byte	0x9f
 10486 0435 00000000 		.4byte	0
 10487 0439 00000000 		.4byte	0
 10488              	.LLST29:
 10489 043d 00000000 		.4byte	.LVL291
 10490 0441 D6000000 		.4byte	.LVL323
 10491 0445 0200     		.2byte	0x2
 10492 0447 91       		.byte	0x91
 10493 0448 00       		.sleb128 0
 10494 0449 D6000000 		.4byte	.LVL323
 10495 044d DA000000 		.4byte	.LVL324
 10496 0451 0200     		.2byte	0x2
 10497 0453 7D       		.byte	0x7d
 10498 0454 00       		.sleb128 0
 10499 0455 DA000000 		.4byte	.LVL324
 10500 0459 DE000000 		.4byte	.LVL325
 10501 045d 0200     		.2byte	0x2
 10502 045f 91       		.byte	0x91
 10503 0460 00       		.sleb128 0
 10504 0461 DE000000 		.4byte	.LVL325
 10505 0465 E8000000 		.4byte	.LFE83
 10506 0469 0200     		.2byte	0x2
 10507 046b 7D       		.byte	0x7d
 10508 046c 00       		.sleb128 0
 10509 046d 00000000 		.4byte	0
 10510 0471 00000000 		.4byte	0
 10511              	.LLST30:
 10512 0475 18000000 		.4byte	.LVL293
 10513 0479 D6000000 		.4byte	.LVL323
 10514 047d 0100     		.2byte	0x1
 10515 047f 57       		.byte	0x57
 10516 0480 D6000000 		.4byte	.LVL323
 10517 0484 DA000000 		.4byte	.LVL324
 10518 0488 0200     		.2byte	0x2
 10519 048a 7D       		.byte	0x7d
 10520 048b 00       		.sleb128 0
 10521 048c 00000000 		.4byte	0
 10522 0490 00000000 		.4byte	0
 10523              	.LLST31:
 10524 0494 18000000 		.4byte	.LVL293
 10525 0498 D6000000 		.4byte	.LVL323
 10526 049c 0100     		.2byte	0x1
 10527 049e 55       		.byte	0x55
 10528 049f D6000000 		.4byte	.LVL323
 10529 04a3 DA000000 		.4byte	.LVL324
 10530 04a7 0400     		.2byte	0x4
 10531 04a9 F3       		.byte	0xf3
 10532 04aa 01       		.uleb128 0x1
 10533 04ab 53       		.byte	0x53
 10534 04ac 9F       		.byte	0x9f
 10535 04ad 00000000 		.4byte	0
 10536 04b1 00000000 		.4byte	0
 10537              	.LLST32:
ARM GAS  C:\Users\Kiwi\AppData\Local\Temp\cckzbvMb.s 			page 214


 10538 04b5 18000000 		.4byte	.LVL293
 10539 04b9 D6000000 		.4byte	.LVL323
 10540 04bd 0100     		.2byte	0x1
 10541 04bf 59       		.byte	0x59
 10542 04c0 00000000 		.4byte	0
 10543 04c4 00000000 		.4byte	0
 10544              	.LLST33:
 10545 04c8 18000000 		.4byte	.LVL293
 10546 04cc D6000000 		.4byte	.LVL323
 10547 04d0 0100     		.2byte	0x1
 10548 04d2 58       		.byte	0x58
 10549 04d3 00000000 		.4byte	0
 10550 04d7 00000000 		.4byte	0
 10551              	.LLST34:
 10552 04db 18000000 		.4byte	.LVL293
 10553 04df 8E000000 		.4byte	.LVL311
 10554 04e3 0100     		.2byte	0x1
 10555 04e5 56       		.byte	0x56
 10556 04e6 00000000 		.4byte	0
 10557 04ea 00000000 		.4byte	0
 10558              	.LLST35:
 10559 04ee 9C000000 		.4byte	.LVL313
 10560 04f2 A8000000 		.4byte	.LVL316
 10561 04f6 0100     		.2byte	0x1
 10562 04f8 50       		.byte	0x50
 10563 04f9 00000000 		.4byte	0
 10564 04fd 00000000 		.4byte	0
 10565              	.LLST36:
 10566 0501 8C000000 		.4byte	.LVL310
 10567 0505 90000000 		.4byte	.LVL312
 10568 0509 0200     		.2byte	0x2
 10569 050b 30       		.byte	0x30
 10570 050c 9F       		.byte	0x9f
 10571 050d 90000000 		.4byte	.LVL312
 10572 0511 D6000000 		.4byte	.LVL323
 10573 0515 0100     		.2byte	0x1
 10574 0517 54       		.byte	0x54
 10575 0518 00000000 		.4byte	0
 10576 051c 00000000 		.4byte	0
 10577              	.LLST37:
 10578 0520 60000000 		.4byte	.LVL304
 10579 0524 62000000 		.4byte	.LVL305
 10580 0528 0200     		.2byte	0x2
 10581 052a 30       		.byte	0x30
 10582 052b 9F       		.byte	0x9f
 10583 052c 62000000 		.4byte	.LVL305
 10584 0530 6C000000 		.4byte	.LVL306
 10585 0534 0600     		.2byte	0x6
 10586 0536 74       		.byte	0x74
 10587 0537 00       		.sleb128 0
 10588 0538 75       		.byte	0x75
 10589 0539 00       		.sleb128 0
 10590 053a 1C       		.byte	0x1c
 10591 053b 9F       		.byte	0x9f
 10592 053c 6C000000 		.4byte	.LVL306
 10593 0540 72000000 		.4byte	.LVL307
 10594 0544 0700     		.2byte	0x7
ARM GAS  C:\Users\Kiwi\AppData\Local\Temp\cckzbvMb.s 			page 215


 10595 0546 75       		.byte	0x75
 10596 0547 00       		.sleb128 0
 10597 0548 20       		.byte	0x20
 10598 0549 74       		.byte	0x74
 10599 054a 00       		.sleb128 0
 10600 054b 22       		.byte	0x22
 10601 054c 9F       		.byte	0x9f
 10602 054d 72000000 		.4byte	.LVL307
 10603 0551 90000000 		.4byte	.LVL312
 10604 0555 0600     		.2byte	0x6
 10605 0557 74       		.byte	0x74
 10606 0558 00       		.sleb128 0
 10607 0559 75       		.byte	0x75
 10608 055a 00       		.sleb128 0
 10609 055b 1C       		.byte	0x1c
 10610 055c 9F       		.byte	0x9f
 10611 055d 00000000 		.4byte	0
 10612 0561 00000000 		.4byte	0
 10613              	.LLST38:
 10614 0565 8C000000 		.4byte	.LVL310
 10615 0569 90000000 		.4byte	.LVL312
 10616 056d 0200     		.2byte	0x2
 10617 056f 30       		.byte	0x30
 10618 0570 9F       		.byte	0x9f
 10619 0571 90000000 		.4byte	.LVL312
 10620 0575 A0000000 		.4byte	.LVL314
 10621 0579 0600     		.2byte	0x6
 10622 057b 76       		.byte	0x76
 10623 057c 00       		.sleb128 0
 10624 057d 75       		.byte	0x75
 10625 057e 00       		.sleb128 0
 10626 057f 1C       		.byte	0x1c
 10627 0580 9F       		.byte	0x9f
 10628 0581 A0000000 		.4byte	.LVL314
 10629 0585 A6000000 		.4byte	.LVL315
 10630 0589 0700     		.2byte	0x7
 10631 058b 75       		.byte	0x75
 10632 058c 00       		.sleb128 0
 10633 058d 20       		.byte	0x20
 10634 058e 76       		.byte	0x76
 10635 058f 00       		.sleb128 0
 10636 0590 22       		.byte	0x22
 10637 0591 9F       		.byte	0x9f
 10638 0592 A6000000 		.4byte	.LVL315
 10639 0596 D6000000 		.4byte	.LVL323
 10640 059a 0600     		.2byte	0x6
 10641 059c 76       		.byte	0x76
 10642 059d 00       		.sleb128 0
 10643 059e 75       		.byte	0x75
 10644 059f 00       		.sleb128 0
 10645 05a0 1C       		.byte	0x1c
 10646 05a1 9F       		.byte	0x9f
 10647 05a2 00000000 		.4byte	0
 10648 05a6 00000000 		.4byte	0
 10649              	.LLST39:
 10650 05aa 00000000 		.4byte	.LVL326
 10651 05ae 18000000 		.4byte	.LVL328
ARM GAS  C:\Users\Kiwi\AppData\Local\Temp\cckzbvMb.s 			page 216


 10652 05b2 0100     		.2byte	0x1
 10653 05b4 50       		.byte	0x50
 10654 05b5 18000000 		.4byte	.LVL328
 10655 05b9 30010000 		.4byte	.LVL357
 10656 05bd 0100     		.2byte	0x1
 10657 05bf 58       		.byte	0x58
 10658 05c0 30010000 		.4byte	.LVL357
 10659 05c4 50010000 		.4byte	.LFE84
 10660 05c8 0400     		.2byte	0x4
 10661 05ca F3       		.byte	0xf3
 10662 05cb 01       		.uleb128 0x1
 10663 05cc 50       		.byte	0x50
 10664 05cd 9F       		.byte	0x9f
 10665 05ce 00000000 		.4byte	0
 10666 05d2 00000000 		.4byte	0
 10667              	.LLST40:
 10668 05d6 10000000 		.4byte	.LVL327
 10669 05da 42000000 		.4byte	.LVL331
 10670 05de 0100     		.2byte	0x1
 10671 05e0 55       		.byte	0x55
 10672 05e1 42000000 		.4byte	.LVL331
 10673 05e5 4A000000 		.4byte	.LVL332
 10674 05e9 0300     		.2byte	0x3
 10675 05eb 75       		.byte	0x75
 10676 05ec 01       		.sleb128 1
 10677 05ed 9F       		.byte	0x9f
 10678 05ee 4A000000 		.4byte	.LVL332
 10679 05f2 50000000 		.4byte	.LVL333
 10680 05f6 0100     		.2byte	0x1
 10681 05f8 55       		.byte	0x55
 10682 05f9 50000000 		.4byte	.LVL333
 10683 05fd 66000000 		.4byte	.LVL334
 10684 0601 0300     		.2byte	0x3
 10685 0603 75       		.byte	0x75
 10686 0604 01       		.sleb128 1
 10687 0605 9F       		.byte	0x9f
 10688 0606 66000000 		.4byte	.LVL334
 10689 060a 70000000 		.4byte	.LVL336
 10690 060e 0100     		.2byte	0x1
 10691 0610 55       		.byte	0x55
 10692 0611 70000000 		.4byte	.LVL336
 10693 0615 76000000 		.4byte	.LVL337
 10694 0619 0300     		.2byte	0x3
 10695 061b 75       		.byte	0x75
 10696 061c 01       		.sleb128 1
 10697 061d 9F       		.byte	0x9f
 10698 061e 84000000 		.4byte	.LVL340
 10699 0622 2A010000 		.4byte	.LVL356
 10700 0626 0100     		.2byte	0x1
 10701 0628 55       		.byte	0x55
 10702 0629 00000000 		.4byte	0
 10703 062d 00000000 		.4byte	0
 10704              	.LLST41:
 10705 0631 10000000 		.4byte	.LVL327
 10706 0635 18000000 		.4byte	.LVL328
 10707 0639 0200     		.2byte	0x2
 10708 063b 30       		.byte	0x30
ARM GAS  C:\Users\Kiwi\AppData\Local\Temp\cckzbvMb.s 			page 217


 10709 063c 9F       		.byte	0x9f
 10710 063d 24000000 		.4byte	.LVL330
 10711 0641 66000000 		.4byte	.LVL334
 10712 0645 0100     		.2byte	0x1
 10713 0647 5A       		.byte	0x5a
 10714 0648 66000000 		.4byte	.LVL334
 10715 064c 6C000000 		.4byte	.LVL335
 10716 0650 0300     		.2byte	0x3
 10717 0652 77       		.byte	0x77
 10718 0653 01       		.sleb128 1
 10719 0654 9F       		.byte	0x9f
 10720 0655 6C000000 		.4byte	.LVL335
 10721 0659 70000000 		.4byte	.LVL336
 10722 065d 0300     		.2byte	0x3
 10723 065f 7A       		.byte	0x7a
 10724 0660 01       		.sleb128 1
 10725 0661 9F       		.byte	0x9f
 10726 0662 70000000 		.4byte	.LVL336
 10727 0666 78000000 		.4byte	.LVL338
 10728 066a 0100     		.2byte	0x1
 10729 066c 5A       		.byte	0x5a
 10730 066d 78000000 		.4byte	.LVL338
 10731 0671 84000000 		.4byte	.LVL340
 10732 0675 0100     		.2byte	0x1
 10733 0677 57       		.byte	0x57
 10734 0678 84000000 		.4byte	.LVL340
 10735 067c 86000000 		.4byte	.LVL341
 10736 0680 0100     		.2byte	0x1
 10737 0682 5A       		.byte	0x5a
 10738 0683 86000000 		.4byte	.LVL341
 10739 0687 88000000 		.4byte	.LVL342
 10740 068b 0100     		.2byte	0x1
 10741 068d 57       		.byte	0x57
 10742 068e 88000000 		.4byte	.LVL342
 10743 0692 8E000000 		.4byte	.LVL343
 10744 0696 0100     		.2byte	0x1
 10745 0698 5A       		.byte	0x5a
 10746 0699 8E000000 		.4byte	.LVL343
 10747 069d 98000000 		.4byte	.LVL344
 10748 06a1 0100     		.2byte	0x1
 10749 06a3 57       		.byte	0x57
 10750 06a4 98000000 		.4byte	.LVL344
 10751 06a8 9E000000 		.4byte	.LVL345
 10752 06ac 0100     		.2byte	0x1
 10753 06ae 5A       		.byte	0x5a
 10754 06af 9E000000 		.4byte	.LVL345
 10755 06b3 30010000 		.4byte	.LVL357
 10756 06b7 0100     		.2byte	0x1
 10757 06b9 57       		.byte	0x57
 10758 06ba 00000000 		.4byte	0
 10759 06be 00000000 		.4byte	0
 10760              	.LLST42:
 10761 06c2 88000000 		.4byte	.LVL342
 10762 06c6 9E000000 		.4byte	.LVL345
 10763 06ca 0200     		.2byte	0x2
 10764 06cc 30       		.byte	0x30
 10765 06cd 9F       		.byte	0x9f
ARM GAS  C:\Users\Kiwi\AppData\Local\Temp\cckzbvMb.s 			page 218


 10766 06ce 9E000000 		.4byte	.LVL345
 10767 06d2 AA000000 		.4byte	.LVL347
 10768 06d6 0100     		.2byte	0x1
 10769 06d8 52       		.byte	0x52
 10770 06d9 AC000000 		.4byte	.LVL348
 10771 06dd B4000000 		.4byte	.LVL350
 10772 06e1 0100     		.2byte	0x1
 10773 06e3 52       		.byte	0x52
 10774 06e4 BA000000 		.4byte	.LVL351
 10775 06e8 CA000000 		.4byte	.LVL352
 10776 06ec 0100     		.2byte	0x1
 10777 06ee 52       		.byte	0x52
 10778 06ef 00000000 		.4byte	0
 10779 06f3 00000000 		.4byte	0
 10780              	.LLST43:
 10781 06f7 9E000000 		.4byte	.LVL345
 10782 06fb A8000000 		.4byte	.LVL346
 10783 06ff 0100     		.2byte	0x1
 10784 0701 53       		.byte	0x53
 10785 0702 A8000000 		.4byte	.LVL346
 10786 0706 AC000000 		.4byte	.LVL348
 10787 070a 0300     		.2byte	0x3
 10788 070c 73       		.byte	0x73
 10789 070d 7F       		.sleb128 -1
 10790 070e 9F       		.byte	0x9f
 10791 070f AC000000 		.4byte	.LVL348
 10792 0713 B0000000 		.4byte	.LVL349
 10793 0717 0100     		.2byte	0x1
 10794 0719 53       		.byte	0x53
 10795 071a 00000000 		.4byte	0
 10796 071e 00000000 		.4byte	0
 10797              	.LLST44:
 10798 0722 3E000000 		.4byte	.LVL365
 10799 0726 4E000000 		.4byte	.LVL366
 10800 072a 0100     		.2byte	0x1
 10801 072c 50       		.byte	0x50
 10802 072d 4E000000 		.4byte	.LVL366
 10803 0731 7A000000 		.4byte	.LVL371
 10804 0735 0100     		.2byte	0x1
 10805 0737 58       		.byte	0x58
 10806 0738 00000000 		.4byte	0
 10807 073c 00000000 		.4byte	0
 10808              	.LLST45:
 10809 0740 00000000 		.4byte	.LVL358
 10810 0744 0C000000 		.4byte	.LVL359
 10811 0748 0200     		.2byte	0x2
 10812 074a 30       		.byte	0x30
 10813 074b 9F       		.byte	0x9f
 10814 074c 0C000000 		.4byte	.LVL359
 10815 0750 34000000 		.4byte	.LVL364
 10816 0754 0100     		.2byte	0x1
 10817 0756 54       		.byte	0x54
 10818 0757 7A000000 		.4byte	.LVL371
 10819 075b 8C000000 		.4byte	.LFE85
 10820 075f 0100     		.2byte	0x1
 10821 0761 54       		.byte	0x54
 10822 0762 00000000 		.4byte	0
ARM GAS  C:\Users\Kiwi\AppData\Local\Temp\cckzbvMb.s 			page 219


 10823 0766 00000000 		.4byte	0
 10824              	.LLST46:
 10825 076a 00000000 		.4byte	.LVL358
 10826 076e 0C000000 		.4byte	.LVL359
 10827 0772 0200     		.2byte	0x2
 10828 0774 30       		.byte	0x30
 10829 0775 9F       		.byte	0x9f
 10830 0776 0C000000 		.4byte	.LVL359
 10831 077a 34000000 		.4byte	.LVL364
 10832 077e 0100     		.2byte	0x1
 10833 0780 55       		.byte	0x55
 10834 0781 5A000000 		.4byte	.LVL368
 10835 0785 8C000000 		.4byte	.LFE85
 10836 0789 0100     		.2byte	0x1
 10837 078b 55       		.byte	0x55
 10838 078c 00000000 		.4byte	0
 10839 0790 00000000 		.4byte	0
 10840              	.LLST47:
 10841 0794 AA000000 		.4byte	.LVL411
 10842 0798 4A010000 		.4byte	.LVL432
 10843 079c 0100     		.2byte	0x1
 10844 079e 56       		.byte	0x56
 10845 079f 00000000 		.4byte	0
 10846 07a3 00000000 		.4byte	0
 10847              	.LLST48:
 10848 07a7 34010000 		.4byte	.LVL428
 10849 07ab 4A010000 		.4byte	.LVL432
 10850 07af 0200     		.2byte	0x2
 10851 07b1 30       		.byte	0x30
 10852 07b2 9F       		.byte	0x9f
 10853 07b3 4A010000 		.4byte	.LVL432
 10854 07b7 A6010000 		.4byte	.LVL434
 10855 07bb 0100     		.2byte	0x1
 10856 07bd 57       		.byte	0x57
 10857 07be A6010000 		.4byte	.LVL434
 10858 07c2 A8010000 		.4byte	.LVL435
 10859 07c6 0300     		.2byte	0x3
 10860 07c8 77       		.byte	0x77
 10861 07c9 7F       		.sleb128 -1
 10862 07ca 9F       		.byte	0x9f
 10863 07cb A8010000 		.4byte	.LVL435
 10864 07cf 0C020000 		.4byte	.LVL449
 10865 07d3 0100     		.2byte	0x1
 10866 07d5 57       		.byte	0x57
 10867 07d6 00000000 		.4byte	0
 10868 07da 00000000 		.4byte	0
 10869              	.LLST49:
 10870 07de 34010000 		.4byte	.LVL428
 10871 07e2 4A010000 		.4byte	.LVL432
 10872 07e6 0200     		.2byte	0x2
 10873 07e8 30       		.byte	0x30
 10874 07e9 9F       		.byte	0x9f
 10875 07ea B2010000 		.4byte	.LVL437
 10876 07ee BC010000 		.4byte	.LVL439
 10877 07f2 0200     		.2byte	0x2
 10878 07f4 30       		.byte	0x30
 10879 07f5 9F       		.byte	0x9f
ARM GAS  C:\Users\Kiwi\AppData\Local\Temp\cckzbvMb.s 			page 220


 10880 07f6 0C020000 		.4byte	.LVL449
 10881 07fa A4040000 		.4byte	.LVL513
 10882 07fe 0100     		.2byte	0x1
 10883 0800 58       		.byte	0x58
 10884 0801 A8040000 		.4byte	.LVL514
 10885 0805 AA040000 		.4byte	.LVL515
 10886 0809 0200     		.2byte	0x2
 10887 080b 31       		.byte	0x31
 10888 080c 9F       		.byte	0x9f
 10889 080d AA040000 		.4byte	.LVL515
 10890 0811 B6040000 		.4byte	.LVL519
 10891 0815 0100     		.2byte	0x1
 10892 0817 58       		.byte	0x58
 10893 0818 B8040000 		.4byte	.LVL520
 10894 081c 3C050000 		.4byte	.LFE87
 10895 0820 0100     		.2byte	0x1
 10896 0822 58       		.byte	0x58
 10897 0823 00000000 		.4byte	0
 10898 0827 00000000 		.4byte	0
 10899              	.LLST50:
 10900 082b 1E020000 		.4byte	.LVL450
 10901 082f 54020000 		.4byte	.LVL457
 10902 0833 0100     		.2byte	0x1
 10903 0835 56       		.byte	0x56
 10904 0836 54020000 		.4byte	.LVL457
 10905 083a 57020000 		.4byte	.LVL458-1
 10906 083e 0200     		.2byte	0x2
 10907 0840 73       		.byte	0x73
 10908 0841 00       		.sleb128 0
 10909 0842 DC040000 		.4byte	.LVL523
 10910 0846 3C050000 		.4byte	.LFE87
 10911 084a 0100     		.2byte	0x1
 10912 084c 56       		.byte	0x56
 10913 084d 00000000 		.4byte	0
 10914 0851 00000000 		.4byte	0
 10915              	.LLST51:
 10916 0855 3A020000 		.4byte	.LVL453
 10917 0859 42020000 		.4byte	.LVL454
 10918 085d 0100     		.2byte	0x1
 10919 085f 50       		.byte	0x50
 10920 0860 E2040000 		.4byte	.LVL524
 10921 0864 EC040000 		.4byte	.LVL525
 10922 0868 0100     		.2byte	0x1
 10923 086a 50       		.byte	0x50
 10924 086b 00000000 		.4byte	0
 10925 086f 00000000 		.4byte	0
 10926              	.LLST52:
 10927 0873 3E010000 		.4byte	.LVL430
 10928 0877 4A010000 		.4byte	.LVL432
 10929 087b 0200     		.2byte	0x2
 10930 087d 30       		.byte	0x30
 10931 087e 9F       		.byte	0x9f
 10932 087f B8010000 		.4byte	.LVL438
 10933 0883 BC010000 		.4byte	.LVL439
 10934 0887 0200     		.2byte	0x2
 10935 0889 30       		.byte	0x30
 10936 088a 9F       		.byte	0x9f
ARM GAS  C:\Users\Kiwi\AppData\Local\Temp\cckzbvMb.s 			page 221


 10937 088b 0C020000 		.4byte	.LVL449
 10938 088f 66020000 		.4byte	.LVL459
 10939 0893 0100     		.2byte	0x1
 10940 0895 55       		.byte	0x55
 10941 0896 66020000 		.4byte	.LVL459
 10942 089a 6E020000 		.4byte	.LVL460
 10943 089e 0200     		.2byte	0x2
 10944 08a0 30       		.byte	0x30
 10945 08a1 9F       		.byte	0x9f
 10946 08a2 6E020000 		.4byte	.LVL460
 10947 08a6 9C020000 		.4byte	.LVL465
 10948 08aa 0100     		.2byte	0x1
 10949 08ac 55       		.byte	0x55
 10950 08ad 9C020000 		.4byte	.LVL465
 10951 08b1 A4020000 		.4byte	.LVL466
 10952 08b5 0200     		.2byte	0x2
 10953 08b7 30       		.byte	0x30
 10954 08b8 9F       		.byte	0x9f
 10955 08b9 A4020000 		.4byte	.LVL466
 10956 08bd BE020000 		.4byte	.LVL469
 10957 08c1 0100     		.2byte	0x1
 10958 08c3 55       		.byte	0x55
 10959 08c4 BE020000 		.4byte	.LVL469
 10960 08c8 C6020000 		.4byte	.LVL470
 10961 08cc 0200     		.2byte	0x2
 10962 08ce 30       		.byte	0x30
 10963 08cf 9F       		.byte	0x9f
 10964 08d0 C6020000 		.4byte	.LVL470
 10965 08d4 E2020000 		.4byte	.LVL474
 10966 08d8 0100     		.2byte	0x1
 10967 08da 55       		.byte	0x55
 10968 08db 5C030000 		.4byte	.LVL475
 10969 08df 7A030000 		.4byte	.LVL478
 10970 08e3 0100     		.2byte	0x1
 10971 08e5 55       		.byte	0x55
 10972 08e6 7A030000 		.4byte	.LVL478
 10973 08ea 82030000 		.4byte	.LVL479
 10974 08ee 0200     		.2byte	0x2
 10975 08f0 30       		.byte	0x30
 10976 08f1 9F       		.byte	0x9f
 10977 08f2 82030000 		.4byte	.LVL479
 10978 08f6 9C030000 		.4byte	.LVL482
 10979 08fa 0100     		.2byte	0x1
 10980 08fc 55       		.byte	0x55
 10981 08fd 9C030000 		.4byte	.LVL482
 10982 0901 A4030000 		.4byte	.LVL483
 10983 0905 0200     		.2byte	0x2
 10984 0907 30       		.byte	0x30
 10985 0908 9F       		.byte	0x9f
 10986 0909 A4030000 		.4byte	.LVL483
 10987 090d BE030000 		.4byte	.LVL486
 10988 0911 0100     		.2byte	0x1
 10989 0913 55       		.byte	0x55
 10990 0914 BE030000 		.4byte	.LVL486
 10991 0918 C6030000 		.4byte	.LVL487
 10992 091c 0200     		.2byte	0x2
 10993 091e 30       		.byte	0x30
ARM GAS  C:\Users\Kiwi\AppData\Local\Temp\cckzbvMb.s 			page 222


 10994 091f 9F       		.byte	0x9f
 10995 0920 C6030000 		.4byte	.LVL487
 10996 0924 E0030000 		.4byte	.LVL490
 10997 0928 0100     		.2byte	0x1
 10998 092a 55       		.byte	0x55
 10999 092b E0030000 		.4byte	.LVL490
 11000 092f E8030000 		.4byte	.LVL491
 11001 0933 0200     		.2byte	0x2
 11002 0935 30       		.byte	0x30
 11003 0936 9F       		.byte	0x9f
 11004 0937 E8030000 		.4byte	.LVL491
 11005 093b 0A040000 		.4byte	.LVL495
 11006 093f 0100     		.2byte	0x1
 11007 0941 55       		.byte	0x55
 11008 0942 0A040000 		.4byte	.LVL495
 11009 0946 12040000 		.4byte	.LVL496
 11010 094a 0200     		.2byte	0x2
 11011 094c 30       		.byte	0x30
 11012 094d 9F       		.byte	0x9f
 11013 094e 12040000 		.4byte	.LVL496
 11014 0952 3C040000 		.4byte	.LVL500
 11015 0956 0100     		.2byte	0x1
 11016 0958 55       		.byte	0x55
 11017 0959 40040000 		.4byte	.LVL501
 11018 095d 46040000 		.4byte	.LVL502
 11019 0961 0200     		.2byte	0x2
 11020 0963 30       		.byte	0x30
 11021 0964 9F       		.byte	0x9f
 11022 0965 46040000 		.4byte	.LVL502
 11023 0969 6E040000 		.4byte	.LVL506
 11024 096d 0100     		.2byte	0x1
 11025 096f 55       		.byte	0x55
 11026 0970 6E040000 		.4byte	.LVL506
 11027 0974 76040000 		.4byte	.LVL507
 11028 0978 0200     		.2byte	0x2
 11029 097a 30       		.byte	0x30
 11030 097b 9F       		.byte	0x9f
 11031 097c 76040000 		.4byte	.LVL507
 11032 0980 9A040000 		.4byte	.LVL511
 11033 0984 0100     		.2byte	0x1
 11034 0986 55       		.byte	0x55
 11035 0987 AA040000 		.4byte	.LVL515
 11036 098b B6040000 		.4byte	.LVL519
 11037 098f 0100     		.2byte	0x1
 11038 0991 55       		.byte	0x55
 11039 0992 B8040000 		.4byte	.LVL520
 11040 0996 3C050000 		.4byte	.LFE87
 11041 099a 0100     		.2byte	0x1
 11042 099c 55       		.byte	0x55
 11043 099d 00000000 		.4byte	0
 11044 09a1 00000000 		.4byte	0
 11045              	.LLST53:
 11046 09a5 FE010000 		.4byte	.LVL447
 11047 09a9 06020000 		.4byte	.LVL448
 11048 09ad 0700     		.2byte	0x7
 11049 09af 70       		.byte	0x70
 11050 09b0 00       		.sleb128 0
ARM GAS  C:\Users\Kiwi\AppData\Local\Temp\cckzbvMb.s 			page 223


 11051 09b1 0A       		.byte	0xa
 11052 09b2 FFFF     		.2byte	0xffff
 11053 09b4 1A       		.byte	0x1a
 11054 09b5 9F       		.byte	0x9f
 11055 09b6 00000000 		.4byte	0
 11056 09ba 00000000 		.4byte	0
 11057              	.LLST54:
 11058 09be FE010000 		.4byte	.LVL447
 11059 09c2 0C020000 		.4byte	.LVL449
 11060 09c6 0200     		.2byte	0x2
 11061 09c8 30       		.byte	0x30
 11062 09c9 9F       		.byte	0x9f
 11063 09ca 0C020000 		.4byte	.LVL449
 11064 09ce 1E020000 		.4byte	.LVL450
 11065 09d2 0A00     		.2byte	0xa
 11066 09d4 7D       		.byte	0x7d
 11067 09d5 00       		.sleb128 0
 11068 09d6 06       		.byte	0x6
 11069 09d7 91       		.byte	0x91
 11070 09d8 00       		.sleb128 0
 11071 09d9 1C       		.byte	0x1c
 11072 09da 23       		.byte	0x23
 11073 09db E901     		.uleb128 0xe9
 11074 09dd 9F       		.byte	0x9f
 11075 09de 1E020000 		.4byte	.LVL450
 11076 09e2 2C020000 		.4byte	.LVL451
 11077 09e6 0900     		.2byte	0x9
 11078 09e8 73       		.byte	0x73
 11079 09e9 00       		.sleb128 0
 11080 09ea 91       		.byte	0x91
 11081 09eb 00       		.sleb128 0
 11082 09ec 1C       		.byte	0x1c
 11083 09ed 23       		.byte	0x23
 11084 09ee E801     		.uleb128 0xe8
 11085 09f0 9F       		.byte	0x9f
 11086 09f1 2C020000 		.4byte	.LVL451
 11087 09f5 34020000 		.4byte	.LVL452
 11088 09f9 0A00     		.2byte	0xa
 11089 09fb 7D       		.byte	0x7d
 11090 09fc 00       		.sleb128 0
 11091 09fd 06       		.byte	0x6
 11092 09fe 91       		.byte	0x91
 11093 09ff 00       		.sleb128 0
 11094 0a00 1C       		.byte	0x1c
 11095 0a01 23       		.byte	0x23
 11096 0a02 E801     		.uleb128 0xe8
 11097 0a04 9F       		.byte	0x9f
 11098 0a05 34020000 		.4byte	.LVL452
 11099 0a09 39020000 		.4byte	.LVL453-1
 11100 0a0d 0900     		.2byte	0x9
 11101 0a0f 73       		.byte	0x73
 11102 0a10 00       		.sleb128 0
 11103 0a11 91       		.byte	0x91
 11104 0a12 00       		.sleb128 0
 11105 0a13 1C       		.byte	0x1c
 11106 0a14 23       		.byte	0x23
 11107 0a15 E801     		.uleb128 0xe8
ARM GAS  C:\Users\Kiwi\AppData\Local\Temp\cckzbvMb.s 			page 224


 11108 0a17 9F       		.byte	0x9f
 11109 0a18 39020000 		.4byte	.LVL453-1
 11110 0a1c 50020000 		.4byte	.LVL456
 11111 0a20 0A00     		.2byte	0xa
 11112 0a22 7D       		.byte	0x7d
 11113 0a23 00       		.sleb128 0
 11114 0a24 06       		.byte	0x6
 11115 0a25 91       		.byte	0x91
 11116 0a26 00       		.sleb128 0
 11117 0a27 1C       		.byte	0x1c
 11118 0a28 23       		.byte	0x23
 11119 0a29 E801     		.uleb128 0xe8
 11120 0a2b 9F       		.byte	0x9f
 11121 0a2c 50020000 		.4byte	.LVL456
 11122 0a30 57020000 		.4byte	.LVL458-1
 11123 0a34 0900     		.2byte	0x9
 11124 0a36 73       		.byte	0x73
 11125 0a37 00       		.sleb128 0
 11126 0a38 91       		.byte	0x91
 11127 0a39 00       		.sleb128 0
 11128 0a3a 1C       		.byte	0x1c
 11129 0a3b 23       		.byte	0x23
 11130 0a3c E801     		.uleb128 0xe8
 11131 0a3e 9F       		.byte	0x9f
 11132 0a3f 57020000 		.4byte	.LVL458-1
 11133 0a43 04050000 		.4byte	.LVL527
 11134 0a47 0A00     		.2byte	0xa
 11135 0a49 7D       		.byte	0x7d
 11136 0a4a 00       		.sleb128 0
 11137 0a4b 06       		.byte	0x6
 11138 0a4c 91       		.byte	0x91
 11139 0a4d 00       		.sleb128 0
 11140 0a4e 1C       		.byte	0x1c
 11141 0a4f 23       		.byte	0x23
 11142 0a50 E801     		.uleb128 0xe8
 11143 0a52 9F       		.byte	0x9f
 11144 0a53 04050000 		.4byte	.LVL527
 11145 0a57 3C050000 		.4byte	.LFE87
 11146 0a5b 0A00     		.2byte	0xa
 11147 0a5d 7D       		.byte	0x7d
 11148 0a5e 00       		.sleb128 0
 11149 0a5f 06       		.byte	0x6
 11150 0a60 91       		.byte	0x91
 11151 0a61 00       		.sleb128 0
 11152 0a62 1C       		.byte	0x1c
 11153 0a63 23       		.byte	0x23
 11154 0a64 E901     		.uleb128 0xe9
 11155 0a66 9F       		.byte	0x9f
 11156 0a67 00000000 		.4byte	0
 11157 0a6b 00000000 		.4byte	0
 11158              	.LLST55:
 11159 0a6f 58020000 		.4byte	.LVL458
 11160 0a73 66020000 		.4byte	.LVL459
 11161 0a77 0200     		.2byte	0x2
 11162 0a79 30       		.byte	0x30
 11163 0a7a 9F       		.byte	0x9f
 11164 0a7b 66020000 		.4byte	.LVL459
ARM GAS  C:\Users\Kiwi\AppData\Local\Temp\cckzbvMb.s 			page 225


 11165 0a7f 6E020000 		.4byte	.LVL460
 11166 0a83 0200     		.2byte	0x2
 11167 0a85 31       		.byte	0x31
 11168 0a86 9F       		.byte	0x9f
 11169 0a87 6E020000 		.4byte	.LVL460
 11170 0a8b 72020000 		.4byte	.LVL461
 11171 0a8f 0200     		.2byte	0x2
 11172 0a91 30       		.byte	0x30
 11173 0a92 9F       		.byte	0x9f
 11174 0a93 72020000 		.4byte	.LVL461
 11175 0a97 9C020000 		.4byte	.LVL465
 11176 0a9b 0100     		.2byte	0x1
 11177 0a9d 5A       		.byte	0x5a
 11178 0a9e 9C020000 		.4byte	.LVL465
 11179 0aa2 A4020000 		.4byte	.LVL466
 11180 0aa6 0200     		.2byte	0x2
 11181 0aa8 31       		.byte	0x31
 11182 0aa9 9F       		.byte	0x9f
 11183 0aaa A4020000 		.4byte	.LVL466
 11184 0aae BE020000 		.4byte	.LVL469
 11185 0ab2 0100     		.2byte	0x1
 11186 0ab4 5A       		.byte	0x5a
 11187 0ab5 BE020000 		.4byte	.LVL469
 11188 0ab9 C6020000 		.4byte	.LVL470
 11189 0abd 0200     		.2byte	0x2
 11190 0abf 31       		.byte	0x31
 11191 0ac0 9F       		.byte	0x9f
 11192 0ac1 C6020000 		.4byte	.LVL470
 11193 0ac5 E0020000 		.4byte	.LVL473
 11194 0ac9 0100     		.2byte	0x1
 11195 0acb 5A       		.byte	0x5a
 11196 0acc 5C030000 		.4byte	.LVL475
 11197 0ad0 7A030000 		.4byte	.LVL478
 11198 0ad4 0100     		.2byte	0x1
 11199 0ad6 5A       		.byte	0x5a
 11200 0ad7 7A030000 		.4byte	.LVL478
 11201 0adb 82030000 		.4byte	.LVL479
 11202 0adf 0200     		.2byte	0x2
 11203 0ae1 31       		.byte	0x31
 11204 0ae2 9F       		.byte	0x9f
 11205 0ae3 82030000 		.4byte	.LVL479
 11206 0ae7 9C030000 		.4byte	.LVL482
 11207 0aeb 0100     		.2byte	0x1
 11208 0aed 5A       		.byte	0x5a
 11209 0aee 9C030000 		.4byte	.LVL482
 11210 0af2 A4030000 		.4byte	.LVL483
 11211 0af6 0200     		.2byte	0x2
 11212 0af8 31       		.byte	0x31
 11213 0af9 9F       		.byte	0x9f
 11214 0afa A4030000 		.4byte	.LVL483
 11215 0afe BE030000 		.4byte	.LVL486
 11216 0b02 0100     		.2byte	0x1
 11217 0b04 5A       		.byte	0x5a
 11218 0b05 BE030000 		.4byte	.LVL486
 11219 0b09 C6030000 		.4byte	.LVL487
 11220 0b0d 0200     		.2byte	0x2
 11221 0b0f 31       		.byte	0x31
ARM GAS  C:\Users\Kiwi\AppData\Local\Temp\cckzbvMb.s 			page 226


 11222 0b10 9F       		.byte	0x9f
 11223 0b11 C6030000 		.4byte	.LVL487
 11224 0b15 E0030000 		.4byte	.LVL490
 11225 0b19 0100     		.2byte	0x1
 11226 0b1b 5A       		.byte	0x5a
 11227 0b1c E0030000 		.4byte	.LVL490
 11228 0b20 E8030000 		.4byte	.LVL491
 11229 0b24 0200     		.2byte	0x2
 11230 0b26 31       		.byte	0x31
 11231 0b27 9F       		.byte	0x9f
 11232 0b28 E8030000 		.4byte	.LVL491
 11233 0b2c 0A040000 		.4byte	.LVL495
 11234 0b30 0100     		.2byte	0x1
 11235 0b32 5A       		.byte	0x5a
 11236 0b33 0A040000 		.4byte	.LVL495
 11237 0b37 12040000 		.4byte	.LVL496
 11238 0b3b 0200     		.2byte	0x2
 11239 0b3d 31       		.byte	0x31
 11240 0b3e 9F       		.byte	0x9f
 11241 0b3f 12040000 		.4byte	.LVL496
 11242 0b43 40040000 		.4byte	.LVL501
 11243 0b47 0100     		.2byte	0x1
 11244 0b49 5A       		.byte	0x5a
 11245 0b4a 40040000 		.4byte	.LVL501
 11246 0b4e 46040000 		.4byte	.LVL502
 11247 0b52 0200     		.2byte	0x2
 11248 0b54 31       		.byte	0x31
 11249 0b55 9F       		.byte	0x9f
 11250 0b56 46040000 		.4byte	.LVL502
 11251 0b5a 6E040000 		.4byte	.LVL506
 11252 0b5e 0100     		.2byte	0x1
 11253 0b60 5A       		.byte	0x5a
 11254 0b61 6E040000 		.4byte	.LVL506
 11255 0b65 76040000 		.4byte	.LVL507
 11256 0b69 0200     		.2byte	0x2
 11257 0b6b 31       		.byte	0x31
 11258 0b6c 9F       		.byte	0x9f
 11259 0b6d 76040000 		.4byte	.LVL507
 11260 0b71 94040000 		.4byte	.LVL510
 11261 0b75 0100     		.2byte	0x1
 11262 0b77 5A       		.byte	0x5a
 11263 0b78 AA040000 		.4byte	.LVL515
 11264 0b7c AE040000 		.4byte	.LVL516
 11265 0b80 0100     		.2byte	0x1
 11266 0b82 5A       		.byte	0x5a
 11267 0b83 B0040000 		.4byte	.LVL517
 11268 0b87 B4040000 		.4byte	.LVL518
 11269 0b8b 0100     		.2byte	0x1
 11270 0b8d 5A       		.byte	0x5a
 11271 0b8e B8040000 		.4byte	.LVL520
 11272 0b92 DC040000 		.4byte	.LVL523
 11273 0b96 0100     		.2byte	0x1
 11274 0b98 5A       		.byte	0x5a
 11275 0b99 00000000 		.4byte	0
 11276 0b9d 00000000 		.4byte	0
 11277              		.section	.debug_aranges,"",%progbits
 11278 0000 D4000000 		.4byte	0xd4
ARM GAS  C:\Users\Kiwi\AppData\Local\Temp\cckzbvMb.s 			page 227


 11279 0004 0200     		.2byte	0x2
 11280 0006 00000000 		.4byte	.Ldebug_info0
 11281 000a 04       		.byte	0x4
 11282 000b 00       		.byte	0
 11283 000c 0000     		.2byte	0
 11284 000e 0000     		.2byte	0
 11285 0010 00000000 		.4byte	.LFB64
 11286 0014 30000000 		.4byte	.LFE64-.LFB64
 11287 0018 00000000 		.4byte	.LFB65
 11288 001c 30000000 		.4byte	.LFE65-.LFB65
 11289 0020 00000000 		.4byte	.LFB66
 11290 0024 30000000 		.4byte	.LFE66-.LFB66
 11291 0028 00000000 		.4byte	.LFB67
 11292 002c 30000000 		.4byte	.LFE67-.LFB67
 11293 0030 00000000 		.4byte	.LFB68
 11294 0034 12000000 		.4byte	.LFE68-.LFB68
 11295 0038 00000000 		.4byte	.LFB69
 11296 003c 44000000 		.4byte	.LFE69-.LFB69
 11297 0040 00000000 		.4byte	.LFB70
 11298 0044 18000000 		.4byte	.LFE70-.LFB70
 11299 0048 00000000 		.4byte	.LFB71
 11300 004c 40000000 		.4byte	.LFE71-.LFB71
 11301 0050 00000000 		.4byte	.LFB72
 11302 0054 28000000 		.4byte	.LFE72-.LFB72
 11303 0058 00000000 		.4byte	.LFB73
 11304 005c 5C000000 		.4byte	.LFE73-.LFB73
 11305 0060 00000000 		.4byte	.LFB74
 11306 0064 30000000 		.4byte	.LFE74-.LFB74
 11307 0068 00000000 		.4byte	.LFB75
 11308 006c 60000000 		.4byte	.LFE75-.LFB75
 11309 0070 00000000 		.4byte	.LFB76
 11310 0074 30000000 		.4byte	.LFE76-.LFB76
 11311 0078 00000000 		.4byte	.LFB78
 11312 007c B4000000 		.4byte	.LFE78-.LFB78
 11313 0080 00000000 		.4byte	.LFB77
 11314 0084 34020000 		.4byte	.LFE77-.LFB77
 11315 0088 00000000 		.4byte	.LFB79
 11316 008c C8010000 		.4byte	.LFE79-.LFB79
 11317 0090 00000000 		.4byte	.LFB80
 11318 0094 30000000 		.4byte	.LFE80-.LFB80
 11319 0098 00000000 		.4byte	.LFB81
 11320 009c 22000000 		.4byte	.LFE81-.LFB81
 11321 00a0 00000000 		.4byte	.LFB82
 11322 00a4 2C010000 		.4byte	.LFE82-.LFB82
 11323 00a8 00000000 		.4byte	.LFB83
 11324 00ac E8000000 		.4byte	.LFE83-.LFB83
 11325 00b0 00000000 		.4byte	.LFB84
 11326 00b4 50010000 		.4byte	.LFE84-.LFB84
 11327 00b8 00000000 		.4byte	.LFB85
 11328 00bc 8C000000 		.4byte	.LFE85-.LFB85
 11329 00c0 00000000 		.4byte	.LFB86
 11330 00c4 88000000 		.4byte	.LFE86-.LFB86
 11331 00c8 00000000 		.4byte	.LFB87
 11332 00cc 3C050000 		.4byte	.LFE87-.LFB87
 11333 00d0 00000000 		.4byte	0
 11334 00d4 00000000 		.4byte	0
 11335              		.section	.debug_ranges,"",%progbits
ARM GAS  C:\Users\Kiwi\AppData\Local\Temp\cckzbvMb.s 			page 228


 11336              	.Ldebug_ranges0:
 11337 0000 0C000000 		.4byte	.LBB29
 11338 0004 9C000000 		.4byte	.LBE29
 11339 0008 A0000000 		.4byte	.LBB33
 11340 000c B4000000 		.4byte	.LBE33
 11341 0010 00000000 		.4byte	0
 11342 0014 00000000 		.4byte	0
 11343 0018 0E000000 		.4byte	.LBB41
 11344 001c 0C020000 		.4byte	.LBE41
 11345 0020 10020000 		.4byte	.LBB46
 11346 0024 34020000 		.4byte	.LBE46
 11347 0028 00000000 		.4byte	0
 11348 002c 00000000 		.4byte	0
 11349 0030 0C000000 		.4byte	.LBB52
 11350 0034 AE010000 		.4byte	.LBE52
 11351 0038 B2010000 		.4byte	.LBB54
 11352 003c C8010000 		.4byte	.LBE54
 11353 0040 00000000 		.4byte	0
 11354 0044 00000000 		.4byte	0
 11355 0048 18000000 		.4byte	.LBB60
 11356 004c D2000000 		.4byte	.LBE60
 11357 0050 D6000000 		.4byte	.LBB65
 11358 0054 E8000000 		.4byte	.LBE65
 11359 0058 00000000 		.4byte	0
 11360 005c 00000000 		.4byte	0
 11361 0060 92000000 		.4byte	.LBB66
 11362 0064 98000000 		.4byte	.LBE66
 11363 0068 9E000000 		.4byte	.LBB67
 11364 006c AE000000 		.4byte	.LBE67
 11365 0070 00000000 		.4byte	0
 11366 0074 00000000 		.4byte	0
 11367 0078 00000000 		.4byte	.LFB64
 11368 007c 30000000 		.4byte	.LFE64
 11369 0080 00000000 		.4byte	.LFB65
 11370 0084 30000000 		.4byte	.LFE65
 11371 0088 00000000 		.4byte	.LFB66
 11372 008c 30000000 		.4byte	.LFE66
 11373 0090 00000000 		.4byte	.LFB67
 11374 0094 30000000 		.4byte	.LFE67
 11375 0098 00000000 		.4byte	.LFB68
 11376 009c 12000000 		.4byte	.LFE68
 11377 00a0 00000000 		.4byte	.LFB69
 11378 00a4 44000000 		.4byte	.LFE69
 11379 00a8 00000000 		.4byte	.LFB70
 11380 00ac 18000000 		.4byte	.LFE70
 11381 00b0 00000000 		.4byte	.LFB71
 11382 00b4 40000000 		.4byte	.LFE71
 11383 00b8 00000000 		.4byte	.LFB72
 11384 00bc 28000000 		.4byte	.LFE72
 11385 00c0 00000000 		.4byte	.LFB73
 11386 00c4 5C000000 		.4byte	.LFE73
 11387 00c8 00000000 		.4byte	.LFB74
 11388 00cc 30000000 		.4byte	.LFE74
 11389 00d0 00000000 		.4byte	.LFB75
 11390 00d4 60000000 		.4byte	.LFE75
 11391 00d8 00000000 		.4byte	.LFB76
 11392 00dc 30000000 		.4byte	.LFE76
ARM GAS  C:\Users\Kiwi\AppData\Local\Temp\cckzbvMb.s 			page 229


 11393 00e0 00000000 		.4byte	.LFB78
 11394 00e4 B4000000 		.4byte	.LFE78
 11395 00e8 00000000 		.4byte	.LFB77
 11396 00ec 34020000 		.4byte	.LFE77
 11397 00f0 00000000 		.4byte	.LFB79
 11398 00f4 C8010000 		.4byte	.LFE79
 11399 00f8 00000000 		.4byte	.LFB80
 11400 00fc 30000000 		.4byte	.LFE80
 11401 0100 00000000 		.4byte	.LFB81
 11402 0104 22000000 		.4byte	.LFE81
 11403 0108 00000000 		.4byte	.LFB82
 11404 010c 2C010000 		.4byte	.LFE82
 11405 0110 00000000 		.4byte	.LFB83
 11406 0114 E8000000 		.4byte	.LFE83
 11407 0118 00000000 		.4byte	.LFB84
 11408 011c 50010000 		.4byte	.LFE84
 11409 0120 00000000 		.4byte	.LFB85
 11410 0124 8C000000 		.4byte	.LFE85
 11411 0128 00000000 		.4byte	.LFB86
 11412 012c 88000000 		.4byte	.LFE86
 11413 0130 00000000 		.4byte	.LFB87
 11414 0134 3C050000 		.4byte	.LFE87
 11415 0138 00000000 		.4byte	0
 11416 013c 00000000 		.4byte	0
 11417              		.section	.debug_line,"",%progbits
 11418              	.Ldebug_line0:
 11419 0000 28090000 		.section	.debug_str,"MS",%progbits,1
 11419      0200F403 
 11419      00000201 
 11419      FB0E0D00 
 11419      01010101 
 11420              	.LASF17:
 11421 0000 75696E74 		.ascii	"uint16\000"
 11421      313600
 11422              	.LASF113:
 11423 0007 494F575F 		.ascii	"IOW_Write\000"
 11423      57726974 
 11423      6500
 11424              	.LASF123:
 11425 0011 73747263 		.ascii	"strcmp\000"
 11425      6D7000
 11426              	.LASF133:
 11427 0018 4D315F49 		.ascii	"M1_Int_StartEx\000"
 11427      6E745F53 
 11427      74617274 
 11427      457800
 11428              	.LASF72:
 11429 0027 636E744C 		.ascii	"cntLines\000"
 11429      696E6573 
 11429      00
 11430              	.LASF110:
 11431 0030 4D575F57 		.ascii	"MW_Write\000"
 11431      72697465 
 11431      00
 11432              	.LASF76:
 11433 0039 696E7451 		.ascii	"intQueue\000"
 11433      75657565 
ARM GAS  C:\Users\Kiwi\AppData\Local\Temp\cckzbvMb.s 			page 230


 11433      00
 11434              	.LASF131:
 11435 0042 5253545F 		.ascii	"RST_Int_StartEx\000"
 11435      496E745F 
 11435      53746172 
 11435      74457800 
 11436              	.LASF15:
 11437 0052 76615F6C 		.ascii	"va_list\000"
 11437      69737400 
 11438              	.LASF34:
 11439 005a 54657374 		.ascii	"TestVideo\000"
 11439      56696465 
 11439      6F00
 11440              	.LASF121:
 11441 0064 7374726E 		.ascii	"strncpy\000"
 11441      63707900 
 11442              	.LASF128:
 11443 006c 52434D5F 		.ascii	"RCM_Int_StartEx\000"
 11443      496E745F 
 11443      53746172 
 11443      74457800 
 11444              	.LASF94:
 11445 007c 43794465 		.ascii	"CyDelay\000"
 11445      6C617900 
 11446              	.LASF7:
 11447 0084 6C6F6E67 		.ascii	"long long unsigned int\000"
 11447      206C6F6E 
 11447      6720756E 
 11447      7369676E 
 11447      65642069 
 11448              	.LASF137:
 11449 009b 55415254 		.ascii	"UART_Start\000"
 11449      5F537461 
 11449      727400
 11450              	.LASF159:
 11451 00a6 433A5C55 		.ascii	"C:\\Users\\Kiwi\\Documents\\PSoC Creator\\DTR-1 v2 "
 11451      73657273 
 11451      5C4B6977 
 11451      695C446F 
 11451      63756D65 
 11452 00d4 48572E63 		.ascii	"HW.cydsn\000"
 11452      7964736E 
 11452      00
 11453              	.LASF39:
 11454 00dd 55415254 		.ascii	"UART_OUT_ROD_Handler\000"
 11454      5F4F5554 
 11454      5F524F44 
 11454      5F48616E 
 11454      646C6572 
 11455              	.LASF92:
 11456 00f2 44545F52 		.ascii	"DT_Reg_Read\000"
 11456      65675F52 
 11456      65616400 
 11457              	.LASF68:
 11458 00fe 49544D5F 		.ascii	"ITM_RxBuffer\000"
 11458      52784275 
 11458      66666572 
ARM GAS  C:\Users\Kiwi\AppData\Local\Temp\cckzbvMb.s 			page 231


 11458      00
 11459              	.LASF32:
 11460 010b 74657374 		.ascii	"testlen\000"
 11460      6C656E00 
 11461              	.LASF87:
 11462 0113 5253555F 		.ascii	"RSU_Read\000"
 11462      52656164 
 11462      00
 11463              	.LASF149:
 11464 011c 55534255 		.ascii	"USBUART_GetConfiguration\000"
 11464      4152545F 
 11464      47657443 
 11464      6F6E6669 
 11464      67757261 
 11465              	.LASF108:
 11466 0135 42757344 		.ascii	"BusDta_Write\000"
 11466      74615F57 
 11466      72697465 
 11466      00
 11467              	.LASF6:
 11468 0142 6C6F6E67 		.ascii	"long long int\000"
 11468      206C6F6E 
 11468      6720696E 
 11468      7400
 11469              	.LASF0:
 11470 0150 7369676E 		.ascii	"signed char\000"
 11470      65642063 
 11470      68617200 
 11471              	.LASF157:
 11472 015c 474E5520 		.ascii	"GNU C11 5.4.1 20160609 (release) [ARM/embedded-5-br"
 11472      43313120 
 11472      352E342E 
 11472      31203230 
 11472      31363036 
 11473 018f 616E6368 		.ascii	"anch revision 237715] -mcpu=cortex-m3 -mthumb -g -O"
 11473      20726576 
 11473      6973696F 
 11473      6E203233 
 11473      37373135 
 11474 01c2 73202D66 		.ascii	"s -ffunction-sections -ffat-lto-objects\000"
 11474      66756E63 
 11474      74696F6E 
 11474      2D736563 
 11474      74696F6E 
 11475              	.LASF120:
 11476 01ea 6D656D63 		.ascii	"memchr\000"
 11476      687200
 11477              	.LASF146:
 11478 01f1 6766785F 		.ascii	"gfx_println\000"
 11478      7072696E 
 11478      746C6E00 
 11479              	.LASF99:
 11480 01fd 42555352 		.ascii	"BUSRQ_Write\000"
 11480      515F5772 
 11480      69746500 
 11481              	.LASF85:
 11482 0209 524F445F 		.ascii	"ROD_Read\000"
ARM GAS  C:\Users\Kiwi\AppData\Local\Temp\cckzbvMb.s 			page 232


 11482      52656164 
 11482      00
 11483              	.LASF119:
 11484 0212 55534255 		.ascii	"USBUART_GetAll\000"
 11484      4152545F 
 11484      47657441 
 11484      6C6C00
 11485              	.LASF4:
 11486 0221 6C6F6E67 		.ascii	"long int\000"
 11486      20696E74 
 11486      00
 11487              	.LASF130:
 11488 022a 524F445F 		.ascii	"ROD_Int_StartEx\000"
 11488      496E745F 
 11488      53746172 
 11488      74457800 
 11489              	.LASF153:
 11490 023a 55415254 		.ascii	"UART_PutChar\000"
 11490      5F507574 
 11490      43686172 
 11490      00
 11491              	.LASF143:
 11492 0247 6766785F 		.ascii	"gfx_setTextColor\000"
 11492      73657454 
 11492      65787443 
 11492      6F6C6F72 
 11492      00
 11493              	.LASF21:
 11494 0258 5F5F7661 		.ascii	"__va_list\000"
 11494      5F6C6973 
 11494      7400
 11495              	.LASF162:
 11496 0262 6D656D63 		.ascii	"memcpy\000"
 11496      707900
 11497              	.LASF65:
 11498 0269 74726F6E 		.ascii	"tron\000"
 11498      00
 11499              	.LASF79:
 11500 026e 696E7374 		.ascii	"instQueue\000"
 11500      51756575 
 11500      6500
 11501              	.LASF103:
 11502 0278 43794465 		.ascii	"CyDelayUs\000"
 11502      6C617955 
 11502      7300
 11503              	.LASF35:
 11504 0282 44756D70 		.ascii	"DumpMem\000"
 11504      4D656D00 
 11505              	.LASF20:
 11506 028a 646F7562 		.ascii	"double\000"
 11506      6C6500
 11507              	.LASF64:
 11508 0291 67657449 		.ascii	"getInst\000"
 11508      6E737400 
 11509              	.LASF126:
 11510 0299 4D315F49 		.ascii	"M1_Int_Enable\000"
 11510      6E745F45 
ARM GAS  C:\Users\Kiwi\AppData\Local\Temp\cckzbvMb.s 			page 233


 11510      6E61626C 
 11510      6500
 11511              	.LASF18:
 11512 02a7 75696E74 		.ascii	"uint32\000"
 11512      333200
 11513              	.LASF70:
 11514 02ae 65787461 		.ascii	"extaddr\000"
 11514      64647200 
 11515              	.LASF134:
 11516 02b6 4D315F49 		.ascii	"M1_Int_Disable\000"
 11516      6E745F44 
 11516      69736162 
 11516      6C6500
 11517              	.LASF138:
 11518 02c5 4932434F 		.ascii	"I2COLED_MasterSendStart\000"
 11518      4C45445F 
 11518      4D617374 
 11518      65725365 
 11518      6E645374 
 11519              	.LASF82:
 11520 02dd 48657843 		.ascii	"HexChar\000"
 11520      68617200 
 11521              	.LASF23:
 11522 02e5 706F7274 		.ascii	"port\000"
 11522      00
 11523              	.LASF49:
 11524 02ea 76616C75 		.ascii	"value\000"
 11524      6500
 11525              	.LASF112:
 11526 02f0 4D525F53 		.ascii	"MR_SetDriveMode\000"
 11526      65744472 
 11526      6976654D 
 11526      6F646500 
 11527              	.LASF142:
 11528 0300 6766785F 		.ascii	"gfx_setTextSize\000"
 11528      73657454 
 11528      65787453 
 11528      697A6500 
 11529              	.LASF155:
 11530 0310 55415254 		.ascii	"UART_GetByte\000"
 11530      5F476574 
 11530      42797465 
 11530      00
 11531              	.LASF151:
 11532 031d 4354535F 		.ascii	"CTS_Read\000"
 11532      52656164 
 11532      00
 11533              	.LASF8:
 11534 0326 756E7369 		.ascii	"unsigned int\000"
 11534      676E6564 
 11534      20696E74 
 11534      00
 11535              	.LASF118:
 11536 0333 55534255 		.ascii	"USBUART_DataIsReady\000"
 11536      4152545F 
 11536      44617461 
 11536      49735265 
ARM GAS  C:\Users\Kiwi\AppData\Local\Temp\cckzbvMb.s 			page 234


 11536      61647900 
 11537              	.LASF135:
 11538 0347 4D696C6C 		.ascii	"Millis_Start\000"
 11538      69735F53 
 11538      74617274 
 11538      00
 11539              	.LASF74:
 11540 0354 77616974 		.ascii	"waitForBus\000"
 11540      466F7242 
 11540      757300
 11541              	.LASF5:
 11542 035f 6C6F6E67 		.ascii	"long unsigned int\000"
 11542      20756E73 
 11542      69676E65 
 11542      6420696E 
 11542      7400
 11543              	.LASF83:
 11544 0371 52434D5F 		.ascii	"RCM_Read\000"
 11544      52656164 
 11544      00
 11545              	.LASF28:
 11546 037a 4765745F 		.ascii	"Get_SAPI_Bus_Silent\000"
 11546      53415049 
 11546      5F427573 
 11546      5F53696C 
 11546      656E7400 
 11547              	.LASF63:
 11548 038e 74696D65 		.ascii	"timeout\000"
 11548      6F757400 
 11549              	.LASF71:
 11550 0396 636E7454 		.ascii	"cntTime\000"
 11550      696D6500 
 11551              	.LASF16:
 11552 039e 75696E74 		.ascii	"uint8\000"
 11552      3800
 11553              	.LASF25:
 11554 03a4 496E7374 		.ascii	"InstData\000"
 11554      44617461 
 11554      00
 11555              	.LASF24:
 11556 03ad 64617461 		.ascii	"data\000"
 11556      00
 11557              	.LASF3:
 11558 03b2 73686F72 		.ascii	"short unsigned int\000"
 11558      7420756E 
 11558      7369676E 
 11558      65642069 
 11558      6E7400
 11559              	.LASF148:
 11560 03c5 55534255 		.ascii	"USBUART_Start\000"
 11560      4152545F 
 11560      53746172 
 11560      7400
 11561              	.LASF117:
 11562 03d3 7374726C 		.ascii	"strlen\000"
 11562      656E00
 11563              	.LASF156:
ARM GAS  C:\Users\Kiwi\AppData\Local\Temp\cckzbvMb.s 			page 235


 11564 03da 5252445F 		.ascii	"RRD_Write\000"
 11564      57726974 
 11564      6500
 11565              	.LASF158:
 11566 03e4 6D61696E 		.ascii	"main.c\000"
 11566      2E6300
 11567              	.LASF46:
 11568 03eb 55415254 		.ascii	"UART_printf\000"
 11568      5F707269 
 11568      6E746600 
 11569              	.LASF132:
 11570 03f7 5252445F 		.ascii	"RRD_Int_StartEx\000"
 11570      496E745F 
 11570      53746172 
 11570      74457800 
 11571              	.LASF33:
 11572 0407 52414D5F 		.ascii	"RAM_check\000"
 11572      63686563 
 11572      6B00
 11573              	.LASF136:
 11574 0411 4932434F 		.ascii	"I2COLED_Start\000"
 11574      4C45445F 
 11574      53746172 
 11574      7400
 11575              	.LASF2:
 11576 041f 73686F72 		.ascii	"short int\000"
 11576      7420696E 
 11576      7400
 11577              	.LASF10:
 11578 0429 5F5F696E 		.ascii	"__int32_t\000"
 11578      7433325F 
 11578      7400
 11579              	.LASF152:
 11580 0433 52534D5F 		.ascii	"RSM_Write\000"
 11580      57726974 
 11580      6500
 11581              	.LASF56:
 11582 043d 68657864 		.ascii	"hexdata\000"
 11582      61746100 
 11583              	.LASF109:
 11584 0445 4D525F57 		.ascii	"MR_Write\000"
 11584      72697465 
 11584      00
 11585              	.LASF62:
 11586 044e 53686F77 		.ascii	"ShowHelp\000"
 11586      48656C70 
 11586      00
 11587              	.LASF58:
 11588 0457 4845585F 		.ascii	"HEX_read\000"
 11588      72656164 
 11588      00
 11589              	.LASF89:
 11590 0460 6E574149 		.ascii	"nWAIT_Write\000"
 11590      545F5772 
 11590      69746500 
 11591              	.LASF12:
 11592 046c 73697A65 		.ascii	"sizetype\000"
ARM GAS  C:\Users\Kiwi\AppData\Local\Temp\cckzbvMb.s 			page 236


 11592      74797065 
 11592      00
 11593              	.LASF73:
 11594 0475 636E7445 		.ascii	"cntErrs\000"
 11594      72727300 
 11595              	.LASF40:
 11596 047d 55415254 		.ascii	"UART_OUT_RST_Handler\000"
 11596      5F4F5554 
 11596      5F525354 
 11596      5F48616E 
 11596      646C6572 
 11597              	.LASF67:
 11598 0492 636D6470 		.ascii	"cmdprocessed\000"
 11598      726F6365 
 11598      73736564 
 11598      00
 11599              	.LASF11:
 11600 049f 5F5F676E 		.ascii	"__gnuc_va_list\000"
 11600      75635F76 
 11600      615F6C69 
 11600      737400
 11601              	.LASF31:
 11602 04ae 74657374 		.ascii	"testfrom\000"
 11602      66726F6D 
 11602      00
 11603              	.LASF141:
 11604 04b7 64697370 		.ascii	"display_clear\000"
 11604      6C61795F 
 11604      636C6561 
 11604      7200
 11605              	.LASF88:
 11606 04c5 5253555F 		.ascii	"RSU_Write\000"
 11606      57726974 
 11606      6500
 11607              	.LASF116:
 11608 04cf 494F575F 		.ascii	"IOW_SetDriveMode\000"
 11608      53657444 
 11608      72697665 
 11608      4D6F6465 
 11608      00
 11609              	.LASF84:
 11610 04e0 5243555F 		.ascii	"RCU_Read\000"
 11610      52656164 
 11610      00
 11611              	.LASF97:
 11612 04e9 55534255 		.ascii	"USBUART_PutString\000"
 11612      4152545F 
 11612      50757453 
 11612      7472696E 
 11612      6700
 11613              	.LASF42:
 11614 04fb 4D315F49 		.ascii	"M1_Int_Handler\000"
 11614      6E745F48 
 11614      616E646C 
 11614      657200
 11615              	.LASF19:
 11616 050a 666C6F61 		.ascii	"float\000"
ARM GAS  C:\Users\Kiwi\AppData\Local\Temp\cckzbvMb.s 			page 237


 11616      7400
 11617              	.LASF127:
 11618 0510 55534255 		.ascii	"USBUART_PutChar\000"
 11618      4152545F 
 11618      50757443 
 11618      68617200 
 11619              	.LASF48:
 11620 0520 57726974 		.ascii	"WriteIO8\000"
 11620      65494F38 
 11620      00
 11621              	.LASF101:
 11622 0529 41646472 		.ascii	"AddrH_Write\000"
 11622      485F5772 
 11622      69746500 
 11623              	.LASF75:
 11624 0535 6E6F4F4C 		.ascii	"noOLED\000"
 11624      454400
 11625              	.LASF45:
 11626 053c 55534255 		.ascii	"USBUART_printf\000"
 11626      4152545F 
 11626      7072696E 
 11626      746600
 11627              	.LASF36:
 11628 054b 57726974 		.ascii	"Write_ZRMD\000"
 11628      655F5A52 
 11628      4D4400
 11629              	.LASF26:
 11630 0556 61646472 		.ascii	"addr\000"
 11630      00
 11631              	.LASF93:
 11632 055b 52544C5F 		.ascii	"RTL_Write\000"
 11632      57726974 
 11632      6500
 11633              	.LASF14:
 11634 0565 696E7433 		.ascii	"int32_t\000"
 11634      325F7400 
 11635              	.LASF1:
 11636 056d 756E7369 		.ascii	"unsigned char\000"
 11636      676E6564 
 11636      20636861 
 11636      7200
 11637              	.LASF104:
 11638 057b 4474615F 		.ascii	"Dta_Read\000"
 11638      52656164 
 11638      00
 11639              	.LASF53:
 11640 0584 50726F63 		.ascii	"ProcessHEX\000"
 11640      65737348 
 11640      455800
 11641              	.LASF122:
 11642 058f 7374726E 		.ascii	"strncmp\000"
 11642      636D7000 
 11643              	.LASF96:
 11644 0597 55534255 		.ascii	"USBUART_CDCIsReady\000"
 11644      4152545F 
 11644      43444349 
 11644      73526561 
ARM GAS  C:\Users\Kiwi\AppData\Local\Temp\cckzbvMb.s 			page 238


 11644      647900
 11645              	.LASF102:
 11646 05aa 41646472 		.ascii	"AddrL_Write\000"
 11646      4C5F5772 
 11646      69746500 
 11647              	.LASF105:
 11648 05b6 5352414D 		.ascii	"SRAM_Ctl_Write\000"
 11648      5F43746C 
 11648      5F577269 
 11648      746500
 11649              	.LASF37:
 11650 05c5 55415254 		.ascii	"UART_OUT_RCM_Handler\000"
 11650      5F4F5554 
 11650      5F52434D 
 11650      5F48616E 
 11650      646C6572 
 11651              	.LASF69:
 11652 05da 6E6F5541 		.ascii	"noUART\000"
 11652      525400
 11653              	.LASF47:
 11654 05e1 666F726D 		.ascii	"format\000"
 11654      617400
 11655              	.LASF60:
 11656 05e8 6372706F 		.ascii	"crpos\000"
 11656      7300
 11657              	.LASF144:
 11658 05ee 6766785F 		.ascii	"gfx_setTextBg\000"
 11658      73657454 
 11658      65787442 
 11658      6700
 11659              	.LASF59:
 11660 05fc 696E6275 		.ascii	"inbuf\000"
 11660      6600
 11661              	.LASF150:
 11662 0602 55534255 		.ascii	"USBUART_CDC_Init\000"
 11662      4152545F 
 11662      4344435F 
 11662      496E6974 
 11662      00
 11663              	.LASF52:
 11664 0613 44756D70 		.ascii	"DumpZRMD\000"
 11664      5A524D44 
 11664      00
 11665              	.LASF124:
 11666 061c 4D696C6C 		.ascii	"Millis_ReadCounter\000"
 11666      69735F52 
 11666      65616443 
 11666      6F756E74 
 11666      657200
 11667              	.LASF147:
 11668 062f 64697370 		.ascii	"display_update\000"
 11668      6C61795F 
 11668      75706461 
 11668      746500
 11669              	.LASF9:
 11670 063e 6C6F6E67 		.ascii	"long double\000"
 11670      20646F75 
ARM GAS  C:\Users\Kiwi\AppData\Local\Temp\cckzbvMb.s 			page 239


 11670      626C6500 
 11671              	.LASF13:
 11672 064a 63686172 		.ascii	"char\000"
 11672      00
 11673              	.LASF80:
 11674 064f 696E7374 		.ascii	"instCnt\000"
 11674      436E7400 
 11675              	.LASF107:
 11676 0657 41646472 		.ascii	"AddrH_SetDriveMode\000"
 11676      485F5365 
 11676      74447269 
 11676      76654D6F 
 11676      646500
 11677              	.LASF50:
 11678 066a 52656164 		.ascii	"ReadIO8\000"
 11678      494F3800 
 11679              	.LASF51:
 11680 0672 53415049 		.ascii	"SAPI_Reset\000"
 11680      5F526573 
 11680      657400
 11681              	.LASF30:
 11682 067d 52656C65 		.ascii	"Release_SAPI_Bus_Silent\000"
 11682      6173655F 
 11682      53415049 
 11682      5F427573 
 11682      5F53696C 
 11683              	.LASF54:
 11684 0695 636D646C 		.ascii	"cmdline\000"
 11684      696E6500 
 11685              	.LASF95:
 11686 069d 76737072 		.ascii	"vsprintf\000"
 11686      696E7466 
 11686      00
 11687              	.LASF160:
 11688 06a6 5F5F6170 		.ascii	"__ap\000"
 11688      00
 11689              	.LASF77:
 11690 06ab 696E7443 		.ascii	"intCnt\000"
 11690      6E7400
 11691              	.LASF139:
 11692 06b2 4932434F 		.ascii	"I2COLED_MasterSendStop\000"
 11692      4C45445F 
 11692      4D617374 
 11692      65725365 
 11692      6E645374 
 11693              	.LASF140:
 11694 06c9 64697370 		.ascii	"display_init\000"
 11694      6C61795F 
 11694      696E6974 
 11694      00
 11695              	.LASF125:
 11696 06d6 4D315F49 		.ascii	"M1_Int_ClearPending\000"
 11696      6E745F43 
 11696      6C656172 
 11696      50656E64 
 11696      696E6700 
 11697              	.LASF90:
ARM GAS  C:\Users\Kiwi\AppData\Local\Temp\cckzbvMb.s 			page 240


 11698 06ea 4144485F 		.ascii	"ADH_Reg_Read\000"
 11698      5265675F 
 11698      52656164 
 11698      00
 11699              	.LASF106:
 11700 06f7 41646472 		.ascii	"AddrL_SetDriveMode\000"
 11700      4C5F5365 
 11700      74447269 
 11700      76654D6F 
 11700      646500
 11701              	.LASF91:
 11702 070a 41444C5F 		.ascii	"ADL_Reg_Read\000"
 11702      5265675F 
 11702      52656164 
 11702      00
 11703              	.LASF57:
 11704 0717 6865786C 		.ascii	"hexlen\000"
 11704      656E00
 11705              	.LASF61:
 11706 071e 6474616C 		.ascii	"dtalen\000"
 11706      656E00
 11707              	.LASF154:
 11708 0725 55415254 		.ascii	"UART_GetRxBufferSize\000"
 11708      5F476574 
 11708      52784275 
 11708      66666572 
 11708      53697A65 
 11709              	.LASF27:
 11710 073a 4765745F 		.ascii	"Get_SAPI_Bus\000"
 11710      53415049 
 11710      5F427573 
 11710      00
 11711              	.LASF111:
 11712 0747 4D575F53 		.ascii	"MW_SetDriveMode\000"
 11712      65744472 
 11712      6976654D 
 11712      6F646500 
 11713              	.LASF114:
 11714 0757 494F525F 		.ascii	"IOR_Write\000"
 11714      57726974 
 11714      6500
 11715              	.LASF38:
 11716 0761 55415254 		.ascii	"UART_OUT_RCU_Handler\000"
 11716      5F4F5554 
 11716      5F524355 
 11716      5F48616E 
 11716      646C6572 
 11717              	.LASF41:
 11718 0776 55415254 		.ascii	"UART_IN_RRD_Handler\000"
 11718      5F494E5F 
 11718      5252445F 
 11718      48616E64 
 11718      6C657200 
 11719              	.LASF98:
 11720 078a 55415254 		.ascii	"UART_PutString\000"
 11720      5F507574 
 11720      53747269 
ARM GAS  C:\Users\Kiwi\AppData\Local\Temp\cckzbvMb.s 			page 241


 11720      6E6700
 11721              	.LASF55:
 11722 0799 62707472 		.ascii	"bptr\000"
 11722      00
 11723              	.LASF115:
 11724 079e 494F525F 		.ascii	"IOR_SetDriveMode\000"
 11724      53657444 
 11724      72697665 
 11724      4D6F6465 
 11724      00
 11725              	.LASF29:
 11726 07af 52656C65 		.ascii	"Release_SAPI_Bus\000"
 11726      6173655F 
 11726      53415049 
 11726      5F427573 
 11726      00
 11727              	.LASF22:
 11728 07c0 506F7274 		.ascii	"PortData\000"
 11728      44617461 
 11728      00
 11729              	.LASF44:
 11730 07c9 61726773 		.ascii	"args\000"
 11730      00
 11731              	.LASF129:
 11732 07ce 5243555F 		.ascii	"RCU_Int_StartEx\000"
 11732      496E745F 
 11732      53746172 
 11732      74457800 
 11733              	.LASF100:
 11734 07de 42555341 		.ascii	"BUSAK_Read\000"
 11734      4B5F5265 
 11734      616400
 11735              	.LASF161:
 11736 07e9 6D61696E 		.ascii	"main\000"
 11736      00
 11737              	.LASF81:
 11738 07ee 696E7374 		.ascii	"instRdCnt\000"
 11738      5264436E 
 11738      7400
 11739              	.LASF66:
 11740 07f8 6E6F5072 		.ascii	"noPrompt\000"
 11740      6F6D7074 
 11740      00
 11741              	.LASF78:
 11742 0801 7264436E 		.ascii	"rdCnt\000"
 11742      7400
 11743              	.LASF145:
 11744 0807 6766785F 		.ascii	"gfx_setCursor\000"
 11744      73657443 
 11744      7572736F 
 11744      7200
 11745              	.LASF43:
 11746 0815 746D7073 		.ascii	"tmpstr\000"
 11746      747200
 11747              	.LASF86:
 11748 081c 5253545F 		.ascii	"RST_Read\000"
 11748      52656164 
ARM GAS  C:\Users\Kiwi\AppData\Local\Temp\cckzbvMb.s 			page 242


 11748      00
 11749              		.ident	"GCC: (GNU Tools for ARM Embedded Processors) 5.4.1 20160609 (release) [ARM/embedded-5-bran
