ARM GAS  C:\Users\Kiwi\AppData\Local\Temp\cckzbvMb.s 			page 1


   1              		.syntax unified
   2              		.cpu cortex-m3
   3              		.fpu softvfp
   4              		.eabi_attribute 20, 1
   5              		.eabi_attribute 21, 1
   6              		.eabi_attribute 23, 3
   7              		.eabi_attribute 24, 1
   8              		.eabi_attribute 25, 1
   9              		.eabi_attribute 26, 1
  10              		.eabi_attribute 30, 4
  11              		.eabi_attribute 34, 1
  12              		.eabi_attribute 18, 4
  13              		.thumb
  14              		.syntax unified
  15              		.file	"main.c"
  16              		.text
  17              	.Ltext0:
  18              		.cfi_sections	.debug_frame
  19              		.section	.text.UART_OUT_RCM_Handler,"ax",%progbits
  20              		.align	1
  21              		.global	UART_OUT_RCM_Handler
  22              		.thumb
  23              		.thumb_func
  24              		.type	UART_OUT_RCM_Handler, %function
  25              	UART_OUT_RCM_Handler:
  26              	.LFB64:
  27              		.file 1 "main.c"
   1:main.c        **** /* ========================================
   2:main.c        ****  *
   3:main.c        ****  * Copyright Martin Lukasek (c) 2021
   4:main.c        ****  * All Rights Reserved
   5:main.c        ****  * UNPUBLISHED, LICENSED SOFTWARE.
   6:main.c        ****  *
   7:main.c        ****  * CONFIDENTIAL AND PROPRIETARY INFORMATION
   8:main.c        ****  * WHICH IS THE PROPERTY OF Martin Lukasek.
   9:main.c        ****  *
  10:main.c        ****  * ========================================
  11:main.c        **** */
  12:main.c        **** #include <stdio.h>
  13:main.c        **** #include <stdarg.h>
  14:main.c        **** #include "project.h"
  15:main.c        **** #include "ssd1306.h"
  16:main.c        **** 
  17:main.c        **** #define DISPLAY_ADDRESS 0x3C // 011110+SA0+RW - 0x3C or 0x3D
  18:main.c        **** 
  19:main.c        **** int noUART = 1;
  20:main.c        **** uint16 extaddr = 0;
  21:main.c        **** uint32 cntTime = 0;
  22:main.c        **** uint32 cntLines = 0;
  23:main.c        **** uint32 cntErrs = 0;
  24:main.c        **** uint8 waitForBus = 1;
  25:main.c        **** 
  26:main.c        **** int noOLED = 1;
  27:main.c        **** 
  28:main.c        **** struct PortData
  29:main.c        **** {
  30:main.c        ****     uint8 port;
ARM GAS  C:\Users\Kiwi\AppData\Local\Temp\cckzbvMb.s 			page 2


  31:main.c        ****     uint8 data;
  32:main.c        **** };
  33:main.c        **** 
  34:main.c        **** struct PortData intQueue[256];
  35:main.c        **** volatile uint8 intCnt = 0;
  36:main.c        **** volatile uint8 rdCnt = 0;
  37:main.c        **** 
  38:main.c        **** struct InstData
  39:main.c        **** {
  40:main.c        ****     uint16 addr;
  41:main.c        ****     uint8 data;
  42:main.c        **** };
  43:main.c        **** 
  44:main.c        **** struct InstData instQueue[256];
  45:main.c        **** volatile uint8 instCnt = 0;
  46:main.c        **** volatile uint8 instRdCnt = 0;
  47:main.c        **** 
  48:main.c        **** CY_ISR( UART_OUT_RCM_Handler )
  49:main.c        **** {
  28              		.loc 1 49 0
  29              		.cfi_startproc
  30              		@ args = 0, pretend = 0, frame = 0
  31              		@ frame_needed = 0, uses_anonymous_args = 0
  32 0000 70B5     		push	{r4, r5, r6, lr}
  33              		.cfi_def_cfa_offset 16
  34              		.cfi_offset 4, -16
  35              		.cfi_offset 5, -12
  36              		.cfi_offset 6, -8
  37              		.cfi_offset 14, -4
  50:main.c        ****     intQueue[intCnt].port = 0x10;
  38              		.loc 1 50 0
  39 0002 094C     		ldr	r4, .L2
  40 0004 094D     		ldr	r5, .L2+4
  41 0006 2378     		ldrb	r3, [r4]	@ zero_extendqisi2
  42 0008 1022     		movs	r2, #16
  43 000a 05F81320 		strb	r2, [r5, r3, lsl #1]
  51:main.c        ****     intQueue[intCnt].data = RCM_Read();
  44              		.loc 1 51 0
  45 000e 2678     		ldrb	r6, [r4]	@ zero_extendqisi2
  46 0010 FFF7FEFF 		bl	RCM_Read
  47              	.LVL0:
  52:main.c        ****     intCnt++;
  48              		.loc 1 52 0
  49 0014 2378     		ldrb	r3, [r4]	@ zero_extendqisi2
  51:main.c        ****     intQueue[intCnt].data = RCM_Read();
  50              		.loc 1 51 0
  51 0016 F6B2     		uxtb	r6, r6
  52              		.loc 1 52 0
  53 0018 0133     		adds	r3, r3, #1
  51:main.c        ****     intQueue[intCnt].data = RCM_Read();
  54              		.loc 1 51 0
  55 001a 05EB4605 		add	r5, r5, r6, lsl #1
  56              		.loc 1 52 0
  57 001e DBB2     		uxtb	r3, r3
  51:main.c        ****     intQueue[intCnt].data = RCM_Read();
  58              		.loc 1 51 0
  59 0020 6870     		strb	r0, [r5, #1]
ARM GAS  C:\Users\Kiwi\AppData\Local\Temp\cckzbvMb.s 			page 3


  60              		.loc 1 52 0
  61 0022 2370     		strb	r3, [r4]
  62 0024 70BD     		pop	{r4, r5, r6, pc}
  63              	.L3:
  64 0026 00BF     		.align	2
  65              	.L2:
  66 0028 00000000 		.word	.LANCHOR0
  67 002c 00000000 		.word	intQueue
  68              		.cfi_endproc
  69              	.LFE64:
  70              		.size	UART_OUT_RCM_Handler, .-UART_OUT_RCM_Handler
  71              		.section	.text.UART_OUT_RCU_Handler,"ax",%progbits
  72              		.align	1
  73              		.global	UART_OUT_RCU_Handler
  74              		.thumb
  75              		.thumb_func
  76              		.type	UART_OUT_RCU_Handler, %function
  77              	UART_OUT_RCU_Handler:
  78              	.LFB65:
  53:main.c        **** }
  54:main.c        **** 
  55:main.c        **** CY_ISR( UART_OUT_RCU_Handler )
  56:main.c        **** {
  79              		.loc 1 56 0
  80              		.cfi_startproc
  81              		@ args = 0, pretend = 0, frame = 0
  82              		@ frame_needed = 0, uses_anonymous_args = 0
  83 0000 70B5     		push	{r4, r5, r6, lr}
  84              		.cfi_def_cfa_offset 16
  85              		.cfi_offset 4, -16
  86              		.cfi_offset 5, -12
  87              		.cfi_offset 6, -8
  88              		.cfi_offset 14, -4
  57:main.c        ****     intQueue[intCnt].port = 0x11;
  89              		.loc 1 57 0
  90 0002 094C     		ldr	r4, .L5
  91 0004 094D     		ldr	r5, .L5+4
  92 0006 2378     		ldrb	r3, [r4]	@ zero_extendqisi2
  93 0008 1122     		movs	r2, #17
  94 000a 05F81320 		strb	r2, [r5, r3, lsl #1]
  58:main.c        ****     intQueue[intCnt].data = RCU_Read();
  95              		.loc 1 58 0
  96 000e 2678     		ldrb	r6, [r4]	@ zero_extendqisi2
  97 0010 FFF7FEFF 		bl	RCU_Read
  98              	.LVL1:
  59:main.c        ****     intCnt++;
  99              		.loc 1 59 0
 100 0014 2378     		ldrb	r3, [r4]	@ zero_extendqisi2
  58:main.c        ****     intQueue[intCnt].data = RCU_Read();
 101              		.loc 1 58 0
 102 0016 F6B2     		uxtb	r6, r6
 103              		.loc 1 59 0
 104 0018 0133     		adds	r3, r3, #1
  58:main.c        ****     intQueue[intCnt].data = RCU_Read();
 105              		.loc 1 58 0
 106 001a 05EB4605 		add	r5, r5, r6, lsl #1
 107              		.loc 1 59 0
ARM GAS  C:\Users\Kiwi\AppData\Local\Temp\cckzbvMb.s 			page 4


 108 001e DBB2     		uxtb	r3, r3
  58:main.c        ****     intQueue[intCnt].data = RCU_Read();
 109              		.loc 1 58 0
 110 0020 6870     		strb	r0, [r5, #1]
 111              		.loc 1 59 0
 112 0022 2370     		strb	r3, [r4]
 113 0024 70BD     		pop	{r4, r5, r6, pc}
 114              	.L6:
 115 0026 00BF     		.align	2
 116              	.L5:
 117 0028 00000000 		.word	.LANCHOR0
 118 002c 00000000 		.word	intQueue
 119              		.cfi_endproc
 120              	.LFE65:
 121              		.size	UART_OUT_RCU_Handler, .-UART_OUT_RCU_Handler
 122              		.section	.text.UART_OUT_ROD_Handler,"ax",%progbits
 123              		.align	1
 124              		.global	UART_OUT_ROD_Handler
 125              		.thumb
 126              		.thumb_func
 127              		.type	UART_OUT_ROD_Handler, %function
 128              	UART_OUT_ROD_Handler:
 129              	.LFB66:
  60:main.c        **** }
  61:main.c        **** 
  62:main.c        **** CY_ISR( UART_OUT_ROD_Handler )
  63:main.c        **** {
 130              		.loc 1 63 0
 131              		.cfi_startproc
 132              		@ args = 0, pretend = 0, frame = 0
 133              		@ frame_needed = 0, uses_anonymous_args = 0
 134 0000 70B5     		push	{r4, r5, r6, lr}
 135              		.cfi_def_cfa_offset 16
 136              		.cfi_offset 4, -16
 137              		.cfi_offset 5, -12
 138              		.cfi_offset 6, -8
 139              		.cfi_offset 14, -4
  64:main.c        ****     intQueue[intCnt].port = 0x12;
 140              		.loc 1 64 0
 141 0002 094C     		ldr	r4, .L8
 142 0004 094D     		ldr	r5, .L8+4
 143 0006 2378     		ldrb	r3, [r4]	@ zero_extendqisi2
 144 0008 1222     		movs	r2, #18
 145 000a 05F81320 		strb	r2, [r5, r3, lsl #1]
  65:main.c        ****     intQueue[intCnt].data = ROD_Read();
 146              		.loc 1 65 0
 147 000e 2678     		ldrb	r6, [r4]	@ zero_extendqisi2
 148 0010 FFF7FEFF 		bl	ROD_Read
 149              	.LVL2:
  66:main.c        ****     intCnt++;
 150              		.loc 1 66 0
 151 0014 2378     		ldrb	r3, [r4]	@ zero_extendqisi2
  65:main.c        ****     intQueue[intCnt].data = ROD_Read();
 152              		.loc 1 65 0
 153 0016 F6B2     		uxtb	r6, r6
 154              		.loc 1 66 0
 155 0018 0133     		adds	r3, r3, #1
ARM GAS  C:\Users\Kiwi\AppData\Local\Temp\cckzbvMb.s 			page 5


  65:main.c        ****     intQueue[intCnt].data = ROD_Read();
 156              		.loc 1 65 0
 157 001a 05EB4605 		add	r5, r5, r6, lsl #1
 158              		.loc 1 66 0
 159 001e DBB2     		uxtb	r3, r3
  65:main.c        ****     intQueue[intCnt].data = ROD_Read();
 160              		.loc 1 65 0
 161 0020 6870     		strb	r0, [r5, #1]
 162              		.loc 1 66 0
 163 0022 2370     		strb	r3, [r4]
 164 0024 70BD     		pop	{r4, r5, r6, pc}
 165              	.L9:
 166 0026 00BF     		.align	2
 167              	.L8:
 168 0028 00000000 		.word	.LANCHOR0
 169 002c 00000000 		.word	intQueue
 170              		.cfi_endproc
 171              	.LFE66:
 172              		.size	UART_OUT_ROD_Handler, .-UART_OUT_ROD_Handler
 173              		.section	.text.UART_OUT_RST_Handler,"ax",%progbits
 174              		.align	1
 175              		.global	UART_OUT_RST_Handler
 176              		.thumb
 177              		.thumb_func
 178              		.type	UART_OUT_RST_Handler, %function
 179              	UART_OUT_RST_Handler:
 180              	.LFB67:
  67:main.c        **** }
  68:main.c        **** 
  69:main.c        **** CY_ISR( UART_OUT_RST_Handler )
  70:main.c        **** {
 181              		.loc 1 70 0
 182              		.cfi_startproc
 183              		@ args = 0, pretend = 0, frame = 0
 184              		@ frame_needed = 0, uses_anonymous_args = 0
 185 0000 70B5     		push	{r4, r5, r6, lr}
 186              		.cfi_def_cfa_offset 16
 187              		.cfi_offset 4, -16
 188              		.cfi_offset 5, -12
 189              		.cfi_offset 6, -8
 190              		.cfi_offset 14, -4
  71:main.c        ****     intQueue[intCnt].port = 0x13;
 191              		.loc 1 71 0
 192 0002 094C     		ldr	r4, .L11
 193 0004 094D     		ldr	r5, .L11+4
 194 0006 2378     		ldrb	r3, [r4]	@ zero_extendqisi2
 195 0008 1322     		movs	r2, #19
 196 000a 05F81320 		strb	r2, [r5, r3, lsl #1]
  72:main.c        ****     intQueue[intCnt].data = RST_Read();
 197              		.loc 1 72 0
 198 000e 2678     		ldrb	r6, [r4]	@ zero_extendqisi2
 199 0010 FFF7FEFF 		bl	RST_Read
 200              	.LVL3:
  73:main.c        ****     intCnt++;
 201              		.loc 1 73 0
 202 0014 2378     		ldrb	r3, [r4]	@ zero_extendqisi2
  72:main.c        ****     intQueue[intCnt].data = RST_Read();
ARM GAS  C:\Users\Kiwi\AppData\Local\Temp\cckzbvMb.s 			page 6


 203              		.loc 1 72 0
 204 0016 F6B2     		uxtb	r6, r6
 205              		.loc 1 73 0
 206 0018 0133     		adds	r3, r3, #1
  72:main.c        ****     intQueue[intCnt].data = RST_Read();
 207              		.loc 1 72 0
 208 001a 05EB4605 		add	r5, r5, r6, lsl #1
 209              		.loc 1 73 0
 210 001e DBB2     		uxtb	r3, r3
  72:main.c        ****     intQueue[intCnt].data = RST_Read();
 211              		.loc 1 72 0
 212 0020 6870     		strb	r0, [r5, #1]
 213              		.loc 1 73 0
 214 0022 2370     		strb	r3, [r4]
 215 0024 70BD     		pop	{r4, r5, r6, pc}
 216              	.L12:
 217 0026 00BF     		.align	2
 218              	.L11:
 219 0028 00000000 		.word	.LANCHOR0
 220 002c 00000000 		.word	intQueue
 221              		.cfi_endproc
 222              	.LFE67:
 223              		.size	UART_OUT_RST_Handler, .-UART_OUT_RST_Handler
 224              		.section	.text.UART_IN_RRD_Handler,"ax",%progbits
 225              		.align	1
 226              		.global	UART_IN_RRD_Handler
 227              		.thumb
 228              		.thumb_func
 229              		.type	UART_IN_RRD_Handler, %function
 230              	UART_IN_RRD_Handler:
 231              	.LFB68:
  74:main.c        **** }
  75:main.c        **** 
  76:main.c        **** CY_ISR( UART_IN_RRD_Handler )
  77:main.c        **** {
 232              		.loc 1 77 0
 233              		.cfi_startproc
 234              		@ args = 0, pretend = 0, frame = 0
 235              		@ frame_needed = 0, uses_anonymous_args = 0
 236 0000 08B5     		push	{r3, lr}
 237              		.cfi_def_cfa_offset 8
 238              		.cfi_offset 3, -8
 239              		.cfi_offset 14, -4
  78:main.c        ****     RSU_Write( RSU_Read() & 0x7F );
 240              		.loc 1 78 0
 241 0002 FFF7FEFF 		bl	RSU_Read
 242              	.LVL4:
  79:main.c        **** }
 243              		.loc 1 79 0
 244 0006 BDE80840 		pop	{r3, lr}
 245              		.cfi_restore 14
 246              		.cfi_restore 3
 247              		.cfi_def_cfa_offset 0
  78:main.c        ****     RSU_Write( RSU_Read() & 0x7F );
 248              		.loc 1 78 0
 249 000a 00F07F00 		and	r0, r0, #127
 250 000e FFF7FEBF 		b	RSU_Write
ARM GAS  C:\Users\Kiwi\AppData\Local\Temp\cckzbvMb.s 			page 7


 251              	.LVL5:
 252              		.cfi_endproc
 253              	.LFE68:
 254              		.size	UART_IN_RRD_Handler, .-UART_IN_RRD_Handler
 255              		.section	.text.M1_Int_Handler,"ax",%progbits
 256              		.align	1
 257              		.global	M1_Int_Handler
 258              		.thumb
 259              		.thumb_func
 260              		.type	M1_Int_Handler, %function
 261              	M1_Int_Handler:
 262              	.LFB69:
  80:main.c        **** 
  81:main.c        **** CY_ISR( M1_Int_Handler )
  82:main.c        **** {
 263              		.loc 1 82 0
 264              		.cfi_startproc
 265              		@ args = 0, pretend = 0, frame = 0
 266              		@ frame_needed = 0, uses_anonymous_args = 0
 267 0000 F8B5     		push	{r3, r4, r5, r6, r7, lr}
 268              		.cfi_def_cfa_offset 24
 269              		.cfi_offset 3, -24
 270              		.cfi_offset 4, -20
 271              		.cfi_offset 5, -16
 272              		.cfi_offset 6, -12
 273              		.cfi_offset 7, -8
 274              		.cfi_offset 14, -4
  83:main.c        ****     nWAIT_Write(0);
  84:main.c        ****     //instQueue[instCnt].addr = (AddrH_Read()<<8) + AddrL_Read();
  85:main.c        ****     //instQueue[instCnt].data = Dta_Read();
  86:main.c        ****     //CyDelay(2);
  87:main.c        ****     instQueue[instCnt].addr = (ADH_Reg_Read()<<8) + ADL_Reg_Read();
 275              		.loc 1 87 0
 276 0002 0E4C     		ldr	r4, .L15
  83:main.c        ****     nWAIT_Write(0);
 277              		.loc 1 83 0
 278 0004 0020     		movs	r0, #0
 279 0006 FFF7FEFF 		bl	nWAIT_Write
 280              	.LVL6:
 281              		.loc 1 87 0
 282 000a 6678     		ldrb	r6, [r4, #1]	@ zero_extendqisi2
 283 000c FFF7FEFF 		bl	ADH_Reg_Read
 284              	.LVL7:
 285 0010 0746     		mov	r7, r0
 286 0012 FFF7FEFF 		bl	ADL_Reg_Read
 287              	.LVL8:
 288 0016 0A4D     		ldr	r5, .L15+4
 289 0018 F6B2     		uxtb	r6, r6
 290 001a 00EB0720 		add	r0, r0, r7, lsl #8
 291 001e 25F82600 		strh	r0, [r5, r6, lsl #2]	@ movhi
  88:main.c        ****     instQueue[instCnt].data = DT_Reg_Read();
 292              		.loc 1 88 0
 293 0022 6678     		ldrb	r6, [r4, #1]	@ zero_extendqisi2
 294 0024 FFF7FEFF 		bl	DT_Reg_Read
 295              	.LVL9:
  89:main.c        ****     instCnt++;
 296              		.loc 1 89 0
ARM GAS  C:\Users\Kiwi\AppData\Local\Temp\cckzbvMb.s 			page 8


 297 0028 6378     		ldrb	r3, [r4, #1]	@ zero_extendqisi2
  88:main.c        ****     instQueue[instCnt].data = DT_Reg_Read();
 298              		.loc 1 88 0
 299 002a F6B2     		uxtb	r6, r6
 300              		.loc 1 89 0
 301 002c 0133     		adds	r3, r3, #1
  88:main.c        ****     instQueue[instCnt].data = DT_Reg_Read();
 302              		.loc 1 88 0
 303 002e 05EB8605 		add	r5, r5, r6, lsl #2
 304              		.loc 1 89 0
 305 0032 DBB2     		uxtb	r3, r3
  88:main.c        ****     instQueue[instCnt].data = DT_Reg_Read();
 306              		.loc 1 88 0
 307 0034 A870     		strb	r0, [r5, #2]
 308              		.loc 1 89 0
 309 0036 6370     		strb	r3, [r4, #1]
 310 0038 F8BD     		pop	{r3, r4, r5, r6, r7, pc}
 311              	.L16:
 312 003a 00BF     		.align	2
 313              	.L15:
 314 003c 00000000 		.word	.LANCHOR0
 315 0040 00000000 		.word	instQueue
 316              		.cfi_endproc
 317              	.LFE69:
 318              		.size	M1_Int_Handler, .-M1_Int_Handler
 319              		.section	.text.SAPI_Reset,"ax",%progbits
 320              		.align	1
 321              		.global	SAPI_Reset
 322              		.thumb
 323              		.thumb_func
 324              		.type	SAPI_Reset, %function
 325              	SAPI_Reset:
 326              	.LFB70:
  90:main.c        **** }
  91:main.c        **** 
  92:main.c        **** #define BS170
  93:main.c        **** void SAPI_Reset() {
 327              		.loc 1 93 0
 328              		.cfi_startproc
 329              		@ args = 0, pretend = 0, frame = 0
 330              		@ frame_needed = 0, uses_anonymous_args = 0
 331 0000 08B5     		push	{r3, lr}
 332              		.cfi_def_cfa_offset 8
 333              		.cfi_offset 3, -8
 334              		.cfi_offset 14, -4
  94:main.c        **** #ifdef BS170
  95:main.c        ****     RTL_Write(1);
 335              		.loc 1 95 0
 336 0002 0120     		movs	r0, #1
 337 0004 FFF7FEFF 		bl	RTL_Write
 338              	.LVL10:
  96:main.c        ****     CyDelay(6);
 339              		.loc 1 96 0
 340 0008 0620     		movs	r0, #6
 341 000a FFF7FEFF 		bl	CyDelay
 342              	.LVL11:
  97:main.c        ****     RTL_Write(0);
ARM GAS  C:\Users\Kiwi\AppData\Local\Temp\cckzbvMb.s 			page 9


  98:main.c        **** #else
  99:main.c        ****     RTL_Write(0);
 100:main.c        ****     CyDelay(6);
 101:main.c        ****     RTL_Write(1);
 102:main.c        **** #endif
 103:main.c        ****     //CyDelay(1);
 104:main.c        **** }
 343              		.loc 1 104 0
 344 000e BDE80840 		pop	{r3, lr}
 345              		.cfi_restore 14
 346              		.cfi_restore 3
 347              		.cfi_def_cfa_offset 0
  97:main.c        ****     RTL_Write(0);
 348              		.loc 1 97 0
 349 0012 0020     		movs	r0, #0
 350 0014 FFF7FEBF 		b	RTL_Write
 351              	.LVL12:
 352              		.cfi_endproc
 353              	.LFE70:
 354              		.size	SAPI_Reset, .-SAPI_Reset
 355              		.section	.text.USBUART_printf,"ax",%progbits
 356              		.align	1
 357              		.global	USBUART_printf
 358              		.thumb
 359              		.thumb_func
 360              		.type	USBUART_printf, %function
 361              	USBUART_printf:
 362              	.LFB71:
 105:main.c        **** 
 106:main.c        **** int USBUART_printf(const char *format, ...)
 107:main.c        **** {
 363              		.loc 1 107 0
 364              		.cfi_startproc
 365              		@ args = 4, pretend = 16, frame = 136
 366              		@ frame_needed = 0, uses_anonymous_args = 1
 367              	.LVL13:
 368 0000 0FB4     		push	{r0, r1, r2, r3}
 369              		.cfi_def_cfa_offset 16
 370              		.cfi_offset 0, -16
 371              		.cfi_offset 1, -12
 372              		.cfi_offset 2, -8
 373              		.cfi_offset 3, -4
 374 0002 10B5     		push	{r4, lr}
 375              		.cfi_def_cfa_offset 24
 376              		.cfi_offset 4, -24
 377              		.cfi_offset 14, -20
 108:main.c        ****     if(noUART)
 378              		.loc 1 108 0
 379 0004 0D4B     		ldr	r3, .L25
 107:main.c        ****     if(noUART)
 380              		.loc 1 107 0
 381 0006 A2B0     		sub	sp, sp, #136
 382              		.cfi_def_cfa_offset 160
 383              		.loc 1 108 0
 384 0008 1B68     		ldr	r3, [r3]
 385 000a 7BB9     		cbnz	r3, .L21
 109:main.c        ****         return -1;
ARM GAS  C:\Users\Kiwi\AppData\Local\Temp\cckzbvMb.s 			page 10


 110:main.c        **** 
 111:main.c        ****     char tmpstr[128];
 112:main.c        ****     int ret;
 113:main.c        ****     
 114:main.c        ****     va_list args;
 115:main.c        ****     va_start(args, format);
 386              		.loc 1 115 0
 387 000c 25AA     		add	r2, sp, #148
 116:main.c        **** 
 117:main.c        ****     ret=vsprintf(tmpstr, format, args);
 388              		.loc 1 117 0
 389 000e 2499     		ldr	r1, [sp, #144]
 390 0010 02A8     		add	r0, sp, #8
 115:main.c        **** 
 391              		.loc 1 115 0
 392 0012 0192     		str	r2, [sp, #4]
 393              		.loc 1 117 0
 394 0014 FFF7FEFF 		bl	vsprintf
 395              	.LVL14:
 396 0018 0446     		mov	r4, r0
 397              	.LVL15:
 398              	.L20:
 118:main.c        ****     while(!USBUART_CDCIsReady());
 399              		.loc 1 118 0 discriminator 1
 400 001a FFF7FEFF 		bl	USBUART_CDCIsReady
 401              	.LVL16:
 402 001e 0028     		cmp	r0, #0
 403 0020 FBD0     		beq	.L20
 119:main.c        ****     USBUART_PutString(tmpstr);
 404              		.loc 1 119 0
 405 0022 02A8     		add	r0, sp, #8
 406 0024 FFF7FEFF 		bl	USBUART_PutString
 407              	.LVL17:
 120:main.c        ****     
 121:main.c        ****     va_end(args);
 122:main.c        ****     
 123:main.c        ****     return ret;
 408              		.loc 1 123 0
 409 0028 2046     		mov	r0, r4
 410 002a 01E0     		b	.L19
 411              	.LVL18:
 412              	.L21:
 109:main.c        **** 
 413              		.loc 1 109 0
 414 002c 4FF0FF30 		mov	r0, #-1
 415              	.L19:
 124:main.c        **** }    
 416              		.loc 1 124 0
 417 0030 22B0     		add	sp, sp, #136
 418              		.cfi_def_cfa_offset 24
 419              		@ sp needed
 420 0032 BDE81040 		pop	{r4, lr}
 421              		.cfi_restore 14
 422              		.cfi_restore 4
 423              		.cfi_def_cfa_offset 16
 424 0036 04B0     		add	sp, sp, #16
 425              		.cfi_restore 3
ARM GAS  C:\Users\Kiwi\AppData\Local\Temp\cckzbvMb.s 			page 11


 426              		.cfi_restore 2
 427              		.cfi_restore 1
 428              		.cfi_restore 0
 429              		.cfi_def_cfa_offset 0
 430 0038 7047     		bx	lr
 431              	.L26:
 432 003a 00BF     		.align	2
 433              	.L25:
 434 003c 00000000 		.word	.LANCHOR1
 435              		.cfi_endproc
 436              	.LFE71:
 437              		.size	USBUART_printf, .-USBUART_printf
 438              		.section	.text.UART_printf,"ax",%progbits
 439              		.align	1
 440              		.global	UART_printf
 441              		.thumb
 442              		.thumb_func
 443              		.type	UART_printf, %function
 444              	UART_printf:
 445              	.LFB72:
 125:main.c        **** 
 126:main.c        **** int UART_printf(const char *format, ...)
 127:main.c        **** {
 446              		.loc 1 127 0
 447              		.cfi_startproc
 448              		@ args = 4, pretend = 16, frame = 136
 449              		@ frame_needed = 0, uses_anonymous_args = 1
 450              	.LVL19:
 451 0000 0FB4     		push	{r0, r1, r2, r3}
 452              		.cfi_def_cfa_offset 16
 453              		.cfi_offset 0, -16
 454              		.cfi_offset 1, -12
 455              		.cfi_offset 2, -8
 456              		.cfi_offset 3, -4
 457 0002 10B5     		push	{r4, lr}
 458              		.cfi_def_cfa_offset 24
 459              		.cfi_offset 4, -24
 460              		.cfi_offset 14, -20
 461 0004 A2B0     		sub	sp, sp, #136
 462              		.cfi_def_cfa_offset 160
 463              		.loc 1 127 0
 464 0006 24AA     		add	r2, sp, #144
 465 0008 52F8041B 		ldr	r1, [r2], #4
 128:main.c        ****     char tmpstr[128];
 129:main.c        ****     int ret;
 130:main.c        ****     
 131:main.c        ****     va_list args;
 132:main.c        ****     va_start(args, format);
 133:main.c        **** 
 134:main.c        ****     ret=vsprintf(tmpstr, format, args);
 466              		.loc 1 134 0
 467 000c 02A8     		add	r0, sp, #8
 132:main.c        **** 
 468              		.loc 1 132 0
 469 000e 0192     		str	r2, [sp, #4]
 470              		.loc 1 134 0
 471 0010 FFF7FEFF 		bl	vsprintf
ARM GAS  C:\Users\Kiwi\AppData\Local\Temp\cckzbvMb.s 			page 12


 472              	.LVL20:
 473 0014 0446     		mov	r4, r0
 474              	.LVL21:
 135:main.c        ****     // while(!UART_CDCIsReady());
 136:main.c        ****     UART_PutString(tmpstr);
 475              		.loc 1 136 0
 476 0016 02A8     		add	r0, sp, #8
 477              	.LVL22:
 478 0018 FFF7FEFF 		bl	UART_PutString
 479              	.LVL23:
 137:main.c        ****     
 138:main.c        ****     va_end(args);
 139:main.c        ****     
 140:main.c        ****     return ret;
 141:main.c        **** }    
 480              		.loc 1 141 0
 481 001c 2046     		mov	r0, r4
 482 001e 22B0     		add	sp, sp, #136
 483              		.cfi_def_cfa_offset 24
 484              		@ sp needed
 485 0020 BDE81040 		pop	{r4, lr}
 486              		.cfi_restore 14
 487              		.cfi_restore 4
 488              		.cfi_def_cfa_offset 16
 489              	.LVL24:
 490 0024 04B0     		add	sp, sp, #16
 491              		.cfi_restore 3
 492              		.cfi_restore 2
 493              		.cfi_restore 1
 494              		.cfi_restore 0
 495              		.cfi_def_cfa_offset 0
 496 0026 7047     		bx	lr
 497              		.cfi_endproc
 498              	.LFE72:
 499              		.size	UART_printf, .-UART_printf
 500              		.section	.text.Get_SAPI_Bus,"ax",%progbits
 501              		.align	1
 502              		.global	Get_SAPI_Bus
 503              		.thumb
 504              		.thumb_func
 505              		.type	Get_SAPI_Bus, %function
 506              	Get_SAPI_Bus:
 507              	.LFB73:
 142:main.c        **** 
 143:main.c        **** /*
 144:main.c        **** void TermPutString(char * str) {
 145:main.c        ****     if(noUART)
 146:main.c        ****         return;
 147:main.c        ****     if(strlen(str)>50) // aaa - correct later, but large string would block
 148:main.c        ****         return;
 149:main.c        ****     uint32 timeout = Millis_ReadCounter();
 150:main.c        ****     if (0u != USBUART_GetConfiguration()) {    
 151:main.c        ****         while (0u == USBUART_CDCIsReady())
 152:main.c        ****         {
 153:main.c        ****             if (Millis_ReadCounter()-timeout > 100) {
 154:main.c        ****                 return; // prevent getting stuck
 155:main.c        ****             }
ARM GAS  C:\Users\Kiwi\AppData\Local\Temp\cckzbvMb.s 			page 13


 156:main.c        ****         }    
 157:main.c        ****         USBUART_PutString(str);
 158:main.c        ****     }
 159:main.c        ****     timeout = Millis_ReadCounter();
 160:main.c        ****     while((!USBUART_CDCIsReady()) && (Millis_ReadCounter()-timeout<100)){     // Wait for Tx to fin
 161:main.c        ****         CyDelay(1);
 162:main.c        ****     }
 163:main.c        **** }    
 164:main.c        **** 
 165:main.c        **** void TermPutChar(char ch) {
 166:main.c        ****     if(noUART)
 167:main.c        ****         return;
 168:main.c        ****     // USBUART_PutChar(ch);
 169:main.c        ****     uint32 timeout = Millis_ReadCounter();
 170:main.c        ****     if (0u != USBUART_GetConfiguration()) {    
 171:main.c        ****         while (0u == USBUART_CDCIsReady())
 172:main.c        ****         {
 173:main.c        ****             if (Millis_ReadCounter()-timeout > 100) {
 174:main.c        ****                 return; // prevent getting stuck
 175:main.c        ****             }
 176:main.c        ****         }    
 177:main.c        ****         USBUART_PutChar(ch);
 178:main.c        ****     }
 179:main.c        ****     timeout = Millis_ReadCounter();
 180:main.c        ****     while((!USBUART_CDCIsReady()) && (Millis_ReadCounter()-timeout<100)){     // Wait for Tx to fin
 181:main.c        ****         CyDelay(1);
 182:main.c        ****     }
 183:main.c        **** }    
 184:main.c        **** */
 185:main.c        **** 
 186:main.c        **** uint8 Get_SAPI_Bus() {
 508              		.loc 1 186 0
 509              		.cfi_startproc
 510              		@ args = 0, pretend = 0, frame = 0
 511              		@ frame_needed = 0, uses_anonymous_args = 0
 512 0000 10B5     		push	{r4, lr}
 513              		.cfi_def_cfa_offset 8
 514              		.cfi_offset 4, -8
 515              		.cfi_offset 14, -4
 187:main.c        ****     // USBUART_printf("BUSAK = %d\r\n", BUSAK_Read());
 188:main.c        ****     if(waitForBus==0)
 516              		.loc 1 188 0
 517 0002 114B     		ldr	r3, .L35
 518 0004 1B79     		ldrb	r3, [r3, #4]	@ zero_extendqisi2
 519 0006 DBB1     		cbz	r3, .L33
 520              	.LBB12:
 521              	.LBB13:
 189:main.c        ****         return 1;
 190:main.c        ****     BUSRQ_Write(0);
 522              		.loc 1 190 0
 523 0008 0020     		movs	r0, #0
 524 000a FFF7FEFF 		bl	BUSRQ_Write
 525              	.LVL25:
 191:main.c        ****     USBUART_printf("Waiting BUSAK ... ");
 526              		.loc 1 191 0
 527 000e 0F48     		ldr	r0, .L35+4
 528 0010 FFF7FEFF 		bl	USBUART_printf
ARM GAS  C:\Users\Kiwi\AppData\Local\Temp\cckzbvMb.s 			page 14


 529              	.LVL26:
 530              	.L30:
 192:main.c        ****     while(BUSAK_Read()!=0) {
 531              		.loc 1 192 0
 532 0014 FFF7FEFF 		bl	BUSAK_Read
 533              	.LVL27:
 534 0018 0446     		mov	r4, r0
 535 001a 30B1     		cbz	r0, .L34
 193:main.c        ****         USBUART_printf(".");
 536              		.loc 1 193 0
 537 001c 0C48     		ldr	r0, .L35+8
 538 001e FFF7FEFF 		bl	USBUART_printf
 539              	.LVL28:
 194:main.c        ****         CyDelay(10);
 540              		.loc 1 194 0
 541 0022 0A20     		movs	r0, #10
 542 0024 FFF7FEFF 		bl	CyDelay
 543              	.LVL29:
 544 0028 F4E7     		b	.L30
 545              	.L34:
 195:main.c        ****     }
 196:main.c        ****     if(BUSAK_Read()==0) {
 546              		.loc 1 196 0
 547 002a FFF7FEFF 		bl	BUSAK_Read
 548              	.LVL30:
 549 002e 18B9     		cbnz	r0, .L32
 197:main.c        ****         USBUART_printf("OK\r\n");
 550              		.loc 1 197 0
 551 0030 0848     		ldr	r0, .L35+12
 552 0032 FFF7FEFF 		bl	USBUART_printf
 553              	.LVL31:
 554 0036 03E0     		b	.L33
 555              	.L32:
 198:main.c        ****         return 1;
 199:main.c        ****     } else {
 200:main.c        ****         USBUART_printf("FAILED\r\n");
 556              		.loc 1 200 0
 557 0038 0748     		ldr	r0, .L35+16
 558 003a FFF7FEFF 		bl	USBUART_printf
 559              	.LVL32:
 560 003e 00E0     		b	.L29
 561              	.L33:
 562              	.LBE13:
 563              	.LBE12:
 189:main.c        ****     BUSRQ_Write(0);
 564              		.loc 1 189 0
 565 0040 0124     		movs	r4, #1
 566              	.L29:
 201:main.c        ****         return 0;
 202:main.c        ****     }
 203:main.c        **** }
 567              		.loc 1 203 0
 568 0042 2046     		mov	r0, r4
 569 0044 10BD     		pop	{r4, pc}
 570              	.L36:
 571 0046 00BF     		.align	2
 572              	.L35:
ARM GAS  C:\Users\Kiwi\AppData\Local\Temp\cckzbvMb.s 			page 15


 573 0048 00000000 		.word	.LANCHOR1
 574 004c 00000000 		.word	.LC0
 575 0050 13000000 		.word	.LC1
 576 0054 15000000 		.word	.LC2
 577 0058 1A000000 		.word	.LC3
 578              		.cfi_endproc
 579              	.LFE73:
 580              		.size	Get_SAPI_Bus, .-Get_SAPI_Bus
 581              		.section	.text.Get_SAPI_Bus_Silent,"ax",%progbits
 582              		.align	1
 583              		.global	Get_SAPI_Bus_Silent
 584              		.thumb
 585              		.thumb_func
 586              		.type	Get_SAPI_Bus_Silent, %function
 587              	Get_SAPI_Bus_Silent:
 588              	.LFB74:
 204:main.c        **** 
 205:main.c        **** uint8 Get_SAPI_Bus_Silent() {
 589              		.loc 1 205 0
 590              		.cfi_startproc
 591              		@ args = 0, pretend = 0, frame = 0
 592              		@ frame_needed = 0, uses_anonymous_args = 0
 593 0000 08B5     		push	{r3, lr}
 594              		.cfi_def_cfa_offset 8
 595              		.cfi_offset 3, -8
 596              		.cfi_offset 14, -4
 206:main.c        ****     // USBUART_printf("BUSAK = %d\r\n", BUSAK_Read());
 207:main.c        ****     if(waitForBus==0)
 597              		.loc 1 207 0
 598 0002 0A4B     		ldr	r3, .L43
 599 0004 1B79     		ldrb	r3, [r3, #4]	@ zero_extendqisi2
 600 0006 7BB1     		cbz	r3, .L41
 601              	.LBB16:
 602              	.LBB17:
 208:main.c        ****         return 1;
 209:main.c        ****     BUSRQ_Write(0);
 603              		.loc 1 209 0
 604 0008 0020     		movs	r0, #0
 605 000a FFF7FEFF 		bl	BUSRQ_Write
 606              	.LVL33:
 607              	.L39:
 210:main.c        ****     //USBUART_printf("Waiting BUSAK ... ");
 211:main.c        ****     while(BUSAK_Read()!=0) {
 608              		.loc 1 211 0
 609 000e FFF7FEFF 		bl	BUSAK_Read
 610              	.LVL34:
 611 0012 18B1     		cbz	r0, .L42
 212:main.c        ****         //USBUART_printf(".");
 213:main.c        ****         CyDelay(1);
 612              		.loc 1 213 0
 613 0014 0120     		movs	r0, #1
 614 0016 FFF7FEFF 		bl	CyDelay
 615              	.LVL35:
 616 001a F8E7     		b	.L39
 617              	.L42:
 214:main.c        ****     }
 215:main.c        ****     if(BUSAK_Read()==0) {
ARM GAS  C:\Users\Kiwi\AppData\Local\Temp\cckzbvMb.s 			page 16


 618              		.loc 1 215 0
 619 001c FFF7FEFF 		bl	BUSAK_Read
 620              	.LVL36:
 621              	.LBE17:
 622              	.LBE16:
 208:main.c        ****     BUSRQ_Write(0);
 623              		.loc 1 208 0
 624 0020 B0FA80F0 		clz	r0, r0
 625 0024 4009     		lsrs	r0, r0, #5
 626 0026 08BD     		pop	{r3, pc}
 627              	.L41:
 628 0028 0120     		movs	r0, #1
 216:main.c        ****         //USBUART_printf("OK\r\n");
 217:main.c        ****         return 1;
 218:main.c        ****     } else {
 219:main.c        ****         //USBUART_printf("FAILED\r\n");
 220:main.c        ****         return 0;
 221:main.c        ****     }
 222:main.c        **** }
 629              		.loc 1 222 0
 630 002a 08BD     		pop	{r3, pc}
 631              	.L44:
 632              		.align	2
 633              	.L43:
 634 002c 00000000 		.word	.LANCHOR1
 635              		.cfi_endproc
 636              	.LFE74:
 637              		.size	Get_SAPI_Bus_Silent, .-Get_SAPI_Bus_Silent
 638              		.section	.text.Release_SAPI_Bus,"ax",%progbits
 639              		.align	1
 640              		.global	Release_SAPI_Bus
 641              		.thumb
 642              		.thumb_func
 643              		.type	Release_SAPI_Bus, %function
 644              	Release_SAPI_Bus:
 645              	.LFB75:
 223:main.c        **** 
 224:main.c        **** uint8 Release_SAPI_Bus() {
 646              		.loc 1 224 0
 647              		.cfi_startproc
 648              		@ args = 0, pretend = 0, frame = 0
 649              		@ frame_needed = 0, uses_anonymous_args = 0
 650 0000 10B5     		push	{r4, lr}
 651              		.cfi_def_cfa_offset 8
 652              		.cfi_offset 4, -8
 653              		.cfi_offset 14, -4
 225:main.c        ****     if(waitForBus==0)
 654              		.loc 1 225 0
 655 0002 124B     		ldr	r3, .L52
 656 0004 1B79     		ldrb	r3, [r3, #4]	@ zero_extendqisi2
 657 0006 F3B1     		cbz	r3, .L50
 658              	.LBB20:
 659              	.LBB21:
 226:main.c        ****         return 1;
 227:main.c        ****     BUSRQ_Write(1);
 660              		.loc 1 227 0
 661 0008 0120     		movs	r0, #1
ARM GAS  C:\Users\Kiwi\AppData\Local\Temp\cckzbvMb.s 			page 17


 662 000a FFF7FEFF 		bl	BUSRQ_Write
 663              	.LVL37:
 228:main.c        ****     USBUART_printf("Waiting BUS release ... ");
 664              		.loc 1 228 0
 665 000e 1048     		ldr	r0, .L52+4
 666 0010 FFF7FEFF 		bl	USBUART_printf
 667              	.LVL38:
 668              	.L47:
 229:main.c        ****     while(BUSAK_Read()!=1) {
 669              		.loc 1 229 0
 670 0014 FFF7FEFF 		bl	BUSAK_Read
 671              	.LVL39:
 672 0018 0128     		cmp	r0, #1
 673 001a 06D0     		beq	.L51
 230:main.c        ****         USBUART_printf(".");
 674              		.loc 1 230 0
 675 001c 0D48     		ldr	r0, .L52+8
 676 001e FFF7FEFF 		bl	USBUART_printf
 677              	.LVL40:
 231:main.c        ****         CyDelay(10);
 678              		.loc 1 231 0
 679 0022 0A20     		movs	r0, #10
 680 0024 FFF7FEFF 		bl	CyDelay
 681              	.LVL41:
 682 0028 F4E7     		b	.L47
 683              	.L51:
 232:main.c        ****     }
 233:main.c        ****     if(BUSAK_Read()==1) {
 684              		.loc 1 233 0
 685 002a FFF7FEFF 		bl	BUSAK_Read
 686              	.LVL42:
 687 002e 0128     		cmp	r0, #1
 688 0030 0446     		mov	r4, r0
 689 0032 03D1     		bne	.L49
 234:main.c        ****         USBUART_printf("OK\r\n");
 690              		.loc 1 234 0
 691 0034 0848     		ldr	r0, .L52+12
 692 0036 FFF7FEFF 		bl	USBUART_printf
 693              	.LVL43:
 694 003a 05E0     		b	.L46
 695              	.L49:
 235:main.c        ****         return 1;
 236:main.c        ****     } else {
 237:main.c        ****         USBUART_printf("FAILED\r\n");
 696              		.loc 1 237 0
 697 003c 0748     		ldr	r0, .L52+16
 698 003e FFF7FEFF 		bl	USBUART_printf
 699              	.LVL44:
 238:main.c        ****         return 0;
 700              		.loc 1 238 0
 701 0042 0024     		movs	r4, #0
 702 0044 00E0     		b	.L46
 703              	.L50:
 704              	.LBE21:
 705              	.LBE20:
 226:main.c        ****     BUSRQ_Write(1);
 706              		.loc 1 226 0
ARM GAS  C:\Users\Kiwi\AppData\Local\Temp\cckzbvMb.s 			page 18


 707 0046 0124     		movs	r4, #1
 708              	.L46:
 239:main.c        ****     }
 240:main.c        **** }
 709              		.loc 1 240 0
 710 0048 2046     		mov	r0, r4
 711 004a 10BD     		pop	{r4, pc}
 712              	.L53:
 713              		.align	2
 714              	.L52:
 715 004c 00000000 		.word	.LANCHOR1
 716 0050 23000000 		.word	.LC4
 717 0054 13000000 		.word	.LC1
 718 0058 15000000 		.word	.LC2
 719 005c 1A000000 		.word	.LC3
 720              		.cfi_endproc
 721              	.LFE75:
 722              		.size	Release_SAPI_Bus, .-Release_SAPI_Bus
 723              		.section	.text.Release_SAPI_Bus_Silent,"ax",%progbits
 724              		.align	1
 725              		.global	Release_SAPI_Bus_Silent
 726              		.thumb
 727              		.thumb_func
 728              		.type	Release_SAPI_Bus_Silent, %function
 729              	Release_SAPI_Bus_Silent:
 730              	.LFB76:
 241:main.c        **** 
 242:main.c        **** uint8 Release_SAPI_Bus_Silent() {
 731              		.loc 1 242 0
 732              		.cfi_startproc
 733              		@ args = 0, pretend = 0, frame = 0
 734              		@ frame_needed = 0, uses_anonymous_args = 0
 735 0000 08B5     		push	{r3, lr}
 736              		.cfi_def_cfa_offset 8
 737              		.cfi_offset 3, -8
 738              		.cfi_offset 14, -4
 243:main.c        ****     if(waitForBus==0)
 739              		.loc 1 243 0
 740 0002 0A4B     		ldr	r3, .L60
 244:main.c        ****         return 1;
 741              		.loc 1 244 0
 742 0004 0120     		movs	r0, #1
 243:main.c        ****     if(waitForBus==0)
 743              		.loc 1 243 0
 744 0006 1B79     		ldrb	r3, [r3, #4]	@ zero_extendqisi2
 745 0008 7BB1     		cbz	r3, .L58
 746              	.LBB24:
 747              	.LBB25:
 245:main.c        ****     BUSRQ_Write(1);
 748              		.loc 1 245 0
 749 000a FFF7FEFF 		bl	BUSRQ_Write
 750              	.LVL45:
 751              	.L56:
 246:main.c        ****     //USBUART_printf("Waiting BUS release ... ");
 247:main.c        ****     while(BUSAK_Read()!=1) {
 752              		.loc 1 247 0
 753 000e FFF7FEFF 		bl	BUSAK_Read
ARM GAS  C:\Users\Kiwi\AppData\Local\Temp\cckzbvMb.s 			page 19


 754              	.LVL46:
 755 0012 0128     		cmp	r0, #1
 756 0014 03D0     		beq	.L59
 248:main.c        ****         //USBUART_printf(".");
 249:main.c        ****         CyDelay(1);
 757              		.loc 1 249 0
 758 0016 0120     		movs	r0, #1
 759 0018 FFF7FEFF 		bl	CyDelay
 760              	.LVL47:
 761 001c F7E7     		b	.L56
 762              	.L59:
 250:main.c        ****     }
 251:main.c        ****     if(BUSAK_Read()==1) {
 763              		.loc 1 251 0
 764 001e FFF7FEFF 		bl	BUSAK_Read
 765              	.LVL48:
 766              	.LBE25:
 767              	.LBE24:
 244:main.c        ****     BUSRQ_Write(1);
 768              		.loc 1 244 0
 769 0022 431E     		subs	r3, r0, #1
 770 0024 5842     		rsbs	r0, r3, #0
 771 0026 5841     		adcs	r0, r0, r3
 772 0028 08BD     		pop	{r3, pc}
 773              	.L58:
 252:main.c        ****         //USBUART_printf("OK\r\n");
 253:main.c        ****         return 1;
 254:main.c        ****     } else {
 255:main.c        ****         //USBUART_printf("FAILED\r\n");
 256:main.c        ****         return 0;
 257:main.c        ****     }
 258:main.c        **** }
 774              		.loc 1 258 0
 775 002a 08BD     		pop	{r3, pc}
 776              	.L61:
 777              		.align	2
 778              	.L60:
 779 002c 00000000 		.word	.LANCHOR1
 780              		.cfi_endproc
 781              	.LFE76:
 782              		.size	Release_SAPI_Bus_Silent, .-Release_SAPI_Bus_Silent
 783              		.section	.text.DumpMem,"ax",%progbits
 784              		.align	1
 785              		.global	DumpMem
 786              		.thumb
 787              		.thumb_func
 788              		.type	DumpMem, %function
 789              	DumpMem:
 790              	.LFB78:
 259:main.c        **** 
 260:main.c        **** void DumpMem(uint16 addr);
 261:main.c        **** 
 262:main.c        **** void RAM_check() {
 263:main.c        ****     uint32 testfrom = 0x0000;
 264:main.c        ****     uint32 testlen = 0x10000;
 265:main.c        ****     uint8 r;
 266:main.c        ****     uint8 s;
ARM GAS  C:\Users\Kiwi\AppData\Local\Temp\cckzbvMb.s 			page 20


 267:main.c        ****     int err=0;
 268:main.c        ****     
 269:main.c        ****     if(!Get_SAPI_Bus()) {
 270:main.c        ****         return;
 271:main.c        ****     }
 272:main.c        **** 
 273:main.c        ****     AddrL_Write(0);
 274:main.c        ****     AddrL_SetDriveMode(PIN_DM_STRONG);
 275:main.c        ****     AddrH_Write(0);
 276:main.c        ****     AddrH_SetDriveMode(PIN_DM_STRONG);
 277:main.c        ****     
 278:main.c        ****     // SRAM under my control DATAOUT CTL OER WE MSEL
 279:main.c        ****     SRAM_Ctl_Write(0b01111);
 280:main.c        ****     
 281:main.c        ****     USBUART_printf("filling RAM with patttern\r\n");
 282:main.c        ****     for(uint32 a=testfrom; a<testfrom+testlen; a=a+2) {
 283:main.c        ****         AddrH_Write((a>>8)&0xFF);
 284:main.c        ****         AddrL_Write(a&0xFF);
 285:main.c        ****         BusDta_Write((a>>8)&0xFF);
 286:main.c        ****         // DATAOUT + WE + MSEL
 287:main.c        ****         SRAM_Ctl_Write(0b11100);
 288:main.c        ****         CyDelayUs(1);
 289:main.c        ****         SRAM_Ctl_Write(0b01111);
 290:main.c        ****         CyDelayUs(1);
 291:main.c        ****         AddrL_Write((a&0xFF)+1);
 292:main.c        ****         BusDta_Write(a);
 293:main.c        ****         SRAM_Ctl_Write(0b11100);
 294:main.c        ****         CyDelayUs(1);
 295:main.c        ****         SRAM_Ctl_Write(0b01111);
 296:main.c        ****         CyDelayUs(1);
 297:main.c        ****     }
 298:main.c        ****     USBUART_printf("verifying RAM\r\n");
 299:main.c        **** 
 300:main.c        ****     // OER + MSEL = furt data ze SRAM na sbernici
 301:main.c        ****     SRAM_Ctl_Write(0b01010);
 302:main.c        **** 
 303:main.c        ****     for(uint32 a=testfrom; a<testlen; a++) {
 304:main.c        ****         AddrH_Write((a>>8)&0xFF);
 305:main.c        ****         AddrL_Write(a&0xFF);
 306:main.c        ****         CyDelayUs(2);
 307:main.c        ****         r=Dta_Read();
 308:main.c        ****         CyDelayUs(1);
 309:main.c        ****         //USBUART_printf("%02X", r);
 310:main.c        ****         //if((a&0x1F)==0x1F)
 311:main.c        ****         //    USBUART_printf("\r\n");
 312:main.c        ****         if(a&1) {
 313:main.c        ****             s=(a&0xFF)-1;
 314:main.c        ****         } else {
 315:main.c        ****             s=(a>>8)&0xFF;
 316:main.c        ****         }
 317:main.c        ****         if(r!=s) {
 318:main.c        ****             USBUART_printf("Error at %04X, expected %02X, but found %02X\r\n", a, s, r);
 319:main.c        ****             err++;
 320:main.c        ****             DumpMem(a & 0xFF00);
 321:main.c        ****             if(!Get_SAPI_Bus()) {
 322:main.c        ****                 return;
 323:main.c        ****             }
ARM GAS  C:\Users\Kiwi\AppData\Local\Temp\cckzbvMb.s 			page 21


 324:main.c        ****             AddrL_SetDriveMode(PIN_DM_STRONG);
 325:main.c        ****             AddrH_SetDriveMode(PIN_DM_STRONG);
 326:main.c        ****             SRAM_Ctl_Write(0b01010);
 327:main.c        ****         }
 328:main.c        ****     }
 329:main.c        **** 
 330:main.c        ****     // SRAM under my control DATAOUT CTL OER WE MSEL
 331:main.c        ****     SRAM_Ctl_Write(0b01111);
 332:main.c        ****     
 333:main.c        ****     USBUART_printf("filling RAM with inverted patttern\r\n");
 334:main.c        ****     for(uint32 a=testfrom; a<testfrom+testlen; a=a+2) {
 335:main.c        ****         AddrH_Write((a>>8)&0xFF);
 336:main.c        ****         AddrL_Write(a&0xFF);
 337:main.c        ****         BusDta_Write(~((a>>8)&0xFF));
 338:main.c        ****         // DATAOUT + WE + MSEL
 339:main.c        ****         SRAM_Ctl_Write(0b11100);
 340:main.c        ****         CyDelayUs(1);
 341:main.c        ****         SRAM_Ctl_Write(0b01111);
 342:main.c        ****         CyDelayUs(1);
 343:main.c        ****         AddrL_Write((a&0xFF)+1);
 344:main.c        ****         BusDta_Write(~a);
 345:main.c        ****         SRAM_Ctl_Write(0b11100);
 346:main.c        ****         CyDelayUs(1);
 347:main.c        ****         SRAM_Ctl_Write(0b01111);
 348:main.c        ****         CyDelayUs(1);
 349:main.c        ****     }
 350:main.c        ****     USBUART_printf("verifying RAM\r\n");
 351:main.c        **** 
 352:main.c        ****     // OER + MSEL = furt data ze SRAM na sbernici
 353:main.c        ****     SRAM_Ctl_Write(0b01010);
 354:main.c        **** 
 355:main.c        ****     for(uint32 a=testfrom; a<testlen; a++) {
 356:main.c        ****         AddrH_Write((a>>8)&0xFF);
 357:main.c        ****         AddrL_Write(a&0xFF);
 358:main.c        ****         CyDelayUs(1);
 359:main.c        ****         r=Dta_Read();
 360:main.c        ****         CyDelayUs(1);
 361:main.c        ****         //USBUART_printf("%02X", r);
 362:main.c        ****         //if((a&0x1F)==0x1F)
 363:main.c        ****         //    USBUART_printf("\r\n");
 364:main.c        ****         if(a&1) {
 365:main.c        ****             s=~((a&0xFF)-1);
 366:main.c        ****         } else {
 367:main.c        ****             s=~((a>>8)&0xFF);
 368:main.c        ****         }
 369:main.c        ****         if(r!=s) {
 370:main.c        ****             USBUART_printf("Error at %04X, expected %02X, but found %02X\r\n", a, s, r);
 371:main.c        ****             err++;
 372:main.c        ****         }
 373:main.c        ****     }
 374:main.c        **** 
 375:main.c        ****     // relase SRAM to SAPI - CTL OER WE MSEL
 376:main.c        ****     SRAM_Ctl_Write(0b00111);
 377:main.c        ****     
 378:main.c        ****     AddrL_Write(0);
 379:main.c        ****     AddrL_SetDriveMode(PIN_DM_DIG_HIZ);
 380:main.c        ****     AddrH_Write(0);
ARM GAS  C:\Users\Kiwi\AppData\Local\Temp\cckzbvMb.s 			page 22


 381:main.c        ****     AddrH_SetDriveMode(PIN_DM_DIG_HIZ);
 382:main.c        ****     //Dta_Write(0xFF);
 383:main.c        ****     //Dta_SetDriveMode(PIN_DM_RES_UP);
 384:main.c        ****     
 385:main.c        ****     if(err) {
 386:main.c        ****         USBUART_printf("%d errors found :-(\r\n", err);
 387:main.c        ****     } else {
 388:main.c        ****         USBUART_printf("No errors found :-)\r\n");
 389:main.c        ****     }
 390:main.c        ****     Release_SAPI_Bus();
 391:main.c        **** 
 392:main.c        ****     USBUART_printf("Data has been corrupted by memory test, performing SAPI reset.\r\n");
 393:main.c        ****     SAPI_Reset();
 394:main.c        **** }
 395:main.c        **** 
 396:main.c        **** void DumpMem(uint16 addr) {
 791              		.loc 1 396 0
 792              		.cfi_startproc
 793              		@ args = 0, pretend = 0, frame = 0
 794              		@ frame_needed = 0, uses_anonymous_args = 0
 795              	.LVL49:
 796 0000 F8B5     		push	{r3, r4, r5, r6, r7, lr}
 797              		.cfi_def_cfa_offset 24
 798              		.cfi_offset 3, -24
 799              		.cfi_offset 4, -20
 800              		.cfi_offset 5, -16
 801              		.cfi_offset 6, -12
 802              		.cfi_offset 7, -8
 803              		.cfi_offset 14, -4
 804              		.loc 1 396 0
 805 0002 0546     		mov	r5, r0
 397:main.c        ****     uint8 r;
 398:main.c        **** 
 399:main.c        ****     if(!Get_SAPI_Bus()) {
 806              		.loc 1 399 0
 807 0004 FFF7FEFF 		bl	Get_SAPI_Bus
 808              	.LVL50:
 809 0008 0028     		cmp	r0, #0
 810 000a 4BD0     		beq	.L62
 811              	.LVL51:
 812              	.LBB29:
 813              	.LBB30:
 400:main.c        ****         return;
 401:main.c        ****     }
 402:main.c        **** 
 403:main.c        ****     // SRAM under my control DATAOUT CTL OER WE MSEL
 404:main.c        ****     SRAM_Ctl_Write(0b01111);
 814              		.loc 1 404 0
 815 000c 0F20     		movs	r0, #15
 816 000e FFF7FEFF 		bl	SRAM_Ctl_Write
 817              	.LVL52:
 405:main.c        ****     
 406:main.c        ****     AddrL_Write(0);
 818              		.loc 1 406 0
 819 0012 0020     		movs	r0, #0
 820 0014 FFF7FEFF 		bl	AddrL_Write
 821              	.LVL53:
ARM GAS  C:\Users\Kiwi\AppData\Local\Temp\cckzbvMb.s 			page 23


 407:main.c        ****     AddrL_SetDriveMode(PIN_DM_STRONG);
 822              		.loc 1 407 0
 823 0018 0C20     		movs	r0, #12
 824 001a FFF7FEFF 		bl	AddrL_SetDriveMode
 825              	.LVL54:
 408:main.c        ****     AddrH_Write(0);
 826              		.loc 1 408 0
 827 001e 0020     		movs	r0, #0
 828 0020 FFF7FEFF 		bl	AddrH_Write
 829              	.LVL55:
 409:main.c        ****     AddrH_SetDriveMode(PIN_DM_STRONG);
 830              		.loc 1 409 0
 831 0024 0C20     		movs	r0, #12
 832 0026 FFF7FEFF 		bl	AddrH_SetDriveMode
 833              	.LVL56:
 410:main.c        ****     
 411:main.c        ****     // USBUART_printf("reading RAM\r\n");
 412:main.c        **** 
 413:main.c        ****     // OER + MSEL = furt SRAM data na sbernici
 414:main.c        ****     SRAM_Ctl_Write(0b01010);
 834              		.loc 1 414 0
 835 002a 0A20     		movs	r0, #10
 836 002c FFF7FEFF 		bl	SRAM_Ctl_Write
 837              	.LVL57:
 838              	.LBB31:
 415:main.c        **** 
 416:main.c        ****     for(uint32 a=addr; a<addr+256; a++) {
 839              		.loc 1 416 0
 840 0030 2C46     		mov	r4, r5
 841              	.LVL58:
 842              	.L64:
 843 0032 05F58073 		add	r3, r5, #256
 844 0036 9C42     		cmp	r4, r3
 845 0038 21D2     		bcs	.L68
 417:main.c        ****         AddrH_Write((a>>8)&0xFF);
 846              		.loc 1 417 0
 847 003a C4F30720 		ubfx	r0, r4, #8, #8
 848 003e FFF7FEFF 		bl	AddrH_Write
 849              	.LVL59:
 418:main.c        ****         AddrL_Write(a&0xFF);
 850              		.loc 1 418 0
 851 0042 E0B2     		uxtb	r0, r4
 852 0044 FFF7FEFF 		bl	AddrL_Write
 853              	.LVL60:
 419:main.c        ****         CyDelayUs(5);
 854              		.loc 1 419 0
 855 0048 0520     		movs	r0, #5
 856 004a FFF7FEFF 		bl	CyDelayUs
 857              	.LVL61:
 420:main.c        ****         r=Dta_Read();
 858              		.loc 1 420 0
 859 004e FFF7FEFF 		bl	Dta_Read
 860              	.LVL62:
 861 0052 0746     		mov	r7, r0
 862              	.LVL63:
 421:main.c        ****         CyDelayUs(5);
 863              		.loc 1 421 0
ARM GAS  C:\Users\Kiwi\AppData\Local\Temp\cckzbvMb.s 			page 24


 864 0054 0520     		movs	r0, #5
 865 0056 FFF7FEFF 		bl	CyDelayUs
 866              	.LVL64:
 422:main.c        ****         if((a&0x1F)==0x00)
 867              		.loc 1 422 0
 868 005a 14F01F06 		ands	r6, r4, #31
 869 005e 03D1     		bne	.L65
 423:main.c        ****             USBUART_printf("%04X: ", a);
 870              		.loc 1 423 0
 871 0060 2146     		mov	r1, r4
 872 0062 1148     		ldr	r0, .L69
 873 0064 FFF7FEFF 		bl	USBUART_printf
 874              	.LVL65:
 875              	.L65:
 424:main.c        ****         USBUART_printf("%02X", r);
 876              		.loc 1 424 0
 877 0068 3946     		mov	r1, r7
 878 006a 1048     		ldr	r0, .L69+4
 879 006c FFF7FEFF 		bl	USBUART_printf
 880              	.LVL66:
 425:main.c        ****         if((a&0x1F)==0x1F)
 881              		.loc 1 425 0
 882 0070 1F2E     		cmp	r6, #31
 883 0072 02D1     		bne	.L66
 426:main.c        ****             USBUART_printf("\r\n");
 884              		.loc 1 426 0
 885 0074 0E48     		ldr	r0, .L69+8
 886 0076 FFF7FEFF 		bl	USBUART_printf
 887              	.LVL67:
 888              	.L66:
 416:main.c        ****         AddrH_Write((a>>8)&0xFF);
 889              		.loc 1 416 0
 890 007a 0134     		adds	r4, r4, #1
 891              	.LVL68:
 892 007c D9E7     		b	.L64
 893              	.LVL69:
 894              	.L68:
 895              	.LBE31:
 427:main.c        ****     }
 428:main.c        **** 
 429:main.c        ****     // relase SRAM to SAPI - DATAOUT CTL OER WE MSEL
 430:main.c        ****     SRAM_Ctl_Write(0b00111);
 896              		.loc 1 430 0
 897 007e 0720     		movs	r0, #7
 898 0080 FFF7FEFF 		bl	SRAM_Ctl_Write
 899              	.LVL70:
 431:main.c        ****     
 432:main.c        ****     AddrL_Write(0);
 900              		.loc 1 432 0
 901 0084 0020     		movs	r0, #0
 902 0086 FFF7FEFF 		bl	AddrL_Write
 903              	.LVL71:
 433:main.c        ****     AddrL_SetDriveMode(PIN_DM_DIG_HIZ);
 904              		.loc 1 433 0
 905 008a 0220     		movs	r0, #2
 906 008c FFF7FEFF 		bl	AddrL_SetDriveMode
 907              	.LVL72:
ARM GAS  C:\Users\Kiwi\AppData\Local\Temp\cckzbvMb.s 			page 25


 434:main.c        ****     AddrH_Write(0);
 908              		.loc 1 434 0
 909 0090 0020     		movs	r0, #0
 910 0092 FFF7FEFF 		bl	AddrH_Write
 911              	.LVL73:
 435:main.c        ****     AddrH_SetDriveMode(PIN_DM_DIG_HIZ);
 912              		.loc 1 435 0
 913 0096 0220     		movs	r0, #2
 914 0098 FFF7FEFF 		bl	AddrH_SetDriveMode
 915              	.LVL74:
 916              	.LBE30:
 917              	.LBE29:
 436:main.c        ****     
 437:main.c        ****     Release_SAPI_Bus();
 438:main.c        **** }
 918              		.loc 1 438 0
 919 009c BDE8F840 		pop	{r3, r4, r5, r6, r7, lr}
 920              		.cfi_remember_state
 921              		.cfi_restore 14
 922              		.cfi_restore 7
 923              		.cfi_restore 6
 924              		.cfi_restore 5
 925              		.cfi_restore 4
 926              		.cfi_restore 3
 927              		.cfi_def_cfa_offset 0
 928              	.LVL75:
 929              	.LBB33:
 930              	.LBB32:
 437:main.c        **** }
 931              		.loc 1 437 0
 932 00a0 FFF7FEBF 		b	Release_SAPI_Bus
 933              	.LVL76:
 934              	.L62:
 935              		.cfi_restore_state
 936 00a4 F8BD     		pop	{r3, r4, r5, r6, r7, pc}
 937              	.L70:
 938 00a6 00BF     		.align	2
 939              	.L69:
 940 00a8 3C000000 		.word	.LC5
 941 00ac 43000000 		.word	.LC6
 942 00b0 48000000 		.word	.LC7
 943              	.LBE32:
 944              	.LBE33:
 945              		.cfi_endproc
 946              	.LFE78:
 947              		.size	DumpMem, .-DumpMem
 948              		.section	.text.RAM_check,"ax",%progbits
 949              		.align	1
 950              		.global	RAM_check
 951              		.thumb
 952              		.thumb_func
 953              		.type	RAM_check, %function
 954              	RAM_check:
 955              	.LFB77:
 262:main.c        ****     uint32 testfrom = 0x0000;
 956              		.loc 1 262 0
 957              		.cfi_startproc
ARM GAS  C:\Users\Kiwi\AppData\Local\Temp\cckzbvMb.s 			page 26


 958              		@ args = 0, pretend = 0, frame = 0
 959              		@ frame_needed = 0, uses_anonymous_args = 0
 960              	.LVL77:
 961 0000 2DE9F041 		push	{r4, r5, r6, r7, r8, lr}
 962              		.cfi_def_cfa_offset 24
 963              		.cfi_offset 4, -24
 964              		.cfi_offset 5, -20
 965              		.cfi_offset 6, -16
 966              		.cfi_offset 7, -12
 967              		.cfi_offset 8, -8
 968              		.cfi_offset 14, -4
 269:main.c        ****         return;
 969              		.loc 1 269 0
 970 0004 FFF7FEFF 		bl	Get_SAPI_Bus
 971              	.LVL78:
 972 0008 0028     		cmp	r0, #0
 973 000a 00F00381 		beq	.L71
 974              	.LBB40:
 975              	.LBB41:
 273:main.c        ****     AddrL_SetDriveMode(PIN_DM_STRONG);
 976              		.loc 1 273 0
 977 000e 0020     		movs	r0, #0
 978 0010 FFF7FEFF 		bl	AddrL_Write
 979              	.LVL79:
 274:main.c        ****     AddrH_Write(0);
 980              		.loc 1 274 0
 981 0014 0C20     		movs	r0, #12
 982 0016 FFF7FEFF 		bl	AddrL_SetDriveMode
 983              	.LVL80:
 275:main.c        ****     AddrH_SetDriveMode(PIN_DM_STRONG);
 984              		.loc 1 275 0
 985 001a 0020     		movs	r0, #0
 986 001c FFF7FEFF 		bl	AddrH_Write
 987              	.LVL81:
 276:main.c        ****     
 988              		.loc 1 276 0
 989 0020 0C20     		movs	r0, #12
 990 0022 FFF7FEFF 		bl	AddrH_SetDriveMode
 991              	.LVL82:
 279:main.c        ****     
 992              		.loc 1 279 0
 993 0026 0F20     		movs	r0, #15
 994 0028 FFF7FEFF 		bl	SRAM_Ctl_Write
 995              	.LVL83:
 281:main.c        ****     for(uint32 a=testfrom; a<testfrom+testlen; a=a+2) {
 996              		.loc 1 281 0
 997 002c 7A48     		ldr	r0, .L97
 998 002e FFF7FEFF 		bl	USBUART_printf
 999              	.LVL84:
 1000              	.LBB42:
 282:main.c        ****         AddrH_Write((a>>8)&0xFF);
 1001              		.loc 1 282 0
 1002 0032 0024     		movs	r4, #0
 1003              	.LVL85:
 1004              	.L74:
 283:main.c        ****         AddrL_Write(a&0xFF);
 1005              		.loc 1 283 0
ARM GAS  C:\Users\Kiwi\AppData\Local\Temp\cckzbvMb.s 			page 27


 1006 0034 C4F30726 		ubfx	r6, r4, #8, #8
 284:main.c        ****         BusDta_Write((a>>8)&0xFF);
 1007              		.loc 1 284 0
 1008 0038 E5B2     		uxtb	r5, r4
 283:main.c        ****         AddrL_Write(a&0xFF);
 1009              		.loc 1 283 0
 1010 003a 3046     		mov	r0, r6
 1011 003c FFF7FEFF 		bl	AddrH_Write
 1012              	.LVL86:
 284:main.c        ****         BusDta_Write((a>>8)&0xFF);
 1013              		.loc 1 284 0
 1014 0040 2846     		mov	r0, r5
 1015 0042 FFF7FEFF 		bl	AddrL_Write
 1016              	.LVL87:
 285:main.c        ****         // DATAOUT + WE + MSEL
 1017              		.loc 1 285 0
 1018 0046 3046     		mov	r0, r6
 1019 0048 FFF7FEFF 		bl	BusDta_Write
 1020              	.LVL88:
 287:main.c        ****         CyDelayUs(1);
 1021              		.loc 1 287 0
 1022 004c 1C20     		movs	r0, #28
 1023 004e FFF7FEFF 		bl	SRAM_Ctl_Write
 1024              	.LVL89:
 288:main.c        ****         SRAM_Ctl_Write(0b01111);
 1025              		.loc 1 288 0
 1026 0052 0120     		movs	r0, #1
 1027 0054 FFF7FEFF 		bl	CyDelayUs
 1028              	.LVL90:
 289:main.c        ****         CyDelayUs(1);
 1029              		.loc 1 289 0
 1030 0058 0F20     		movs	r0, #15
 1031 005a FFF7FEFF 		bl	SRAM_Ctl_Write
 1032              	.LVL91:
 290:main.c        ****         AddrL_Write((a&0xFF)+1);
 1033              		.loc 1 290 0
 1034 005e 0120     		movs	r0, #1
 1035 0060 FFF7FEFF 		bl	CyDelayUs
 1036              	.LVL92:
 291:main.c        ****         BusDta_Write(a);
 1037              		.loc 1 291 0
 1038 0064 681C     		adds	r0, r5, #1
 1039 0066 C0B2     		uxtb	r0, r0
 1040 0068 FFF7FEFF 		bl	AddrL_Write
 1041              	.LVL93:
 292:main.c        ****         SRAM_Ctl_Write(0b11100);
 1042              		.loc 1 292 0
 1043 006c 2846     		mov	r0, r5
 1044 006e FFF7FEFF 		bl	BusDta_Write
 1045              	.LVL94:
 293:main.c        ****         CyDelayUs(1);
 1046              		.loc 1 293 0
 1047 0072 1C20     		movs	r0, #28
 1048 0074 FFF7FEFF 		bl	SRAM_Ctl_Write
 1049              	.LVL95:
 294:main.c        ****         SRAM_Ctl_Write(0b01111);
 1050              		.loc 1 294 0
ARM GAS  C:\Users\Kiwi\AppData\Local\Temp\cckzbvMb.s 			page 28


 1051 0078 0120     		movs	r0, #1
 1052 007a FFF7FEFF 		bl	CyDelayUs
 1053              	.LVL96:
 295:main.c        ****         CyDelayUs(1);
 1054              		.loc 1 295 0
 1055 007e 0F20     		movs	r0, #15
 1056 0080 FFF7FEFF 		bl	SRAM_Ctl_Write
 1057              	.LVL97:
 282:main.c        ****         AddrH_Write((a>>8)&0xFF);
 1058              		.loc 1 282 0
 1059 0084 0234     		adds	r4, r4, #2
 1060              	.LVL98:
 296:main.c        ****     }
 1061              		.loc 1 296 0
 1062 0086 0120     		movs	r0, #1
 1063 0088 FFF7FEFF 		bl	CyDelayUs
 1064              	.LVL99:
 282:main.c        ****         AddrH_Write((a>>8)&0xFF);
 1065              		.loc 1 282 0
 1066 008c B4F5803F 		cmp	r4, #65536
 1067 0090 D0D1     		bne	.L74
 1068              	.LBE42:
 298:main.c        **** 
 1069              		.loc 1 298 0
 1070 0092 6248     		ldr	r0, .L97+4
 1071 0094 FFF7FEFF 		bl	USBUART_printf
 1072              	.LVL100:
 267:main.c        ****     
 1073              		.loc 1 267 0
 1074 0098 0025     		movs	r5, #0
 301:main.c        **** 
 1075              		.loc 1 301 0
 1076 009a 0A20     		movs	r0, #10
 1077 009c FFF7FEFF 		bl	SRAM_Ctl_Write
 1078              	.LVL101:
 1079              	.LBB43:
 303:main.c        ****         AddrH_Write((a>>8)&0xFF);
 1080              		.loc 1 303 0
 1081 00a0 2C46     		mov	r4, r5
 1082              	.LVL102:
 1083              	.L78:
 304:main.c        ****         AddrL_Write(a&0xFF);
 1084              		.loc 1 304 0
 1085 00a2 C4F30726 		ubfx	r6, r4, #8, #8
 1086 00a6 3046     		mov	r0, r6
 305:main.c        ****         CyDelayUs(2);
 1087              		.loc 1 305 0
 1088 00a8 E7B2     		uxtb	r7, r4
 304:main.c        ****         AddrL_Write(a&0xFF);
 1089              		.loc 1 304 0
 1090 00aa FFF7FEFF 		bl	AddrH_Write
 1091              	.LVL103:
 305:main.c        ****         CyDelayUs(2);
 1092              		.loc 1 305 0
 1093 00ae 3846     		mov	r0, r7
 1094 00b0 FFF7FEFF 		bl	AddrL_Write
 1095              	.LVL104:
ARM GAS  C:\Users\Kiwi\AppData\Local\Temp\cckzbvMb.s 			page 29


 306:main.c        ****         r=Dta_Read();
 1096              		.loc 1 306 0
 1097 00b4 0220     		movs	r0, #2
 1098 00b6 FFF7FEFF 		bl	CyDelayUs
 1099              	.LVL105:
 307:main.c        ****         CyDelayUs(1);
 1100              		.loc 1 307 0
 1101 00ba FFF7FEFF 		bl	Dta_Read
 1102              	.LVL106:
 1103 00be 8046     		mov	r8, r0
 1104              	.LVL107:
 308:main.c        ****         //USBUART_printf("%02X", r);
 1105              		.loc 1 308 0
 1106 00c0 0120     		movs	r0, #1
 1107 00c2 FFF7FEFF 		bl	CyDelayUs
 1108              	.LVL108:
 312:main.c        ****             s=(a&0xFF)-1;
 1109              		.loc 1 312 0
 1110 00c6 E207     		lsls	r2, r4, #31
 1111 00c8 44BF     		itt	mi
 1112 00ca 07F1FF36 		addmi	r6, r7, #-1
 1113 00ce F6B2     		uxtbmi	r6, r6
 1114              	.LVL109:
 317:main.c        ****             USBUART_printf("Error at %04X, expected %02X, but found %02X\r\n", a, s, r);
 1115              		.loc 1 317 0
 1116 00d0 B045     		cmp	r8, r6
 1117 00d2 18D0     		beq	.L76
 318:main.c        ****             err++;
 1118              		.loc 1 318 0
 1119 00d4 4346     		mov	r3, r8
 1120 00d6 3246     		mov	r2, r6
 1121 00d8 2146     		mov	r1, r4
 1122 00da 5148     		ldr	r0, .L97+8
 1123 00dc FFF7FEFF 		bl	USBUART_printf
 1124              	.LVL110:
 320:main.c        ****             if(!Get_SAPI_Bus()) {
 1125              		.loc 1 320 0
 1126 00e0 04F47F40 		and	r0, r4, #65280
 319:main.c        ****             DumpMem(a & 0xFF00);
 1127              		.loc 1 319 0
 1128 00e4 0135     		adds	r5, r5, #1
 1129              	.LVL111:
 320:main.c        ****             if(!Get_SAPI_Bus()) {
 1130              		.loc 1 320 0
 1131 00e6 FFF7FEFF 		bl	DumpMem
 1132              	.LVL112:
 321:main.c        ****                 return;
 1133              		.loc 1 321 0
 1134 00ea FFF7FEFF 		bl	Get_SAPI_Bus
 1135              	.LVL113:
 1136 00ee 0028     		cmp	r0, #0
 1137 00f0 00F09080 		beq	.L71
 324:main.c        ****             AddrH_SetDriveMode(PIN_DM_STRONG);
 1138              		.loc 1 324 0
 1139 00f4 0C20     		movs	r0, #12
 1140 00f6 FFF7FEFF 		bl	AddrL_SetDriveMode
 1141              	.LVL114:
ARM GAS  C:\Users\Kiwi\AppData\Local\Temp\cckzbvMb.s 			page 30


 325:main.c        ****             SRAM_Ctl_Write(0b01010);
 1142              		.loc 1 325 0
 1143 00fa 0C20     		movs	r0, #12
 1144 00fc FFF7FEFF 		bl	AddrH_SetDriveMode
 1145              	.LVL115:
 326:main.c        ****         }
 1146              		.loc 1 326 0
 1147 0100 0A20     		movs	r0, #10
 1148 0102 FFF7FEFF 		bl	SRAM_Ctl_Write
 1149              	.LVL116:
 1150              	.L76:
 303:main.c        ****         AddrH_Write((a>>8)&0xFF);
 1151              		.loc 1 303 0
 1152 0106 0134     		adds	r4, r4, #1
 1153              	.LVL117:
 1154 0108 B4F5803F 		cmp	r4, #65536
 1155 010c C9D1     		bne	.L78
 1156              	.LBE43:
 331:main.c        ****     
 1157              		.loc 1 331 0
 1158 010e 0F20     		movs	r0, #15
 1159 0110 FFF7FEFF 		bl	SRAM_Ctl_Write
 1160              	.LVL118:
 333:main.c        ****     for(uint32 a=testfrom; a<testfrom+testlen; a=a+2) {
 1161              		.loc 1 333 0
 1162 0114 4348     		ldr	r0, .L97+12
 1163 0116 FFF7FEFF 		bl	USBUART_printf
 1164              	.LVL119:
 1165              	.LBB44:
 334:main.c        ****         AddrH_Write((a>>8)&0xFF);
 1166              		.loc 1 334 0
 1167 011a 0024     		movs	r4, #0
 1168              	.LVL120:
 1169              	.L79:
 335:main.c        ****         AddrL_Write(a&0xFF);
 1170              		.loc 1 335 0
 1171 011c C4F30727 		ubfx	r7, r4, #8, #8
 336:main.c        ****         BusDta_Write(~((a>>8)&0xFF));
 1172              		.loc 1 336 0
 1173 0120 E6B2     		uxtb	r6, r4
 335:main.c        ****         AddrL_Write(a&0xFF);
 1174              		.loc 1 335 0
 1175 0122 3846     		mov	r0, r7
 1176 0124 FFF7FEFF 		bl	AddrH_Write
 1177              	.LVL121:
 336:main.c        ****         BusDta_Write(~((a>>8)&0xFF));
 1178              		.loc 1 336 0
 1179 0128 3046     		mov	r0, r6
 1180 012a FFF7FEFF 		bl	AddrL_Write
 1181              	.LVL122:
 337:main.c        ****         // DATAOUT + WE + MSEL
 1182              		.loc 1 337 0
 1183 012e F843     		mvns	r0, r7
 1184 0130 C0B2     		uxtb	r0, r0
 1185 0132 FFF7FEFF 		bl	BusDta_Write
 1186              	.LVL123:
 339:main.c        ****         CyDelayUs(1);
ARM GAS  C:\Users\Kiwi\AppData\Local\Temp\cckzbvMb.s 			page 31


 1187              		.loc 1 339 0
 1188 0136 1C20     		movs	r0, #28
 1189 0138 FFF7FEFF 		bl	SRAM_Ctl_Write
 1190              	.LVL124:
 340:main.c        ****         SRAM_Ctl_Write(0b01111);
 1191              		.loc 1 340 0
 1192 013c 0120     		movs	r0, #1
 1193 013e FFF7FEFF 		bl	CyDelayUs
 1194              	.LVL125:
 341:main.c        ****         CyDelayUs(1);
 1195              		.loc 1 341 0
 1196 0142 0F20     		movs	r0, #15
 1197 0144 FFF7FEFF 		bl	SRAM_Ctl_Write
 1198              	.LVL126:
 342:main.c        ****         AddrL_Write((a&0xFF)+1);
 1199              		.loc 1 342 0
 1200 0148 0120     		movs	r0, #1
 1201 014a FFF7FEFF 		bl	CyDelayUs
 1202              	.LVL127:
 343:main.c        ****         BusDta_Write(~a);
 1203              		.loc 1 343 0
 1204 014e 701C     		adds	r0, r6, #1
 1205 0150 C0B2     		uxtb	r0, r0
 1206 0152 FFF7FEFF 		bl	AddrL_Write
 1207              	.LVL128:
 344:main.c        ****         SRAM_Ctl_Write(0b11100);
 1208              		.loc 1 344 0
 1209 0156 F043     		mvns	r0, r6
 1210 0158 C0B2     		uxtb	r0, r0
 1211 015a FFF7FEFF 		bl	BusDta_Write
 1212              	.LVL129:
 345:main.c        ****         CyDelayUs(1);
 1213              		.loc 1 345 0
 1214 015e 1C20     		movs	r0, #28
 1215 0160 FFF7FEFF 		bl	SRAM_Ctl_Write
 1216              	.LVL130:
 346:main.c        ****         SRAM_Ctl_Write(0b01111);
 1217              		.loc 1 346 0
 1218 0164 0120     		movs	r0, #1
 1219 0166 FFF7FEFF 		bl	CyDelayUs
 1220              	.LVL131:
 347:main.c        ****         CyDelayUs(1);
 1221              		.loc 1 347 0
 1222 016a 0F20     		movs	r0, #15
 1223 016c FFF7FEFF 		bl	SRAM_Ctl_Write
 1224              	.LVL132:
 334:main.c        ****         AddrH_Write((a>>8)&0xFF);
 1225              		.loc 1 334 0
 1226 0170 0234     		adds	r4, r4, #2
 1227              	.LVL133:
 348:main.c        ****     }
 1228              		.loc 1 348 0
 1229 0172 0120     		movs	r0, #1
 1230 0174 FFF7FEFF 		bl	CyDelayUs
 1231              	.LVL134:
 334:main.c        ****         AddrH_Write((a>>8)&0xFF);
 1232              		.loc 1 334 0
ARM GAS  C:\Users\Kiwi\AppData\Local\Temp\cckzbvMb.s 			page 32


 1233 0178 B4F5803F 		cmp	r4, #65536
 1234 017c CED1     		bne	.L79
 1235              	.LBE44:
 350:main.c        **** 
 1236              		.loc 1 350 0
 1237 017e 2748     		ldr	r0, .L97+4
 1238 0180 FFF7FEFF 		bl	USBUART_printf
 1239              	.LVL135:
 353:main.c        **** 
 1240              		.loc 1 353 0
 1241 0184 0A20     		movs	r0, #10
 1242 0186 FFF7FEFF 		bl	SRAM_Ctl_Write
 1243              	.LVL136:
 1244              	.LBB45:
 355:main.c        ****         AddrH_Write((a>>8)&0xFF);
 1245              		.loc 1 355 0
 1246 018a 0026     		movs	r6, #0
 1247              	.LVL137:
 1248              	.L83:
 356:main.c        ****         AddrL_Write(a&0xFF);
 1249              		.loc 1 356 0
 1250 018c C6F30724 		ubfx	r4, r6, #8, #8
 1251 0190 2046     		mov	r0, r4
 357:main.c        ****         CyDelayUs(1);
 1252              		.loc 1 357 0
 1253 0192 F7B2     		uxtb	r7, r6
 356:main.c        ****         AddrL_Write(a&0xFF);
 1254              		.loc 1 356 0
 1255 0194 FFF7FEFF 		bl	AddrH_Write
 1256              	.LVL138:
 357:main.c        ****         CyDelayUs(1);
 1257              		.loc 1 357 0
 1258 0198 3846     		mov	r0, r7
 1259 019a FFF7FEFF 		bl	AddrL_Write
 1260              	.LVL139:
 358:main.c        ****         r=Dta_Read();
 1261              		.loc 1 358 0
 1262 019e 0120     		movs	r0, #1
 1263 01a0 FFF7FEFF 		bl	CyDelayUs
 1264              	.LVL140:
 359:main.c        ****         CyDelayUs(1);
 1265              		.loc 1 359 0
 1266 01a4 FFF7FEFF 		bl	Dta_Read
 1267              	.LVL141:
 1268 01a8 8046     		mov	r8, r0
 1269              	.LVL142:
 360:main.c        ****         //USBUART_printf("%02X", r);
 1270              		.loc 1 360 0
 1271 01aa 0120     		movs	r0, #1
 1272 01ac FFF7FEFF 		bl	CyDelayUs
 1273              	.LVL143:
 364:main.c        ****             s=~((a&0xFF)-1);
 1274              		.loc 1 364 0
 1275 01b0 F307     		lsls	r3, r6, #31
 367:main.c        ****         }
 1276              		.loc 1 367 0
 1277 01b2 54BF     		ite	pl
ARM GAS  C:\Users\Kiwi\AppData\Local\Temp\cckzbvMb.s 			page 33


 1278 01b4 E243     		mvnpl	r2, r4
 1279 01b6 7A42     		rsbmi	r2, r7, #0
 1280 01b8 D2B2     		uxtb	r2, r2
 1281              	.LVL144:
 369:main.c        ****             USBUART_printf("Error at %04X, expected %02X, but found %02X\r\n", a, s, r);
 1282              		.loc 1 369 0
 1283 01ba 9045     		cmp	r8, r2
 1284 01bc 05D0     		beq	.L82
 370:main.c        ****             err++;
 1285              		.loc 1 370 0
 1286 01be 4346     		mov	r3, r8
 1287 01c0 3146     		mov	r1, r6
 1288 01c2 1748     		ldr	r0, .L97+8
 1289 01c4 FFF7FEFF 		bl	USBUART_printf
 1290              	.LVL145:
 371:main.c        ****         }
 1291              		.loc 1 371 0
 1292 01c8 0135     		adds	r5, r5, #1
 1293              	.LVL146:
 1294              	.L82:
 355:main.c        ****         AddrH_Write((a>>8)&0xFF);
 1295              		.loc 1 355 0
 1296 01ca 0136     		adds	r6, r6, #1
 1297              	.LVL147:
 1298 01cc B6F5803F 		cmp	r6, #65536
 1299 01d0 DCD1     		bne	.L83
 1300              	.LBE45:
 376:main.c        ****     
 1301              		.loc 1 376 0
 1302 01d2 0720     		movs	r0, #7
 1303 01d4 FFF7FEFF 		bl	SRAM_Ctl_Write
 1304              	.LVL148:
 378:main.c        ****     AddrL_SetDriveMode(PIN_DM_DIG_HIZ);
 1305              		.loc 1 378 0
 1306 01d8 0020     		movs	r0, #0
 1307 01da FFF7FEFF 		bl	AddrL_Write
 1308              	.LVL149:
 379:main.c        ****     AddrH_Write(0);
 1309              		.loc 1 379 0
 1310 01de 0220     		movs	r0, #2
 1311 01e0 FFF7FEFF 		bl	AddrL_SetDriveMode
 1312              	.LVL150:
 380:main.c        ****     AddrH_SetDriveMode(PIN_DM_DIG_HIZ);
 1313              		.loc 1 380 0
 1314 01e4 0020     		movs	r0, #0
 1315 01e6 FFF7FEFF 		bl	AddrH_Write
 1316              	.LVL151:
 381:main.c        ****     //Dta_Write(0xFF);
 1317              		.loc 1 381 0
 1318 01ea 0220     		movs	r0, #2
 1319 01ec FFF7FEFF 		bl	AddrH_SetDriveMode
 1320              	.LVL152:
 385:main.c        ****         USBUART_printf("%d errors found :-(\r\n", err);
 1321              		.loc 1 385 0
 1322 01f0 25B1     		cbz	r5, .L84
 386:main.c        ****     } else {
 1323              		.loc 1 386 0
ARM GAS  C:\Users\Kiwi\AppData\Local\Temp\cckzbvMb.s 			page 34


 1324 01f2 2946     		mov	r1, r5
 1325 01f4 0C48     		ldr	r0, .L97+16
 1326 01f6 FFF7FEFF 		bl	USBUART_printf
 1327              	.LVL153:
 1328 01fa 02E0     		b	.L85
 1329              	.L84:
 388:main.c        ****     }
 1330              		.loc 1 388 0
 1331 01fc 0B48     		ldr	r0, .L97+20
 1332 01fe FFF7FEFF 		bl	USBUART_printf
 1333              	.LVL154:
 1334              	.L85:
 390:main.c        **** 
 1335              		.loc 1 390 0
 1336 0202 FFF7FEFF 		bl	Release_SAPI_Bus
 1337              	.LVL155:
 392:main.c        ****     SAPI_Reset();
 1338              		.loc 1 392 0
 1339 0206 0A48     		ldr	r0, .L97+24
 1340 0208 FFF7FEFF 		bl	USBUART_printf
 1341              	.LVL156:
 1342              	.LBE41:
 1343              	.LBE40:
 394:main.c        **** 
 1344              		.loc 1 394 0
 1345 020c BDE8F041 		pop	{r4, r5, r6, r7, r8, lr}
 1346              		.cfi_remember_state
 1347              		.cfi_restore 14
 1348              		.cfi_restore 8
 1349              		.cfi_restore 7
 1350              		.cfi_restore 6
 1351              		.cfi_restore 5
 1352              		.cfi_restore 4
 1353              		.cfi_def_cfa_offset 0
 1354              	.LVL157:
 1355              	.LBB47:
 1356              	.LBB46:
 393:main.c        **** }
 1357              		.loc 1 393 0
 1358 0210 FFF7FEBF 		b	SAPI_Reset
 1359              	.LVL158:
 1360              	.L71:
 1361              		.cfi_restore_state
 1362 0214 BDE8F081 		pop	{r4, r5, r6, r7, r8, pc}
 1363              	.L98:
 1364              		.align	2
 1365              	.L97:
 1366 0218 4B000000 		.word	.LC8
 1367 021c 67000000 		.word	.LC9
 1368 0220 77000000 		.word	.LC10
 1369 0224 A6000000 		.word	.LC11
 1370 0228 CB000000 		.word	.LC12
 1371 022c E1000000 		.word	.LC13
 1372 0230 F7000000 		.word	.LC14
 1373              	.LBE46:
 1374              	.LBE47:
 1375              		.cfi_endproc
ARM GAS  C:\Users\Kiwi\AppData\Local\Temp\cckzbvMb.s 			page 35


 1376              	.LFE77:
 1377              		.size	RAM_check, .-RAM_check
 1378              		.section	.text.TestVideo,"ax",%progbits
 1379              		.align	1
 1380              		.global	TestVideo
 1381              		.thumb
 1382              		.thumb_func
 1383              		.type	TestVideo, %function
 1384              	TestVideo:
 1385              	.LFB79:
 439:main.c        **** 
 440:main.c        **** void TestVideo() {
 1386              		.loc 1 440 0
 1387              		.cfi_startproc
 1388              		@ args = 0, pretend = 0, frame = 0
 1389              		@ frame_needed = 0, uses_anonymous_args = 0
 1390              	.LVL159:
 1391 0000 70B5     		push	{r4, r5, r6, lr}
 1392              		.cfi_def_cfa_offset 16
 1393              		.cfi_offset 4, -16
 1394              		.cfi_offset 5, -12
 1395              		.cfi_offset 6, -8
 1396              		.cfi_offset 14, -4
 441:main.c        ****     uint8 r;
 442:main.c        ****     uint16 err=0;
 443:main.c        **** 
 444:main.c        ****     if(!Get_SAPI_Bus()) {
 1397              		.loc 1 444 0
 1398 0002 FFF7FEFF 		bl	Get_SAPI_Bus
 1399              	.LVL160:
 1400 0006 0028     		cmp	r0, #0
 1401 0008 00F0D580 		beq	.L99
 1402              	.LBB51:
 1403              	.LBB52:
 445:main.c        ****         return;
 446:main.c        ****     }
 447:main.c        **** 
 448:main.c        ****     AddrL_Write(0);
 1404              		.loc 1 448 0
 1405 000c 0020     		movs	r0, #0
 1406 000e FFF7FEFF 		bl	AddrL_Write
 1407              	.LVL161:
 449:main.c        ****     AddrL_SetDriveMode(PIN_DM_STRONG);
 1408              		.loc 1 449 0
 1409 0012 0C20     		movs	r0, #12
 1410 0014 FFF7FEFF 		bl	AddrL_SetDriveMode
 1411              	.LVL162:
 450:main.c        ****     AddrH_Write(0);
 1412              		.loc 1 450 0
 1413 0018 0020     		movs	r0, #0
 1414 001a FFF7FEFF 		bl	AddrH_Write
 1415              	.LVL163:
 451:main.c        ****     AddrH_SetDriveMode(PIN_DM_STRONG);
 1416              		.loc 1 451 0
 1417 001e 0C20     		movs	r0, #12
 1418 0020 FFF7FEFF 		bl	AddrH_SetDriveMode
 1419              	.LVL164:
ARM GAS  C:\Users\Kiwi\AppData\Local\Temp\cckzbvMb.s 			page 36


 452:main.c        ****     MW_Write(1);
 1420              		.loc 1 452 0
 1421 0024 0120     		movs	r0, #1
 1422 0026 FFF7FEFF 		bl	MW_Write
 1423              	.LVL165:
 453:main.c        ****     MW_SetDriveMode(PIN_DM_STRONG);
 1424              		.loc 1 453 0
 1425 002a 0C20     		movs	r0, #12
 1426 002c FFF7FEFF 		bl	MW_SetDriveMode
 1427              	.LVL166:
 454:main.c        ****     MR_Write(1);
 1428              		.loc 1 454 0
 1429 0030 0120     		movs	r0, #1
 1430 0032 FFF7FEFF 		bl	MR_Write
 1431              	.LVL167:
 455:main.c        ****     MR_SetDriveMode(PIN_DM_STRONG);
 1432              		.loc 1 455 0
 1433 0036 0C20     		movs	r0, #12
 1434 0038 FFF7FEFF 		bl	MR_SetDriveMode
 1435              	.LVL168:
 456:main.c        ****     
 457:main.c        ****     USBUART_printf("Checking AND-1Z video RAM 0xF800-0xFCFF\r\n");
 1436              		.loc 1 457 0
 1437 003c 5E48     		ldr	r0, .L114
 1438 003e FFF7FEFF 		bl	USBUART_printf
 1439              	.LVL169:
 442:main.c        **** 
 1440              		.loc 1 442 0
 1441 0042 0024     		movs	r4, #0
 1442              	.LBB53:
 458:main.c        **** 
 459:main.c        ****     /*
 460:main.c        ****     for(uint32 a=0xF000; a<0xF000+256; a++) {
 461:main.c        ****         AddrH_Write((a>>8)&0xFF);
 462:main.c        ****         AddrL_Write(a&0xFF);
 463:main.c        ****         MR_Write(0);
 464:main.c        ****         CyDelayUs(5);
 465:main.c        ****         r=Dta_Read();
 466:main.c        ****         CyDelayUs(5);
 467:main.c        ****         if((a&0x1F)==0x00)
 468:main.c        ****             USBUART_printf("%04X: ", a);
 469:main.c        ****         USBUART_printf("%02X", r);
 470:main.c        ****         if((a&0x1F)==0x1F)
 471:main.c        ****             USBUART_printf("\r\n");
 472:main.c        ****     }
 473:main.c        ****     */
 474:main.c        ****     for(uint32 a=0xF800; a<0xF800+1280; a++) {
 1443              		.loc 1 474 0
 1444 0044 4FF47845 		mov	r5, #63488
 1445              	.LVL170:
 1446              	.L103:
 475:main.c        ****         AddrH_Write((a>>8)&0xFF);
 1447              		.loc 1 475 0
 1448 0048 C5F30720 		ubfx	r0, r5, #8, #8
 1449 004c FFF7FEFF 		bl	AddrH_Write
 1450              	.LVL171:
 476:main.c        ****         AddrL_Write(a&0xFF);
ARM GAS  C:\Users\Kiwi\AppData\Local\Temp\cckzbvMb.s 			page 37


 1451              		.loc 1 476 0
 1452 0050 E8B2     		uxtb	r0, r5
 1453 0052 FFF7FEFF 		bl	AddrL_Write
 1454              	.LVL172:
 477:main.c        ****         // read current value
 478:main.c        ****         MR_Write(0);
 1455              		.loc 1 478 0
 1456 0056 0020     		movs	r0, #0
 1457 0058 FFF7FEFF 		bl	MR_Write
 1458              	.LVL173:
 479:main.c        ****         CyDelayUs(5);
 1459              		.loc 1 479 0
 1460 005c 0520     		movs	r0, #5
 1461 005e FFF7FEFF 		bl	CyDelayUs
 1462              	.LVL174:
 480:main.c        ****         r=Dta_Read();
 1463              		.loc 1 480 0
 1464 0062 FFF7FEFF 		bl	Dta_Read
 1465              	.LVL175:
 1466 0066 0646     		mov	r6, r0
 1467              	.LVL176:
 481:main.c        ****         MR_Write(1);
 1468              		.loc 1 481 0
 1469 0068 0120     		movs	r0, #1
 1470 006a FFF7FEFF 		bl	MR_Write
 1471              	.LVL177:
 482:main.c        ****         CyDelayUs(5);
 1472              		.loc 1 482 0
 1473 006e 0520     		movs	r0, #5
 1474 0070 FFF7FEFF 		bl	CyDelayUs
 1475              	.LVL178:
 483:main.c        ****         
 484:main.c        ****         // write 0xA5
 485:main.c        ****         BusDta_Write(0xA5);
 1476              		.loc 1 485 0
 1477 0074 A520     		movs	r0, #165
 1478 0076 FFF7FEFF 		bl	BusDta_Write
 1479              	.LVL179:
 486:main.c        ****         // BusData to bus (DATAOUT CTL OER WE MSEL)
 487:main.c        ****         SRAM_Ctl_Write(0b10111);
 1480              		.loc 1 487 0
 1481 007a 1720     		movs	r0, #23
 1482 007c FFF7FEFF 		bl	SRAM_Ctl_Write
 1483              	.LVL180:
 488:main.c        ****         MW_Write(0);
 1484              		.loc 1 488 0
 1485 0080 0020     		movs	r0, #0
 1486 0082 FFF7FEFF 		bl	MW_Write
 1487              	.LVL181:
 489:main.c        ****         CyDelayUs(5);
 1488              		.loc 1 489 0
 1489 0086 0520     		movs	r0, #5
 1490 0088 FFF7FEFF 		bl	CyDelayUs
 1491              	.LVL182:
 490:main.c        ****         MW_Write(1);
 1492              		.loc 1 490 0
 1493 008c 0120     		movs	r0, #1
ARM GAS  C:\Users\Kiwi\AppData\Local\Temp\cckzbvMb.s 			page 38


 1494 008e FFF7FEFF 		bl	MW_Write
 1495              	.LVL183:
 491:main.c        ****         SRAM_Ctl_Write(0b00111);
 1496              		.loc 1 491 0
 1497 0092 0720     		movs	r0, #7
 1498 0094 FFF7FEFF 		bl	SRAM_Ctl_Write
 1499              	.LVL184:
 492:main.c        ****         CyDelayUs(5);
 1500              		.loc 1 492 0
 1501 0098 0520     		movs	r0, #5
 1502 009a FFF7FEFF 		bl	CyDelayUs
 1503              	.LVL185:
 493:main.c        ****         // check 0xA5
 494:main.c        ****         MR_Write(0);
 1504              		.loc 1 494 0
 1505 009e 0020     		movs	r0, #0
 1506 00a0 FFF7FEFF 		bl	MR_Write
 1507              	.LVL186:
 495:main.c        ****         CyDelayUs(5);
 1508              		.loc 1 495 0
 1509 00a4 0520     		movs	r0, #5
 1510 00a6 FFF7FEFF 		bl	CyDelayUs
 1511              	.LVL187:
 496:main.c        ****         if(Dta_Read()!=0xA5) {
 1512              		.loc 1 496 0
 1513 00aa FFF7FEFF 		bl	Dta_Read
 1514              	.LVL188:
 1515 00ae A528     		cmp	r0, #165
 1516 00b0 09D0     		beq	.L101
 497:main.c        ****             USBUART_printf("Error at %04X, expected %02X, found %02X\r\n", a, 0xA5, Dta_Read());
 1517              		.loc 1 497 0
 1518 00b2 FFF7FEFF 		bl	Dta_Read
 1519              	.LVL189:
 1520 00b6 A522     		movs	r2, #165
 1521 00b8 0346     		mov	r3, r0
 1522 00ba 2946     		mov	r1, r5
 1523 00bc 3F48     		ldr	r0, .L114+4
 1524 00be FFF7FEFF 		bl	USBUART_printf
 1525              	.LVL190:
 498:main.c        ****             err++;
 1526              		.loc 1 498 0
 1527 00c2 0134     		adds	r4, r4, #1
 1528              	.LVL191:
 1529 00c4 A4B2     		uxth	r4, r4
 1530              	.LVL192:
 1531              	.L101:
 499:main.c        ****         }
 500:main.c        ****         MR_Write(1);
 1532              		.loc 1 500 0
 1533 00c6 0120     		movs	r0, #1
 1534 00c8 FFF7FEFF 		bl	MR_Write
 1535              	.LVL193:
 501:main.c        ****         CyDelayUs(5);
 1536              		.loc 1 501 0
 1537 00cc 0520     		movs	r0, #5
 1538 00ce FFF7FEFF 		bl	CyDelayUs
 1539              	.LVL194:
ARM GAS  C:\Users\Kiwi\AppData\Local\Temp\cckzbvMb.s 			page 39


 502:main.c        ****         
 503:main.c        ****         // write 0x5A
 504:main.c        ****         BusDta_Write(0x5A);
 1540              		.loc 1 504 0
 1541 00d2 5A20     		movs	r0, #90
 1542 00d4 FFF7FEFF 		bl	BusDta_Write
 1543              	.LVL195:
 505:main.c        ****         // BusData to bus (DATAOUT CTL OER WE MSEL)
 506:main.c        ****         SRAM_Ctl_Write(0b10111);
 1544              		.loc 1 506 0
 1545 00d8 1720     		movs	r0, #23
 1546 00da FFF7FEFF 		bl	SRAM_Ctl_Write
 1547              	.LVL196:
 507:main.c        ****         MW_Write(0);
 1548              		.loc 1 507 0
 1549 00de 0020     		movs	r0, #0
 1550 00e0 FFF7FEFF 		bl	MW_Write
 1551              	.LVL197:
 508:main.c        ****         CyDelayUs(5);
 1552              		.loc 1 508 0
 1553 00e4 0520     		movs	r0, #5
 1554 00e6 FFF7FEFF 		bl	CyDelayUs
 1555              	.LVL198:
 509:main.c        ****         MW_Write(1);
 1556              		.loc 1 509 0
 1557 00ea 0120     		movs	r0, #1
 1558 00ec FFF7FEFF 		bl	MW_Write
 1559              	.LVL199:
 510:main.c        ****         SRAM_Ctl_Write(0b00111);
 1560              		.loc 1 510 0
 1561 00f0 0720     		movs	r0, #7
 1562 00f2 FFF7FEFF 		bl	SRAM_Ctl_Write
 1563              	.LVL200:
 511:main.c        ****         CyDelayUs(5);
 1564              		.loc 1 511 0
 1565 00f6 0520     		movs	r0, #5
 1566 00f8 FFF7FEFF 		bl	CyDelayUs
 1567              	.LVL201:
 512:main.c        ****         // check 0x5A
 513:main.c        ****         MR_Write(0);
 1568              		.loc 1 513 0
 1569 00fc 0020     		movs	r0, #0
 1570 00fe FFF7FEFF 		bl	MR_Write
 1571              	.LVL202:
 514:main.c        ****         CyDelayUs(5);
 1572              		.loc 1 514 0
 1573 0102 0520     		movs	r0, #5
 1574 0104 FFF7FEFF 		bl	CyDelayUs
 1575              	.LVL203:
 515:main.c        ****         if(Dta_Read()!=0x5A) {
 1576              		.loc 1 515 0
 1577 0108 FFF7FEFF 		bl	Dta_Read
 1578              	.LVL204:
 1579 010c 5A28     		cmp	r0, #90
 1580 010e 09D0     		beq	.L102
 516:main.c        ****             USBUART_printf("Error at %04X, expected %02X, found %02X\r\n", a, 0x5A, Dta_Read());
 1581              		.loc 1 516 0
ARM GAS  C:\Users\Kiwi\AppData\Local\Temp\cckzbvMb.s 			page 40


 1582 0110 FFF7FEFF 		bl	Dta_Read
 1583              	.LVL205:
 1584 0114 5A22     		movs	r2, #90
 1585 0116 0346     		mov	r3, r0
 1586 0118 2946     		mov	r1, r5
 1587 011a 2848     		ldr	r0, .L114+4
 1588 011c FFF7FEFF 		bl	USBUART_printf
 1589              	.LVL206:
 517:main.c        ****             err++;
 1590              		.loc 1 517 0
 1591 0120 0134     		adds	r4, r4, #1
 1592              	.LVL207:
 1593 0122 A4B2     		uxth	r4, r4
 1594              	.LVL208:
 1595              	.L102:
 518:main.c        ****         }
 519:main.c        ****         MR_Write(1);
 1596              		.loc 1 519 0
 1597 0124 0120     		movs	r0, #1
 1598 0126 FFF7FEFF 		bl	MR_Write
 1599              	.LVL209:
 520:main.c        ****         CyDelayUs(5);
 1600              		.loc 1 520 0
 1601 012a 0520     		movs	r0, #5
 1602 012c FFF7FEFF 		bl	CyDelayUs
 1603              	.LVL210:
 521:main.c        **** 
 522:main.c        ****         CyDelay(1);
 1604              		.loc 1 522 0
 1605 0130 0120     		movs	r0, #1
 1606 0132 FFF7FEFF 		bl	CyDelay
 1607              	.LVL211:
 523:main.c        ****         
 524:main.c        ****         // write back original value
 525:main.c        ****         BusDta_Write(r);
 1608              		.loc 1 525 0
 1609 0136 3046     		mov	r0, r6
 1610 0138 FFF7FEFF 		bl	BusDta_Write
 1611              	.LVL212:
 526:main.c        ****         // BusData to bus (DATAOUT CTL OER WE MSEL)
 527:main.c        ****         SRAM_Ctl_Write(0b10111);
 1612              		.loc 1 527 0
 1613 013c 1720     		movs	r0, #23
 1614 013e FFF7FEFF 		bl	SRAM_Ctl_Write
 1615              	.LVL213:
 528:main.c        ****         MW_Write(0);
 1616              		.loc 1 528 0
 1617 0142 0020     		movs	r0, #0
 1618 0144 FFF7FEFF 		bl	MW_Write
 1619              	.LVL214:
 529:main.c        ****         CyDelayUs(5);
 1620              		.loc 1 529 0
 1621 0148 0520     		movs	r0, #5
 1622 014a FFF7FEFF 		bl	CyDelayUs
 1623              	.LVL215:
 530:main.c        ****         MW_Write(1);
 1624              		.loc 1 530 0
ARM GAS  C:\Users\Kiwi\AppData\Local\Temp\cckzbvMb.s 			page 41


 1625 014e 0120     		movs	r0, #1
 1626 0150 FFF7FEFF 		bl	MW_Write
 1627              	.LVL216:
 531:main.c        ****         SRAM_Ctl_Write(0b00111);
 1628              		.loc 1 531 0
 1629 0154 0720     		movs	r0, #7
 1630 0156 FFF7FEFF 		bl	SRAM_Ctl_Write
 1631              	.LVL217:
 474:main.c        ****         AddrH_Write((a>>8)&0xFF);
 1632              		.loc 1 474 0
 1633 015a 0135     		adds	r5, r5, #1
 1634              	.LVL218:
 532:main.c        ****         CyDelayUs(5);
 1635              		.loc 1 532 0
 1636 015c 0520     		movs	r0, #5
 1637 015e FFF7FEFF 		bl	CyDelayUs
 1638              	.LVL219:
 474:main.c        ****         AddrH_Write((a>>8)&0xFF);
 1639              		.loc 1 474 0
 1640 0162 B5F57D4F 		cmp	r5, #64768
 1641 0166 7FF46FAF 		bne	.L103
 1642              	.LBE53:
 533:main.c        ****     }
 534:main.c        ****     
 535:main.c        ****     SRAM_Ctl_Write(0b00111);
 1643              		.loc 1 535 0
 1644 016a 0720     		movs	r0, #7
 1645 016c FFF7FEFF 		bl	SRAM_Ctl_Write
 1646              	.LVL220:
 536:main.c        ****     AddrL_Write(0);
 1647              		.loc 1 536 0
 1648 0170 0020     		movs	r0, #0
 1649 0172 FFF7FEFF 		bl	AddrL_Write
 1650              	.LVL221:
 537:main.c        ****     AddrL_SetDriveMode(PIN_DM_DIG_HIZ);
 1651              		.loc 1 537 0
 1652 0176 0220     		movs	r0, #2
 1653 0178 FFF7FEFF 		bl	AddrL_SetDriveMode
 1654              	.LVL222:
 538:main.c        ****     AddrH_Write(0);
 1655              		.loc 1 538 0
 1656 017c 0020     		movs	r0, #0
 1657 017e FFF7FEFF 		bl	AddrH_Write
 1658              	.LVL223:
 539:main.c        ****     AddrH_SetDriveMode(PIN_DM_DIG_HIZ);
 1659              		.loc 1 539 0
 1660 0182 0220     		movs	r0, #2
 1661 0184 FFF7FEFF 		bl	AddrH_SetDriveMode
 1662              	.LVL224:
 540:main.c        ****     MR_Write(1);
 1663              		.loc 1 540 0
 1664 0188 0120     		movs	r0, #1
 1665 018a FFF7FEFF 		bl	MR_Write
 1666              	.LVL225:
 541:main.c        ****     MR_SetDriveMode(PIN_DM_DIG_HIZ);
 1667              		.loc 1 541 0
 1668 018e 0220     		movs	r0, #2
ARM GAS  C:\Users\Kiwi\AppData\Local\Temp\cckzbvMb.s 			page 42


 1669 0190 FFF7FEFF 		bl	MR_SetDriveMode
 1670              	.LVL226:
 542:main.c        ****     MW_Write(1);
 1671              		.loc 1 542 0
 1672 0194 0120     		movs	r0, #1
 1673 0196 FFF7FEFF 		bl	MW_Write
 1674              	.LVL227:
 543:main.c        ****     MW_SetDriveMode(PIN_DM_DIG_HIZ);
 1675              		.loc 1 543 0
 1676 019a 0220     		movs	r0, #2
 1677 019c FFF7FEFF 		bl	MW_SetDriveMode
 1678              	.LVL228:
 544:main.c        ****     
 545:main.c        ****     if(err==0) {
 546:main.c        ****         USBUART_printf("No erros found :-)\r\n", err);
 1679              		.loc 1 546 0
 1680 01a0 2146     		mov	r1, r4
 545:main.c        ****         USBUART_printf("No erros found :-)\r\n", err);
 1681              		.loc 1 545 0
 1682 01a2 0CB9     		cbnz	r4, .L104
 1683              		.loc 1 546 0
 1684 01a4 0648     		ldr	r0, .L114+8
 1685 01a6 00E0     		b	.L113
 1686              	.L104:
 547:main.c        ****     } else {
 548:main.c        ****         USBUART_printf("Found %d errors :-(\r\n", err);
 1687              		.loc 1 548 0
 1688 01a8 0648     		ldr	r0, .L114+12
 1689              	.L113:
 1690 01aa FFF7FEFF 		bl	USBUART_printf
 1691              	.LVL229:
 1692              	.LBE52:
 1693              	.LBE51:
 549:main.c        ****     }
 550:main.c        ****     
 551:main.c        ****     Release_SAPI_Bus();
 552:main.c        **** }
 1694              		.loc 1 552 0
 1695 01ae BDE87040 		pop	{r4, r5, r6, lr}
 1696              		.cfi_remember_state
 1697              		.cfi_restore 14
 1698              		.cfi_restore 6
 1699              		.cfi_restore 5
 1700              		.cfi_restore 4
 1701              		.cfi_def_cfa_offset 0
 1702              	.LVL230:
 1703              	.LBB55:
 1704              	.LBB54:
 551:main.c        **** }
 1705              		.loc 1 551 0
 1706 01b2 FFF7FEBF 		b	Release_SAPI_Bus
 1707              	.LVL231:
 1708              	.L99:
 1709              		.cfi_restore_state
 1710 01b6 70BD     		pop	{r4, r5, r6, pc}
 1711              	.L115:
 1712              		.align	2
ARM GAS  C:\Users\Kiwi\AppData\Local\Temp\cckzbvMb.s 			page 43


 1713              	.L114:
 1714 01b8 38010000 		.word	.LC15
 1715 01bc 62010000 		.word	.LC16
 1716 01c0 8D010000 		.word	.LC17
 1717 01c4 A2010000 		.word	.LC18
 1718              	.LBE54:
 1719              	.LBE55:
 1720              		.cfi_endproc
 1721              	.LFE79:
 1722              		.size	TestVideo, .-TestVideo
 1723              		.section	.text.WriteIO8,"ax",%progbits
 1724              		.align	1
 1725              		.global	WriteIO8
 1726              		.thumb
 1727              		.thumb_func
 1728              		.type	WriteIO8, %function
 1729              	WriteIO8:
 1730              	.LFB80:
 553:main.c        **** 
 554:main.c        **** void WriteIO8(uint8 port, uint8 value) {
 1731              		.loc 1 554 0
 1732              		.cfi_startproc
 1733              		@ args = 0, pretend = 0, frame = 0
 1734              		@ frame_needed = 0, uses_anonymous_args = 0
 1735              	.LVL232:
 1736 0000 10B5     		push	{r4, lr}
 1737              		.cfi_def_cfa_offset 8
 1738              		.cfi_offset 4, -8
 1739              		.cfi_offset 14, -4
 1740              		.loc 1 554 0
 1741 0002 0C46     		mov	r4, r1
 555:main.c        ****     // do not call this without reserving bus first
 556:main.c        ****     AddrL_Write(port);
 1742              		.loc 1 556 0
 1743 0004 FFF7FEFF 		bl	AddrL_Write
 1744              	.LVL233:
 557:main.c        ****     BusDta_Write(value);
 1745              		.loc 1 557 0
 1746 0008 2046     		mov	r0, r4
 1747 000a FFF7FEFF 		bl	BusDta_Write
 1748              	.LVL234:
 558:main.c        ****     SRAM_Ctl_Write(0b10111);
 1749              		.loc 1 558 0
 1750 000e 1720     		movs	r0, #23
 1751 0010 FFF7FEFF 		bl	SRAM_Ctl_Write
 1752              	.LVL235:
 559:main.c        ****     //CyDelayUs(5);
 560:main.c        ****     IOW_Write(0);
 1753              		.loc 1 560 0
 1754 0014 0020     		movs	r0, #0
 1755 0016 FFF7FEFF 		bl	IOW_Write
 1756              	.LVL236:
 561:main.c        ****     CyDelayUs(4);
 1757              		.loc 1 561 0
 1758 001a 0420     		movs	r0, #4
 1759 001c FFF7FEFF 		bl	CyDelayUs
 1760              	.LVL237:
ARM GAS  C:\Users\Kiwi\AppData\Local\Temp\cckzbvMb.s 			page 44


 562:main.c        ****     IOW_Write(1);
 1761              		.loc 1 562 0
 1762 0020 0120     		movs	r0, #1
 1763 0022 FFF7FEFF 		bl	IOW_Write
 1764              	.LVL238:
 563:main.c        ****     SRAM_Ctl_Write(0b00111);
 564:main.c        ****     //CyDelayUs(5);
 565:main.c        **** }
 1765              		.loc 1 565 0
 1766 0026 BDE81040 		pop	{r4, lr}
 1767              		.cfi_restore 14
 1768              		.cfi_restore 4
 1769              		.cfi_def_cfa_offset 0
 563:main.c        ****     SRAM_Ctl_Write(0b00111);
 1770              		.loc 1 563 0
 1771 002a 0720     		movs	r0, #7
 1772 002c FFF7FEBF 		b	SRAM_Ctl_Write
 1773              	.LVL239:
 1774              		.cfi_endproc
 1775              	.LFE80:
 1776              		.size	WriteIO8, .-WriteIO8
 1777              		.section	.text.ReadIO8,"ax",%progbits
 1778              		.align	1
 1779              		.global	ReadIO8
 1780              		.thumb
 1781              		.thumb_func
 1782              		.type	ReadIO8, %function
 1783              	ReadIO8:
 1784              	.LFB81:
 566:main.c        **** 
 567:main.c        **** uint8 ReadIO8(uint8 port) {
 1785              		.loc 1 567 0
 1786              		.cfi_startproc
 1787              		@ args = 0, pretend = 0, frame = 0
 1788              		@ frame_needed = 0, uses_anonymous_args = 0
 1789              	.LVL240:
 1790 0000 10B5     		push	{r4, lr}
 1791              		.cfi_def_cfa_offset 8
 1792              		.cfi_offset 4, -8
 1793              		.cfi_offset 14, -4
 568:main.c        ****     // do not call this without reserving bus first
 569:main.c        ****     uint8 res;
 570:main.c        ****     
 571:main.c        ****     AddrL_Write(port);
 1794              		.loc 1 571 0
 1795 0002 FFF7FEFF 		bl	AddrL_Write
 1796              	.LVL241:
 572:main.c        ****     //CyDelayUs(5);
 573:main.c        ****     IOR_Write(0);
 1797              		.loc 1 573 0
 1798 0006 0020     		movs	r0, #0
 1799 0008 FFF7FEFF 		bl	IOR_Write
 1800              	.LVL242:
 574:main.c        ****     CyDelayUs(4);
 1801              		.loc 1 574 0
 1802 000c 0420     		movs	r0, #4
 1803 000e FFF7FEFF 		bl	CyDelayUs
ARM GAS  C:\Users\Kiwi\AppData\Local\Temp\cckzbvMb.s 			page 45


 1804              	.LVL243:
 575:main.c        ****     res = Dta_Read();
 1805              		.loc 1 575 0
 1806 0012 FFF7FEFF 		bl	Dta_Read
 1807              	.LVL244:
 1808 0016 0446     		mov	r4, r0
 1809              	.LVL245:
 576:main.c        ****     IOR_Write(1);
 1810              		.loc 1 576 0
 1811 0018 0120     		movs	r0, #1
 1812 001a FFF7FEFF 		bl	IOR_Write
 1813              	.LVL246:
 577:main.c        ****     //CyDelayUs(5);
 578:main.c        ****     
 579:main.c        ****     return res;
 580:main.c        **** }
 1814              		.loc 1 580 0
 1815 001e 2046     		mov	r0, r4
 1816 0020 10BD     		pop	{r4, pc}
 1817              		.cfi_endproc
 1818              	.LFE81:
 1819              		.size	ReadIO8, .-ReadIO8
 1820              		.section	.text.DumpZRMD,"ax",%progbits
 1821              		.align	1
 1822              		.global	DumpZRMD
 1823              		.thumb
 1824              		.thumb_func
 1825              		.type	DumpZRMD, %function
 1826              	DumpZRMD:
 1827              	.LFB82:
 581:main.c        **** 
 582:main.c        **** char HexChar[16] = {'0', '1', '2', '3', '4', '5', '6', '7', '8', '9', 'A', 'B', 'C', 'D', 'E', 'F'}
 583:main.c        **** char dva[3];
 584:main.c        **** 
 585:main.c        **** void DumpZRMD() {
 1828              		.loc 1 585 0
 1829              		.cfi_startproc
 1830              		@ args = 0, pretend = 0, frame = 64
 1831              		@ frame_needed = 0, uses_anonymous_args = 0
 1832 0000 2DE9F04F 		push	{r4, r5, r6, r7, r8, r9, r10, fp, lr}
 1833              		.cfi_def_cfa_offset 36
 1834              		.cfi_offset 4, -36
 1835              		.cfi_offset 5, -32
 1836              		.cfi_offset 6, -28
 1837              		.cfi_offset 7, -24
 1838              		.cfi_offset 8, -20
 1839              		.cfi_offset 9, -16
 1840              		.cfi_offset 10, -12
 1841              		.cfi_offset 11, -8
 1842              		.cfi_offset 14, -4
 1843 0004 91B0     		sub	sp, sp, #68
 1844              		.cfi_def_cfa_offset 104
 586:main.c        ****     if(!Get_SAPI_Bus()) {
 1845              		.loc 1 586 0
 1846 0006 FFF7FEFF 		bl	Get_SAPI_Bus
 1847              	.LVL247:
 1848 000a 0028     		cmp	r0, #0
ARM GAS  C:\Users\Kiwi\AppData\Local\Temp\cckzbvMb.s 			page 46


 1849 000c 00F08180 		beq	.L118
 1850              	.LVL248:
 587:main.c        ****         return;
 588:main.c        ****     }
 589:main.c        **** 
 590:main.c        ****     uint8 i = 0;
 591:main.c        ****     char tmpstr[64];
 592:main.c        ****     
 593:main.c        ****     // pripravime si vychozi hodnoty pro sbernici
 594:main.c        ****     AddrL_Write(0);
 1851              		.loc 1 594 0
 1852 0010 0020     		movs	r0, #0
 1853 0012 FFF7FEFF 		bl	AddrL_Write
 1854              	.LVL249:
 595:main.c        ****     AddrH_Write(0);
 1855              		.loc 1 595 0
 1856 0016 0020     		movs	r0, #0
 1857 0018 FFF7FEFF 		bl	AddrH_Write
 1858              	.LVL250:
 596:main.c        ****     IOR_Write(1);
 1859              		.loc 1 596 0
 1860 001c 0120     		movs	r0, #1
 1861 001e FFF7FEFF 		bl	IOR_Write
 1862              	.LVL251:
 597:main.c        ****     IOW_Write(1);
 1863              		.loc 1 597 0
 1864 0022 0120     		movs	r0, #1
 1865 0024 FFF7FEFF 		bl	IOW_Write
 1866              	.LVL252:
 598:main.c        **** 
 599:main.c        ****     AddrL_SetDriveMode(PIN_DM_STRONG);
 1867              		.loc 1 599 0
 1868 0028 0C20     		movs	r0, #12
 1869 002a FFF7FEFF 		bl	AddrL_SetDriveMode
 1870              	.LVL253:
 600:main.c        ****     AddrH_SetDriveMode(PIN_DM_STRONG);
 1871              		.loc 1 600 0
 1872 002e 0C20     		movs	r0, #12
 1873 0030 FFF7FEFF 		bl	AddrH_SetDriveMode
 1874              	.LVL254:
 601:main.c        ****     IOR_SetDriveMode(PIN_DM_STRONG);
 1875              		.loc 1 601 0
 1876 0034 0C20     		movs	r0, #12
 1877 0036 FFF7FEFF 		bl	IOR_SetDriveMode
 1878              	.LVL255:
 602:main.c        ****     IOW_SetDriveMode(PIN_DM_STRONG);
 1879              		.loc 1 602 0
 1880 003a 0C20     		movs	r0, #12
 1881 003c FFF7FEFF 		bl	IOW_SetDriveMode
 1882              	.LVL256:
 603:main.c        **** 
 604:main.c        ****     /*gfx_setCursor(0,32);
 605:main.c        ****     gfx_println("Dump ZRMD ");
 606:main.c        ****     gfx_println("          ");
 607:main.c        ****     display_update();*/
 608:main.c        ****     
 609:main.c        ****     // a jdeme zkusit precist RD
ARM GAS  C:\Users\Kiwi\AppData\Local\Temp\cckzbvMb.s 			page 47


 610:main.c        ****     uint16 r, had, mad, lad, chk;
 611:main.c        ****     for(had=0; had<64; had++) {
 612:main.c        ****         chk = 2 + 0 + 0 + 4 + ((had & 0xFF00)>>8) + (had & 0x00FF);
 613:main.c        ****         chk = (0x100 - (chk & 0x00FF)) & 0xFF;
 614:main.c        ****         USBUART_printf(":02000004%04X%02X\r\n", had, chk);
 615:main.c        ****         /*gfx_setCursor(0,48);
 616:main.c        ****         sprintf(tmpstr, "Seg.%02X%3d%%", had, (had*100)/64);
 617:main.c        ****         gfx_println(tmpstr);
 618:main.c        ****         display_update();*/
 619:main.c        ****         for(mad=0; mad<256; mad++) {
 620:main.c        ****             
 621:main.c        ****             // dolni cast adresy
 622:main.c        ****             WriteIO8(0x61, 0);
 623:main.c        ****             // stredni cast adresy
 624:main.c        ****             WriteIO8(0x62, mad);
 625:main.c        ****             // horni cast adresy
 626:main.c        ****             WriteIO8(0x63, had);
 627:main.c        ****             
 628:main.c        ****             for(lad=0; lad<256; lad+=1) {
 629:main.c        ****                 if((lad & 0x001F)==0x0000) {
 630:main.c        ****                     chk = 0x20 + mad + lad;
 631:main.c        ****                     USBUART_printf(":20%02X%02X00", mad, lad);
 632:main.c        ****                 }
 633:main.c        ****                 
 634:main.c        ****                 //for(i=0; i<2; i++) {
 635:main.c        ****                     r = ReadIO8(0x60);
 636:main.c        ****                     chk += r;
 637:main.c        ****                     tmpstr[i*2]=HexChar[r>>4];
 1883              		.loc 1 637 0
 1884 0040 DFF8E480 		ldr	r8, .L135+16
 602:main.c        ****     IOW_SetDriveMode(PIN_DM_STRONG);
 1885              		.loc 1 602 0
 1886 0044 0026     		movs	r6, #0
 1887              	.LVL257:
 1888              	.L125:
 613:main.c        ****         USBUART_printf(":02000004%04X%02X\r\n", had, chk);
 1889              		.loc 1 613 0
 1890 0046 C6F57F44 		rsb	r4, r6, #65280
 1891 004a FA34     		adds	r4, r4, #250
 1892 004c E4B2     		uxtb	r4, r4
 1893              	.LVL258:
 614:main.c        ****         /*gfx_setCursor(0,48);
 1894              		.loc 1 614 0
 1895 004e 2246     		mov	r2, r4
 1896 0050 3146     		mov	r1, r6
 1897 0052 3148     		ldr	r0, .L135
 1898 0054 0025     		movs	r5, #0
 1899 0056 FFF7FEFF 		bl	USBUART_printf
 1900              	.LVL259:
 622:main.c        ****             // stredni cast adresy
 1901              		.loc 1 622 0
 1902 005a A946     		mov	r9, r5
 1903              	.LVL260:
 1904              	.L124:
 1905 005c 0021     		movs	r1, #0
 1906 005e 6120     		movs	r0, #97
 1907 0060 FFF7FEFF 		bl	WriteIO8
ARM GAS  C:\Users\Kiwi\AppData\Local\Temp\cckzbvMb.s 			page 48


 1908              	.LVL261:
 624:main.c        ****             // horni cast adresy
 1909              		.loc 1 624 0
 1910 0064 E9B2     		uxtb	r1, r5
 1911 0066 6220     		movs	r0, #98
 1912 0068 FFF7FEFF 		bl	WriteIO8
 1913              	.LVL262:
 626:main.c        ****             
 1914              		.loc 1 626 0
 1915 006c F1B2     		uxtb	r1, r6
 1916 006e 6320     		movs	r0, #99
 1917 0070 FFF7FEFF 		bl	WriteIO8
 1918              	.LVL263:
 1919 0074 1FFA85FA 		uxth	r10, r5
 1920              	.LVL264:
 1921 0078 0027     		movs	r7, #0
 1922              	.LVL265:
 1923              	.L123:
 1924 007a BAB2     		uxth	r2, r7
 1925              	.LVL266:
 629:main.c        ****                     chk = 0x20 + mad + lad;
 1926              		.loc 1 629 0
 1927 007c 12F01F0B 		ands	fp, r2, #31
 1928 0080 08D1     		bne	.L120
 1929 0082 0AF12003 		add	r3, r10, #32
 1930 0086 D418     		adds	r4, r2, r3
 1931              	.LVL267:
 631:main.c        ****                 }
 1932              		.loc 1 631 0
 1933 0088 2946     		mov	r1, r5
 1934 008a 3A46     		mov	r2, r7
 1935              	.LVL268:
 1936 008c 2348     		ldr	r0, .L135+4
 1937 008e A4B2     		uxth	r4, r4
 1938 0090 FFF7FEFF 		bl	USBUART_printf
 1939              	.LVL269:
 1940              	.L120:
 635:main.c        ****                     chk += r;
 1941              		.loc 1 635 0
 1942 0094 6020     		movs	r0, #96
 1943 0096 FFF7FEFF 		bl	ReadIO8
 1944              	.LVL270:
 1945 009a 83B2     		uxth	r3, r0
 1946              	.LVL271:
 636:main.c        ****                     tmpstr[i*2]=HexChar[r>>4];
 1947              		.loc 1 636 0
 1948 009c 1C44     		add	r4, r4, r3
 1949              	.LVL272:
 1950              		.loc 1 637 0
 1951 009e 08EB1313 		add	r3, r8, r3, lsr #4
 1952              	.LVL273:
 1953 00a2 5B79     		ldrb	r3, [r3, #5]	@ zero_extendqisi2
 638:main.c        ****                     tmpstr[i*2+1]=HexChar[r&0x0F];
 1954              		.loc 1 638 0
 1955 00a4 00F00F00 		and	r0, r0, #15
 1956              	.LVL274:
 1957 00a8 4044     		add	r0, r0, r8
ARM GAS  C:\Users\Kiwi\AppData\Local\Temp\cckzbvMb.s 			page 49


 637:main.c        ****                     tmpstr[i*2+1]=HexChar[r&0x0F];
 1958              		.loc 1 637 0
 1959 00aa 8DF80030 		strb	r3, [sp]
 1960              		.loc 1 638 0
 1961 00ae 4379     		ldrb	r3, [r0, #5]	@ zero_extendqisi2
 636:main.c        ****                     tmpstr[i*2]=HexChar[r>>4];
 1962              		.loc 1 636 0
 1963 00b0 A4B2     		uxth	r4, r4
 1964              		.loc 1 638 0
 1965 00b2 8DF80130 		strb	r3, [sp, #1]
 639:main.c        ****                 //}
 640:main.c        ****                 tmpstr[2]=0;
 1966              		.loc 1 640 0
 1967 00b6 8DF80290 		strb	r9, [sp, #2]
 1968              	.L121:
 641:main.c        ****                 while(!USBUART_CDCIsReady());
 1969              		.loc 1 641 0 discriminator 1
 1970 00ba FFF7FEFF 		bl	USBUART_CDCIsReady
 1971              	.LVL275:
 1972 00be 0028     		cmp	r0, #0
 1973 00c0 FBD0     		beq	.L121
 642:main.c        ****                 USBUART_PutString(tmpstr);
 1974              		.loc 1 642 0
 1975 00c2 6846     		mov	r0, sp
 1976 00c4 FFF7FEFF 		bl	USBUART_PutString
 1977              	.LVL276:
 643:main.c        ****                 //USBUART_printf(tmpstr);
 644:main.c        ****                 
 645:main.c        ****                 if((lad & 0x001F)==0x001F) {
 1978              		.loc 1 645 0
 1979 00c8 BBF11F0F 		cmp	fp, #31
 1980 00cc 05D1     		bne	.L122
 646:main.c        ****                     chk = (0x100 - (chk & 0x00FF)) & 0xFF;
 1981              		.loc 1 646 0
 1982 00ce 6442     		negs	r4, r4
 1983              	.LVL277:
 1984 00d0 E4B2     		uxtb	r4, r4
 1985              	.LVL278:
 647:main.c        ****                     USBUART_printf("%02X\r\n", chk);
 1986              		.loc 1 647 0
 1987 00d2 2146     		mov	r1, r4
 1988 00d4 1248     		ldr	r0, .L135+8
 1989 00d6 FFF7FEFF 		bl	USBUART_printf
 1990              	.LVL279:
 1991              	.L122:
 1992 00da 0137     		adds	r7, r7, #1
 1993              	.LVL280:
 628:main.c        ****                 if((lad & 0x001F)==0x0000) {
 1994              		.loc 1 628 0 discriminator 2
 1995 00dc B7F5807F 		cmp	r7, #256
 1996 00e0 CBD1     		bne	.L123
 1997              	.LVL281:
 1998 00e2 0135     		adds	r5, r5, #1
 1999              	.LVL282:
 619:main.c        ****             
 2000              		.loc 1 619 0 discriminator 2
 2001 00e4 B5F5807F 		cmp	r5, #256
ARM GAS  C:\Users\Kiwi\AppData\Local\Temp\cckzbvMb.s 			page 50


 2002 00e8 B8D1     		bne	.L124
 2003              	.LVL283:
 2004 00ea 0136     		adds	r6, r6, #1
 2005              	.LVL284:
 611:main.c        ****         chk = 2 + 0 + 0 + 4 + ((had & 0xFF00)>>8) + (had & 0x00FF);
 2006              		.loc 1 611 0 discriminator 2
 2007 00ec 402E     		cmp	r6, #64
 2008 00ee AAD1     		bne	.L125
 648:main.c        ****                 }
 649:main.c        ****             }
 650:main.c        ****         }
 651:main.c        ****     }
 652:main.c        ****     USBUART_printf(":00000001FF\r\n");
 2009              		.loc 1 652 0
 2010 00f0 0C48     		ldr	r0, .L135+12
 2011 00f2 FFF7FEFF 		bl	USBUART_printf
 2012              	.LVL285:
 653:main.c        ****     
 654:main.c        ****     // uvolnime sbernici        
 655:main.c        ****     AddrL_SetDriveMode(PIN_DM_DIG_HIZ);
 2013              		.loc 1 655 0
 2014 00f6 0220     		movs	r0, #2
 2015 00f8 FFF7FEFF 		bl	AddrL_SetDriveMode
 2016              	.LVL286:
 656:main.c        ****     AddrH_SetDriveMode(PIN_DM_DIG_HIZ);
 2017              		.loc 1 656 0
 2018 00fc 0220     		movs	r0, #2
 2019 00fe FFF7FEFF 		bl	AddrH_SetDriveMode
 2020              	.LVL287:
 657:main.c        ****     IOR_SetDriveMode(PIN_DM_DIG_HIZ);
 2021              		.loc 1 657 0
 2022 0102 0220     		movs	r0, #2
 2023 0104 FFF7FEFF 		bl	IOR_SetDriveMode
 2024              	.LVL288:
 658:main.c        ****     IOW_SetDriveMode(PIN_DM_DIG_HIZ);
 2025              		.loc 1 658 0
 2026 0108 0220     		movs	r0, #2
 2027 010a FFF7FEFF 		bl	IOW_SetDriveMode
 2028              	.LVL289:
 659:main.c        **** 
 660:main.c        ****     /*gfx_setCursor(0,32);
 661:main.c        ****     gfx_print("Ready     ");
 662:main.c        ****     gfx_print("          ");
 663:main.c        ****     display_update();*/
 664:main.c        **** 
 665:main.c        ****     Release_SAPI_Bus();
 2029              		.loc 1 665 0
 2030 010e FFF7FEFF 		bl	Release_SAPI_Bus
 2031              	.LVL290:
 2032              	.L118:
 666:main.c        **** }
 2033              		.loc 1 666 0
 2034 0112 11B0     		add	sp, sp, #68
 2035              		.cfi_def_cfa_offset 36
 2036              		@ sp needed
 2037 0114 BDE8F08F 		pop	{r4, r5, r6, r7, r8, r9, r10, fp, pc}
 2038              	.L136:
ARM GAS  C:\Users\Kiwi\AppData\Local\Temp\cckzbvMb.s 			page 51


 2039              		.align	2
 2040              	.L135:
 2041 0118 B8010000 		.word	.LC19
 2042 011c CC010000 		.word	.LC20
 2043 0120 DA010000 		.word	.LC21
 2044 0124 E1010000 		.word	.LC22
 2045 0128 00000000 		.word	.LANCHOR1
 2046              		.cfi_endproc
 2047              	.LFE82:
 2048              		.size	DumpZRMD, .-DumpZRMD
 2049              		.section	.text.Write_ZRMD,"ax",%progbits
 2050              		.align	1
 2051              		.global	Write_ZRMD
 2052              		.thumb
 2053              		.thumb_func
 2054              		.type	Write_ZRMD, %function
 2055              	Write_ZRMD:
 2056              	.LFB83:
 667:main.c        **** 
 668:main.c        **** void Write_ZRMD(uint8 had, uint8 mad, uint8 lad, uint8 *dta, uint16 len) {
 2057              		.loc 1 668 0
 2058              		.cfi_startproc
 2059              		@ args = 4, pretend = 0, frame = 0
 2060              		@ frame_needed = 0, uses_anonymous_args = 0
 2061              	.LVL291:
 2062 0000 2DE9F843 		push	{r3, r4, r5, r6, r7, r8, r9, lr}
 2063              		.cfi_def_cfa_offset 32
 2064              		.cfi_offset 3, -32
 2065              		.cfi_offset 4, -28
 2066              		.cfi_offset 5, -24
 2067              		.cfi_offset 6, -20
 2068              		.cfi_offset 7, -16
 2069              		.cfi_offset 8, -12
 2070              		.cfi_offset 9, -8
 2071              		.cfi_offset 14, -4
 2072              		.loc 1 668 0
 2073 0004 0646     		mov	r6, r0
 2074 0006 8846     		mov	r8, r1
 2075 0008 9146     		mov	r9, r2
 2076 000a 1D46     		mov	r5, r3
 2077 000c BDF82070 		ldrh	r7, [sp, #32]
 669:main.c        ****     if(!Get_SAPI_Bus_Silent()) {
 2078              		.loc 1 669 0
 2079 0010 FFF7FEFF 		bl	Get_SAPI_Bus_Silent
 2080              	.LVL292:
 2081 0014 0028     		cmp	r0, #0
 2082 0016 60D0     		beq	.L137
 2083              	.LVL293:
 2084              	.LBB60:
 2085              	.LBB61:
 670:main.c        ****         return;
 671:main.c        ****     }
 672:main.c        **** 
 673:main.c        ****     //uint32 WZbegin = Millis_ReadCounter();
 674:main.c        ****     
 675:main.c        ****     // pripravime si vychozi hodnoty pro sbernici
 676:main.c        ****     AddrL_Write(0);
ARM GAS  C:\Users\Kiwi\AppData\Local\Temp\cckzbvMb.s 			page 52


 2086              		.loc 1 676 0
 2087 0018 0020     		movs	r0, #0
 2088 001a FFF7FEFF 		bl	AddrL_Write
 2089              	.LVL294:
 677:main.c        ****     AddrH_Write(0);
 2090              		.loc 1 677 0
 2091 001e 0020     		movs	r0, #0
 2092 0020 FFF7FEFF 		bl	AddrH_Write
 2093              	.LVL295:
 678:main.c        ****     IOR_Write(1);
 2094              		.loc 1 678 0
 2095 0024 0120     		movs	r0, #1
 2096 0026 FFF7FEFF 		bl	IOR_Write
 2097              	.LVL296:
 679:main.c        ****     IOW_Write(1);
 2098              		.loc 1 679 0
 2099 002a 0120     		movs	r0, #1
 2100 002c FFF7FEFF 		bl	IOW_Write
 2101              	.LVL297:
 680:main.c        **** 
 681:main.c        ****     // sbernici bychom si bez dovoleni vzali pros sebe, jestli je pripojena JPR-1Z pujde to kolize
 682:main.c        ****     AddrL_SetDriveMode(PIN_DM_STRONG);
 2102              		.loc 1 682 0
 2103 0030 0C20     		movs	r0, #12
 2104 0032 FFF7FEFF 		bl	AddrL_SetDriveMode
 2105              	.LVL298:
 683:main.c        ****     AddrH_SetDriveMode(PIN_DM_STRONG);
 2106              		.loc 1 683 0
 2107 0036 0C20     		movs	r0, #12
 2108 0038 FFF7FEFF 		bl	AddrH_SetDriveMode
 2109              	.LVL299:
 684:main.c        ****     IOR_SetDriveMode(PIN_DM_STRONG);
 2110              		.loc 1 684 0
 2111 003c 0C20     		movs	r0, #12
 2112 003e FFF7FEFF 		bl	IOR_SetDriveMode
 2113              	.LVL300:
 685:main.c        ****     IOW_SetDriveMode(PIN_DM_STRONG);
 2114              		.loc 1 685 0
 2115 0042 0C20     		movs	r0, #12
 2116 0044 FFF7FEFF 		bl	IOW_SetDriveMode
 2117              	.LVL301:
 686:main.c        **** 
 687:main.c        ****     //uint32 WZsetpins = Millis_ReadCounter();
 688:main.c        **** 
 689:main.c        ****     //gfx_setCursor(0,32);
 690:main.c        ****     //gfx_print("Write ZRMD");
 691:main.c        ****     //gfx_print("          ");
 692:main.c        ****     //display_update();
 693:main.c        **** 
 694:main.c        ****     //uint32 WZdisp1 = Millis_ReadCounter();
 695:main.c        **** 
 696:main.c        ****     // dolni cast adresy
 697:main.c        ****     WriteIO8(0x61, lad);
 2118              		.loc 1 697 0
 2119 0048 4946     		mov	r1, r9
 2120 004a 6120     		movs	r0, #97
 2121 004c FFF7FEFF 		bl	WriteIO8
ARM GAS  C:\Users\Kiwi\AppData\Local\Temp\cckzbvMb.s 			page 53


 2122              	.LVL302:
 698:main.c        ****     // stredni cast adresy
 699:main.c        ****     WriteIO8(0x62, mad);
 2123              		.loc 1 699 0
 2124 0050 4146     		mov	r1, r8
 2125 0052 6220     		movs	r0, #98
 2126 0054 FFF7FEFF 		bl	WriteIO8
 2127              	.LVL303:
 700:main.c        ****     // horni cast adresy
 701:main.c        ****     WriteIO8(0x63, had);
 2128              		.loc 1 701 0
 2129 0058 3146     		mov	r1, r6
 2130 005a 6320     		movs	r0, #99
 2131 005c FFF7FEFF 		bl	WriteIO8
 2132              	.LVL304:
 2133 0060 2C46     		mov	r4, r5
 2134              	.LVL305:
 2135              	.L139:
 2136              	.LBB62:
 702:main.c        **** 
 703:main.c        ****     for(int i=0; i<len; i++) {
 2137              		.loc 1 703 0
 2138 0062 631B     		subs	r3, r4, r5
 2139 0064 9F42     		cmp	r7, r3
 2140 0066 05DD     		ble	.L146
 704:main.c        ****         WriteIO8(0x60, *(dta+i));
 2141              		.loc 1 704 0
 2142 0068 14F8011B 		ldrb	r1, [r4], #1	@ zero_extendqisi2
 2143              	.LVL306:
 2144 006c 6020     		movs	r0, #96
 2145 006e FFF7FEFF 		bl	WriteIO8
 2146              	.LVL307:
 2147 0072 F6E7     		b	.L139
 2148              	.L146:
 2149              	.LBE62:
 705:main.c        ****     }
 706:main.c        **** 
 707:main.c        ****     // dolni cast adresy
 708:main.c        ****     WriteIO8(0x61, lad);
 2150              		.loc 1 708 0
 2151 0074 4946     		mov	r1, r9
 2152 0076 6120     		movs	r0, #97
 2153 0078 FFF7FEFF 		bl	WriteIO8
 2154              	.LVL308:
 709:main.c        ****     // stredni cast adresy
 710:main.c        ****     WriteIO8(0x62, mad);
 2155              		.loc 1 710 0
 2156 007c 4146     		mov	r1, r8
 2157 007e 6220     		movs	r0, #98
 2158 0080 FFF7FEFF 		bl	WriteIO8
 2159              	.LVL309:
 711:main.c        ****     // horni cast adresy
 712:main.c        ****     WriteIO8(0x63, had);
 2160              		.loc 1 712 0
 2161 0084 3146     		mov	r1, r6
 2162 0086 6320     		movs	r0, #99
 2163 0088 FFF7FEFF 		bl	WriteIO8
ARM GAS  C:\Users\Kiwi\AppData\Local\Temp\cckzbvMb.s 			page 54


 2164              	.LVL310:
 2165 008c 2E46     		mov	r6, r5
 2166              	.LVL311:
 713:main.c        **** 
 714:main.c        ****     //uint32 WZwritten = Millis_ReadCounter();
 715:main.c        **** 
 716:main.c        ****     // jdeme cist (verifikovat)
 717:main.c        ****     
 718:main.c        ****     uint8 r;
 719:main.c        ****     int err=0;
 2167              		.loc 1 719 0
 2168 008e 0024     		movs	r4, #0
 2169              	.LVL312:
 2170              	.L141:
 2171              	.LBB63:
 720:main.c        ****     for(int i=0; i<len; i++) {
 2172              		.loc 1 720 0
 2173 0090 731B     		subs	r3, r6, r5
 2174 0092 9F42     		cmp	r7, r3
 2175 0094 08DD     		ble	.L147
 721:main.c        ****         r = ReadIO8(0x60);
 2176              		.loc 1 721 0
 2177 0096 6020     		movs	r0, #96
 2178 0098 FFF7FEFF 		bl	ReadIO8
 2179              	.LVL313:
 722:main.c        ****         if(r!=*(dta+i))
 2180              		.loc 1 722 0
 2181 009c 16F8013B 		ldrb	r3, [r6], #1	@ zero_extendqisi2
 2182              	.LVL314:
 2183 00a0 9842     		cmp	r0, r3
 723:main.c        ****             err++;
 2184              		.loc 1 723 0
 2185 00a2 18BF     		it	ne
 2186 00a4 0134     		addne	r4, r4, #1
 2187              	.LVL315:
 2188 00a6 F3E7     		b	.L141
 2189              	.LVL316:
 2190              	.L147:
 2191              	.LBE63:
 724:main.c        ****     }
 725:main.c        ****     
 726:main.c        ****     //uint32 WZverified = Millis_ReadCounter();
 727:main.c        **** 
 728:main.c        ****     //gfx_setCursor(0,32);
 729:main.c        ****     //gfx_print("Write ZRMD");
 730:main.c        ****     if(err==0) {
 2192              		.loc 1 730 0
 2193 00a8 1CB9     		cbnz	r4, .L144
 731:main.c        ****         USBUART_printf("OK\r\n");
 2194              		.loc 1 731 0
 2195 00aa 0D48     		ldr	r0, .L148
 2196 00ac FFF7FEFF 		bl	USBUART_printf
 2197              	.LVL317:
 2198 00b0 03E0     		b	.L145
 2199              	.L144:
 732:main.c        ****         //gfx_print("OK        ");
 733:main.c        ****     } else {
ARM GAS  C:\Users\Kiwi\AppData\Local\Temp\cckzbvMb.s 			page 55


 734:main.c        ****         USBUART_printf("%d ERRORs writing data :-(\r\n", err);
 2200              		.loc 1 734 0
 2201 00b2 2146     		mov	r1, r4
 2202 00b4 0B48     		ldr	r0, .L148+4
 2203 00b6 FFF7FEFF 		bl	USBUART_printf
 2204              	.LVL318:
 2205              	.L145:
 735:main.c        ****         //gfx_print("FAILED    ");
 736:main.c        ****     }
 737:main.c        ****     //display_update();
 738:main.c        **** 
 739:main.c        ****     //uint32 WZdisp2 = Millis_ReadCounter();
 740:main.c        **** 
 741:main.c        ****     // uvolnime sbernici        
 742:main.c        ****     AddrL_SetDriveMode(PIN_DM_DIG_HIZ);
 2206              		.loc 1 742 0
 2207 00ba 0220     		movs	r0, #2
 2208 00bc FFF7FEFF 		bl	AddrL_SetDriveMode
 2209              	.LVL319:
 743:main.c        ****     AddrH_SetDriveMode(PIN_DM_DIG_HIZ);
 2210              		.loc 1 743 0
 2211 00c0 0220     		movs	r0, #2
 2212 00c2 FFF7FEFF 		bl	AddrH_SetDriveMode
 2213              	.LVL320:
 744:main.c        ****     IOR_SetDriveMode(PIN_DM_DIG_HIZ);
 2214              		.loc 1 744 0
 2215 00c6 0220     		movs	r0, #2
 2216 00c8 FFF7FEFF 		bl	IOR_SetDriveMode
 2217              	.LVL321:
 745:main.c        ****     IOW_SetDriveMode(PIN_DM_DIG_HIZ);
 2218              		.loc 1 745 0
 2219 00cc 0220     		movs	r0, #2
 2220 00ce FFF7FEFF 		bl	IOW_SetDriveMode
 2221              	.LVL322:
 2222              	.LBE61:
 2223              	.LBE60:
 746:main.c        ****     
 747:main.c        ****     //uint32 WZend = Millis_ReadCounter();
 748:main.c        ****     //USBUART_printf("Write ZRMD line took %d ms.\r\n", WZend-WZbegin);
 749:main.c        ****     //USBUART_printf("WZbegin %d, WZsetpins %d, WZdisp1 %d, WZwritten %d, WZverified %d, WZdisp2 %d
 750:main.c        ****     Release_SAPI_Bus_Silent();
 751:main.c        **** }
 2224              		.loc 1 751 0
 2225 00d2 BDE8F843 		pop	{r3, r4, r5, r6, r7, r8, r9, lr}
 2226              		.cfi_remember_state
 2227              		.cfi_restore 14
 2228              		.cfi_restore 9
 2229              		.cfi_restore 8
 2230              		.cfi_restore 7
 2231              		.cfi_restore 6
 2232              		.cfi_restore 5
 2233              		.cfi_restore 4
 2234              		.cfi_restore 3
 2235              		.cfi_def_cfa_offset 0
 2236              	.LVL323:
 2237              	.LBB65:
 2238              	.LBB64:
ARM GAS  C:\Users\Kiwi\AppData\Local\Temp\cckzbvMb.s 			page 56


 750:main.c        **** }
 2239              		.loc 1 750 0
 2240 00d6 FFF7FEBF 		b	Release_SAPI_Bus_Silent
 2241              	.LVL324:
 2242              	.L137:
 2243              		.cfi_restore_state
 2244 00da BDE8F883 		pop	{r3, r4, r5, r6, r7, r8, r9, pc}
 2245              	.LVL325:
 2246              	.L149:
 2247 00de 00BF     		.align	2
 2248              	.L148:
 2249 00e0 15000000 		.word	.LC2
 2250 00e4 EF010000 		.word	.LC23
 2251              	.LBE64:
 2252              	.LBE65:
 2253              		.cfi_endproc
 2254              	.LFE83:
 2255              		.size	Write_ZRMD, .-Write_ZRMD
 2256              		.section	.text.ProcessHEX,"ax",%progbits
 2257              		.align	1
 2258              		.global	ProcessHEX
 2259              		.thumb
 2260              		.thumb_func
 2261              		.type	ProcessHEX, %function
 2262              	ProcessHEX:
 2263              	.LFB84:
 752:main.c        **** 
 753:main.c        **** void ProcessHEX(char *cmdline) {
 2264              		.loc 1 753 0
 2265              		.cfi_startproc
 2266              		@ args = 0, pretend = 0, frame = 40
 2267              		@ frame_needed = 0, uses_anonymous_args = 0
 2268              	.LVL326:
 2269 0000 2DE9F047 		push	{r4, r5, r6, r7, r8, r9, r10, lr}
 2270              		.cfi_def_cfa_offset 32
 2271              		.cfi_offset 4, -32
 2272              		.cfi_offset 5, -28
 2273              		.cfi_offset 6, -24
 2274              		.cfi_offset 7, -20
 2275              		.cfi_offset 8, -16
 2276              		.cfi_offset 9, -12
 2277              		.cfi_offset 10, -8
 2278              		.cfi_offset 14, -4
 2279 0004 8CB0     		sub	sp, sp, #48
 2280              		.cfi_def_cfa_offset 80
 2281 0006 02AE     		add	r6, sp, #8
 2282              		.loc 1 753 0
 2283 0008 8046     		mov	r8, r0
 2284 000a B146     		mov	r9, r6
 754:main.c        ****     char *bptr = cmdline+1;
 755:main.c        ****     uint8 hexdata[37];
 756:main.c        ****     uint8 hexlen = 0;
 757:main.c        ****     
 758:main.c        ****     // USBUART_printf("\r\nHEX >%s<\r\n", bptr);
 759:main.c        **** 
 760:main.c        ****     //uint32 PHbegin = Millis_ReadCounter();
 761:main.c        ****     
ARM GAS  C:\Users\Kiwi\AppData\Local\Temp\cckzbvMb.s 			page 57


 762:main.c        ****     cntLines++;
 2285              		.loc 1 762 0
 2286 000c 484C     		ldr	r4, .L186
 754:main.c        ****     char *bptr = cmdline+1;
 2287              		.loc 1 754 0
 2288 000e 451C     		adds	r5, r0, #1
 2289              	.LVL327:
 2290              		.loc 1 762 0
 2291 0010 6368     		ldr	r3, [r4, #4]
 763:main.c        **** 
 764:main.c        ****     while(strlen(bptr)>1 && hexlen<37) {
 2292              		.loc 1 764 0
 2293 0012 0027     		movs	r7, #0
 762:main.c        **** 
 2294              		.loc 1 762 0
 2295 0014 0133     		adds	r3, r3, #1
 2296 0016 6360     		str	r3, [r4, #4]
 2297              	.LVL328:
 2298              	.L151:
 2299              		.loc 1 764 0
 2300 0018 2846     		mov	r0, r5
 2301 001a FFF7FEFF 		bl	strlen
 2302              	.LVL329:
 2303 001e 0128     		cmp	r0, #1
 2304 0020 5FFA87FA 		uxtb	r10, r7
 2305              	.LVL330:
 2306 0024 30D9     		bls	.L161
 2307              		.loc 1 764 0 is_stmt 0 discriminator 1
 2308 0026 252F     		cmp	r7, #37
 2309 0028 2CD0     		beq	.L183
 765:main.c        ****         switch(*bptr) {
 2310              		.loc 1 765 0 is_stmt 1
 2311 002a 2B78     		ldrb	r3, [r5]	@ zero_extendqisi2
 2312 002c 302B     		cmp	r3, #48
 2313 002e 0CD3     		bcc	.L152
 2314 0030 392B     		cmp	r3, #57
 2315 0032 04D9     		bls	.L177
 2316 0034 A3F14102 		sub	r2, r3, #65
 2317 0038 052A     		cmp	r2, #5
 2318 003a 06D8     		bhi	.L152
 766:main.c        ****             case '0' ... '9':
 767:main.c        ****                 hexdata[hexlen] = (*bptr - '0')<<4;
 768:main.c        ****                 break;
 769:main.c        ****             case 'A' ... 'F':
 770:main.c        ****                 hexdata[hexlen] = (*bptr - 'A' + 10)<<4;
 2319              		.loc 1 770 0
 2320 003c 373B     		subs	r3, r3, #55
 2321              	.L177:
 2322 003e 1B01     		lsls	r3, r3, #4
 2323 0040 3370     		strb	r3, [r6]
 2324              	.LVL331:
 771:main.c        ****                 break;
 772:main.c        ****             default:
 773:main.c        ****                 USBUART_printf("Bad data on pos %d", bptr-cmdline);
 774:main.c        ****                 cntErrs++;
 775:main.c        ****                 return;
 776:main.c        ****         }
ARM GAS  C:\Users\Kiwi\AppData\Local\Temp\cckzbvMb.s 			page 58


 777:main.c        ****         bptr++;
 778:main.c        ****         switch(*bptr) {
 2325              		.loc 1 778 0
 2326 0042 6B78     		ldrb	r3, [r5, #1]	@ zero_extendqisi2
 2327 0044 302B     		cmp	r3, #48
 2328 0046 03D2     		bcs	.L184
 2329 0048 12E0     		b	.L157
 2330              	.LVL332:
 2331              	.L152:
 773:main.c        ****                 cntErrs++;
 2332              		.loc 1 773 0
 2333 004a C8EB0501 		rsb	r1, r8, r5
 2334 004e 12E0     		b	.L179
 2335              	.LVL333:
 2336              	.L184:
 2337              		.loc 1 778 0
 2338 0050 392B     		cmp	r3, #57
 2339 0052 05D9     		bls	.L158
 2340 0054 A3F14102 		sub	r2, r3, #65
 2341 0058 052A     		cmp	r2, #5
 2342 005a 09D8     		bhi	.L157
 779:main.c        ****             case '0' ... '9':
 780:main.c        ****                 hexdata[hexlen] += (*bptr - '0');
 781:main.c        ****                 break;
 782:main.c        ****             case 'A' ... 'F':
 783:main.c        ****                 hexdata[hexlen] += (*bptr - 'A' + 10);
 2343              		.loc 1 783 0
 2344 005c 373B     		subs	r3, r3, #55
 2345 005e 00E0     		b	.L178
 2346              	.L158:
 780:main.c        ****                 break;
 2347              		.loc 1 780 0
 2348 0060 303B     		subs	r3, r3, #48
 2349              	.L178:
 2350              		.loc 1 783 0
 2351 0062 3278     		ldrb	r2, [r6]	@ zero_extendqisi2
 2352 0064 0235     		adds	r5, r5, #2
 2353              	.LVL334:
 2354 0066 1344     		add	r3, r3, r2
 2355 0068 3370     		strb	r3, [r6]
 2356 006a 0137     		adds	r7, r7, #1
 2357              	.LVL335:
 2358 006c 0136     		adds	r6, r6, #1
 2359 006e D3E7     		b	.L151
 2360              	.LVL336:
 2361              	.L157:
 784:main.c        ****                 break;
 785:main.c        ****             default:
 786:main.c        ****                 USBUART_printf("Bad data on pos %d", bptr-cmdline);
 2362              		.loc 1 786 0
 2363 0070 691C     		adds	r1, r5, #1
 2364 0072 C8EB0101 		rsb	r1, r8, r1
 2365              	.LVL337:
 2366              	.L179:
 2367 0076 2F48     		ldr	r0, .L186+4
 2368              	.LVL338:
 2369              	.L180:
ARM GAS  C:\Users\Kiwi\AppData\Local\Temp\cckzbvMb.s 			page 59


 2370 0078 FFF7FEFF 		bl	USBUART_printf
 2371              	.LVL339:
 2372              	.L181:
 787:main.c        ****                 cntErrs++;
 2373              		.loc 1 787 0
 2374 007c A368     		ldr	r3, [r4, #8]
 2375 007e 0133     		adds	r3, r3, #1
 2376 0080 A360     		str	r3, [r4, #8]
 788:main.c        ****                 return;
 2377              		.loc 1 788 0
 2378 0082 52E0     		b	.L150
 2379              	.LVL340:
 2380              	.L183:
 2381 0084 BA46     		mov	r10, r7
 2382              	.LVL341:
 2383 0086 02E0     		b	.L163
 2384              	.LVL342:
 2385              	.L161:
 789:main.c        ****         }
 790:main.c        ****         bptr++;
 791:main.c        ****         hexlen++;            
 792:main.c        ****     }
 793:main.c        ****     uint16 chk = 0;
 794:main.c        ****     if(hexlen<5) {
 2386              		.loc 1 794 0
 2387 0088 BAF1040F 		cmp	r10, #4
 2388 008c 04D9     		bls	.L164
 2389              	.LVL343:
 2390              	.L163:
 2391 008e 0023     		movs	r3, #0
 2392 0090 1A46     		mov	r2, r3
 2393              	.LBB66:
 795:main.c        ****         USBUART_printf("Not enough data bytes, only %d\r\n", hexlen);
 796:main.c        ****         cntErrs++;
 797:main.c        ****         return;
 798:main.c        ****     }
 799:main.c        ****     for(int i=0; i<hexlen-1; i++) {
 2394              		.loc 1 799 0 discriminator 1
 2395 0092 0AF1FF31 		add	r1, r10, #-1
 2396 0096 02E0     		b	.L165
 2397              	.LVL344:
 2398              	.L164:
 2399              	.LBE66:
 795:main.c        ****         USBUART_printf("Not enough data bytes, only %d\r\n", hexlen);
 2400              		.loc 1 795 0
 2401 0098 5146     		mov	r1, r10
 2402 009a 2748     		ldr	r0, .L186+8
 2403 009c ECE7     		b	.L180
 2404              	.LVL345:
 2405              	.L165:
 2406              	.LBB67:
 2407              		.loc 1 799 0 discriminator 1
 2408 009e 8B42     		cmp	r3, r1
 2409 00a0 05DA     		bge	.L185
 800:main.c        ****         chk += hexdata[i];
 2410              		.loc 1 800 0 discriminator 3
 2411 00a2 19F80300 		ldrb	r0, [r9, r3]	@ zero_extendqisi2
ARM GAS  C:\Users\Kiwi\AppData\Local\Temp\cckzbvMb.s 			page 60


 799:main.c        ****         chk += hexdata[i];
 2412              		.loc 1 799 0 discriminator 3
 2413 00a6 0133     		adds	r3, r3, #1
 2414              	.LVL346:
 2415              		.loc 1 800 0 discriminator 3
 2416 00a8 0244     		add	r2, r2, r0
 2417              	.LVL347:
 2418 00aa 92B2     		uxth	r2, r2
 2419              	.LVL348:
 2420 00ac F7E7     		b	.L165
 2421              	.L185:
 2422              	.LBE67:
 801:main.c        ****     }
 802:main.c        ****     chk = (0x100 - (chk & 0x00FF)) & 0xFF;
 803:main.c        ****     if(chk!=hexdata[hexlen-1]) {
 2423              		.loc 1 803 0
 2424 00ae 0CAB     		add	r3, sp, #48
 2425              	.LVL349:
 2426 00b0 1944     		add	r1, r1, r3
 802:main.c        ****     if(chk!=hexdata[hexlen-1]) {
 2427              		.loc 1 802 0
 2428 00b2 5242     		negs	r2, r2
 2429              	.LVL350:
 2430              		.loc 1 803 0
 2431 00b4 11F8281C 		ldrb	r1, [r1, #-40]	@ zero_extendqisi2
 802:main.c        ****     if(chk!=hexdata[hexlen-1]) {
 2432              		.loc 1 802 0
 2433 00b8 D2B2     		uxtb	r2, r2
 2434              	.LVL351:
 2435              		.loc 1 803 0
 2436 00ba 8A42     		cmp	r2, r1
 2437 00bc 01D0     		beq	.L167
 804:main.c        ****         USBUART_printf("Bad checksum! Found %02X, but should be %02X :-(\r\n", hexdata[hexlen-1], c
 2438              		.loc 1 804 0
 2439 00be 1F48     		ldr	r0, .L186+12
 2440 00c0 07E0     		b	.L182
 2441              	.L167:
 805:main.c        ****         cntErrs++;
 806:main.c        ****         return;
 807:main.c        ****     }
 808:main.c        ****     if(hexdata[0]!=hexlen-5) {
 2442              		.loc 1 808 0
 2443 00c2 9DF80830 		ldrb	r3, [sp, #8]	@ zero_extendqisi2
 2444 00c6 AAF10502 		sub	r2, r10, #5
 2445              	.LVL352:
 2446 00ca 9342     		cmp	r3, r2
 2447 00cc 04D0     		beq	.L168
 809:main.c        ****         USBUART_printf("Bad length! Found %02X, but should be %02X :-(\r\n", hexdata[0], hexlen-5);
 2448              		.loc 1 809 0
 2449 00ce 1946     		mov	r1, r3
 2450 00d0 1B48     		ldr	r0, .L186+16
 2451              	.L182:
 2452 00d2 FFF7FEFF 		bl	USBUART_printf
 2453              	.LVL353:
 2454 00d6 D1E7     		b	.L181
 2455              	.L168:
 810:main.c        ****         cntErrs++;
ARM GAS  C:\Users\Kiwi\AppData\Local\Temp\cckzbvMb.s 			page 61


 811:main.c        ****         return;
 812:main.c        ****     }
 813:main.c        ****     // uint32 WZbegin, WZend;
 814:main.c        ****     switch(hexdata[3]) {
 2456              		.loc 1 814 0
 2457 00d8 9DF80B20 		ldrb	r2, [sp, #11]	@ zero_extendqisi2
 2458 00dc 012A     		cmp	r2, #1
 2459 00de 0FD0     		beq	.L170
 2460 00e0 02D3     		bcc	.L171
 2461 00e2 042A     		cmp	r2, #4
 2462 00e4 10D0     		beq	.L172
 2463 00e6 20E0     		b	.L150
 2464              	.L171:
 815:main.c        ****         case 0x00: // Data
 816:main.c        ****             // USBUART_printf("Data\r\n");
 817:main.c        ****             //WZbegin = Millis_ReadCounter();
 818:main.c        ****             Write_ZRMD(extaddr & 0x3F, hexdata[1], hexdata[2], &hexdata[4], hexdata[0]);
 2465              		.loc 1 818 0
 2466 00e8 207B     		ldrb	r0, [r4, #12]	@ zero_extendqisi2
 2467 00ea 0093     		str	r3, [sp]
 2468 00ec 9DF80A20 		ldrb	r2, [sp, #10]	@ zero_extendqisi2
 2469 00f0 9DF80910 		ldrb	r1, [sp, #9]	@ zero_extendqisi2
 2470 00f4 03AB     		add	r3, sp, #12
 2471 00f6 00F03F00 		and	r0, r0, #63
 2472 00fa FFF7FEFF 		bl	Write_ZRMD
 2473              	.LVL354:
 819:main.c        ****             //WZend = Millis_ReadCounter();
 820:main.c        ****             //USBUART_printf("Write ZRMD line took %d ms.\r\n", WZend-WZbegin);
 821:main.c        ****             break;
 2474              		.loc 1 821 0
 2475 00fe 14E0     		b	.L150
 2476              	.L170:
 822:main.c        ****         case 0x01: // End Of File
 823:main.c        ****             USBUART_printf("End Of File\r\n");
 2477              		.loc 1 823 0
 2478 0100 1048     		ldr	r0, .L186+20
 2479 0102 FFF7FEFF 		bl	USBUART_printf
 2480              	.LVL355:
 824:main.c        ****             break;
 2481              		.loc 1 824 0
 2482 0106 10E0     		b	.L150
 2483              	.L172:
 825:main.c        ****         case 0x04: // Extended Linear Address
 826:main.c        ****             if(hexlen<7) {
 2484              		.loc 1 826 0
 2485 0108 BAF1060F 		cmp	r10, #6
 2486 010c 02D8     		bhi	.L173
 827:main.c        ****                 USBUART_printf("Not enough data bytes for Extended Linear Address, only %d\r\n", he
 2487              		.loc 1 827 0
 2488 010e 5146     		mov	r1, r10
 2489 0110 0D48     		ldr	r0, .L186+24
 2490 0112 B1E7     		b	.L180
 2491              	.L173:
 828:main.c        ****                 cntErrs++;
 829:main.c        ****                 return;
 830:main.c        ****             }
 831:main.c        ****             extaddr = (hexdata[4]<<8) + hexdata[5];
ARM GAS  C:\Users\Kiwi\AppData\Local\Temp\cckzbvMb.s 			page 62


 2492              		.loc 1 831 0
 2493 0114 9DF80C10 		ldrb	r1, [sp, #12]	@ zero_extendqisi2
 2494 0118 9DF80D30 		ldrb	r3, [sp, #13]	@ zero_extendqisi2
 832:main.c        ****             USBUART_printf("Extended Linear Address set to %04X\r\n", extaddr);
 2495              		.loc 1 832 0
 2496 011c 0B48     		ldr	r0, .L186+28
 831:main.c        ****             USBUART_printf("Extended Linear Address set to %04X\r\n", extaddr);
 2497              		.loc 1 831 0
 2498 011e 03EB0121 		add	r1, r3, r1, lsl #8
 2499 0122 89B2     		uxth	r1, r1
 2500 0124 A181     		strh	r1, [r4, #12]	@ movhi
 2501              		.loc 1 832 0
 2502 0126 FFF7FEFF 		bl	USBUART_printf
 2503              	.LVL356:
 2504              	.L150:
 833:main.c        ****             break;
 834:main.c        ****     }
 835:main.c        ****     
 836:main.c        ****     //uint32 PHend = Millis_ReadCounter();
 837:main.c        ****     //USBUART_printf("Process HEX line took %d ms.\r\n", PHend-PHbegin);
 838:main.c        **** }
 2505              		.loc 1 838 0
 2506 012a 0CB0     		add	sp, sp, #48
 2507              		.cfi_def_cfa_offset 32
 2508              		@ sp needed
 2509 012c BDE8F087 		pop	{r4, r5, r6, r7, r8, r9, r10, pc}
 2510              	.LVL357:
 2511              	.L187:
 2512              		.align	2
 2513              	.L186:
 2514 0130 00000000 		.word	.LANCHOR0
 2515 0134 0C020000 		.word	.LC24
 2516 0138 1F020000 		.word	.LC25
 2517 013c 40020000 		.word	.LC26
 2518 0140 73020000 		.word	.LC27
 2519 0144 A4020000 		.word	.LC28
 2520 0148 B2020000 		.word	.LC29
 2521 014c EF020000 		.word	.LC30
 2522              		.cfi_endproc
 2523              	.LFE84:
 2524              		.size	ProcessHEX, .-ProcessHEX
 2525              		.section	.text.HEX_read,"ax",%progbits
 2526              		.align	1
 2527              		.global	HEX_read
 2528              		.thumb
 2529              		.thumb_func
 2530              		.type	HEX_read, %function
 2531              	HEX_read:
 2532              	.LFB85:
 839:main.c        **** 
 840:main.c        **** void HEX_read() {
 2533              		.loc 1 840 0
 2534              		.cfi_startproc
 2535              		@ args = 0, pretend = 0, frame = 256
 2536              		@ frame_needed = 0, uses_anonymous_args = 0
 2537              	.LVL358:
 2538 0000 2DE9F041 		push	{r4, r5, r6, r7, r8, lr}
ARM GAS  C:\Users\Kiwi\AppData\Local\Temp\cckzbvMb.s 			page 63


 2539              		.cfi_def_cfa_offset 24
 2540              		.cfi_offset 4, -24
 2541              		.cfi_offset 5, -20
 2542              		.cfi_offset 6, -16
 2543              		.cfi_offset 7, -12
 2544              		.cfi_offset 8, -8
 2545              		.cfi_offset 14, -4
 841:main.c        ****     char inbuf[128];
 842:main.c        ****     char cmdline[128];
 843:main.c        ****     char *crpos;
 844:main.c        ****     int dtalen=0;
 845:main.c        ****     int rem=0;
 2546              		.loc 1 845 0
 2547 0004 0025     		movs	r5, #0
 840:main.c        ****     char inbuf[128];
 2548              		.loc 1 840 0
 2549 0006 C0B0     		sub	sp, sp, #256
 2550              		.cfi_def_cfa_offset 280
 844:main.c        ****     int rem=0;
 2551              		.loc 1 844 0
 2552 0008 2C46     		mov	r4, r5
 846:main.c        ****     for(;;) {
 847:main.c        ****         if(USBUART_DataIsReady()) {
 848:main.c        ****             dtalen += USBUART_GetAll((uint8 *)(inbuf+rem+dtalen));
 2553              		.loc 1 848 0
 2554 000a 6E46     		mov	r6, sp
 2555              	.LVL359:
 2556              	.L189:
 847:main.c        ****             dtalen += USBUART_GetAll((uint8 *)(inbuf+rem+dtalen));
 2557              		.loc 1 847 0
 2558 000c FFF7FEFF 		bl	USBUART_DataIsReady
 2559              	.LVL360:
 2560 0010 20B1     		cbz	r0, .L190
 2561              		.loc 1 848 0
 2562 0012 2819     		adds	r0, r5, r4
 2563 0014 3044     		add	r0, r0, r6
 2564 0016 FFF7FEFF 		bl	USBUART_GetAll
 2565              	.LVL361:
 2566 001a 0444     		add	r4, r4, r0
 2567              	.LVL362:
 2568              	.L190:
 849:main.c        ****             // USBUART_printf("received %d\r\n", dtalen);
 850:main.c        ****         }
 851:main.c        ****         if(dtalen+rem>0 && inbuf[0]!=':') {
 2569              		.loc 1 851 0
 2570 001c 6319     		adds	r3, r4, r5
 2571 001e 002B     		cmp	r3, #0
 2572 0020 F4DD     		ble	.L189
 2573              		.loc 1 851 0 is_stmt 0 discriminator 1
 2574 0022 3378     		ldrb	r3, [r6]	@ zero_extendqisi2
 2575 0024 3A2B     		cmp	r3, #58
 2576 0026 28D0     		beq	.L193
 852:main.c        ****             USBUART_printf("Invalid content received\r\n");
 2577              		.loc 1 852 0 is_stmt 1
 2578 0028 1648     		ldr	r0, .L200
 2579 002a FFF7FEFF 		bl	USBUART_printf
 2580              	.LVL363:
ARM GAS  C:\Users\Kiwi\AppData\Local\Temp\cckzbvMb.s 			page 64


 853:main.c        ****             return;
 854:main.c        ****         }
 855:main.c        ****         while(dtalen+rem>0 && (crpos = memchr(inbuf, 0x0D, dtalen+rem))!=NULL) {
 856:main.c        ****             strncpy(cmdline, inbuf, crpos-inbuf);
 857:main.c        ****             cmdline[crpos-inbuf]=0;
 858:main.c        ****             rem=dtalen+rem-(crpos-inbuf)-1;
 859:main.c        ****             //USBUART_printf("inbuf %04X, crpos %04X, datalen %d, rem %d\r\n", inbuf, crpos, dtalen
 860:main.c        ****             memcpy(inbuf, crpos+1, rem);
 861:main.c        ****             USBUART_printf("%s\r\n", cmdline);
 862:main.c        ****             ProcessHEX(cmdline);
 863:main.c        ****             dtalen=0;
 864:main.c        ****         }
 865:main.c        ****         
 866:main.c        ****     }
 867:main.c        **** }
 2581              		.loc 1 867 0
 2582 002e 40B0     		add	sp, sp, #256
 2583              		.cfi_remember_state
 2584              		.cfi_def_cfa_offset 24
 2585              		@ sp needed
 2586 0030 BDE8F081 		pop	{r4, r5, r6, r7, r8, pc}
 2587              	.LVL364:
 2588              	.L199:
 2589              		.cfi_restore_state
 855:main.c        ****             strncpy(cmdline, inbuf, crpos-inbuf);
 2590              		.loc 1 855 0 discriminator 1
 2591 0034 3A46     		mov	r2, r7
 2592 0036 0D21     		movs	r1, #13
 2593 0038 3046     		mov	r0, r6
 2594 003a FFF7FEFF 		bl	memchr
 2595              	.LVL365:
 2596 003e 8046     		mov	r8, r0
 2597 0040 0028     		cmp	r0, #0
 2598 0042 E3D0     		beq	.L189
 856:main.c        ****             cmdline[crpos-inbuf]=0;
 2599              		.loc 1 856 0
 2600 0044 C6EB0805 		rsb	r5, r6, r8
 2601 0048 2A46     		mov	r2, r5
 2602 004a 3146     		mov	r1, r6
 2603 004c 20A8     		add	r0, sp, #128
 2604              	.LVL366:
 2605 004e FFF7FEFF 		bl	strncpy
 2606              	.LVL367:
 857:main.c        ****             rem=dtalen+rem-(crpos-inbuf)-1;
 2607              		.loc 1 857 0
 2608 0052 40AB     		add	r3, sp, #256
 2609 0054 2B44     		add	r3, r3, r5
 858:main.c        ****             //USBUART_printf("inbuf %04X, crpos %04X, datalen %d, rem %d\r\n", inbuf, crpos, dtalen
 2610              		.loc 1 858 0
 2611 0056 7D1B     		subs	r5, r7, r5
 2612 0058 013D     		subs	r5, r5, #1
 2613              	.LVL368:
 860:main.c        ****             USBUART_printf("%s\r\n", cmdline);
 2614              		.loc 1 860 0
 2615 005a 2A46     		mov	r2, r5
 2616 005c 08F10101 		add	r1, r8, #1
 857:main.c        ****             rem=dtalen+rem-(crpos-inbuf)-1;
ARM GAS  C:\Users\Kiwi\AppData\Local\Temp\cckzbvMb.s 			page 65


 2617              		.loc 1 857 0
 2618 0060 0024     		movs	r4, #0
 860:main.c        ****             USBUART_printf("%s\r\n", cmdline);
 2619              		.loc 1 860 0
 2620 0062 3046     		mov	r0, r6
 857:main.c        ****             rem=dtalen+rem-(crpos-inbuf)-1;
 2621              		.loc 1 857 0
 2622 0064 03F8804C 		strb	r4, [r3, #-128]
 860:main.c        ****             USBUART_printf("%s\r\n", cmdline);
 2623              		.loc 1 860 0
 2624 0068 FFF7FEFF 		bl	memcpy
 2625              	.LVL369:
 861:main.c        ****             ProcessHEX(cmdline);
 2626              		.loc 1 861 0
 2627 006c 20A9     		add	r1, sp, #128
 2628 006e 0648     		ldr	r0, .L200+4
 2629 0070 FFF7FEFF 		bl	USBUART_printf
 2630              	.LVL370:
 862:main.c        ****             dtalen=0;
 2631              		.loc 1 862 0
 2632 0074 20A8     		add	r0, sp, #128
 2633 0076 FFF7FEFF 		bl	ProcessHEX
 2634              	.LVL371:
 2635              	.L193:
 855:main.c        ****             strncpy(cmdline, inbuf, crpos-inbuf);
 2636              		.loc 1 855 0
 2637 007a 6719     		adds	r7, r4, r5
 2638 007c 002F     		cmp	r7, #0
 2639 007e D9DC     		bgt	.L199
 2640 0080 C4E7     		b	.L189
 2641              	.L201:
 2642 0082 00BF     		.align	2
 2643              	.L200:
 2644 0084 15030000 		.word	.LC31
 2645 0088 30030000 		.word	.LC32
 2646              		.cfi_endproc
 2647              	.LFE85:
 2648              		.size	HEX_read, .-HEX_read
 2649              		.section	.text.ShowHelp,"ax",%progbits
 2650              		.align	1
 2651              		.global	ShowHelp
 2652              		.thumb
 2653              		.thumb_func
 2654              		.type	ShowHelp, %function
 2655              	ShowHelp:
 2656              	.LFB86:
 868:main.c        **** 
 869:main.c        **** void ShowHelp() {
 2657              		.loc 1 869 0
 2658              		.cfi_startproc
 2659              		@ args = 0, pretend = 0, frame = 0
 2660              		@ frame_needed = 0, uses_anonymous_args = 0
 2661 0000 10B5     		push	{r4, lr}
 2662              		.cfi_def_cfa_offset 8
 2663              		.cfi_offset 4, -8
 2664              		.cfi_offset 14, -4
 870:main.c        ****     USBUART_printf("\r\n");
ARM GAS  C:\Users\Kiwi\AppData\Local\Temp\cckzbvMb.s 			page 66


 2665              		.loc 1 870 0
 2666 0002 154C     		ldr	r4, .L203
 2667 0004 2046     		mov	r0, r4
 2668 0006 FFF7FEFF 		bl	USBUART_printf
 2669              	.LVL372:
 871:main.c        ****     USBUART_printf("zdump   ... dump ZRMD as HEX to USB serial\r\n");
 2670              		.loc 1 871 0
 2671 000a 1448     		ldr	r0, .L203+4
 2672 000c FFF7FEFF 		bl	USBUART_printf
 2673              	.LVL373:
 872:main.c        ****     //USBUART_printf("dumpu ... dump ZRMD as HEX to RS232 UART\r\n");
 873:main.c        ****     USBUART_printf(":       ... line starting with : will be interpreted as Intel HEX line to ZRMD\
 2674              		.loc 1 873 0
 2675 0010 1348     		ldr	r0, .L203+8
 2676 0012 FFF7FEFF 		bl	USBUART_printf
 2677              	.LVL374:
 874:main.c        ****     USBUART_printf("hex     ... start special and faster Intel HEX input mode for ZRMD\r\n");
 2678              		.loc 1 874 0
 2679 0016 1348     		ldr	r0, .L203+12
 2680 0018 FFF7FEFF 		bl	USBUART_printf
 2681              	.LVL375:
 875:main.c        ****     USBUART_printf("rescnt  ... reset time counter, number of imported lines and errors\r\n");
 2682              		.loc 1 875 0
 2683 001c 1248     		ldr	r0, .L203+16
 2684 001e FFF7FEFF 		bl	USBUART_printf
 2685              	.LVL376:
 876:main.c        ****     USBUART_printf("cnt     ... show time counter, number of imported lines and errors\r\n");
 2686              		.loc 1 876 0
 2687 0022 1248     		ldr	r0, .L203+20
 2688 0024 FFF7FEFF 		bl	USBUART_printf
 2689              	.LVL377:
 877:main.c        ****     USBUART_printf("dm      ... dump memory\r\n");
 2690              		.loc 1 877 0
 2691 0028 1148     		ldr	r0, .L203+24
 2692 002a FFF7FEFF 		bl	USBUART_printf
 2693              	.LVL378:
 878:main.c        ****     USBUART_printf("tron    ... trace for 16 instructions\r\n");
 2694              		.loc 1 878 0
 2695 002e 1148     		ldr	r0, .L203+28
 2696 0030 FFF7FEFF 		bl	USBUART_printf
 2697              	.LVL379:
 879:main.c        ****     USBUART_printf("vidtest ... test of AND-1Z video RAM (non destructive)\r\n");
 2698              		.loc 1 879 0
 2699 0034 1048     		ldr	r0, .L203+32
 2700 0036 FFF7FEFF 		bl	USBUART_printf
 2701              	.LVL380:
 880:main.c        ****     USBUART_printf("memtest ... test of DTR-1 RAM, test is destructive and needs reset at end\r\n")
 2702              		.loc 1 880 0
 2703 003a 1048     		ldr	r0, .L203+36
 2704 003c FFF7FEFF 		bl	USBUART_printf
 2705              	.LVL381:
 881:main.c        ****     USBUART_printf("reset   ... SAPI-1 reset (RTL pulse)\r\n");
 2706              		.loc 1 881 0
 2707 0040 0F48     		ldr	r0, .L203+40
 2708 0042 FFF7FEFF 		bl	USBUART_printf
 2709              	.LVL382:
 882:main.c        ****     USBUART_printf("help, ? or h ... show this help\r\n");
ARM GAS  C:\Users\Kiwi\AppData\Local\Temp\cckzbvMb.s 			page 67


 2710              		.loc 1 882 0
 2711 0046 0F48     		ldr	r0, .L203+44
 2712 0048 FFF7FEFF 		bl	USBUART_printf
 2713              	.LVL383:
 883:main.c        ****     USBUART_printf("\r\n");
 2714              		.loc 1 883 0
 2715 004c 2046     		mov	r0, r4
 884:main.c        **** 
 885:main.c        ****     /*
 886:main.c        ****     if(rdCnt!=intCnt) {
 887:main.c        ****         USBUART_printf("\r\nProcessing %d OUT interrupts:\r\n", intCnt-rdCnt);
 888:main.c        ****         while(rdCnt!=intCnt) {
 889:main.c        ****             USBUART_printf("OUT: port=%d data=%d\r\n", intQueue[rdCnt].port, intQueue[rdCnt].data);
 890:main.c        ****             // uint8 intStatus = CyEnterCriticalSection();
 891:main.c        ****             rdCnt++;
 892:main.c        ****             //CyExitCriticalSection(intStatus);
 893:main.c        ****         }
 894:main.c        ****     }
 895:main.c        ****     */
 896:main.c        **** }
 2716              		.loc 1 896 0
 2717 004e BDE81040 		pop	{r4, lr}
 2718              		.cfi_restore 14
 2719              		.cfi_restore 4
 2720              		.cfi_def_cfa_offset 0
 883:main.c        ****     USBUART_printf("\r\n");
 2721              		.loc 1 883 0
 2722 0052 FFF7FEBF 		b	USBUART_printf
 2723              	.LVL384:
 2724              	.L204:
 2725 0056 00BF     		.align	2
 2726              	.L203:
 2727 0058 48000000 		.word	.LC7
 2728 005c 35030000 		.word	.LC33
 2729 0060 62030000 		.word	.LC34
 2730 0064 B3030000 		.word	.LC35
 2731 0068 F8030000 		.word	.LC36
 2732 006c 3E040000 		.word	.LC37
 2733 0070 83040000 		.word	.LC38
 2734 0074 9D040000 		.word	.LC39
 2735 0078 C5040000 		.word	.LC40
 2736 007c FE040000 		.word	.LC41
 2737 0080 4A050000 		.word	.LC42
 2738 0084 71050000 		.word	.LC43
 2739              		.cfi_endproc
 2740              	.LFE86:
 2741              		.size	ShowHelp, .-ShowHelp
 2742              		.section	.text.startup.main,"ax",%progbits
 2743              		.align	1
 2744              		.global	main
 2745              		.thumb
 2746              		.thumb_func
 2747              		.type	main, %function
 2748              	main:
 2749              	.LFB87:
 897:main.c        **** 
 898:main.c        **** int main(void)
ARM GAS  C:\Users\Kiwi\AppData\Local\Temp\cckzbvMb.s 			page 68


 899:main.c        **** {
 2750              		.loc 1 899 0
 2751              		.cfi_startproc
 2752              		@ args = 0, pretend = 0, frame = 200
 2753              		@ frame_needed = 0, uses_anonymous_args = 0
 2754 0000 2DE9F04F 		push	{r4, r5, r6, r7, r8, r9, r10, fp, lr}
 2755              		.cfi_def_cfa_offset 36
 2756              		.cfi_offset 4, -36
 2757              		.cfi_offset 5, -32
 2758              		.cfi_offset 6, -28
 2759              		.cfi_offset 7, -24
 2760              		.cfi_offset 8, -20
 2761              		.cfi_offset 9, -16
 2762              		.cfi_offset 10, -12
 2763              		.cfi_offset 11, -8
 2764              		.cfi_offset 14, -4
 2765 0004 B3B0     		sub	sp, sp, #204
 2766              		.cfi_def_cfa_offset 240
 900:main.c        ****     CyGlobalIntEnable; /* Enable global interrupts. */
 2767              		.loc 1 900 0
 2768              		.syntax unified
 2769              	@ 900 "main.c" 1
 2770 0006 62B6     		CPSIE   i
 2771              	@ 0 "" 2
 901:main.c        ****     
 902:main.c        ****     RCM_Int_StartEx( UART_OUT_RCM_Handler );
 2772              		.loc 1 902 0
 2773              		.thumb
 2774              		.syntax unified
 2775 0008 B648     		ldr	r0, .L291
 2776 000a FFF7FEFF 		bl	RCM_Int_StartEx
 2777              	.LVL385:
 903:main.c        ****     RCU_Int_StartEx( UART_OUT_RCU_Handler );
 2778              		.loc 1 903 0
 2779 000e B648     		ldr	r0, .L291+4
 2780 0010 FFF7FEFF 		bl	RCU_Int_StartEx
 2781              	.LVL386:
 904:main.c        ****     ROD_Int_StartEx( UART_OUT_ROD_Handler );
 2782              		.loc 1 904 0
 2783 0014 B548     		ldr	r0, .L291+8
 2784 0016 FFF7FEFF 		bl	ROD_Int_StartEx
 2785              	.LVL387:
 905:main.c        ****     RST_Int_StartEx( UART_OUT_RST_Handler );
 2786              		.loc 1 905 0
 2787 001a B548     		ldr	r0, .L291+12
 2788 001c FFF7FEFF 		bl	RST_Int_StartEx
 2789              	.LVL388:
 906:main.c        ****     RRD_Int_StartEx( UART_IN_RRD_Handler );
 2790              		.loc 1 906 0
 2791 0020 B448     		ldr	r0, .L291+16
 2792 0022 FFF7FEFF 		bl	RRD_Int_StartEx
 2793              	.LVL389:
 907:main.c        ****     M1_Int_StartEx( M1_Int_Handler );
 2794              		.loc 1 907 0
 2795 0026 B448     		ldr	r0, .L291+20
 2796 0028 FFF7FEFF 		bl	M1_Int_StartEx
 2797              	.LVL390:
ARM GAS  C:\Users\Kiwi\AppData\Local\Temp\cckzbvMb.s 			page 69


 908:main.c        ****     M1_Int_Disable();
 2798              		.loc 1 908 0
 2799 002c FFF7FEFF 		bl	M1_Int_Disable
 2800              	.LVL391:
 909:main.c        ****     
 910:main.c        ****     /* Place your initialization/startup code here (e.g. MyInst_Start()) */
 911:main.c        **** 
 912:main.c        ****     //AddrL_Write(0);
 913:main.c        ****     
 914:main.c        ****     Millis_Start();
 2801              		.loc 1 914 0
 2802 0030 FFF7FEFF 		bl	Millis_Start
 2803              	.LVL392:
 915:main.c        ****     I2COLED_Start();
 2804              		.loc 1 915 0
 2805 0034 FFF7FEFF 		bl	I2COLED_Start
 2806              	.LVL393:
 916:main.c        ****     UART_Start();
 2807              		.loc 1 916 0
 2808 0038 FFF7FEFF 		bl	UART_Start
 2809              	.LVL394:
 917:main.c        ****     // uint8 oledStatus = I2COLED_MasterStatus();
 918:main.c        ****     // UART_printf("I2COLED_MasterStatus() = %02X\r\n", oledStatus);
 919:main.c        ****     if(I2COLED_MasterSendStart(DISPLAY_ADDRESS, 0)) {
 2810              		.loc 1 919 0
 2811 003c 0021     		movs	r1, #0
 2812 003e 3C20     		movs	r0, #60
 2813 0040 FFF7FEFF 		bl	I2COLED_MasterSendStart
 2814              	.LVL395:
 2815 0044 AD4D     		ldr	r5, .L291+24
 2816 0046 0446     		mov	r4, r0
 2817 0048 20B1     		cbz	r0, .L206
 920:main.c        ****         I2COLED_MasterSendStop();
 2818              		.loc 1 920 0
 2819 004a FFF7FEFF 		bl	I2COLED_MasterSendStop
 2820              	.LVL396:
 921:main.c        ****         // UART_printf("OLED display NOT present on the bus\r\n");
 922:main.c        ****         noOLED = 1;
 2821              		.loc 1 922 0
 2822 004e 0123     		movs	r3, #1
 2823 0050 AB61     		str	r3, [r5, #24]
 2824 0052 1FE0     		b	.L207
 2825              	.L206:
 923:main.c        ****     } else {
 924:main.c        ****         I2COLED_MasterSendStop();
 2826              		.loc 1 924 0
 2827 0054 FFF7FEFF 		bl	I2COLED_MasterSendStop
 2828              	.LVL397:
 925:main.c        ****         // UART_printf("OLED display present in the bus\r\n");
 926:main.c        ****         //uint8 iniseq[] = {0xA8, 0x3F, 0xD3, 0x00, 0x40, 0xA0, 0xC0, 0xDA, 0x02, 0x81, 0x7F, 0xA4,
 927:main.c        ****         // I2COLED_MasterClearStatus();
 928:main.c        ****         //I2COLED_MasterWriteBuf(DISPLAY_ADDRESS, &iniseq, 18, 0 ); //I2C_MODE_COMPLETE_XFER
 929:main.c        ****         //CyDelay(1000);
 930:main.c        ****         noOLED = 0;
 931:main.c        ****         display_init(DISPLAY_ADDRESS);
 2829              		.loc 1 931 0
 2830 0058 3C20     		movs	r0, #60
ARM GAS  C:\Users\Kiwi\AppData\Local\Temp\cckzbvMb.s 			page 70


 930:main.c        ****         display_init(DISPLAY_ADDRESS);
 2831              		.loc 1 930 0
 2832 005a AC61     		str	r4, [r5, #24]
 2833              		.loc 1 931 0
 2834 005c FFF7FEFF 		bl	display_init
 2835              	.LVL398:
 932:main.c        ****         display_clear();    
 2836              		.loc 1 932 0
 2837 0060 FFF7FEFF 		bl	display_clear
 2838              	.LVL399:
 933:main.c        ****         gfx_setTextSize(2);
 2839              		.loc 1 933 0
 2840 0064 0220     		movs	r0, #2
 2841 0066 FFF7FEFF 		bl	gfx_setTextSize
 2842              	.LVL400:
 934:main.c        ****         gfx_setTextColor(WHITE);
 2843              		.loc 1 934 0
 2844 006a 0120     		movs	r0, #1
 2845 006c FFF7FEFF 		bl	gfx_setTextColor
 2846              	.LVL401:
 935:main.c        ****         gfx_setTextBg(BLACK);
 2847              		.loc 1 935 0
 2848 0070 2046     		mov	r0, r4
 2849 0072 FFF7FEFF 		bl	gfx_setTextBg
 2850              	.LVL402:
 936:main.c        ****         gfx_setCursor(0,0);
 2851              		.loc 1 936 0
 2852 0076 2146     		mov	r1, r4
 2853 0078 2046     		mov	r0, r4
 2854 007a FFF7FEFF 		bl	gfx_setCursor
 2855              	.LVL403:
 937:main.c        ****         gfx_println("SAPI DTR-1");
 2856              		.loc 1 937 0
 2857 007e A048     		ldr	r0, .L291+28
 2858 0080 FFF7FEFF 		bl	gfx_println
 2859              	.LVL404:
 938:main.c        ****         gfx_println("8bity.cz");
 2860              		.loc 1 938 0
 2861 0084 9F48     		ldr	r0, .L291+32
 2862 0086 FFF7FEFF 		bl	gfx_println
 2863              	.LVL405:
 939:main.c        ****         gfx_println("2021042501");
 2864              		.loc 1 939 0
 2865 008a 9F48     		ldr	r0, .L291+36
 2866 008c FFF7FEFF 		bl	gfx_println
 2867              	.LVL406:
 940:main.c        ****         display_update();
 2868              		.loc 1 940 0
 2869 0090 FFF7FEFF 		bl	display_update
 2870              	.LVL407:
 2871              	.L207:
 941:main.c        ****     }
 942:main.c        **** 
 943:main.c        ****     cntTime = Millis_ReadCounter();
 2872              		.loc 1 943 0
 2873 0094 FFF7FEFF 		bl	Millis_ReadCounter
 2874              	.LVL408:
ARM GAS  C:\Users\Kiwi\AppData\Local\Temp\cckzbvMb.s 			page 71


 2875 0098 9C4C     		ldr	r4, .L291+40
 944:main.c        ****     
 945:main.c        ****     USBUART_Start(0, USBUART_5V_OPERATION); //!!NOTE!! Make sure this matches your board voltage!
 2876              		.loc 1 945 0
 2877 009a 0121     		movs	r1, #1
 943:main.c        ****     
 2878              		.loc 1 943 0
 2879 009c 2061     		str	r0, [r4, #16]
 2880              		.loc 1 945 0
 2881 009e 0020     		movs	r0, #0
 2882 00a0 FFF7FEFF 		bl	USBUART_Start
 2883              	.LVL409:
 946:main.c        ****     uint32 timeout = Millis_ReadCounter();
 2884              		.loc 1 946 0
 2885 00a4 FFF7FEFF 		bl	Millis_ReadCounter
 2886              	.LVL410:
 2887 00a8 0646     		mov	r6, r0
 2888              	.LVL411:
 2889              	.L208:
 947:main.c        ****     while((!USBUART_GetConfiguration()) && (Millis_ReadCounter()-timeout<2000)){
 2890              		.loc 1 947 0
 2891 00aa FFF7FEFF 		bl	USBUART_GetConfiguration
 2892              	.LVL412:
 2893 00ae 48B1     		cbz	r0, .L209
 2894              	.L213:
 948:main.c        ****         CyDelay(1);
 949:main.c        ****     }
 950:main.c        ****     if(Millis_ReadCounter()-timeout<2000) {
 2895              		.loc 1 950 0
 2896 00b0 FFF7FEFF 		bl	Millis_ReadCounter
 2897              	.LVL413:
 2898 00b4 801B     		subs	r0, r0, r6
 2899 00b6 B0F5FA6F 		cmp	r0, #2000
 2900 00ba 0DD2     		bcs	.L286
 951:main.c        ****         USBUART_CDC_Init();
 2901              		.loc 1 951 0
 2902 00bc FFF7FEFF 		bl	USBUART_CDC_Init
 2903              	.LVL414:
 952:main.c        ****         noUART = 0;
 2904              		.loc 1 952 0
 2905 00c0 0023     		movs	r3, #0
 2906 00c2 0AE0     		b	.L288
 2907              	.L209:
 947:main.c        ****         CyDelay(1);
 2908              		.loc 1 947 0 discriminator 1
 2909 00c4 FFF7FEFF 		bl	Millis_ReadCounter
 2910              	.LVL415:
 2911 00c8 801B     		subs	r0, r0, r6
 2912 00ca B0F5FA6F 		cmp	r0, #2000
 2913 00ce EFD2     		bcs	.L213
 948:main.c        ****     }
 2914              		.loc 1 948 0
 2915 00d0 0120     		movs	r0, #1
 2916 00d2 FFF7FEFF 		bl	CyDelay
 2917              	.LVL416:
 2918 00d6 E8E7     		b	.L208
 2919              	.L286:
ARM GAS  C:\Users\Kiwi\AppData\Local\Temp\cckzbvMb.s 			page 72


 953:main.c        ****         /*gfx_setCursor(0,32);
 954:main.c        ****         gfx_print("Ready     ");
 955:main.c        ****         gfx_print("          ");
 956:main.c        ****         display_update();*/
 957:main.c        ****     } else {
 958:main.c        ****         noUART = 1;
 2920              		.loc 1 958 0
 2921 00d8 0123     		movs	r3, #1
 2922              	.L288:
 959:main.c        ****         /*gfx_setCursor(0,32);
 960:main.c        ****         gfx_print("No USBUART");
 961:main.c        ****         gfx_print("          ");
 962:main.c        ****         display_update();*/
 963:main.c        ****     }
 964:main.c        ****     USBUART_printf("");
 2923              		.loc 1 964 0
 2924 00da 8D48     		ldr	r0, .L291+44
 958:main.c        ****         /*gfx_setCursor(0,32);
 2925              		.loc 1 958 0
 2926 00dc 2B60     		str	r3, [r5]
 2927              		.loc 1 964 0
 2928 00de FFF7FEFF 		bl	USBUART_printf
 2929              	.LVL417:
 965:main.c        ****     USBUART_printf("\r\nSAPI-1 DTR-1 board based on CY8CKIT-059 rev.231709");
 2930              		.loc 1 965 0
 2931 00e2 8C48     		ldr	r0, .L291+48
 2932 00e4 FFF7FEFF 		bl	USBUART_printf
 2933              	.LVL418:
 966:main.c        ****     USBUART_printf("  (c) 2021-23 martin@8bity.cz\r\n\r\n");
 2934              		.loc 1 966 0
 2935 00e8 8B48     		ldr	r0, .L291+52
 2936 00ea FFF7FEFF 		bl	USBUART_printf
 2937              	.LVL419:
 967:main.c        **** 
 968:main.c        ****     //USBUART_printf("CTS = %d\r\n", CTS_Read());
 969:main.c        ****     if( CTS_Read()==1 ) {
 2938              		.loc 1 969 0
 2939 00ee FFF7FEFF 		bl	CTS_Read
 2940              	.LVL420:
 2941 00f2 0128     		cmp	r0, #1
 2942 00f4 06D1     		bne	.L215
 970:main.c        ****         RSM_Write(0x20);
 2943              		.loc 1 970 0
 2944 00f6 2020     		movs	r0, #32
 2945 00f8 FFF7FEFF 		bl	RSM_Write
 2946              	.LVL421:
 971:main.c        ****         USBUART_printf("Console set to AND-1Z and Consul 262.3/259.11\r\n");
 2947              		.loc 1 971 0
 2948 00fc 8748     		ldr	r0, .L291+56
 2949 00fe FFF7FEFF 		bl	USBUART_printf
 2950              	.LVL422:
 2951 0102 08E0     		b	.L216
 2952              	.L215:
 972:main.c        ****     } else {
 973:main.c        ****         RSM_Write(0x00);
 2953              		.loc 1 973 0
 2954 0104 0020     		movs	r0, #0
ARM GAS  C:\Users\Kiwi\AppData\Local\Temp\cckzbvMb.s 			page 73


 2955 0106 FFF7FEFF 		bl	RSM_Write
 2956              	.LVL423:
 974:main.c        ****         USBUART_printf("Console set to RS-232c RTS/CTS flow control\r\n");
 2957              		.loc 1 974 0
 2958 010a 8548     		ldr	r0, .L291+60
 2959 010c FFF7FEFF 		bl	USBUART_printf
 2960              	.LVL424:
 975:main.c        ****         UART_printf("\r\nHello to UART RS-232c console\r\n");
 2961              		.loc 1 975 0
 2962 0110 8448     		ldr	r0, .L291+64
 2963 0112 FFF7FEFF 		bl	UART_printf
 2964              	.LVL425:
 2965              	.L216:
 976:main.c        ****     }
 977:main.c        ****     
 978:main.c        ****     if(noOLED) {
 2966              		.loc 1 978 0
 2967 0116 AB69     		ldr	r3, [r5, #24]
 2968 0118 0BB1     		cbz	r3, .L217
 979:main.c        ****         USBUART_printf("OLED display not found.\r\n");
 2969              		.loc 1 979 0
 2970 011a 8348     		ldr	r0, .L291+68
 2971 011c 00E0     		b	.L289
 2972              	.L217:
 980:main.c        ****     } else {
 981:main.c        ****         USBUART_printf("OLED display detected.\r\n");
 2973              		.loc 1 981 0
 2974 011e 8348     		ldr	r0, .L291+72
 2975              	.L289:
 982:main.c        ****     }
 983:main.c        ****     instCnt=0;
 2976              		.loc 1 983 0
 2977 0120 0025     		movs	r5, #0
 981:main.c        ****     }
 2978              		.loc 1 981 0
 2979 0122 FFF7FEFF 		bl	USBUART_printf
 2980              	.LVL426:
 984:main.c        ****     instRdCnt=0;
 985:main.c        ****     nWAIT_Write(1);
 2981              		.loc 1 985 0
 2982 0126 0120     		movs	r0, #1
 983:main.c        ****     instRdCnt=0;
 2983              		.loc 1 983 0
 2984 0128 6570     		strb	r5, [r4, #1]
 984:main.c        ****     instRdCnt=0;
 2985              		.loc 1 984 0
 2986 012a 2575     		strb	r5, [r4, #20]
 2987              		.loc 1 985 0
 2988 012c FFF7FEFF 		bl	nWAIT_Write
 2989              	.LVL427:
 986:main.c        ****     //CyDelay(2);
 987:main.c        ****     SAPI_Reset();
 2990              		.loc 1 987 0
 2991 0130 FFF7FEFF 		bl	SAPI_Reset
 2992              	.LVL428:
 988:main.c        ****     int getInst=0;
 989:main.c        ****     int tron=0;
ARM GAS  C:\Users\Kiwi\AppData\Local\Temp\cckzbvMb.s 			page 74


 990:main.c        ****     M1_Int_ClearPending();
 2993              		.loc 1 990 0
 2994 0134 FFF7FEFF 		bl	M1_Int_ClearPending
 2995              	.LVL429:
 991:main.c        ****     // M1_Int_Enable();
 992:main.c        ****     
 993:main.c        ****     
 994:main.c        ****     char cmdline[128];
 995:main.c        ****     uint8 inbuf[64];
 996:main.c        ****     cmdline[0] = 0;
 997:main.c        ****     char ch;
 998:main.c        ****     // char tmpstr[256];
 999:main.c        ****     int len;
1000:main.c        ****     uint8 noPrompt = 0;
1001:main.c        **** 
1002:main.c        ****     USBUART_printf("DTR>");
 2996              		.loc 1 1002 0
 2997 0138 7D48     		ldr	r0, .L291+76
 996:main.c        ****     char ch;
 2998              		.loc 1 996 0
 2999 013a 8DF84850 		strb	r5, [sp, #72]
 3000              	.LVL430:
 989:main.c        ****     M1_Int_ClearPending();
 3001              		.loc 1 989 0
 3002 013e A846     		mov	r8, r5
 3003              		.loc 1 1002 0
 3004 0140 FFF7FEFF 		bl	USBUART_printf
 3005              	.LVL431:
 988:main.c        ****     int tron=0;
 3006              		.loc 1 988 0
 3007 0144 2F46     		mov	r7, r5
1003:main.c        ****     for(;;)
1004:main.c        ****     {
1005:main.c        ****         // process DSM-1 Register interrupt queue
1006:main.c        ****         if(rdCnt!=intCnt) {
1007:main.c        ****             // USBUART_printf("\r\nProcessing %d OUT interrupts:\r\n", intCnt-rdCnt);
1008:main.c        ****             while(rdCnt!=intCnt) {
 3008              		.loc 1 1008 0
 3009 0146 DFF8C491 		ldr	r9, .L291+40
 3010              	.LVL432:
 3011              	.L228:
1006:main.c        ****             // USBUART_printf("\r\nProcessing %d OUT interrupts:\r\n", intCnt-rdCnt);
 3012              		.loc 1 1006 0
 3013 014a 627D     		ldrb	r2, [r4, #21]	@ zero_extendqisi2
 3014 014c 2378     		ldrb	r3, [r4]	@ zero_extendqisi2
 3015 014e 9A42     		cmp	r2, r3
 3016 0150 16D1     		bne	.L285
 3017              	.L225:
1009:main.c        ****                 // USBUART_printf("OUT: port=%d data=%d\r\n", intQueue[rdCnt].port, intQueue[rdCnt]
1010:main.c        ****                 // uint8 intStatus = CyEnterCriticalSection();
1011:main.c        ****                 switch(intQueue[rdCnt].port) {
1012:main.c        ****                     case 0x10: // RCM
1013:main.c        ****                         break;
1014:main.c        ****                     case 0x11: // RCU
1015:main.c        ****                         break;
1016:main.c        ****                     case 0x12: // ROD
1017:main.c        ****                         UART_PutChar(intQueue[rdCnt].data);
ARM GAS  C:\Users\Kiwi\AppData\Local\Temp\cckzbvMb.s 			page 75


1018:main.c        ****                         break;
1019:main.c        ****                     case 0x13: // RST
1020:main.c        ****                         break;
1021:main.c        ****                 }
1022:main.c        ****                 rdCnt++;
1023:main.c        ****                 //CyExitCriticalSection(intStatus);
1024:main.c        ****             }
1025:main.c        ****         }
1026:main.c        **** 
1027:main.c        ****         // process Instruction (M1) interrupt queue
1028:main.c        ****         if(instRdCnt!=instCnt) {
 3018              		.loc 1 1028 0
 3019 0152 227D     		ldrb	r2, [r4, #20]	@ zero_extendqisi2
 3020 0154 6378     		ldrb	r3, [r4, #1]	@ zero_extendqisi2
 3021 0156 9A42     		cmp	r2, r3
 3022 0158 17D1     		bne	.L220
 3023 015a 3AE0     		b	.L221
 3024              	.L224:
1011:main.c        ****                     case 0x10: // RCM
 3025              		.loc 1 1011 0
 3026 015c 99F81530 		ldrb	r3, [r9, #21]	@ zero_extendqisi2
 3027 0160 744A     		ldr	r2, .L291+80
 3028 0162 12F81330 		ldrb	r3, [r2, r3, lsl #1]	@ zero_extendqisi2
 3029 0166 122B     		cmp	r3, #18
 3030 0168 06D1     		bne	.L222
1017:main.c        ****                         break;
 3031              		.loc 1 1017 0
 3032 016a 99F81530 		ldrb	r3, [r9, #21]	@ zero_extendqisi2
 3033 016e 02EB4303 		add	r3, r2, r3, lsl #1
 3034 0172 5878     		ldrb	r0, [r3, #1]	@ zero_extendqisi2
 3035 0174 FFF7FEFF 		bl	UART_PutChar
 3036              	.LVL433:
 3037              	.L222:
1022:main.c        ****                 //CyExitCriticalSection(intStatus);
 3038              		.loc 1 1022 0
 3039 0178 637D     		ldrb	r3, [r4, #21]	@ zero_extendqisi2
 3040 017a 0133     		adds	r3, r3, #1
 3041 017c DBB2     		uxtb	r3, r3
 3042 017e 6375     		strb	r3, [r4, #21]
 3043              	.L285:
1008:main.c        ****                 // USBUART_printf("OUT: port=%d data=%d\r\n", intQueue[rdCnt].port, intQueue[rdCnt]
 3044              		.loc 1 1008 0
 3045 0180 627D     		ldrb	r2, [r4, #21]	@ zero_extendqisi2
 3046 0182 2378     		ldrb	r3, [r4]	@ zero_extendqisi2
 3047 0184 9A42     		cmp	r2, r3
 3048 0186 E9D1     		bne	.L224
 3049 0188 E3E7     		b	.L225
 3050              	.L220:
1029:main.c        ****             if(getInst>0) {
 3051              		.loc 1 1029 0
 3052 018a BFB1     		cbz	r7, .L226
1030:main.c        ****                 USBUART_printf("TR %04X:%02X\r\n", instQueue[instRdCnt].addr, instQueue[instRdCnt].
 3053              		.loc 1 1030 0
 3054 018c 99F81400 		ldrb	r0, [r9, #20]	@ zero_extendqisi2
 3055 0190 6949     		ldr	r1, .L291+84
 3056 0192 99F81430 		ldrb	r3, [r9, #20]	@ zero_extendqisi2
 3057 0196 01EB8303 		add	r3, r1, r3, lsl #2
ARM GAS  C:\Users\Kiwi\AppData\Local\Temp\cckzbvMb.s 			page 76


 3058 019a 9A78     		ldrb	r2, [r3, #2]	@ zero_extendqisi2
 3059 019c 31F82010 		ldrh	r1, [r1, r0, lsl #2]
 3060 01a0 6648     		ldr	r0, .L291+88
 3061 01a2 FFF7FEFF 		bl	USBUART_printf
 3062              	.LVL434:
1031:main.c        ****                 getInst--;
1032:main.c        ****                 if(getInst==0) {
 3063              		.loc 1 1032 0
 3064 01a6 013F     		subs	r7, r7, #1
 3065              	.LVL435:
 3066 01a8 08D1     		bne	.L226
1033:main.c        ****                     M1_Int_Disable();
 3067              		.loc 1 1033 0
 3068 01aa FFF7FEFF 		bl	M1_Int_Disable
 3069              	.LVL436:
1034:main.c        ****                     M1_Int_ClearPending();
 3070              		.loc 1 1034 0
 3071 01ae FFF7FEFF 		bl	M1_Int_ClearPending
 3072              	.LVL437:
1035:main.c        ****                     tron=0;
1036:main.c        ****                     USBUART_printf("DTR>");
 3073              		.loc 1 1036 0
 3074 01b2 5F48     		ldr	r0, .L291+76
 3075 01b4 FFF7FEFF 		bl	USBUART_printf
 3076              	.LVL438:
1037:main.c        ****                     noPrompt = 0;
 3077              		.loc 1 1037 0
 3078 01b8 3D46     		mov	r5, r7
1035:main.c        ****                     tron=0;
 3079              		.loc 1 1035 0
 3080 01ba B846     		mov	r8, r7
 3081              	.LVL439:
 3082              	.L226:
1038:main.c        ****                 }
1039:main.c        ****             }
1040:main.c        ****             //USBUART_printf("%02X ", instQueue[instRdCnt].data);
1041:main.c        ****             instRdCnt++;
 3083              		.loc 1 1041 0
 3084 01bc 237D     		ldrb	r3, [r4, #20]	@ zero_extendqisi2
 3085 01be 0133     		adds	r3, r3, #1
 3086 01c0 DBB2     		uxtb	r3, r3
 3087 01c2 2375     		strb	r3, [r4, #20]
1042:main.c        ****             if(instRdCnt==instCnt)
 3088              		.loc 1 1042 0
 3089 01c4 227D     		ldrb	r2, [r4, #20]	@ zero_extendqisi2
 3090 01c6 6378     		ldrb	r3, [r4, #1]	@ zero_extendqisi2
 3091 01c8 9A42     		cmp	r2, r3
 3092 01ca 02D1     		bne	.L221
1043:main.c        ****                 nWAIT_Write(1);
 3093              		.loc 1 1043 0
 3094 01cc 0120     		movs	r0, #1
 3095 01ce FFF7FEFF 		bl	nWAIT_Write
 3096              	.LVL440:
 3097              	.L221:
1044:main.c        ****         }
1045:main.c        ****         
1046:main.c        ****         if(UART_GetRxBufferSize()>0) {
ARM GAS  C:\Users\Kiwi\AppData\Local\Temp\cckzbvMb.s 			page 77


 3098              		.loc 1 1046 0
 3099 01d2 FFF7FEFF 		bl	UART_GetRxBufferSize
 3100              	.LVL441:
 3101 01d6 58B1     		cbz	r0, .L227
1047:main.c        ****             RRD_Write( UART_GetByte() & 0x00FF );
 3102              		.loc 1 1047 0
 3103 01d8 FFF7FEFF 		bl	UART_GetByte
 3104              	.LVL442:
 3105 01dc C0B2     		uxtb	r0, r0
 3106 01de FFF7FEFF 		bl	RRD_Write
 3107              	.LVL443:
1048:main.c        ****             RSU_Write( RSU_Read() | 0x80 );
 3108              		.loc 1 1048 0
 3109 01e2 FFF7FEFF 		bl	RSU_Read
 3110              	.LVL444:
 3111 01e6 60F07F00 		orn	r0, r0, #127
 3112 01ea C0B2     		uxtb	r0, r0
 3113 01ec FFF7FEFF 		bl	RSU_Write
 3114              	.LVL445:
 3115              	.L227:
1049:main.c        ****         }
1050:main.c        ****         // process USBUART - command line
1051:main.c        ****         if(USBUART_DataIsReady()>0) {
 3116              		.loc 1 1051 0
 3117 01f0 FFF7FEFF 		bl	USBUART_DataIsReady
 3118              	.LVL446:
 3119 01f4 0028     		cmp	r0, #0
 3120 01f6 A8D0     		beq	.L228
 3121              	.LBB68:
1052:main.c        ****             int dtalen = USBUART_GetAll(inbuf);
 3122              		.loc 1 1052 0
 3123 01f8 02A8     		add	r0, sp, #8
 3124 01fa FFF7FEFF 		bl	USBUART_GetAll
 3125              	.LVL447:
 3126 01fe 0DF10703 		add	r3, sp, #7
 3127 0202 0093     		str	r3, [sp]
 3128 0204 0138     		subs	r0, r0, #1
 3129              	.LVL448:
 3130 0206 02AB     		add	r3, sp, #8
 3131 0208 0344     		add	r3, r3, r0
 3132 020a 0193     		str	r3, [sp, #4]
 3133              	.LVL449:
 3134              	.L229:
 3135              	.LBB69:
1053:main.c        ****             for(int i=0; i<dtalen; i++) {
 3136              		.loc 1 1053 0 discriminator 1
 3137 020c 009B     		ldr	r3, [sp]
 3138 020e 019A     		ldr	r2, [sp, #4]
 3139 0210 9342     		cmp	r3, r2
 3140 0212 9AD0     		beq	.L228
1054:main.c        ****                 ch = inbuf[i];
 3141              		.loc 1 1054 0
 3142 0214 009B     		ldr	r3, [sp]
 3143 0216 13F8016F 		ldrb	r6, [r3, #1]!	@ zero_extendqisi2
1055:main.c        ****                 switch(ch) {
 3144              		.loc 1 1055 0
 3145 021a 0D2E     		cmp	r6, #13
ARM GAS  C:\Users\Kiwi\AppData\Local\Temp\cckzbvMb.s 			page 78


1054:main.c        ****                 ch = inbuf[i];
 3146              		.loc 1 1054 0
 3147 021c 0093     		str	r3, [sp]
 3148              	.LVL450:
 3149              		.loc 1 1055 0
 3150 021e 17D0     		beq	.L231
 3151 0220 02D8     		bhi	.L232
 3152 0222 082E     		cmp	r6, #8
 3153 0224 06D0     		beq	.L233
 3154 0226 F1E7     		b	.L229
 3155              	.L232:
 3156 0228 A6F12003 		sub	r3, r6, #32
 3157              	.LVL451:
 3158 022c 5F2B     		cmp	r3, #95
 3159 022e 40F25581 		bls	.L287
 3160 0232 EBE7     		b	.L229
 3161              	.LVL452:
 3162              	.L233:
 3163              	.LBB70:
1056:main.c        ****                   case 0x08: // backpasce
1057:main.c        ****                     len = strlen(cmdline);
 3164              		.loc 1 1057 0
 3165 0234 12A8     		add	r0, sp, #72
 3166 0236 FFF7FEFF 		bl	strlen
 3167              	.LVL453:
1058:main.c        ****                     if(len>0) {
 3168              		.loc 1 1058 0
 3169 023a 0028     		cmp	r0, #0
 3170 023c E6DD     		ble	.L229
1059:main.c        ****                         cmdline[len-1] = 0;
 3171              		.loc 1 1059 0
 3172 023e 32AB     		add	r3, sp, #200
 3173 0240 1844     		add	r0, r0, r3
 3174              	.LVL454:
 3175 0242 0023     		movs	r3, #0
 3176 0244 00F8813C 		strb	r3, [r0, #-129]
1060:main.c        ****                         USBUART_printf("\b \b");            
 3177              		.loc 1 1060 0
 3178 0248 3D48     		ldr	r0, .L291+92
 3179 024a FFF7FEFF 		bl	USBUART_printf
 3180              	.LVL455:
 3181 024e DDE7     		b	.L229
 3182              	.LVL456:
 3183              	.L231:
1061:main.c        ****                     }
1062:main.c        ****                     break;
1063:main.c        ****                   case 0x0D: // Enter
1064:main.c        ****                     // USBUART_printf("\r\nWill process: [%s]\r\n", cmdline);
1065:main.c        ****                     USBUART_printf("\r\n");
 3184              		.loc 1 1065 0
 3185 0250 3C48     		ldr	r0, .L291+96
1066:main.c        ****                     int cmdprocessed = 0;
1067:main.c        ****                     if(cmdline[0]==':' && !cmdprocessed) {
 3186              		.loc 1 1067 0
 3187 0252 32AE     		add	r6, sp, #200
 3188              	.LVL457:
1065:main.c        ****                     int cmdprocessed = 0;
ARM GAS  C:\Users\Kiwi\AppData\Local\Temp\cckzbvMb.s 			page 79


 3189              		.loc 1 1065 0
 3190 0254 FFF7FEFF 		bl	USBUART_printf
 3191              	.LVL458:
 3192              		.loc 1 1067 0
 3193 0258 16F8803D 		ldrb	r3, [r6, #-128]!	@ zero_extendqisi2
 3194 025c 3A2B     		cmp	r3, #58
 3195 025e 06D1     		bne	.L253
1068:main.c        ****                         ProcessHEX(cmdline);
 3196              		.loc 1 1068 0
 3197 0260 3046     		mov	r0, r6
 3198 0262 FFF7FEFF 		bl	ProcessHEX
 3199              	.LVL459:
1069:main.c        ****                         cmdprocessed = 1;
 3200              		.loc 1 1069 0
 3201 0266 4FF0010A 		mov	r10, #1
1070:main.c        ****                         noPrompt = 0;
 3202              		.loc 1 1070 0
 3203 026a 0025     		movs	r5, #0
 3204 026c 01E0     		b	.L235
 3205              	.LVL460:
 3206              	.L253:
1066:main.c        ****                     if(cmdline[0]==':' && !cmdprocessed) {
 3207              		.loc 1 1066 0
 3208 026e 4FF0000A 		mov	r10, #0
 3209              	.LVL461:
 3210              	.L235:
1071:main.c        ****                     }
1072:main.c        ****                     if((strncmp(cmdline, "help", 4)==0 || strcmp(cmdline, "?")==0 || strcmp(cmdline
 3211              		.loc 1 1072 0
 3212 0272 0422     		movs	r2, #4
 3213 0274 3449     		ldr	r1, .L291+100
 3214 0276 3046     		mov	r0, r6
 3215 0278 FFF7FEFF 		bl	strncmp
 3216              	.LVL462:
 3217 027c 48B1     		cbz	r0, .L236
 3218              		.loc 1 1072 0 is_stmt 0 discriminator 2
 3219 027e 3349     		ldr	r1, .L291+104
 3220 0280 3046     		mov	r0, r6
 3221 0282 FFF7FEFF 		bl	strcmp
 3222              	.LVL463:
 3223 0286 20B1     		cbz	r0, .L236
 3224              		.loc 1 1072 0 discriminator 4
 3225 0288 3149     		ldr	r1, .L291+108
 3226 028a 3046     		mov	r0, r6
 3227 028c FFF7FEFF 		bl	strcmp
 3228              	.LVL464:
 3229 0290 50B9     		cbnz	r0, .L237
 3230              	.L236:
 3231              		.loc 1 1072 0 discriminator 5
 3232 0292 BAF1000F 		cmp	r10, #0
 3233 0296 05D1     		bne	.L254
1073:main.c        ****                         ShowHelp();
 3234              		.loc 1 1073 0 is_stmt 1
 3235 0298 FFF7FEFF 		bl	ShowHelp
 3236              	.LVL465:
1074:main.c        ****                         cmdprocessed = 1;
 3237              		.loc 1 1074 0
ARM GAS  C:\Users\Kiwi\AppData\Local\Temp\cckzbvMb.s 			page 80


 3238 029c 4FF0010A 		mov	r10, #1
1075:main.c        ****                         noPrompt = 0;
 3239              		.loc 1 1075 0
 3240 02a0 0025     		movs	r5, #0
 3241 02a2 01E0     		b	.L237
 3242              	.LVL466:
 3243              	.L254:
 3244 02a4 4FF0010A 		mov	r10, #1
 3245              	.LVL467:
 3246              	.L237:
1076:main.c        ****                     }
1077:main.c        ****                     if(strcmp(cmdline, "zdump")==0 && !cmdprocessed) {
 3247              		.loc 1 1077 0
 3248 02a8 2A49     		ldr	r1, .L291+112
 3249 02aa 3046     		mov	r0, r6
 3250 02ac FFF7FEFF 		bl	strcmp
 3251              	.LVL468:
 3252 02b0 8346     		mov	fp, r0
 3253 02b2 50B9     		cbnz	r0, .L238
 3254              		.loc 1 1077 0 is_stmt 0 discriminator 1
 3255 02b4 BAF1000F 		cmp	r10, #0
 3256 02b8 05D1     		bne	.L255
1078:main.c        ****                         DumpZRMD();
 3257              		.loc 1 1078 0 is_stmt 1
 3258 02ba FFF7FEFF 		bl	DumpZRMD
 3259              	.LVL469:
1079:main.c        ****                         cmdprocessed = 1;
 3260              		.loc 1 1079 0
 3261 02be 4FF0010A 		mov	r10, #1
1080:main.c        ****                         noPrompt = 0;
 3262              		.loc 1 1080 0
 3263 02c2 5D46     		mov	r5, fp
 3264 02c4 01E0     		b	.L238
 3265              	.LVL470:
 3266              	.L255:
 3267 02c6 4FF0010A 		mov	r10, #1
 3268              	.LVL471:
 3269              	.L238:
1081:main.c        ****                     }
1082:main.c        ****                     if(strcmp(cmdline, "dumpu")==0 && !cmdprocessed) {
 3270              		.loc 1 1082 0
 3271 02ca 2349     		ldr	r1, .L291+116
 3272 02cc 3046     		mov	r0, r6
 3273 02ce FFF7FEFF 		bl	strcmp
 3274              	.LVL472:
 3275 02d2 0028     		cmp	r0, #0
 3276 02d4 44D1     		bne	.L239
 3277              		.loc 1 1082 0 is_stmt 0 discriminator 1
 3278 02d6 BAF1000F 		cmp	r10, #0
 3279 02da 3FD1     		bne	.L256
1083:main.c        ****                         // DumpZRMD_UART();
1084:main.c        ****                         cmdprocessed = 1;
 3280              		.loc 1 1084 0 is_stmt 1
 3281 02dc 4FF0010A 		mov	r10, #1
 3282              	.LVL473:
1085:main.c        ****                         noPrompt = 0;
 3283              		.loc 1 1085 0
ARM GAS  C:\Users\Kiwi\AppData\Local\Temp\cckzbvMb.s 			page 81


 3284 02e0 0546     		mov	r5, r0
 3285              	.LVL474:
 3286 02e2 3DE0     		b	.L239
 3287              	.L292:
 3288              		.align	2
 3289              	.L291:
 3290 02e4 00000000 		.word	UART_OUT_RCM_Handler
 3291 02e8 00000000 		.word	UART_OUT_RCU_Handler
 3292 02ec 00000000 		.word	UART_OUT_ROD_Handler
 3293 02f0 00000000 		.word	UART_OUT_RST_Handler
 3294 02f4 00000000 		.word	UART_IN_RRD_Handler
 3295 02f8 00000000 		.word	M1_Int_Handler
 3296 02fc 00000000 		.word	.LANCHOR1
 3297 0300 93050000 		.word	.LC44
 3298 0304 9E050000 		.word	.LC45
 3299 0308 A7050000 		.word	.LC46
 3300 030c 00000000 		.word	.LANCHOR0
 3301 0310 B2050000 		.word	.LC47
 3302 0314 B3050000 		.word	.LC48
 3303 0318 E8050000 		.word	.LC49
 3304 031c 0A060000 		.word	.LC50
 3305 0320 3A060000 		.word	.LC51
 3306 0324 68060000 		.word	.LC52
 3307 0328 8A060000 		.word	.LC53
 3308 032c A4060000 		.word	.LC54
 3309 0330 BD060000 		.word	.LC55
 3310 0334 00000000 		.word	intQueue
 3311 0338 00000000 		.word	instQueue
 3312 033c C2060000 		.word	.LC56
 3313 0340 D1060000 		.word	.LC57
 3314 0344 48000000 		.word	.LC7
 3315 0348 D5060000 		.word	.LC58
 3316 034c DA060000 		.word	.LC59
 3317 0350 DC060000 		.word	.LC60
 3318 0354 DE060000 		.word	.LC61
 3319 0358 E4060000 		.word	.LC62
 3320              	.LVL475:
 3321              	.L256:
 3322 035c 4FF0010A 		mov	r10, #1
 3323              	.LVL476:
 3324              	.L239:
1086:main.c        ****                     }
1087:main.c        ****                     if(strcmp(cmdline, "dm")==0 && !cmdprocessed) {
 3325              		.loc 1 1087 0
 3326 0360 6949     		ldr	r1, .L293
 3327 0362 3046     		mov	r0, r6
 3328 0364 FFF7FEFF 		bl	strcmp
 3329              	.LVL477:
 3330 0368 8346     		mov	fp, r0
 3331 036a 60B9     		cbnz	r0, .L240
 3332              		.loc 1 1087 0 is_stmt 0 discriminator 1
 3333 036c BAF1000F 		cmp	r10, #0
 3334 0370 07D1     		bne	.L257
1088:main.c        ****                         DumpMem(0xF000);
 3335              		.loc 1 1088 0 is_stmt 1
 3336 0372 4FF47040 		mov	r0, #61440
 3337 0376 FFF7FEFF 		bl	DumpMem
ARM GAS  C:\Users\Kiwi\AppData\Local\Temp\cckzbvMb.s 			page 82


 3338              	.LVL478:
1089:main.c        ****                         cmdprocessed = 1;
 3339              		.loc 1 1089 0
 3340 037a 4FF0010A 		mov	r10, #1
1090:main.c        ****                         noPrompt = 0;
 3341              		.loc 1 1090 0
 3342 037e 5D46     		mov	r5, fp
 3343 0380 01E0     		b	.L240
 3344              	.LVL479:
 3345              	.L257:
 3346 0382 4FF0010A 		mov	r10, #1
 3347              	.LVL480:
 3348              	.L240:
1091:main.c        ****                     }
1092:main.c        ****                     if(strcmp(cmdline, "vidtest")==0 && !cmdprocessed) {
 3349              		.loc 1 1092 0
 3350 0386 6149     		ldr	r1, .L293+4
 3351 0388 3046     		mov	r0, r6
 3352 038a FFF7FEFF 		bl	strcmp
 3353              	.LVL481:
 3354 038e 8346     		mov	fp, r0
 3355 0390 50B9     		cbnz	r0, .L241
 3356              		.loc 1 1092 0 is_stmt 0 discriminator 1
 3357 0392 BAF1000F 		cmp	r10, #0
 3358 0396 05D1     		bne	.L258
1093:main.c        ****                         TestVideo();
 3359              		.loc 1 1093 0 is_stmt 1
 3360 0398 FFF7FEFF 		bl	TestVideo
 3361              	.LVL482:
1094:main.c        ****                         cmdprocessed = 1;
 3362              		.loc 1 1094 0
 3363 039c 4FF0010A 		mov	r10, #1
1095:main.c        ****                         noPrompt = 0;
 3364              		.loc 1 1095 0
 3365 03a0 5D46     		mov	r5, fp
 3366 03a2 01E0     		b	.L241
 3367              	.LVL483:
 3368              	.L258:
 3369 03a4 4FF0010A 		mov	r10, #1
 3370              	.LVL484:
 3371              	.L241:
1096:main.c        ****                     }
1097:main.c        ****                     if(strcmp(cmdline, "hex")==0 && !cmdprocessed) {
 3372              		.loc 1 1097 0
 3373 03a8 5949     		ldr	r1, .L293+8
 3374 03aa 3046     		mov	r0, r6
 3375 03ac FFF7FEFF 		bl	strcmp
 3376              	.LVL485:
 3377 03b0 8346     		mov	fp, r0
 3378 03b2 50B9     		cbnz	r0, .L242
 3379              		.loc 1 1097 0 is_stmt 0 discriminator 1
 3380 03b4 BAF1000F 		cmp	r10, #0
 3381 03b8 05D1     		bne	.L259
1098:main.c        ****                         HEX_read();
 3382              		.loc 1 1098 0 is_stmt 1
 3383 03ba FFF7FEFF 		bl	HEX_read
 3384              	.LVL486:
ARM GAS  C:\Users\Kiwi\AppData\Local\Temp\cckzbvMb.s 			page 83


1099:main.c        ****                         cmdprocessed = 1;
 3385              		.loc 1 1099 0
 3386 03be 4FF0010A 		mov	r10, #1
1100:main.c        ****                         noPrompt = 0;
 3387              		.loc 1 1100 0
 3388 03c2 5D46     		mov	r5, fp
 3389 03c4 01E0     		b	.L242
 3390              	.LVL487:
 3391              	.L259:
 3392 03c6 4FF0010A 		mov	r10, #1
 3393              	.LVL488:
 3394              	.L242:
1101:main.c        ****                     }
1102:main.c        ****                     if(strcmp(cmdline, "memtest")==0 && !cmdprocessed) {
 3395              		.loc 1 1102 0
 3396 03ca 5249     		ldr	r1, .L293+12
 3397 03cc 3046     		mov	r0, r6
 3398 03ce FFF7FEFF 		bl	strcmp
 3399              	.LVL489:
 3400 03d2 8346     		mov	fp, r0
 3401 03d4 50B9     		cbnz	r0, .L243
 3402              		.loc 1 1102 0 is_stmt 0 discriminator 1
 3403 03d6 BAF1000F 		cmp	r10, #0
 3404 03da 05D1     		bne	.L260
1103:main.c        ****                         RAM_check();
 3405              		.loc 1 1103 0 is_stmt 1
 3406 03dc FFF7FEFF 		bl	RAM_check
 3407              	.LVL490:
1104:main.c        ****                         cmdprocessed = 1;
 3408              		.loc 1 1104 0
 3409 03e0 4FF0010A 		mov	r10, #1
1105:main.c        ****                         noPrompt = 0;
 3410              		.loc 1 1105 0
 3411 03e4 5D46     		mov	r5, fp
 3412 03e6 01E0     		b	.L243
 3413              	.LVL491:
 3414              	.L260:
 3415 03e8 4FF0010A 		mov	r10, #1
 3416              	.LVL492:
 3417              	.L243:
1106:main.c        ****                     }
1107:main.c        ****                     if(strcmp(cmdline, "reset")==0 && !cmdprocessed) {
 3418              		.loc 1 1107 0
 3419 03ec 4A49     		ldr	r1, .L293+16
 3420 03ee 3046     		mov	r0, r6
 3421 03f0 FFF7FEFF 		bl	strcmp
 3422              	.LVL493:
 3423 03f4 8346     		mov	fp, r0
 3424 03f6 70B9     		cbnz	r0, .L244
 3425              		.loc 1 1107 0 is_stmt 0 discriminator 1
 3426 03f8 BAF1000F 		cmp	r10, #0
 3427 03fc 09D1     		bne	.L261
1108:main.c        ****                         SAPI_Reset();
 3428              		.loc 1 1108 0 is_stmt 1
 3429 03fe FFF7FEFF 		bl	SAPI_Reset
 3430              	.LVL494:
1109:main.c        ****                         USBUART_printf("SAPI reset.\r\n", cmdline);
ARM GAS  C:\Users\Kiwi\AppData\Local\Temp\cckzbvMb.s 			page 84


 3431              		.loc 1 1109 0
 3432 0402 3146     		mov	r1, r6
 3433 0404 4548     		ldr	r0, .L293+20
 3434 0406 FFF7FEFF 		bl	USBUART_printf
 3435              	.LVL495:
1110:main.c        ****                         cmdprocessed = 1;
 3436              		.loc 1 1110 0
 3437 040a 4FF0010A 		mov	r10, #1
1111:main.c        ****                         noPrompt = 0;
 3438              		.loc 1 1111 0
 3439 040e 5D46     		mov	r5, fp
 3440 0410 01E0     		b	.L244
 3441              	.LVL496:
 3442              	.L261:
 3443 0412 4FF0010A 		mov	r10, #1
 3444              	.LVL497:
 3445              	.L244:
1112:main.c        ****                     }
1113:main.c        ****                     if(strcmp(cmdline, "rescnt")==0 && !cmdprocessed) {
 3446              		.loc 1 1113 0
 3447 0416 4249     		ldr	r1, .L293+24
 3448 0418 3046     		mov	r0, r6
 3449 041a FFF7FEFF 		bl	strcmp
 3450              	.LVL498:
 3451 041e 8346     		mov	fp, r0
 3452 0420 98B9     		cbnz	r0, .L245
 3453              		.loc 1 1113 0 is_stmt 0 discriminator 1
 3454 0422 BAF1000F 		cmp	r10, #0
 3455 0426 0ED1     		bne	.L262
1114:main.c        ****                         cntTime = Millis_ReadCounter();
 3456              		.loc 1 1114 0 is_stmt 1
 3457 0428 FFF7FEFF 		bl	Millis_ReadCounter
 3458              	.LVL499:
1115:main.c        ****                         cntLines = 0;
1116:main.c        ****                         cntErrs = 0;
1117:main.c        ****                         USBUART_printf("Counter reset.\r\n", cmdline);
 3459              		.loc 1 1117 0
 3460 042c 3146     		mov	r1, r6
1114:main.c        ****                         cntTime = Millis_ReadCounter();
 3461              		.loc 1 1114 0
 3462 042e 2061     		str	r0, [r4, #16]
 3463              		.loc 1 1117 0
 3464 0430 3C48     		ldr	r0, .L293+28
1115:main.c        ****                         cntLines = 0;
 3465              		.loc 1 1115 0
 3466 0432 C4F804A0 		str	r10, [r4, #4]
1116:main.c        ****                         USBUART_printf("Counter reset.\r\n", cmdline);
 3467              		.loc 1 1116 0
 3468 0436 C4F808A0 		str	r10, [r4, #8]
1118:main.c        ****                         cmdprocessed = 1;
1119:main.c        ****                         noPrompt = 0;
 3469              		.loc 1 1119 0
 3470 043a 5D46     		mov	r5, fp
 3471              	.LVL500:
1117:main.c        ****                         cmdprocessed = 1;
 3472              		.loc 1 1117 0
 3473 043c FFF7FEFF 		bl	USBUART_printf
ARM GAS  C:\Users\Kiwi\AppData\Local\Temp\cckzbvMb.s 			page 85


 3474              	.LVL501:
1118:main.c        ****                         cmdprocessed = 1;
 3475              		.loc 1 1118 0
 3476 0440 4FF0010A 		mov	r10, #1
 3477 0444 01E0     		b	.L245
 3478              	.LVL502:
 3479              	.L262:
 3480 0446 4FF0010A 		mov	r10, #1
 3481              	.LVL503:
 3482              	.L245:
1120:main.c        ****                     }
1121:main.c        ****                     if(strcmp(cmdline, "cnt")==0 && !cmdprocessed) {
 3483              		.loc 1 1121 0
 3484 044a 3749     		ldr	r1, .L293+32
 3485 044c 3046     		mov	r0, r6
 3486 044e FFF7FEFF 		bl	strcmp
 3487              	.LVL504:
 3488 0452 8346     		mov	fp, r0
 3489 0454 88B9     		cbnz	r0, .L246
 3490              		.loc 1 1121 0 is_stmt 0 discriminator 1
 3491 0456 BAF1000F 		cmp	r10, #0
 3492 045a 0CD1     		bne	.L263
1122:main.c        ****                         USBUART_printf("Elapsed time = %d ms, %d lines processed, %d errors\r\n", M
 3493              		.loc 1 1122 0 is_stmt 1
 3494 045c FFF7FEFF 		bl	Millis_ReadCounter
 3495              	.LVL505:
 3496 0460 2169     		ldr	r1, [r4, #16]
 3497 0462 A368     		ldr	r3, [r4, #8]
 3498 0464 411A     		subs	r1, r0, r1
 3499 0466 6268     		ldr	r2, [r4, #4]
 3500 0468 3048     		ldr	r0, .L293+36
 3501 046a FFF7FEFF 		bl	USBUART_printf
 3502              	.LVL506:
1123:main.c        ****                         cmdprocessed = 1;
 3503              		.loc 1 1123 0
 3504 046e 4FF0010A 		mov	r10, #1
1124:main.c        ****                         noPrompt = 0;
 3505              		.loc 1 1124 0
 3506 0472 5D46     		mov	r5, fp
 3507 0474 01E0     		b	.L246
 3508              	.LVL507:
 3509              	.L263:
 3510 0476 4FF0010A 		mov	r10, #1
 3511              	.LVL508:
 3512              	.L246:
1125:main.c        ****                     }
1126:main.c        ****                     if(strcmp(cmdline, "tron")==0 && !cmdprocessed) {
 3513              		.loc 1 1126 0
 3514 047a 2D49     		ldr	r1, .L293+40
 3515 047c 3046     		mov	r0, r6
 3516 047e FFF7FEFF 		bl	strcmp
 3517              	.LVL509:
 3518 0482 C8B9     		cbnz	r0, .L247
 3519              		.loc 1 1126 0 is_stmt 0 discriminator 1
 3520 0484 BAF1000F 		cmp	r10, #0
 3521 0488 0FD1     		bne	.L264
1127:main.c        ****                         if(!tron) {
ARM GAS  C:\Users\Kiwi\AppData\Local\Temp\cckzbvMb.s 			page 86


 3522              		.loc 1 1127 0 is_stmt 1
 3523 048a B8F1000F 		cmp	r8, #0
 3524 048e 0FD1     		bne	.L265
1128:main.c        ****                             instCnt=0;
1129:main.c        ****                             instRdCnt=0;
1130:main.c        ****                             M1_Int_ClearPending();
1131:main.c        ****                             M1_Int_Enable();
1132:main.c        ****                             tron=1;
1133:main.c        ****                         }
1134:main.c        ****                         getInst=16;
1135:main.c        ****                         cmdprocessed = 1;
 3525              		.loc 1 1135 0
 3526 0490 4FF0010A 		mov	r10, #1
 3527              	.LVL510:
1128:main.c        ****                             instCnt=0;
 3528              		.loc 1 1128 0
 3529 0494 84F80180 		strb	r8, [r4, #1]
1136:main.c        ****                         noPrompt = 1;
 3530              		.loc 1 1136 0
 3531 0498 5546     		mov	r5, r10
 3532              	.LVL511:
1129:main.c        ****                             M1_Int_ClearPending();
 3533              		.loc 1 1129 0
 3534 049a 84F81480 		strb	r8, [r4, #20]
1130:main.c        ****                             M1_Int_Enable();
 3535              		.loc 1 1130 0
 3536 049e FFF7FEFF 		bl	M1_Int_ClearPending
 3537              	.LVL512:
1132:main.c        ****                         }
 3538              		.loc 1 1132 0
 3539 04a2 D046     		mov	r8, r10
 3540              	.LVL513:
1131:main.c        ****                             tron=1;
 3541              		.loc 1 1131 0
 3542 04a4 FFF7FEFF 		bl	M1_Int_Enable
 3543              	.LVL514:
 3544 04a8 05E0     		b	.L290
 3545              	.LVL515:
 3546              	.L264:
 3547 04aa 4FF0010A 		mov	r10, #1
 3548              	.LVL516:
 3549 04ae 03E0     		b	.L247
 3550              	.LVL517:
 3551              	.L265:
1135:main.c        ****                         noPrompt = 1;
 3552              		.loc 1 1135 0
 3553 04b0 4FF0010A 		mov	r10, #1
 3554              	.LVL518:
 3555              		.loc 1 1136 0
 3556 04b4 5546     		mov	r5, r10
 3557              	.LVL519:
 3558              	.L290:
1134:main.c        ****                         cmdprocessed = 1;
 3559              		.loc 1 1134 0
 3560 04b6 1027     		movs	r7, #16
 3561              	.L247:
 3562              	.LVL520:
ARM GAS  C:\Users\Kiwi\AppData\Local\Temp\cckzbvMb.s 			page 87


1137:main.c        ****                     }
1138:main.c        ****                     /*
1139:main.c        ****                     if(strcmp(cmdline, "troff")==0 && !cmdprocessed) {
1140:main.c        ****                         if(tron) {
1141:main.c        ****                             M1_Int_Disable();
1142:main.c        ****                             M1_Int_ClearPending();
1143:main.c        ****                             tron=0;
1144:main.c        ****                         }
1145:main.c        ****                         cmdprocessed = 1;
1146:main.c        ****                     } */
1147:main.c        ****                     if(strlen(cmdline)!=0 && !cmdprocessed) {
 3563              		.loc 1 1147 0
 3564 04b8 9DF84820 		ldrb	r2, [sp, #72]	@ zero_extendqisi2
 3565 04bc 32B1     		cbz	r2, .L248
 3566              		.loc 1 1147 0 is_stmt 0 discriminator 1
 3567 04be BAF1000F 		cmp	r10, #0
 3568 04c2 03D1     		bne	.L248
1148:main.c        ****                         USBUART_printf("\r\nUnknown command [%s], use \"help\" or \"?\" for help.\r
 3569              		.loc 1 1148 0 is_stmt 1
 3570 04c4 3146     		mov	r1, r6
 3571 04c6 1B48     		ldr	r0, .L293+44
 3572 04c8 FFF7FEFF 		bl	USBUART_printf
 3573              	.LVL521:
 3574              	.L248:
1149:main.c        ****                     }
1150:main.c        ****                     if(noPrompt==0)
 3575              		.loc 1 1150 0
 3576 04cc 15B9     		cbnz	r5, .L249
1151:main.c        ****                         USBUART_printf("DTR>");
 3577              		.loc 1 1151 0
 3578 04ce 1A48     		ldr	r0, .L293+48
 3579 04d0 FFF7FEFF 		bl	USBUART_printf
 3580              	.LVL522:
 3581              	.L249:
1152:main.c        ****                     cmdline[0] = 0;
 3582              		.loc 1 1152 0
 3583 04d4 0023     		movs	r3, #0
 3584 04d6 8DF84830 		strb	r3, [sp, #72]
1153:main.c        ****                     break;
 3585              		.loc 1 1153 0
 3586 04da 97E6     		b	.L229
 3587              	.LVL523:
 3588              	.L287:
1154:main.c        ****                   case 0x20 ... 0x7F:
1155:main.c        ****                     // strncat(tmpstr, &ch, 1);
1156:main.c        ****                     len = strlen(cmdline);
 3589              		.loc 1 1156 0
 3590 04dc 12A8     		add	r0, sp, #72
 3591 04de FFF7FEFF 		bl	strlen
 3592              	.LVL524:
1157:main.c        ****                     if(len<127) {
 3593              		.loc 1 1157 0
 3594 04e2 7E28     		cmp	r0, #126
 3595 04e4 3FF792AE 		bgt	.L229
1158:main.c        ****                         cmdline[len] = ch;
 3596              		.loc 1 1158 0
 3597 04e8 32AB     		add	r3, sp, #200
ARM GAS  C:\Users\Kiwi\AppData\Local\Temp\cckzbvMb.s 			page 88


 3598 04ea 1844     		add	r0, r0, r3
 3599              	.LVL525:
1159:main.c        ****                         cmdline[len+1] = 0;
 3600              		.loc 1 1159 0
 3601 04ec 0023     		movs	r3, #0
1158:main.c        ****                         cmdline[len] = ch;
 3602              		.loc 1 1158 0
 3603 04ee 00F8806C 		strb	r6, [r0, #-128]
 3604              		.loc 1 1159 0
 3605 04f2 00F87F3C 		strb	r3, [r0, #-127]
 3606              	.L250:
1160:main.c        ****                         while(!USBUART_CDCIsReady()){}
 3607              		.loc 1 1160 0 discriminator 1
 3608 04f6 FFF7FEFF 		bl	USBUART_CDCIsReady
 3609              	.LVL526:
 3610 04fa 0028     		cmp	r0, #0
 3611 04fc FBD0     		beq	.L250
1161:main.c        ****                         USBUART_PutChar(ch);
 3612              		.loc 1 1161 0
 3613 04fe 3046     		mov	r0, r6
 3614 0500 FFF7FEFF 		bl	USBUART_PutChar
 3615              	.LVL527:
 3616 0504 82E6     		b	.L229
 3617              	.L294:
 3618 0506 00BF     		.align	2
 3619              	.L293:
 3620 0508 EA060000 		.word	.LC63
 3621 050c ED060000 		.word	.LC64
 3622 0510 F5060000 		.word	.LC65
 3623 0514 F9060000 		.word	.LC66
 3624 0518 01070000 		.word	.LC67
 3625 051c 07070000 		.word	.LC68
 3626 0520 15070000 		.word	.LC69
 3627 0524 1C070000 		.word	.LC70
 3628 0528 2D070000 		.word	.LC71
 3629 052c 31070000 		.word	.LC72
 3630 0530 67070000 		.word	.LC73
 3631 0534 6C070000 		.word	.LC74
 3632 0538 BD060000 		.word	.LC55
 3633              	.LBE70:
 3634              	.LBE69:
 3635              	.LBE68:
 3636              		.cfi_endproc
 3637              	.LFE87:
 3638              		.size	main, .-main
 3639              		.comm	dva,3,1
 3640              		.global	HexChar
 3641              		.global	instRdCnt
 3642              		.global	instCnt
 3643              		.comm	instQueue,1024,2
 3644              		.global	rdCnt
 3645              		.global	intCnt
 3646              		.comm	intQueue,512,1
 3647              		.global	noOLED
 3648              		.global	waitForBus
 3649              		.global	cntErrs
 3650              		.global	cntLines
ARM GAS  C:\Users\Kiwi\AppData\Local\Temp\cckzbvMb.s 			page 89


 3651              		.global	cntTime
 3652              		.global	extaddr
 3653              		.global	noUART
 3654              		.section	.rodata.str1.1,"aMS",%progbits,1
 3655              	.LC0:
 3656 0000 57616974 		.ascii	"Waiting BUSAK ... \000"
 3656      696E6720 
 3656      42555341 
 3656      4B202E2E 
 3656      2E2000
 3657              	.LC1:
 3658 0013 2E00     		.ascii	".\000"
 3659              	.LC2:
 3660 0015 4F4B0D0A 		.ascii	"OK\015\012\000"
 3660      00
 3661              	.LC3:
 3662 001a 4641494C 		.ascii	"FAILED\015\012\000"
 3662      45440D0A 
 3662      00
 3663              	.LC4:
 3664 0023 57616974 		.ascii	"Waiting BUS release ... \000"
 3664      696E6720 
 3664      42555320 
 3664      72656C65 
 3664      61736520 
 3665              	.LC5:
 3666 003c 25303458 		.ascii	"%04X: \000"
 3666      3A2000
 3667              	.LC6:
 3668 0043 25303258 		.ascii	"%02X\000"
 3668      00
 3669              	.LC7:
 3670 0048 0D0A00   		.ascii	"\015\012\000"
 3671              	.LC8:
 3672 004b 66696C6C 		.ascii	"filling RAM with patttern\015\012\000"
 3672      696E6720 
 3672      52414D20 
 3672      77697468 
 3672      20706174 
 3673              	.LC9:
 3674 0067 76657269 		.ascii	"verifying RAM\015\012\000"
 3674      6679696E 
 3674      67205241 
 3674      4D0D0A00 
 3675              	.LC10:
 3676 0077 4572726F 		.ascii	"Error at %04X, expected %02X, but found %02X\015\012"
 3676      72206174 
 3676      20253034 
 3676      582C2065 
 3676      78706563 
 3677 00a5 00       		.ascii	"\000"
 3678              	.LC11:
 3679 00a6 66696C6C 		.ascii	"filling RAM with inverted patttern\015\012\000"
 3679      696E6720 
 3679      52414D20 
 3679      77697468 
 3679      20696E76 
ARM GAS  C:\Users\Kiwi\AppData\Local\Temp\cckzbvMb.s 			page 90


 3680              	.LC12:
 3681 00cb 25642065 		.ascii	"%d errors found :-(\015\012\000"
 3681      72726F72 
 3681      7320666F 
 3681      756E6420 
 3681      3A2D280D 
 3682              	.LC13:
 3683 00e1 4E6F2065 		.ascii	"No errors found :-)\015\012\000"
 3683      72726F72 
 3683      7320666F 
 3683      756E6420 
 3683      3A2D290D 
 3684              	.LC14:
 3685 00f7 44617461 		.ascii	"Data has been corrupted by memory test, performing "
 3685      20686173 
 3685      20626565 
 3685      6E20636F 
 3685      72727570 
 3686 012a 53415049 		.ascii	"SAPI reset.\015\012\000"
 3686      20726573 
 3686      65742E0D 
 3686      0A00
 3687              	.LC15:
 3688 0138 43686563 		.ascii	"Checking AND-1Z video RAM 0xF800-0xFCFF\015\012\000"
 3688      6B696E67 
 3688      20414E44 
 3688      2D315A20 
 3688      76696465 
 3689              	.LC16:
 3690 0162 4572726F 		.ascii	"Error at %04X, expected %02X, found %02X\015\012\000"
 3690      72206174 
 3690      20253034 
 3690      582C2065 
 3690      78706563 
 3691              	.LC17:
 3692 018d 4E6F2065 		.ascii	"No erros found :-)\015\012\000"
 3692      72726F73 
 3692      20666F75 
 3692      6E64203A 
 3692      2D290D0A 
 3693              	.LC18:
 3694 01a2 466F756E 		.ascii	"Found %d errors :-(\015\012\000"
 3694      64202564 
 3694      20657272 
 3694      6F727320 
 3694      3A2D280D 
 3695              	.LC19:
 3696 01b8 3A303230 		.ascii	":02000004%04X%02X\015\012\000"
 3696      30303030 
 3696      34253034 
 3696      58253032 
 3696      580D0A00 
 3697              	.LC20:
 3698 01cc 3A323025 		.ascii	":20%02X%02X00\000"
 3698      30325825 
 3698      30325830 
 3698      3000
ARM GAS  C:\Users\Kiwi\AppData\Local\Temp\cckzbvMb.s 			page 91


 3699              	.LC21:
 3700 01da 25303258 		.ascii	"%02X\015\012\000"
 3700      0D0A00
 3701              	.LC22:
 3702 01e1 3A303030 		.ascii	":00000001FF\015\012\000"
 3702      30303030 
 3702      3146460D 
 3702      0A00
 3703              	.LC23:
 3704 01ef 25642045 		.ascii	"%d ERRORs writing data :-(\015\012\000"
 3704      52524F52 
 3704      73207772 
 3704      6974696E 
 3704      67206461 
 3705              	.LC24:
 3706 020c 42616420 		.ascii	"Bad data on pos %d\000"
 3706      64617461 
 3706      206F6E20 
 3706      706F7320 
 3706      256400
 3707              	.LC25:
 3708 021f 4E6F7420 		.ascii	"Not enough data bytes, only %d\015\012\000"
 3708      656E6F75 
 3708      67682064 
 3708      61746120 
 3708      62797465 
 3709              	.LC26:
 3710 0240 42616420 		.ascii	"Bad checksum! Found %02X, but should be %02X :-(\015"
 3710      63686563 
 3710      6B73756D 
 3710      2120466F 
 3710      756E6420 
 3711 0271 0A00     		.ascii	"\012\000"
 3712              	.LC27:
 3713 0273 42616420 		.ascii	"Bad length! Found %02X, but should be %02X :-(\015\012"
 3713      6C656E67 
 3713      74682120 
 3713      466F756E 
 3713      64202530 
 3714 02a3 00       		.ascii	"\000"
 3715              	.LC28:
 3716 02a4 456E6420 		.ascii	"End Of File\015\012\000"
 3716      4F662046 
 3716      696C650D 
 3716      0A00
 3717              	.LC29:
 3718 02b2 4E6F7420 		.ascii	"Not enough data bytes for Extended Linear Address, "
 3718      656E6F75 
 3718      67682064 
 3718      61746120 
 3718      62797465 
 3719 02e5 6F6E6C79 		.ascii	"only %d\015\012\000"
 3719      2025640D 
 3719      0A00
 3720              	.LC30:
 3721 02ef 45787465 		.ascii	"Extended Linear Address set to %04X\015\012\000"
 3721      6E646564 
ARM GAS  C:\Users\Kiwi\AppData\Local\Temp\cckzbvMb.s 			page 92


 3721      204C696E 
 3721      65617220 
 3721      41646472 
 3722              	.LC31:
 3723 0315 496E7661 		.ascii	"Invalid content received\015\012\000"
 3723      6C696420 
 3723      636F6E74 
 3723      656E7420 
 3723      72656365 
 3724              	.LC32:
 3725 0330 25730D0A 		.ascii	"%s\015\012\000"
 3725      00
 3726              	.LC33:
 3727 0335 7A64756D 		.ascii	"zdump   ... dump ZRMD as HEX to USB serial\015\012\000"
 3727      70202020 
 3727      2E2E2E20 
 3727      64756D70 
 3727      205A524D 
 3728              	.LC34:
 3729 0362 3A202020 		.ascii	":       ... line starting with : will be interprete"
 3729      20202020 
 3729      2E2E2E20 
 3729      6C696E65 
 3729      20737461 
 3730 0395 64206173 		.ascii	"d as Intel HEX line to ZRMD\015\012\000"
 3730      20496E74 
 3730      656C2048 
 3730      4558206C 
 3730      696E6520 
 3731              	.LC35:
 3732 03b3 68657820 		.ascii	"hex     ... start special and faster Intel HEX inpu"
 3732      20202020 
 3732      2E2E2E20 
 3732      73746172 
 3732      74207370 
 3733 03e6 74206D6F 		.ascii	"t mode for ZRMD\015\012\000"
 3733      64652066 
 3733      6F72205A 
 3733      524D440D 
 3733      0A00
 3734              	.LC36:
 3735 03f8 72657363 		.ascii	"rescnt  ... reset time counter, number of imported "
 3735      6E742020 
 3735      2E2E2E20 
 3735      72657365 
 3735      74207469 
 3736 042b 6C696E65 		.ascii	"lines and errors\015\012\000"
 3736      7320616E 
 3736      64206572 
 3736      726F7273 
 3736      0D0A00
 3737              	.LC37:
 3738 043e 636E7420 		.ascii	"cnt     ... show time counter, number of imported l"
 3738      20202020 
 3738      2E2E2E20 
 3738      73686F77 
 3738      2074696D 
ARM GAS  C:\Users\Kiwi\AppData\Local\Temp\cckzbvMb.s 			page 93


 3739 0471 696E6573 		.ascii	"ines and errors\015\012\000"
 3739      20616E64 
 3739      20657272 
 3739      6F72730D 
 3739      0A00
 3740              	.LC38:
 3741 0483 646D2020 		.ascii	"dm      ... dump memory\015\012\000"
 3741      20202020 
 3741      2E2E2E20 
 3741      64756D70 
 3741      206D656D 
 3742              	.LC39:
 3743 049d 74726F6E 		.ascii	"tron    ... trace for 16 instructions\015\012\000"
 3743      20202020 
 3743      2E2E2E20 
 3743      74726163 
 3743      6520666F 
 3744              	.LC40:
 3745 04c5 76696474 		.ascii	"vidtest ... test of AND-1Z video RAM (non destructi"
 3745      65737420 
 3745      2E2E2E20 
 3745      74657374 
 3745      206F6620 
 3746 04f8 7665290D 		.ascii	"ve)\015\012\000"
 3746      0A00
 3747              	.LC41:
 3748 04fe 6D656D74 		.ascii	"memtest ... test of DTR-1 RAM, test is destructive "
 3748      65737420 
 3748      2E2E2E20 
 3748      74657374 
 3748      206F6620 
 3749 0531 616E6420 		.ascii	"and needs reset at end\015\012\000"
 3749      6E656564 
 3749      73207265 
 3749      73657420 
 3749      61742065 
 3750              	.LC42:
 3751 054a 72657365 		.ascii	"reset   ... SAPI-1 reset (RTL pulse)\015\012\000"
 3751      74202020 
 3751      2E2E2E20 
 3751      53415049 
 3751      2D312072 
 3752              	.LC43:
 3753 0571 68656C70 		.ascii	"help, ? or h ... show this help\015\012\000"
 3753      2C203F20 
 3753      6F722068 
 3753      202E2E2E 
 3753      2073686F 
 3754              	.LC44:
 3755 0593 53415049 		.ascii	"SAPI DTR-1\000"
 3755      20445452 
 3755      2D3100
 3756              	.LC45:
 3757 059e 38626974 		.ascii	"8bity.cz\000"
 3757      792E637A 
 3757      00
 3758              	.LC46:
ARM GAS  C:\Users\Kiwi\AppData\Local\Temp\cckzbvMb.s 			page 94


 3759 05a7 32303231 		.ascii	"2021042501\000"
 3759      30343235 
 3759      303100
 3760              	.LC47:
 3761 05b2 00       		.ascii	"\000"
 3762              	.LC48:
 3763 05b3 0D0A5341 		.ascii	"\015\012SAPI-1 DTR-1 board based on CY8CKIT-059 rev"
 3763      50492D31 
 3763      20445452 
 3763      2D312062 
 3763      6F617264 
 3764 05e0 2E323331 		.ascii	".231709\000"
 3764      37303900 
 3765              	.LC49:
 3766 05e8 20202863 		.ascii	"  (c) 2021-23 martin@8bity.cz\015\012\015\012\000"
 3766      29203230 
 3766      32312D32 
 3766      33206D61 
 3766      7274696E 
 3767              	.LC50:
 3768 060a 436F6E73 		.ascii	"Console set to AND-1Z and Consul 262.3/259.11\015\012"
 3768      6F6C6520 
 3768      73657420 
 3768      746F2041 
 3768      4E442D31 
 3769 0639 00       		.ascii	"\000"
 3770              	.LC51:
 3771 063a 436F6E73 		.ascii	"Console set to RS-232c RTS/CTS flow control\015\012"
 3771      6F6C6520 
 3771      73657420 
 3771      746F2052 
 3771      532D3233 
 3772 0667 00       		.ascii	"\000"
 3773              	.LC52:
 3774 0668 0D0A4865 		.ascii	"\015\012Hello to UART RS-232c console\015\012\000"
 3774      6C6C6F20 
 3774      746F2055 
 3774      41525420 
 3774      52532D32 
 3775              	.LC53:
 3776 068a 4F4C4544 		.ascii	"OLED display not found.\015\012\000"
 3776      20646973 
 3776      706C6179 
 3776      206E6F74 
 3776      20666F75 
 3777              	.LC54:
 3778 06a4 4F4C4544 		.ascii	"OLED display detected.\015\012\000"
 3778      20646973 
 3778      706C6179 
 3778      20646574 
 3778      65637465 
 3779              	.LC55:
 3780 06bd 4454523E 		.ascii	"DTR>\000"
 3780      00
 3781              	.LC56:
 3782 06c2 54522025 		.ascii	"TR %04X:%02X\015\012\000"
 3782      3034583A 
ARM GAS  C:\Users\Kiwi\AppData\Local\Temp\cckzbvMb.s 			page 95


 3782      25303258 
 3782      0D0A00
 3783              	.LC57:
 3784 06d1 08200800 		.ascii	"\010 \010\000"
 3785              	.LC58:
 3786 06d5 68656C70 		.ascii	"help\000"
 3786      00
 3787              	.LC59:
 3788 06da 3F00     		.ascii	"?\000"
 3789              	.LC60:
 3790 06dc 6800     		.ascii	"h\000"
 3791              	.LC61:
 3792 06de 7A64756D 		.ascii	"zdump\000"
 3792      7000
 3793              	.LC62:
 3794 06e4 64756D70 		.ascii	"dumpu\000"
 3794      7500
 3795              	.LC63:
 3796 06ea 646D00   		.ascii	"dm\000"
 3797              	.LC64:
 3798 06ed 76696474 		.ascii	"vidtest\000"
 3798      65737400 
 3799              	.LC65:
 3800 06f5 68657800 		.ascii	"hex\000"
 3801              	.LC66:
 3802 06f9 6D656D74 		.ascii	"memtest\000"
 3802      65737400 
 3803              	.LC67:
 3804 0701 72657365 		.ascii	"reset\000"
 3804      7400
 3805              	.LC68:
 3806 0707 53415049 		.ascii	"SAPI reset.\015\012\000"
 3806      20726573 
 3806      65742E0D 
 3806      0A00
 3807              	.LC69:
 3808 0715 72657363 		.ascii	"rescnt\000"
 3808      6E7400
 3809              	.LC70:
 3810 071c 436F756E 		.ascii	"Counter reset.\015\012\000"
 3810      74657220 
 3810      72657365 
 3810      742E0D0A 
 3810      00
 3811              	.LC71:
 3812 072d 636E7400 		.ascii	"cnt\000"
 3813              	.LC72:
 3814 0731 456C6170 		.ascii	"Elapsed time = %d ms, %d lines processed, %d errors"
 3814      73656420 
 3814      74696D65 
 3814      203D2025 
 3814      64206D73 
 3815 0764 0D0A00   		.ascii	"\015\012\000"
 3816              	.LC73:
 3817 0767 74726F6E 		.ascii	"tron\000"
 3817      00
 3818              	.LC74:
ARM GAS  C:\Users\Kiwi\AppData\Local\Temp\cckzbvMb.s 			page 96


 3819 076c 0D0A556E 		.ascii	"\015\012Unknown command [%s], use \"help\" or \"?\""
 3819      6B6E6F77 
 3819      6E20636F 
 3819      6D6D616E 
 3819      64205B25 
 3820 0795 20666F72 		.ascii	" for help.\015\012\015\012\000"
 3820      2068656C 
 3820      702E0D0A 
 3820      0D0A00
 3821              		.data
 3822              		.align	2
 3823              		.set	.LANCHOR1,. + 0
 3824              		.type	noUART, %object
 3825              		.size	noUART, 4
 3826              	noUART:
 3827 0000 01000000 		.word	1
 3828              		.type	waitForBus, %object
 3829              		.size	waitForBus, 1
 3830              	waitForBus:
 3831 0004 01       		.byte	1
 3832              		.type	HexChar, %object
 3833              		.size	HexChar, 16
 3834              	HexChar:
 3835 0005 30       		.byte	48
 3836 0006 31       		.byte	49
 3837 0007 32       		.byte	50
 3838 0008 33       		.byte	51
 3839 0009 34       		.byte	52
 3840 000a 35       		.byte	53
 3841 000b 36       		.byte	54
 3842 000c 37       		.byte	55
 3843 000d 38       		.byte	56
 3844 000e 39       		.byte	57
 3845 000f 41       		.byte	65
 3846 0010 42       		.byte	66
 3847 0011 43       		.byte	67
 3848 0012 44       		.byte	68
 3849 0013 45       		.byte	69
 3850 0014 46       		.byte	70
 3851 0015 000000   		.space	3
 3852              		.type	noOLED, %object
 3853              		.size	noOLED, 4
 3854              	noOLED:
 3855 0018 01000000 		.word	1
 3856              		.bss
 3857              		.align	2
 3858              		.set	.LANCHOR0,. + 0
 3859              		.type	intCnt, %object
 3860              		.size	intCnt, 1
 3861              	intCnt:
 3862 0000 00       		.space	1
 3863              		.type	instCnt, %object
 3864              		.size	instCnt, 1
 3865              	instCnt:
 3866 0001 00       		.space	1
 3867 0002 0000     		.space	2
 3868              		.type	cntLines, %object
ARM GAS  C:\Users\Kiwi\AppData\Local\Temp\cckzbvMb.s 			page 97


 3869              		.size	cntLines, 4
 3870              	cntLines:
 3871 0004 00000000 		.space	4
 3872              		.type	cntErrs, %object
 3873              		.size	cntErrs, 4
 3874              	cntErrs:
 3875 0008 00000000 		.space	4
 3876              		.type	extaddr, %object
 3877              		.size	extaddr, 2
 3878              	extaddr:
 3879 000c 0000     		.space	2
 3880 000e 0000     		.space	2
 3881              		.type	cntTime, %object
 3882              		.size	cntTime, 4
 3883              	cntTime:
 3884 0010 00000000 		.space	4
 3885              		.type	instRdCnt, %object
 3886              		.size	instRdCnt, 1
 3887              	instRdCnt:
 3888 0014 00       		.space	1
 3889              		.type	rdCnt, %object
 3890              		.size	rdCnt, 1
 3891              	rdCnt:
 3892 0015 00       		.space	1
 3893              		.text
 3894              	.Letext0:
 3895              		.file 2 "c:\\program files (x86)\\cypress\\psoc creator\\4.4\\psoc creator\\import\\gnu\\arm\\5.4.
 3896              		.file 3 "c:\\program files (x86)\\cypress\\psoc creator\\4.4\\psoc creator\\import\\gnu\\arm\\5.4.
 3897              		.file 4 "c:\\program files (x86)\\cypress\\psoc creator\\4.4\\psoc creator\\import\\gnu\\arm\\5.4.
 3898              		.file 5 "Generated_Source\\PSoC5/cytypes.h"
 3899              		.file 6 "<built-in>"
 3900              		.file 7 "Generated_Source\\PSoC5/core_cm3.h"
 3901              		.file 8 "Generated_Source\\PSoC5/RCM.h"
 3902              		.file 9 "Generated_Source\\PSoC5/RCU.h"
 3903              		.file 10 "Generated_Source\\PSoC5/ROD.h"
 3904              		.file 11 "Generated_Source\\PSoC5/RST.h"
 3905              		.file 12 "Generated_Source\\PSoC5/RSU.h"
 3906              		.file 13 "Generated_Source\\PSoC5/nWAIT.h"
 3907              		.file 14 "Generated_Source\\PSoC5/ADH_Reg.h"
 3908              		.file 15 "Generated_Source\\PSoC5/ADL_Reg.h"
 3909              		.file 16 "Generated_Source\\PSoC5/DT_Reg.h"
 3910              		.file 17 "Generated_Source\\PSoC5/RTL.h"
 3911              		.file 18 "Generated_Source\\PSoC5/CyLib.h"
 3912              		.file 19 "c:\\program files (x86)\\cypress\\psoc creator\\4.4\\psoc creator\\import\\gnu\\arm\\5.4
 3913              		.file 20 "Generated_Source\\PSoC5/USBUART_cdc.h"
 3914              		.file 21 "Generated_Source\\PSoC5/UART.h"
 3915              		.file 22 "Generated_Source\\PSoC5/BUSRQ.h"
 3916              		.file 23 "Generated_Source\\PSoC5/BUSAK.h"
 3917              		.file 24 "Generated_Source\\PSoC5/AddrH.h"
 3918              		.file 25 "Generated_Source\\PSoC5/AddrL.h"
 3919              		.file 26 "Generated_Source\\PSoC5/Dta.h"
 3920              		.file 27 "Generated_Source\\PSoC5/SRAM_Ctl.h"
 3921              		.file 28 "Generated_Source\\PSoC5/BusDta.h"
 3922              		.file 29 "Generated_Source\\PSoC5/MR.h"
 3923              		.file 30 "Generated_Source\\PSoC5/MW.h"
 3924              		.file 31 "Generated_Source\\PSoC5/IOW.h"
 3925              		.file 32 "Generated_Source\\PSoC5/IOR.h"
ARM GAS  C:\Users\Kiwi\AppData\Local\Temp\cckzbvMb.s 			page 98


 3926              		.file 33 "c:\\program files (x86)\\cypress\\psoc creator\\4.4\\psoc creator\\import\\gnu\\arm\\5.4
 3927              		.file 34 "Generated_Source\\PSoC5/Millis.h"
 3928              		.file 35 "Generated_Source\\PSoC5/M1_Int.h"
 3929              		.file 36 "Generated_Source\\PSoC5/RCM_Int.h"
 3930              		.file 37 "Generated_Source\\PSoC5/RCU_Int.h"
 3931              		.file 38 "Generated_Source\\PSoC5/ROD_Int.h"
 3932              		.file 39 "Generated_Source\\PSoC5/RST_Int.h"
 3933              		.file 40 "Generated_Source\\PSoC5/RRD_Int.h"
 3934              		.file 41 "Generated_Source\\PSoC5/I2COLED.h"
 3935              		.file 42 "ssd1306.h"
 3936              		.file 43 "Generated_Source\\PSoC5/USBUART.h"
 3937              		.file 44 "Generated_Source\\PSoC5/CTS.h"
 3938              		.file 45 "Generated_Source\\PSoC5/RSM.h"
 3939              		.file 46 "Generated_Source\\PSoC5/RRD.h"