ARM GAS  C:\Users\Kiwi\AppData\Local\Temp\cc1YKakf.s 			page 1


   1              		.syntax unified
   2              		.cpu cortex-m3
   3              		.fpu softvfp
   4              		.eabi_attribute 20, 1
   5              		.eabi_attribute 21, 1
   6              		.eabi_attribute 23, 3
   7              		.eabi_attribute 24, 1
   8              		.eabi_attribute 25, 1
   9              		.eabi_attribute 26, 1
  10              		.eabi_attribute 30, 4
  11              		.eabi_attribute 34, 1
  12              		.eabi_attribute 18, 4
  13              		.thumb
  14              		.syntax unified
  15              		.file	"Millis_PM.c"
  16              		.text
  17              	.Ltext0:
  18              		.cfi_sections	.debug_frame
  19              		.section	.text.Millis_SaveConfig,"ax",%progbits
  20              		.align	1
  21              		.global	Millis_SaveConfig
  22              		.thumb
  23              		.thumb_func
  24              		.type	Millis_SaveConfig, %function
  25              	Millis_SaveConfig:
  26              	.LFB0:
  27              		.file 1 "Generated_Source\\PSoC5\\Millis_PM.c"
   1:Generated_Source\PSoC5/Millis_PM.c **** /*******************************************************************************
   2:Generated_Source\PSoC5/Millis_PM.c **** * File Name: Millis_PM.c  
   3:Generated_Source\PSoC5/Millis_PM.c **** * Version 3.0
   4:Generated_Source\PSoC5/Millis_PM.c **** *
   5:Generated_Source\PSoC5/Millis_PM.c **** *  Description:
   6:Generated_Source\PSoC5/Millis_PM.c **** *    This file provides the power management source code to API for the
   7:Generated_Source\PSoC5/Millis_PM.c **** *    Counter.  
   8:Generated_Source\PSoC5/Millis_PM.c **** *
   9:Generated_Source\PSoC5/Millis_PM.c **** *   Note:
  10:Generated_Source\PSoC5/Millis_PM.c **** *     None
  11:Generated_Source\PSoC5/Millis_PM.c **** *
  12:Generated_Source\PSoC5/Millis_PM.c **** ********************************************************************************
  13:Generated_Source\PSoC5/Millis_PM.c **** * Copyright 2008-2012, Cypress Semiconductor Corporation.  All rights reserved.
  14:Generated_Source\PSoC5/Millis_PM.c **** * You may use this file only in accordance with the license, terms, conditions, 
  15:Generated_Source\PSoC5/Millis_PM.c **** * disclaimers, and limitations in the end user license agreement accompanying 
  16:Generated_Source\PSoC5/Millis_PM.c **** * the software package with which this file was provided.
  17:Generated_Source\PSoC5/Millis_PM.c **** *******************************************************************************/
  18:Generated_Source\PSoC5/Millis_PM.c **** 
  19:Generated_Source\PSoC5/Millis_PM.c **** #include "Millis.h"
  20:Generated_Source\PSoC5/Millis_PM.c **** 
  21:Generated_Source\PSoC5/Millis_PM.c **** static Millis_backupStruct Millis_backup;
  22:Generated_Source\PSoC5/Millis_PM.c **** 
  23:Generated_Source\PSoC5/Millis_PM.c **** 
  24:Generated_Source\PSoC5/Millis_PM.c **** /*******************************************************************************
  25:Generated_Source\PSoC5/Millis_PM.c **** * Function Name: Millis_SaveConfig
  26:Generated_Source\PSoC5/Millis_PM.c **** ********************************************************************************
  27:Generated_Source\PSoC5/Millis_PM.c **** * Summary:
  28:Generated_Source\PSoC5/Millis_PM.c **** *     Save the current user configuration
  29:Generated_Source\PSoC5/Millis_PM.c **** *
  30:Generated_Source\PSoC5/Millis_PM.c **** * Parameters:  
ARM GAS  C:\Users\Kiwi\AppData\Local\Temp\cc1YKakf.s 			page 2


  31:Generated_Source\PSoC5/Millis_PM.c **** *  void
  32:Generated_Source\PSoC5/Millis_PM.c **** *
  33:Generated_Source\PSoC5/Millis_PM.c **** * Return: 
  34:Generated_Source\PSoC5/Millis_PM.c **** *  void
  35:Generated_Source\PSoC5/Millis_PM.c **** *
  36:Generated_Source\PSoC5/Millis_PM.c **** * Global variables:
  37:Generated_Source\PSoC5/Millis_PM.c **** *  Millis_backup:  Variables of this global structure are modified to 
  38:Generated_Source\PSoC5/Millis_PM.c **** *  store the values of non retention configuration registers when Sleep() API is 
  39:Generated_Source\PSoC5/Millis_PM.c **** *  called.
  40:Generated_Source\PSoC5/Millis_PM.c **** *
  41:Generated_Source\PSoC5/Millis_PM.c **** *******************************************************************************/
  42:Generated_Source\PSoC5/Millis_PM.c **** void Millis_SaveConfig(void) 
  43:Generated_Source\PSoC5/Millis_PM.c **** {
  28              		.loc 1 43 0
  29              		.cfi_startproc
  30              		@ args = 0, pretend = 0, frame = 0
  31              		@ frame_needed = 0, uses_anonymous_args = 0
  32 0000 08B5     		push	{r3, lr}
  33              		.cfi_def_cfa_offset 8
  34              		.cfi_offset 3, -8
  35              		.cfi_offset 14, -4
  44:Generated_Source\PSoC5/Millis_PM.c ****     #if (!Millis_UsingFixedFunction)
  45:Generated_Source\PSoC5/Millis_PM.c **** 
  46:Generated_Source\PSoC5/Millis_PM.c ****         Millis_backup.CounterUdb = Millis_ReadCounter();
  36              		.loc 1 46 0
  37 0002 FFF7FEFF 		bl	Millis_ReadCounter
  38              	.LVL0:
  39 0006 014B     		ldr	r3, .L2
  40 0008 5860     		str	r0, [r3, #4]
  41 000a 08BD     		pop	{r3, pc}
  42              	.L3:
  43              		.align	2
  44              	.L2:
  45 000c 00000000 		.word	.LANCHOR0
  46              		.cfi_endproc
  47              	.LFE0:
  48              		.size	Millis_SaveConfig, .-Millis_SaveConfig
  49              		.section	.text.Millis_RestoreConfig,"ax",%progbits
  50              		.align	1
  51              		.global	Millis_RestoreConfig
  52              		.thumb
  53              		.thumb_func
  54              		.type	Millis_RestoreConfig, %function
  55              	Millis_RestoreConfig:
  56              	.LFB1:
  47:Generated_Source\PSoC5/Millis_PM.c **** 
  48:Generated_Source\PSoC5/Millis_PM.c ****         #if(!Millis_ControlRegRemoved)
  49:Generated_Source\PSoC5/Millis_PM.c ****             Millis_backup.CounterControlRegister = Millis_ReadControlRegister();
  50:Generated_Source\PSoC5/Millis_PM.c ****         #endif /* (!Millis_ControlRegRemoved) */
  51:Generated_Source\PSoC5/Millis_PM.c **** 
  52:Generated_Source\PSoC5/Millis_PM.c ****     #endif /* (!Millis_UsingFixedFunction) */
  53:Generated_Source\PSoC5/Millis_PM.c **** }
  54:Generated_Source\PSoC5/Millis_PM.c **** 
  55:Generated_Source\PSoC5/Millis_PM.c **** 
  56:Generated_Source\PSoC5/Millis_PM.c **** /*******************************************************************************
  57:Generated_Source\PSoC5/Millis_PM.c **** * Function Name: Millis_RestoreConfig
  58:Generated_Source\PSoC5/Millis_PM.c **** ********************************************************************************
ARM GAS  C:\Users\Kiwi\AppData\Local\Temp\cc1YKakf.s 			page 3


  59:Generated_Source\PSoC5/Millis_PM.c **** *
  60:Generated_Source\PSoC5/Millis_PM.c **** * Summary:
  61:Generated_Source\PSoC5/Millis_PM.c **** *  Restores the current user configuration.
  62:Generated_Source\PSoC5/Millis_PM.c **** *
  63:Generated_Source\PSoC5/Millis_PM.c **** * Parameters:  
  64:Generated_Source\PSoC5/Millis_PM.c **** *  void
  65:Generated_Source\PSoC5/Millis_PM.c **** *
  66:Generated_Source\PSoC5/Millis_PM.c **** * Return: 
  67:Generated_Source\PSoC5/Millis_PM.c **** *  void
  68:Generated_Source\PSoC5/Millis_PM.c **** *
  69:Generated_Source\PSoC5/Millis_PM.c **** * Global variables:
  70:Generated_Source\PSoC5/Millis_PM.c **** *  Millis_backup:  Variables of this global structure are used to 
  71:Generated_Source\PSoC5/Millis_PM.c **** *  restore the values of non retention registers on wakeup from sleep mode.
  72:Generated_Source\PSoC5/Millis_PM.c **** *
  73:Generated_Source\PSoC5/Millis_PM.c **** *******************************************************************************/
  74:Generated_Source\PSoC5/Millis_PM.c **** void Millis_RestoreConfig(void) 
  75:Generated_Source\PSoC5/Millis_PM.c **** {      
  57              		.loc 1 75 0
  58              		.cfi_startproc
  59              		@ args = 0, pretend = 0, frame = 0
  60              		@ frame_needed = 0, uses_anonymous_args = 0
  61              		@ link register save eliminated.
  76:Generated_Source\PSoC5/Millis_PM.c ****     #if (!Millis_UsingFixedFunction)
  77:Generated_Source\PSoC5/Millis_PM.c **** 
  78:Generated_Source\PSoC5/Millis_PM.c ****        Millis_WriteCounter(Millis_backup.CounterUdb);
  62              		.loc 1 78 0
  63 0000 014B     		ldr	r3, .L5
  64 0002 5868     		ldr	r0, [r3, #4]
  65 0004 FFF7FEBF 		b	Millis_WriteCounter
  66              	.LVL1:
  67              	.L6:
  68              		.align	2
  69              	.L5:
  70 0008 00000000 		.word	.LANCHOR0
  71              		.cfi_endproc
  72              	.LFE1:
  73              		.size	Millis_RestoreConfig, .-Millis_RestoreConfig
  74              		.section	.text.Millis_Sleep,"ax",%progbits
  75              		.align	1
  76              		.global	Millis_Sleep
  77              		.thumb
  78              		.thumb_func
  79              		.type	Millis_Sleep, %function
  80              	Millis_Sleep:
  81              	.LFB2:
  79:Generated_Source\PSoC5/Millis_PM.c **** 
  80:Generated_Source\PSoC5/Millis_PM.c ****         #if(!Millis_ControlRegRemoved)
  81:Generated_Source\PSoC5/Millis_PM.c ****             Millis_WriteControlRegister(Millis_backup.CounterControlRegister);
  82:Generated_Source\PSoC5/Millis_PM.c ****         #endif /* (!Millis_ControlRegRemoved) */
  83:Generated_Source\PSoC5/Millis_PM.c **** 
  84:Generated_Source\PSoC5/Millis_PM.c ****     #endif /* (!Millis_UsingFixedFunction) */
  85:Generated_Source\PSoC5/Millis_PM.c **** }
  86:Generated_Source\PSoC5/Millis_PM.c **** 
  87:Generated_Source\PSoC5/Millis_PM.c **** 
  88:Generated_Source\PSoC5/Millis_PM.c **** /*******************************************************************************
  89:Generated_Source\PSoC5/Millis_PM.c **** * Function Name: Millis_Sleep
  90:Generated_Source\PSoC5/Millis_PM.c **** ********************************************************************************
ARM GAS  C:\Users\Kiwi\AppData\Local\Temp\cc1YKakf.s 			page 4


  91:Generated_Source\PSoC5/Millis_PM.c **** * Summary:
  92:Generated_Source\PSoC5/Millis_PM.c **** *     Stop and Save the user configuration
  93:Generated_Source\PSoC5/Millis_PM.c **** *
  94:Generated_Source\PSoC5/Millis_PM.c **** * Parameters:  
  95:Generated_Source\PSoC5/Millis_PM.c **** *  void
  96:Generated_Source\PSoC5/Millis_PM.c **** *
  97:Generated_Source\PSoC5/Millis_PM.c **** * Return: 
  98:Generated_Source\PSoC5/Millis_PM.c **** *  void
  99:Generated_Source\PSoC5/Millis_PM.c **** *
 100:Generated_Source\PSoC5/Millis_PM.c **** * Global variables:
 101:Generated_Source\PSoC5/Millis_PM.c **** *  Millis_backup.enableState:  Is modified depending on the enable 
 102:Generated_Source\PSoC5/Millis_PM.c **** *  state of the block before entering sleep mode.
 103:Generated_Source\PSoC5/Millis_PM.c **** *
 104:Generated_Source\PSoC5/Millis_PM.c **** *******************************************************************************/
 105:Generated_Source\PSoC5/Millis_PM.c **** void Millis_Sleep(void) 
 106:Generated_Source\PSoC5/Millis_PM.c **** {
  82              		.loc 1 106 0
  83              		.cfi_startproc
  84              		@ args = 0, pretend = 0, frame = 0
  85              		@ frame_needed = 0, uses_anonymous_args = 0
  86 0000 08B5     		push	{r3, lr}
  87              		.cfi_def_cfa_offset 8
  88              		.cfi_offset 3, -8
  89              		.cfi_offset 14, -4
 107:Generated_Source\PSoC5/Millis_PM.c ****     #if(!Millis_ControlRegRemoved)
 108:Generated_Source\PSoC5/Millis_PM.c ****         /* Save Counter's enable state */
 109:Generated_Source\PSoC5/Millis_PM.c ****         if(Millis_CTRL_ENABLE == (Millis_CONTROL & Millis_CTRL_ENABLE))
 110:Generated_Source\PSoC5/Millis_PM.c ****         {
 111:Generated_Source\PSoC5/Millis_PM.c ****             /* Counter is enabled */
 112:Generated_Source\PSoC5/Millis_PM.c ****             Millis_backup.CounterEnableState = 1u;
 113:Generated_Source\PSoC5/Millis_PM.c ****         }
 114:Generated_Source\PSoC5/Millis_PM.c ****         else
 115:Generated_Source\PSoC5/Millis_PM.c ****         {
 116:Generated_Source\PSoC5/Millis_PM.c ****             /* Counter is disabled */
 117:Generated_Source\PSoC5/Millis_PM.c ****             Millis_backup.CounterEnableState = 0u;
 118:Generated_Source\PSoC5/Millis_PM.c ****         }
 119:Generated_Source\PSoC5/Millis_PM.c ****     #else
 120:Generated_Source\PSoC5/Millis_PM.c ****         Millis_backup.CounterEnableState = 1u;
 121:Generated_Source\PSoC5/Millis_PM.c ****         if(Millis_backup.CounterEnableState != 0u)
 122:Generated_Source\PSoC5/Millis_PM.c ****         {
 123:Generated_Source\PSoC5/Millis_PM.c ****             Millis_backup.CounterEnableState = 0u;
  90              		.loc 1 123 0
  91 0002 044B     		ldr	r3, .L8
  92 0004 0022     		movs	r2, #0
  93 0006 1A70     		strb	r2, [r3]
 124:Generated_Source\PSoC5/Millis_PM.c ****         }
 125:Generated_Source\PSoC5/Millis_PM.c ****     #endif /* (!Millis_ControlRegRemoved) */
 126:Generated_Source\PSoC5/Millis_PM.c ****     
 127:Generated_Source\PSoC5/Millis_PM.c ****     Millis_Stop();
  94              		.loc 1 127 0
  95 0008 FFF7FEFF 		bl	Millis_Stop
  96              	.LVL2:
 128:Generated_Source\PSoC5/Millis_PM.c ****     Millis_SaveConfig();
 129:Generated_Source\PSoC5/Millis_PM.c **** }
  97              		.loc 1 129 0
  98 000c BDE80840 		pop	{r3, lr}
  99              		.cfi_restore 14
ARM GAS  C:\Users\Kiwi\AppData\Local\Temp\cc1YKakf.s 			page 5


 100              		.cfi_restore 3
 101              		.cfi_def_cfa_offset 0
 128:Generated_Source\PSoC5/Millis_PM.c ****     Millis_SaveConfig();
 102              		.loc 1 128 0
 103 0010 FFF7FEBF 		b	Millis_SaveConfig
 104              	.LVL3:
 105              	.L9:
 106              		.align	2
 107              	.L8:
 108 0014 00000000 		.word	.LANCHOR0
 109              		.cfi_endproc
 110              	.LFE2:
 111              		.size	Millis_Sleep, .-Millis_Sleep
 112              		.section	.text.Millis_Wakeup,"ax",%progbits
 113              		.align	1
 114              		.global	Millis_Wakeup
 115              		.thumb
 116              		.thumb_func
 117              		.type	Millis_Wakeup, %function
 118              	Millis_Wakeup:
 119              	.LFB3:
 130:Generated_Source\PSoC5/Millis_PM.c **** 
 131:Generated_Source\PSoC5/Millis_PM.c **** 
 132:Generated_Source\PSoC5/Millis_PM.c **** /*******************************************************************************
 133:Generated_Source\PSoC5/Millis_PM.c **** * Function Name: Millis_Wakeup
 134:Generated_Source\PSoC5/Millis_PM.c **** ********************************************************************************
 135:Generated_Source\PSoC5/Millis_PM.c **** *
 136:Generated_Source\PSoC5/Millis_PM.c **** * Summary:
 137:Generated_Source\PSoC5/Millis_PM.c **** *  Restores and enables the user configuration
 138:Generated_Source\PSoC5/Millis_PM.c **** *  
 139:Generated_Source\PSoC5/Millis_PM.c **** * Parameters:  
 140:Generated_Source\PSoC5/Millis_PM.c **** *  void
 141:Generated_Source\PSoC5/Millis_PM.c **** *
 142:Generated_Source\PSoC5/Millis_PM.c **** * Return: 
 143:Generated_Source\PSoC5/Millis_PM.c **** *  void
 144:Generated_Source\PSoC5/Millis_PM.c **** *
 145:Generated_Source\PSoC5/Millis_PM.c **** * Global variables:
 146:Generated_Source\PSoC5/Millis_PM.c **** *  Millis_backup.enableState:  Is used to restore the enable state of 
 147:Generated_Source\PSoC5/Millis_PM.c **** *  block on wakeup from sleep mode.
 148:Generated_Source\PSoC5/Millis_PM.c **** *
 149:Generated_Source\PSoC5/Millis_PM.c **** *******************************************************************************/
 150:Generated_Source\PSoC5/Millis_PM.c **** void Millis_Wakeup(void) 
 151:Generated_Source\PSoC5/Millis_PM.c **** {
 120              		.loc 1 151 0
 121              		.cfi_startproc
 122              		@ args = 0, pretend = 0, frame = 0
 123              		@ frame_needed = 0, uses_anonymous_args = 0
 124              		@ link register save eliminated.
 152:Generated_Source\PSoC5/Millis_PM.c ****     Millis_RestoreConfig();
 125              		.loc 1 152 0
 126 0000 FFF7FEBF 		b	Millis_RestoreConfig
 127              	.LVL4:
 128              		.cfi_endproc
 129              	.LFE3:
 130              		.size	Millis_Wakeup, .-Millis_Wakeup
 131              		.bss
 132              		.align	2
ARM GAS  C:\Users\Kiwi\AppData\Local\Temp\cc1YKakf.s 			page 6


 133              		.set	.LANCHOR0,. + 0
 134              		.type	Millis_backup, %object
 135              		.size	Millis_backup, 8
 136              	Millis_backup:
 137 0000 00000000 		.space	8
 137      00000000 
 138              		.text
 139              	.Letext0:
 140              		.file 2 "Generated_Source\\PSoC5\\cytypes.h"
 141              		.file 3 "Generated_Source\\PSoC5\\Millis.h"