ARM GAS  C:\Users\Kiwi\AppData\Local\Temp\ccKDkYuk.s 			page 1


   1              		.syntax unified
   2              		.cpu cortex-m3
   3              		.fpu softvfp
   4              		.eabi_attribute 20, 1
   5              		.eabi_attribute 21, 1
   6              		.eabi_attribute 23, 3
   7              		.eabi_attribute 24, 1
   8              		.eabi_attribute 25, 1
   9              		.eabi_attribute 26, 1
  10              		.eabi_attribute 30, 4
  11              		.eabi_attribute 34, 1
  12              		.eabi_attribute 18, 4
  13              		.thumb
  14              		.syntax unified
  15              		.file	"ssd1306.c"
  16              		.text
  17              	.Ltext0:
  18              		.cfi_sections	.debug_frame
  19              		.section	.text.display_write_buf,"ax",%progbits
  20              		.align	1
  21              		.thumb
  22              		.thumb_func
  23              		.type	display_write_buf, %function
  24              	display_write_buf:
  25              	.LFB64:
  26              		.file 1 "ssd1306.c"
   1:ssd1306.c     **** /*
   2:ssd1306.c     **** 
   3:ssd1306.c     **** SSD1306 OLED - I2C driver
   4:ssd1306.c     **** 
   5:ssd1306.c     **** Derk Steggewentz, 3/2015 
   6:ssd1306.c     **** 
   7:ssd1306.c     **** This is a I2C driver for SSD1306 OLED displays including graphics library.
   8:ssd1306.c     **** 
   9:ssd1306.c     **** 
  10:ssd1306.c     **** The graphics library part (gfx_ functions) is based on the Adafruit graphics library.
  11:ssd1306.c     **** 
  12:ssd1306.c     **** 
  13:ssd1306.c     **** No license restrictions on my part, do whatever you want as long as you follow the inherited
  14:ssd1306.c     **** license requirements (applying to the Adafruit graphics library part).
  15:ssd1306.c     **** 
  16:ssd1306.c     **** 
  17:ssd1306.c     **** ===== derived license (for graphics library) ======
  18:ssd1306.c     **** 
  19:ssd1306.c     **** Copyright (c) 2013 Adafruit Industries. All rights reserved.
  20:ssd1306.c     **** 
  21:ssd1306.c     **** Redistribution and use in source and binary forms, with or without
  22:ssd1306.c     **** modification, are permitted provided that the following conditions are met:
  23:ssd1306.c     **** - Redistributions of source code must retain the above copyright notice,
  24:ssd1306.c     **** this list of conditions and the following disclaimer.
  25:ssd1306.c     **** - Redistributions in binary form must reproduce the above copyright notice,
  26:ssd1306.c     **** this list of conditions and the following disclaimer in the documentation
  27:ssd1306.c     **** and/or other materials provided with the distribution.
  28:ssd1306.c     **** THIS SOFTWARE IS PROVIDED BY THE COPYRIGHT HOLDERS AND CONTRIBUTORS "AS IS"
  29:ssd1306.c     **** AND ANY EXPRESS OR IMPLIED WARRANTIES, INCLUDING, BUT NOT LIMITED TO, THE
  30:ssd1306.c     **** IMPLIED WARRANTIES OF MERCHANTABILITY AND FITNESS FOR A PARTICULAR PURPOSE
  31:ssd1306.c     **** ARE DISCLAIMED. IN NO EVENT SHALL THE COPYRIGHT HOLDER OR CONTRIBUTORS BE
ARM GAS  C:\Users\Kiwi\AppData\Local\Temp\ccKDkYuk.s 			page 2


  32:ssd1306.c     **** LIABLE FOR ANY DIRECT, INDIRECT, INCIDENTAL, SPECIAL, EXEMPLARY, OR
  33:ssd1306.c     **** CONSEQUENTIAL DAMAGES (INCLUDING, BUT NOT LIMITED TO, PROCUREMENT OF
  34:ssd1306.c     **** SUBSTITUTE GOODS OR SERVICES; LOSS OF USE, DATA, OR PROFITS; OR BUSINESS
  35:ssd1306.c     **** INTERRUPTION) HOWEVER CAUSED AND ON ANY THEORY OF LIABILITY, WHETHER IN
  36:ssd1306.c     **** CONTRACT, STRICT LIABILITY, OR TORT (INCLUDING NEGLIGENCE OR OTHERWISE)
  37:ssd1306.c     **** ARISING IN ANY WAY OUT OF THE USE OF THIS SOFTWARE, EVEN IF ADVISED OF THE
  38:ssd1306.c     **** POSSIBILITY OF SUCH DAMAGE.
  39:ssd1306.c     **** 
  40:ssd1306.c     **** */
  41:ssd1306.c     **** 
  42:ssd1306.c     **** 
  43:ssd1306.c     **** #include <project.h>
  44:ssd1306.c     **** #include <stdlib.h>
  45:ssd1306.c     **** 
  46:ssd1306.c     **** #include "font.h"
  47:ssd1306.c     **** #include "ssd1306.h"
  48:ssd1306.c     **** 
  49:ssd1306.c     **** 
  50:ssd1306.c     **** #define DISPLAYWIDTH 128
  51:ssd1306.c     **** #define DISPLAYHEIGHT 64
  52:ssd1306.c     ****     
  53:ssd1306.c     **** #define SSD1306_SETCONTRAST 0x81
  54:ssd1306.c     **** #define SSD1306_DISPLAYALLON_RESUME 0xA4
  55:ssd1306.c     **** #define SSD1306_DISPLAYALLON 0xA5
  56:ssd1306.c     **** #define SSD1306_NORMALDISPLAY 0xA6
  57:ssd1306.c     **** #define SSD1306_INVERTDISPLAY 0xA7
  58:ssd1306.c     **** #define SSD1306_DISPLAYOFF 0xAE
  59:ssd1306.c     **** #define SSD1306_DISPLAYON 0xAF
  60:ssd1306.c     **** #define SSD1306_SETDISPLAYOFFSET 0xD3
  61:ssd1306.c     **** #define SSD1306_SETCOMPINS 0xDA
  62:ssd1306.c     **** #define SSD1306_SETVCOMDETECT 0xDB
  63:ssd1306.c     **** #define SSD1306_SETDISPLAYCLOCKDIV 0xD5
  64:ssd1306.c     **** #define SSD1306_SETPRECHARGE 0xD9
  65:ssd1306.c     **** #define SSD1306_SETMULTIPLEX 0xA8
  66:ssd1306.c     **** #define SSD1306_SETLOWCOLUMN 0x00
  67:ssd1306.c     **** #define SSD1306_SETHIGHCOLUMN 0x10
  68:ssd1306.c     **** #define SSD1306_SETSTARTLINE 0x40
  69:ssd1306.c     **** #define SSD1306_MEMORYMODE 0x20
  70:ssd1306.c     **** #define SSD1306_COLUMNADDR 0x21
  71:ssd1306.c     **** #define SSD1306_PAGEADDR 0x22
  72:ssd1306.c     **** #define SSD1306_COMSCANINC 0xC0
  73:ssd1306.c     **** #define SSD1306_COMSCANDEC 0xC8
  74:ssd1306.c     **** #define SSD1306_SEGREMAP 0xA0
  75:ssd1306.c     **** #define SSD1306_CHARGEPUMP 0x8D
  76:ssd1306.c     **** #define SSD1306_EXTERNALVCC 0x1
  77:ssd1306.c     **** #define SSD1306_SWITCHCAPVCC 0x2
  78:ssd1306.c     **** #define SSD1306_ACTIVATE_SCROLL 0x2F
  79:ssd1306.c     **** #define SSD1306_DEACTIVATE_SCROLL 0x2E
  80:ssd1306.c     **** 
  81:ssd1306.c     **** 
  82:ssd1306.c     **** // I2C result status
  83:ssd1306.c     **** #define TRANSFER_CMPLT    (0x00u)
  84:ssd1306.c     **** #define TRANSFER_ERROR    (0xFFu)
  85:ssd1306.c     **** 
  86:ssd1306.c     **** 
  87:ssd1306.c     **** static uint32 display_write_buf( uint8* buf, uint16_t size );
  88:ssd1306.c     **** 
ARM GAS  C:\Users\Kiwi\AppData\Local\Temp\ccKDkYuk.s 			page 3


  89:ssd1306.c     **** void gfx_init( int16_t width, int16_t height );
  90:ssd1306.c     **** 
  91:ssd1306.c     **** static uint8 _i2caddr;
  92:ssd1306.c     **** 
  93:ssd1306.c     **** // display memory buffer ( === MUST INCLUDE === the preceding I2C 0x40 control byte for the display
  94:ssd1306.c     **** static uint8_t SSD1306_buffer[DISPLAYHEIGHT * DISPLAYWIDTH / 8 + 1] = { 0x40 };
  95:ssd1306.c     **** // pointer to actual display memory buffer
  96:ssd1306.c     **** static uint8_t* _displaybuf = SSD1306_buffer+1;
  97:ssd1306.c     **** static uint16_t _displaybuf_size = sizeof(SSD1306_buffer) - 1;
  98:ssd1306.c     **** 
  99:ssd1306.c     **** // see data sheet page 25 for Graphic Display Data RAM organization
 100:ssd1306.c     **** // 8 pages, each page a row of DISPLAYWIDTH bytes
 101:ssd1306.c     **** // start address of of row: y/8*DISPLAYWIDTH
 102:ssd1306.c     **** // x pos in row: == x 
 103:ssd1306.c     **** #define GDDRAM_ADDRESS(X,Y) ((_displaybuf)+((Y)/8)*(DISPLAYWIDTH)+(X))
 104:ssd1306.c     **** 
 105:ssd1306.c     **** // lower 3 bit of y determine vertical pixel position (pos 0...7) in GDDRAM byte
 106:ssd1306.c     **** // (y&0x07) == position of pixel on row (page). LSB is top, MSB bottom
 107:ssd1306.c     **** #define GDDRAM_PIXMASK(Y) (1 << ((Y)&0x07))
 108:ssd1306.c     **** 
 109:ssd1306.c     **** #define PIXEL_ON(X,Y) (*GDDRAM_ADDRESS(x,y) |= GDDRAM_PIXMASK(y))
 110:ssd1306.c     **** #define PIXEL_OFF(X,Y) (*GDDRAM_ADDRESS(x,y) &= ~GDDRAM_PIXMASK(y))
 111:ssd1306.c     **** #define PIXEL_TOGGLE(X,Y) (*GDDRAM_ADDRESS(x,y) ^= GDDRAM_PIXMASK(y)) 
 112:ssd1306.c     **** 
 113:ssd1306.c     **** 
 114:ssd1306.c     **** 
 115:ssd1306.c     **** // call before first use of other functions
 116:ssd1306.c     **** void display_init( uint8 i2caddr ){
 117:ssd1306.c     ****     
 118:ssd1306.c     ****     _i2caddr = i2caddr;
 119:ssd1306.c     ****     gfx_init( DISPLAYWIDTH, DISPLAYHEIGHT );
 120:ssd1306.c     ****     
 121:ssd1306.c     ****     uint8 cmdbuf[] = {
 122:ssd1306.c     ****         0x00,
 123:ssd1306.c     ****         SSD1306_DISPLAYOFF,
 124:ssd1306.c     ****         SSD1306_SETDISPLAYCLOCKDIV,
 125:ssd1306.c     ****         0x80,
 126:ssd1306.c     ****         SSD1306_SETMULTIPLEX,
 127:ssd1306.c     ****         0x3f,
 128:ssd1306.c     ****         SSD1306_SETDISPLAYOFFSET,
 129:ssd1306.c     ****         0x00,
 130:ssd1306.c     ****         SSD1306_SETSTARTLINE | 0x0,
 131:ssd1306.c     ****         SSD1306_CHARGEPUMP,
 132:ssd1306.c     ****         0x14,
 133:ssd1306.c     ****         SSD1306_MEMORYMODE,
 134:ssd1306.c     ****         0x00,
 135:ssd1306.c     ****         SSD1306_SEGREMAP | 0x1,
 136:ssd1306.c     ****         SSD1306_COMSCANDEC,
 137:ssd1306.c     ****         SSD1306_SETCOMPINS,
 138:ssd1306.c     ****         0x12,
 139:ssd1306.c     ****         SSD1306_SETCONTRAST,
 140:ssd1306.c     ****         0xcf,
 141:ssd1306.c     ****         SSD1306_SETPRECHARGE,
 142:ssd1306.c     ****         0xf1,
 143:ssd1306.c     ****         SSD1306_SETVCOMDETECT,
 144:ssd1306.c     ****         0x40,
 145:ssd1306.c     ****         SSD1306_DISPLAYALLON_RESUME,
ARM GAS  C:\Users\Kiwi\AppData\Local\Temp\ccKDkYuk.s 			page 4


 146:ssd1306.c     ****         SSD1306_NORMALDISPLAY,
 147:ssd1306.c     ****         SSD1306_DISPLAYON
 148:ssd1306.c     ****     };
 149:ssd1306.c     ****     
 150:ssd1306.c     ****     display_write_buf( cmdbuf, sizeof(cmdbuf) ); 
 151:ssd1306.c     **** }
 152:ssd1306.c     **** 
 153:ssd1306.c     **** 
 154:ssd1306.c     **** // for submitting command sequences:
 155:ssd1306.c     **** //  buf[0] must be 0x00
 156:ssd1306.c     **** // for submitting bulk data (writing to display RAM):
 157:ssd1306.c     **** //  buf[0] must be 0x40
 158:ssd1306.c     **** static uint32 display_write_buf( uint8* buf, uint16_t size ){
  27              		.loc 1 158 0
  28              		.cfi_startproc
  29              		@ args = 0, pretend = 0, frame = 0
  30              		@ frame_needed = 0, uses_anonymous_args = 0
  31              	.LVL0:
  32 0000 F8B5     		push	{r3, r4, r5, r6, r7, lr}
  33              		.cfi_def_cfa_offset 24
  34              		.cfi_offset 3, -24
  35              		.cfi_offset 4, -20
  36              		.cfi_offset 5, -16
  37              		.cfi_offset 6, -12
  38              		.cfi_offset 7, -8
  39              		.cfi_offset 14, -4
  40              		.loc 1 158 0
  41 0002 0646     		mov	r6, r0
 159:ssd1306.c     **** 
 160:ssd1306.c     ****     uint32 status = TRANSFER_ERROR;
 161:ssd1306.c     ****     I2COLED_MasterSendStart(_i2caddr,I2COLED_WRITE_XFER_MODE);
  42              		.loc 1 161 0
  43 0004 0A4B     		ldr	r3, .L6
 158:ssd1306.c     **** 
  44              		.loc 1 158 0
  45 0006 0F46     		mov	r7, r1
  46              		.loc 1 161 0
  47 0008 1878     		ldrb	r0, [r3]	@ zero_extendqisi2
  48              	.LVL1:
  49 000a 0021     		movs	r1, #0
  50              	.LVL2:
  51 000c FFF7FEFF 		bl	I2COLED_MasterSendStart
  52              	.LVL3:
  53              	.LBB5:
 162:ssd1306.c     ****     
 163:ssd1306.c     ****     for(int i=0; i<size; i++){  
  54              		.loc 1 163 0
  55 0010 3446     		mov	r4, r6
  56              	.LBE5:
 160:ssd1306.c     ****     I2COLED_MasterSendStart(_i2caddr,I2COLED_WRITE_XFER_MODE);
  57              		.loc 1 160 0
  58 0012 FF25     		movs	r5, #255
  59              	.LVL4:
  60              	.L2:
  61              	.LBB6:
  62              		.loc 1 163 0 discriminator 1
  63 0014 A31B     		subs	r3, r4, r6
ARM GAS  C:\Users\Kiwi\AppData\Local\Temp\ccKDkYuk.s 			page 5


  64 0016 9F42     		cmp	r7, r3
  65 0018 05DD     		ble	.L5
 164:ssd1306.c     ****         status=I2COLED_MasterWriteByte(buf[i]);
  66              		.loc 1 164 0 discriminator 3
  67 001a 14F8010B 		ldrb	r0, [r4], #1	@ zero_extendqisi2
  68              	.LVL5:
  69 001e FFF7FEFF 		bl	I2COLED_MasterWriteByte
  70              	.LVL6:
  71 0022 0546     		mov	r5, r0
  72              	.LVL7:
  73 0024 F6E7     		b	.L2
  74              	.LVL8:
  75              	.L5:
  76              	.LBE6:
 165:ssd1306.c     ****     }
 166:ssd1306.c     ****     I2COLED_MasterSendStop();
  77              		.loc 1 166 0
  78 0026 FFF7FEFF 		bl	I2COLED_MasterSendStop
  79              	.LVL9:
 167:ssd1306.c     ****     return status;
 168:ssd1306.c     **** }
  80              		.loc 1 168 0
  81 002a 2846     		mov	r0, r5
  82 002c F8BD     		pop	{r3, r4, r5, r6, r7, pc}
  83              	.LVL10:
  84              	.L7:
  85 002e 00BF     		.align	2
  86              	.L6:
  87 0030 00000000 		.word	.LANCHOR0
  88              		.cfi_endproc
  89              	.LFE64:
  90              		.size	display_write_buf, .-display_write_buf
  91              		.section	.text.gfx_rotation_adjust,"ax",%progbits
  92              		.align	1
  93              		.thumb
  94              		.thumb_func
  95              		.type	gfx_rotation_adjust, %function
  96              	gfx_rotation_adjust:
  97              	.LFB83:
 169:ssd1306.c     **** 
 170:ssd1306.c     **** 
 171:ssd1306.c     **** // used by gfx_ functions. Needs to be implemented by display_
 172:ssd1306.c     **** static void display_setPixel( int16_t x, int16_t y, uint16_t color ){
 173:ssd1306.c     ****     
 174:ssd1306.c     ****     if( (x < 0) || (x >= DISPLAYWIDTH) || (y < 0) || (y >= DISPLAYHEIGHT) )
 175:ssd1306.c     ****         return;
 176:ssd1306.c     **** 
 177:ssd1306.c     ****     switch( color ){
 178:ssd1306.c     ****         case WHITE: 
 179:ssd1306.c     ****             PIXEL_ON(x,y);
 180:ssd1306.c     ****             break;
 181:ssd1306.c     ****         case BLACK:
 182:ssd1306.c     ****             PIXEL_OFF(x,y);
 183:ssd1306.c     ****             break;
 184:ssd1306.c     ****         case INVERSE: 
 185:ssd1306.c     ****             PIXEL_TOGGLE(x,y);
 186:ssd1306.c     ****             break;
ARM GAS  C:\Users\Kiwi\AppData\Local\Temp\ccKDkYuk.s 			page 6


 187:ssd1306.c     ****     }
 188:ssd1306.c     **** }
 189:ssd1306.c     **** 
 190:ssd1306.c     **** 
 191:ssd1306.c     **** void display_clear(void){
 192:ssd1306.c     ****     memset( _displaybuf, 0, _displaybuf_size );
 193:ssd1306.c     ****     SSD1306_buffer[0] = 0x40; // to be sure its there
 194:ssd1306.c     **** }
 195:ssd1306.c     **** 
 196:ssd1306.c     **** 
 197:ssd1306.c     **** // contrast: 0 ...255
 198:ssd1306.c     **** void display_contrast( uint8_t contrast ){
 199:ssd1306.c     ****         
 200:ssd1306.c     ****     uint8 cmdbuf[] = {
 201:ssd1306.c     ****         0x00,  
 202:ssd1306.c     ****         SSD1306_SETCONTRAST,
 203:ssd1306.c     ****         contrast
 204:ssd1306.c     ****     };
 205:ssd1306.c     ****     display_write_buf( cmdbuf, sizeof(cmdbuf) ); 
 206:ssd1306.c     **** }
 207:ssd1306.c     **** 
 208:ssd1306.c     **** 
 209:ssd1306.c     **** // invert <> 0 for inverse display, invert == 0 for normal display
 210:ssd1306.c     **** void display_invert( uint8_t invert ){
 211:ssd1306.c     **** 
 212:ssd1306.c     ****     uint8 cmdbuf[] = {
 213:ssd1306.c     ****         0x00,  
 214:ssd1306.c     ****         0
 215:ssd1306.c     ****     };
 216:ssd1306.c     ****     cmdbuf[1] = invert ? SSD1306_INVERTDISPLAY : SSD1306_NORMALDISPLAY;
 217:ssd1306.c     ****     display_write_buf( cmdbuf, sizeof(cmdbuf) ); 
 218:ssd1306.c     **** }
 219:ssd1306.c     **** 
 220:ssd1306.c     **** 
 221:ssd1306.c     **** void display_update(void) {
 222:ssd1306.c     ****       
 223:ssd1306.c     ****     uint8 cmdbuf[] = {
 224:ssd1306.c     ****         0x00,
 225:ssd1306.c     ****         SSD1306_COLUMNADDR,
 226:ssd1306.c     ****         0,                      // start
 227:ssd1306.c     ****         DISPLAYWIDTH-1, // end
 228:ssd1306.c     ****         SSD1306_PAGEADDR,
 229:ssd1306.c     ****         0,                      // start
 230:ssd1306.c     ****         7                       // end
 231:ssd1306.c     ****     };
 232:ssd1306.c     ****     display_write_buf( cmdbuf, sizeof(cmdbuf) ); 
 233:ssd1306.c     ****     display_write_buf( SSD1306_buffer, sizeof(SSD1306_buffer) );
 234:ssd1306.c     **** }
 235:ssd1306.c     **** 
 236:ssd1306.c     **** 
 237:ssd1306.c     **** // draws horizontal or vertical line
 238:ssd1306.c     **** // Note: no check for valid coords, this needs to be done by caller
 239:ssd1306.c     **** // should only be called from gfx_hvline which is doing all validity checking
 240:ssd1306.c     **** static void display_line( int16_t x1, int16_t y1, int16_t x2, int16_t y2, uint16_t color ){
 241:ssd1306.c     **** 
 242:ssd1306.c     ****     if( x1 == x2 ){
 243:ssd1306.c     ****         // vertical
ARM GAS  C:\Users\Kiwi\AppData\Local\Temp\ccKDkYuk.s 			page 7


 244:ssd1306.c     ****         uint8_t* pstart = GDDRAM_ADDRESS(x1,y1);
 245:ssd1306.c     ****         uint8_t* pend = GDDRAM_ADDRESS(x2,y2);       
 246:ssd1306.c     ****         uint8_t* ptr = pstart;             
 247:ssd1306.c     ****         
 248:ssd1306.c     ****         while( ptr <= pend ){
 249:ssd1306.c     ****             
 250:ssd1306.c     ****             uint8_t mask;
 251:ssd1306.c     ****             if( ptr == pstart ){
 252:ssd1306.c     ****                 // top
 253:ssd1306.c     ****                 uint8_t lbit = y1 % 8;
 254:ssd1306.c     ****                 // bottom (line can be very short, all inside this one byte)
 255:ssd1306.c     ****                 uint8_t ubit = lbit + y2 - y1;
 256:ssd1306.c     ****                 if( ubit >= 7 )
 257:ssd1306.c     ****                     ubit = 7;
 258:ssd1306.c     ****                 mask = ((1 << (ubit-lbit+1)) - 1) << lbit;    
 259:ssd1306.c     ****             }else if( ptr == pend ){
 260:ssd1306.c     ****                 // top is always bit 0, that makes it easy
 261:ssd1306.c     ****                 // bottom
 262:ssd1306.c     ****                 mask = (1 << (y2 % 8)) - 1;    
 263:ssd1306.c     ****             }
 264:ssd1306.c     **** 
 265:ssd1306.c     ****             if( ptr == pstart || ptr == pend ){
 266:ssd1306.c     ****                 switch( color ){
 267:ssd1306.c     ****                     case WHITE:     *ptr |= mask; break;
 268:ssd1306.c     ****                     case BLACK:     *ptr &= ~mask; break;
 269:ssd1306.c     ****                     case INVERSE:   *ptr ^= mask; break;
 270:ssd1306.c     ****                 };  
 271:ssd1306.c     ****             }else{
 272:ssd1306.c     ****                 switch( color ){
 273:ssd1306.c     ****                     case WHITE:     *ptr = 0xff; break;
 274:ssd1306.c     ****                     case BLACK:     *ptr = 0x00; break;
 275:ssd1306.c     ****                     case INVERSE:   *ptr ^= 0xff; break;
 276:ssd1306.c     ****                 };  
 277:ssd1306.c     ****             }
 278:ssd1306.c     ****             
 279:ssd1306.c     ****             ptr += DISPLAYWIDTH;
 280:ssd1306.c     ****         }
 281:ssd1306.c     ****     }else{
 282:ssd1306.c     ****         // horizontal
 283:ssd1306.c     ****         uint8_t* pstart = GDDRAM_ADDRESS(x1,y1);
 284:ssd1306.c     ****         uint8_t* pend = pstart + x2 - x1;
 285:ssd1306.c     ****         uint8_t pixmask = GDDRAM_PIXMASK(y1);    
 286:ssd1306.c     **** 
 287:ssd1306.c     ****         uint8_t* ptr = pstart;
 288:ssd1306.c     ****         while( ptr <= pend ){
 289:ssd1306.c     ****             switch( color ){
 290:ssd1306.c     ****                 case WHITE:     *ptr |= pixmask; break;
 291:ssd1306.c     ****                 case BLACK:     *ptr &= ~pixmask; break;
 292:ssd1306.c     ****                 case INVERSE:   *ptr ^= pixmask; break;
 293:ssd1306.c     ****             };
 294:ssd1306.c     ****             ptr++;
 295:ssd1306.c     ****         }
 296:ssd1306.c     ****     }
 297:ssd1306.c     **** }
 298:ssd1306.c     **** 
 299:ssd1306.c     **** 
 300:ssd1306.c     **** 
ARM GAS  C:\Users\Kiwi\AppData\Local\Temp\ccKDkYuk.s 			page 8


 301:ssd1306.c     **** void display_stopscroll(void){
 302:ssd1306.c     **** 
 303:ssd1306.c     ****     uint8 cmdbuf[] = {
 304:ssd1306.c     ****         0x00,
 305:ssd1306.c     ****         SSD1306_DEACTIVATE_SCROLL
 306:ssd1306.c     ****     };
 307:ssd1306.c     ****     display_write_buf( cmdbuf, sizeof(cmdbuf) ); 
 308:ssd1306.c     **** }
 309:ssd1306.c     **** 
 310:ssd1306.c     **** void display_scroll( SCROLL_AREA start, SCROLL_AREA end, SCROLL_DIR dir, SCROLL_SPEED speed ){
 311:ssd1306.c     ****    
 312:ssd1306.c     ****     uint8 cmdbuf[] = {
 313:ssd1306.c     ****         0x00,
 314:ssd1306.c     ****         dir,                    // 0x26 or 0x2a
 315:ssd1306.c     ****         0x00,                   // dummy byte
 316:ssd1306.c     ****         start,                  // start page
 317:ssd1306.c     ****         speed,                  // scroll step interval in terms of frame frequency 
 318:ssd1306.c     ****         end,                    // end page
 319:ssd1306.c     ****         0x00,                   // dummy byte
 320:ssd1306.c     ****         0xFF,                   // dummy byte
 321:ssd1306.c     ****         SSD1306_ACTIVATE_SCROLL // 0x2F
 322:ssd1306.c     ****     };
 323:ssd1306.c     ****     display_write_buf( cmdbuf, sizeof(cmdbuf) ); 
 324:ssd1306.c     **** }
 325:ssd1306.c     **** 
 326:ssd1306.c     **** 
 327:ssd1306.c     **** 
 328:ssd1306.c     **** // ============================================================
 329:ssd1306.c     **** // graphics library stuff
 330:ssd1306.c     **** 
 331:ssd1306.c     **** int16_t WIDTH, HEIGHT; // This is the 'raw' display w/h - never changes
 332:ssd1306.c     **** static int16_t _width, _height; // Display w/h as modified by current rotation
 333:ssd1306.c     **** static int16_t cursor_x, cursor_y;
 334:ssd1306.c     **** static uint16_t textcolor, textbgcolor;
 335:ssd1306.c     **** static uint8_t textsize;
 336:ssd1306.c     **** uint8_t rotation;
 337:ssd1306.c     **** uint8_t wrap; // If set, 'wrap' text at right edge of display
 338:ssd1306.c     **** 
 339:ssd1306.c     **** 
 340:ssd1306.c     **** 
 341:ssd1306.c     **** void gfx_init( int16_t width, int16_t height ){
 342:ssd1306.c     ****     WIDTH = width;
 343:ssd1306.c     ****     HEIGHT = height;
 344:ssd1306.c     ****     _width = WIDTH;
 345:ssd1306.c     ****     _height = HEIGHT;
 346:ssd1306.c     ****     
 347:ssd1306.c     ****     rotation = 0;
 348:ssd1306.c     ****     cursor_y = cursor_x = 0;
 349:ssd1306.c     ****     textsize = 1;
 350:ssd1306.c     ****     textcolor = textbgcolor = 0xFFFF;
 351:ssd1306.c     ****     wrap = 1;
 352:ssd1306.c     **** }
 353:ssd1306.c     **** 
 354:ssd1306.c     **** // Return the size of the display (per current rotation)
 355:ssd1306.c     **** int16_t gfx_width(void){
 356:ssd1306.c     ****     return _width;
 357:ssd1306.c     **** }
ARM GAS  C:\Users\Kiwi\AppData\Local\Temp\ccKDkYuk.s 			page 9


 358:ssd1306.c     **** 
 359:ssd1306.c     **** int16_t gfx_height(void){
 360:ssd1306.c     ****     return _height;
 361:ssd1306.c     **** }
 362:ssd1306.c     **** 
 363:ssd1306.c     **** uint8_t gfx_rotation(void){
 364:ssd1306.c     ****     return rotation;
 365:ssd1306.c     **** }
 366:ssd1306.c     **** 
 367:ssd1306.c     **** void gfx_setCursor( int16_t x, int16_t y ){
 368:ssd1306.c     ****     cursor_x = x;
 369:ssd1306.c     ****     cursor_y = y;
 370:ssd1306.c     **** }
 371:ssd1306.c     **** 
 372:ssd1306.c     **** void gfx_setTextSize( uint8_t size ){
 373:ssd1306.c     ****     textsize = (size > 0) ? size : 1;
 374:ssd1306.c     **** }
 375:ssd1306.c     **** 
 376:ssd1306.c     **** void gfx_setTextColor( uint16_t color ){
 377:ssd1306.c     ****     // For 'transparent' background, we'll set the bg
 378:ssd1306.c     ****     // to the same as fg instead of using a flag
 379:ssd1306.c     ****     textcolor = textbgcolor = color;
 380:ssd1306.c     **** }
 381:ssd1306.c     **** 
 382:ssd1306.c     **** void gfx_setTextBg( uint16_t color ){
 383:ssd1306.c     ****     textbgcolor = color;
 384:ssd1306.c     **** }
 385:ssd1306.c     **** 
 386:ssd1306.c     **** void gfx_setTextWrap( uint8 w ){
 387:ssd1306.c     ****     wrap = w;
 388:ssd1306.c     **** }
 389:ssd1306.c     **** 
 390:ssd1306.c     **** void gfx_setRotation( uint8_t x ){
 391:ssd1306.c     ****     
 392:ssd1306.c     ****     rotation = (x & 3);
 393:ssd1306.c     ****     switch( rotation ){
 394:ssd1306.c     ****         case 0:
 395:ssd1306.c     ****         case 2:
 396:ssd1306.c     ****             _width = WIDTH;
 397:ssd1306.c     ****             _height = HEIGHT;
 398:ssd1306.c     ****             break;
 399:ssd1306.c     ****         case 1:
 400:ssd1306.c     ****         case 3:
 401:ssd1306.c     ****             _width = HEIGHT;
 402:ssd1306.c     ****             _height = WIDTH;
 403:ssd1306.c     ****         break;
 404:ssd1306.c     ****     }
 405:ssd1306.c     **** }
 406:ssd1306.c     **** 
 407:ssd1306.c     **** static void gfx_rotation_adjust( int16_t* px, int16_t* py ){
  98              		.loc 1 407 0
  99              		.cfi_startproc
 100              		@ args = 0, pretend = 0, frame = 0
 101              		@ frame_needed = 0, uses_anonymous_args = 0
 102              	.LVL11:
 103 0000 10B5     		push	{r4, lr}
 104              		.cfi_def_cfa_offset 8
ARM GAS  C:\Users\Kiwi\AppData\Local\Temp\ccKDkYuk.s 			page 10


 105              		.cfi_offset 4, -8
 106              		.cfi_offset 14, -4
 408:ssd1306.c     **** 
 409:ssd1306.c     ****     int16_t y0 = *py;
 410:ssd1306.c     ****     
 411:ssd1306.c     ****     switch( rotation ){
 107              		.loc 1 411 0
 108 0002 144B     		ldr	r3, .L13
 409:ssd1306.c     ****     
 109              		.loc 1 409 0
 110 0004 B1F90040 		ldrsh	r4, [r1]
 111              	.LVL12:
 112              		.loc 1 411 0
 113 0008 1A78     		ldrb	r2, [r3]	@ zero_extendqisi2
 114 000a 022A     		cmp	r2, #2
 115 000c 0CD0     		beq	.L10
 116 000e 032A     		cmp	r2, #3
 117 0010 17D0     		beq	.L11
 118 0012 012A     		cmp	r2, #1
 119 0014 1CD1     		bne	.L8
 412:ssd1306.c     ****         case 1:
 413:ssd1306.c     ****             *py = *px;
 120              		.loc 1 413 0
 121 0016 B0F90030 		ldrsh	r3, [r0]
 122 001a 0B80     		strh	r3, [r1]	@ movhi
 414:ssd1306.c     ****             *px = WIDTH - y0 - 1;
 123              		.loc 1 414 0
 124 001c 0E4B     		ldr	r3, .L13+4
 125 001e 1B88     		ldrh	r3, [r3]
 126 0020 013B     		subs	r3, r3, #1
 127 0022 1B1B     		subs	r3, r3, r4
 128 0024 0380     		strh	r3, [r0]	@ movhi
 415:ssd1306.c     ****             break;
 129              		.loc 1 415 0
 130 0026 10BD     		pop	{r4, pc}
 131              	.LVL13:
 132              	.L10:
 133              	.LBB9:
 134              	.LBB10:
 416:ssd1306.c     ****         case 2:
 417:ssd1306.c     ****             *px = WIDTH - *px - 1;
 135              		.loc 1 417 0
 136 0028 0B4B     		ldr	r3, .L13+4
 137 002a 0288     		ldrh	r2, [r0]
 138 002c 1B88     		ldrh	r3, [r3]
 139 002e 013B     		subs	r3, r3, #1
 140 0030 9B1A     		subs	r3, r3, r2
 141 0032 0380     		strh	r3, [r0]	@ movhi
 418:ssd1306.c     ****             *py = HEIGHT - *py - 1;
 142              		.loc 1 418 0
 143 0034 094B     		ldr	r3, .L13+8
 144 0036 0A88     		ldrh	r2, [r1]
 145 0038 1B88     		ldrh	r3, [r3]
 146 003a 013B     		subs	r3, r3, #1
 147 003c 9B1A     		subs	r3, r3, r2
 148 003e 0B80     		strh	r3, [r1]	@ movhi
 149 0040 10BD     		pop	{r4, pc}
ARM GAS  C:\Users\Kiwi\AppData\Local\Temp\ccKDkYuk.s 			page 11


 150              	.LVL14:
 151              	.L11:
 152              	.LBE10:
 153              	.LBE9:
 419:ssd1306.c     ****             break;
 420:ssd1306.c     ****         case 3:
 421:ssd1306.c     ****             *py = HEIGHT - *px - 1;
 154              		.loc 1 421 0
 155 0042 064B     		ldr	r3, .L13+8
 156 0044 0288     		ldrh	r2, [r0]
 157 0046 1B88     		ldrh	r3, [r3]
 158 0048 013B     		subs	r3, r3, #1
 159 004a 9B1A     		subs	r3, r3, r2
 160 004c 0B80     		strh	r3, [r1]	@ movhi
 422:ssd1306.c     ****             *px = y0;
 161              		.loc 1 422 0
 162 004e 0480     		strh	r4, [r0]	@ movhi
 163              	.L8:
 164 0050 10BD     		pop	{r4, pc}
 165              	.LVL15:
 166              	.L14:
 167 0052 00BF     		.align	2
 168              	.L13:
 169 0054 00000000 		.word	rotation
 170 0058 00000000 		.word	WIDTH
 171 005c 00000000 		.word	HEIGHT
 172              		.cfi_endproc
 173              	.LFE83:
 174              		.size	gfx_rotation_adjust, .-gfx_rotation_adjust
 175              		.section	.text.gfx_write.part.3,"ax",%progbits
 176              		.align	1
 177              		.thumb
 178              		.thumb_func
 179              		.type	gfx_write.part.3, %function
 180              	gfx_write.part.3:
 181              	.LFB98:
 423:ssd1306.c     ****             break;
 424:ssd1306.c     ****     }
 425:ssd1306.c     **** }
 426:ssd1306.c     **** 
 427:ssd1306.c     **** void gfx_drawPixel( int16_t x, int16_t y, uint16_t color ){
 428:ssd1306.c     ****     
 429:ssd1306.c     ****     if( (x < 0) || (x >= _width) || (y < 0) || (y >= _height) )
 430:ssd1306.c     ****         return;
 431:ssd1306.c     ****     
 432:ssd1306.c     ****     gfx_rotation_adjust( &x, &y );
 433:ssd1306.c     **** 
 434:ssd1306.c     ****     display_setPixel(x,y,color);
 435:ssd1306.c     **** }
 436:ssd1306.c     **** 
 437:ssd1306.c     **** // helper function for gfx_drawLine, handles special cases of horizontal and vertical lines
 438:ssd1306.c     **** static void gfx_hvLine( int16_t x1, int16_t y1, int16_t x2, int16_t y2, uint16_t color ){
 439:ssd1306.c     ****     
 440:ssd1306.c     ****     if( x1 != x2 && y1 != y2 ){
 441:ssd1306.c     ****         // neither vertical nor horizontal
 442:ssd1306.c     ****         return;
 443:ssd1306.c     ****     }    
ARM GAS  C:\Users\Kiwi\AppData\Local\Temp\ccKDkYuk.s 			page 12


 444:ssd1306.c     ****     
 445:ssd1306.c     ****     // bounds check
 446:ssd1306.c     ****     if( rotation == 1 || rotation == 3 ){
 447:ssd1306.c     ****         if( x1 < 0 || x1 >= HEIGHT || x2 < 0 || x2 >= HEIGHT )
 448:ssd1306.c     ****             return;
 449:ssd1306.c     ****         if( y1 < 0 || y1 >= WIDTH || y2 < 0 || y2 >= WIDTH )
 450:ssd1306.c     ****             return;
 451:ssd1306.c     ****     }else{
 452:ssd1306.c     ****         if( y1 < 0 || y1 >= HEIGHT || y2 < 0 || y2 >= HEIGHT )
 453:ssd1306.c     ****             return;
 454:ssd1306.c     ****         if( x1 < 0 || x1 >= WIDTH || x2 < 0 || x2 >= WIDTH )
 455:ssd1306.c     ****             return;
 456:ssd1306.c     ****     }
 457:ssd1306.c     ****     
 458:ssd1306.c     ****     gfx_rotation_adjust( &x1, &y1 );
 459:ssd1306.c     ****     gfx_rotation_adjust( &x2, &y2 );
 460:ssd1306.c     ****     
 461:ssd1306.c     ****     // ensure coords are from left to right and top to bottom
 462:ssd1306.c     ****     if( (x1 == x2 && y2 < y1) || (y1 == y2 && x2 < x1) ){
 463:ssd1306.c     ****         // swap as needed
 464:ssd1306.c     ****         int16_t t = x1; x1 = x2; x2 = t;
 465:ssd1306.c     ****         t = y1; y1 = y2; y2 = t;
 466:ssd1306.c     ****     }
 467:ssd1306.c     ****     
 468:ssd1306.c     ****     display_line( x1, y1, x2, y2, color );
 469:ssd1306.c     **** }
 470:ssd1306.c     **** 
 471:ssd1306.c     **** // always use this function for line drawing
 472:ssd1306.c     **** void gfx_drawLine( int16_t x0, int16_t y0, int16_t x1, int16_t y1, uint16_t color ){
 473:ssd1306.c     ****  
 474:ssd1306.c     ****     if( x0 == x1 || y0 == y1 ){
 475:ssd1306.c     ****         // vertical and horizontal lines can be drawn faster
 476:ssd1306.c     ****         gfx_hvLine( x0, y0, x1, y1, color );
 477:ssd1306.c     ****         return;
 478:ssd1306.c     ****     }
 479:ssd1306.c     ****     
 480:ssd1306.c     ****     int16_t t;
 481:ssd1306.c     ****     
 482:ssd1306.c     ****     int16_t steep = abs(y1 - y0) > abs(x1 - x0);
 483:ssd1306.c     ****     if( steep ){
 484:ssd1306.c     ****         t = x0; x0 = y0; y0 = t;
 485:ssd1306.c     ****         t = x1; x1 = y1; y1 = t;
 486:ssd1306.c     ****     }
 487:ssd1306.c     ****     if( x0 > x1 ){
 488:ssd1306.c     ****         t = x0; x0 = x1; x1 = t;
 489:ssd1306.c     ****         t = y0; y0 = y1; y1 = t;
 490:ssd1306.c     ****     }
 491:ssd1306.c     ****     int16_t dx, dy;
 492:ssd1306.c     ****     dx = x1 - x0;
 493:ssd1306.c     ****     dy = abs(y1 - y0);
 494:ssd1306.c     ****     int16_t err = dx / 2;
 495:ssd1306.c     ****     int16_t ystep;
 496:ssd1306.c     ****     if( y0 < y1 ){
 497:ssd1306.c     ****         ystep = 1;
 498:ssd1306.c     ****     }else{
 499:ssd1306.c     ****         ystep = -1;
 500:ssd1306.c     ****     }
ARM GAS  C:\Users\Kiwi\AppData\Local\Temp\ccKDkYuk.s 			page 13


 501:ssd1306.c     ****     for( ; x0<=x1; x0++ ){
 502:ssd1306.c     ****         if( steep ){
 503:ssd1306.c     ****             gfx_drawPixel( y0, x0, color );
 504:ssd1306.c     ****         }else{
 505:ssd1306.c     ****             gfx_drawPixel( x0, y0, color );
 506:ssd1306.c     ****         }
 507:ssd1306.c     ****         err -= dy;
 508:ssd1306.c     ****         if( err < 0 ){
 509:ssd1306.c     ****             y0 += ystep;
 510:ssd1306.c     ****             err += dx;
 511:ssd1306.c     ****         }
 512:ssd1306.c     ****     }
 513:ssd1306.c     **** }
 514:ssd1306.c     **** 
 515:ssd1306.c     **** void gfx_drawRect( int16_t x, int16_t y, int16_t w, int16_t h, uint16_t color ){
 516:ssd1306.c     ****     
 517:ssd1306.c     ****     gfx_drawLine( x, y, x+w-1, y, color );
 518:ssd1306.c     ****     gfx_drawLine( x, y+h-1, x+w-1, y+h-1, color );
 519:ssd1306.c     ****     gfx_drawLine( x, y, x, y+h-1, color );
 520:ssd1306.c     ****     gfx_drawLine( x+w-1, y, x+w-1, y+h-1, color );
 521:ssd1306.c     **** }
 522:ssd1306.c     **** 
 523:ssd1306.c     **** void gfx_fillRect( int16_t x, int16_t y, int16_t w, int16_t h, uint16_t color ){
 524:ssd1306.c     ****     int16_t i = 0;
 525:ssd1306.c     ****     if( h > w ){
 526:ssd1306.c     ****         for( i = x ; i < x+w ; i++ ){
 527:ssd1306.c     ****             gfx_drawLine( i, y, i, y+h-1, color );
 528:ssd1306.c     ****         }
 529:ssd1306.c     ****     }else{
 530:ssd1306.c     ****         for( i = y ; i < y+h ; i++ ){
 531:ssd1306.c     ****             gfx_drawLine( x, i, x+w-1, i, color );
 532:ssd1306.c     ****         }
 533:ssd1306.c     ****     }
 534:ssd1306.c     **** }
 535:ssd1306.c     **** 
 536:ssd1306.c     **** 
 537:ssd1306.c     **** // circle outline
 538:ssd1306.c     **** void gfx_drawCircle( int16_t x0, int16_t y0, int16_t r,uint16_t color ){
 539:ssd1306.c     **** 
 540:ssd1306.c     ****     int16_t f = 1 - r;
 541:ssd1306.c     ****     int16_t ddF_x = 1;
 542:ssd1306.c     ****     int16_t ddF_y = -2 * r;
 543:ssd1306.c     ****     int16_t x = 0;
 544:ssd1306.c     ****     int16_t y = r;
 545:ssd1306.c     ****     gfx_drawPixel( x0 , y0+r, color );
 546:ssd1306.c     ****     gfx_drawPixel( x0 , y0-r, color );
 547:ssd1306.c     ****     gfx_drawPixel( x0+r, y0 , color );
 548:ssd1306.c     ****     gfx_drawPixel( x0-r, y0 , color );
 549:ssd1306.c     ****     while( x < y ){
 550:ssd1306.c     ****         if( f >= 0 ){
 551:ssd1306.c     ****             y--;
 552:ssd1306.c     ****             ddF_y += 2;
 553:ssd1306.c     ****             f += ddF_y;
 554:ssd1306.c     ****         }
 555:ssd1306.c     ****         x++;
 556:ssd1306.c     ****         ddF_x += 2;
 557:ssd1306.c     ****         f += ddF_x;
ARM GAS  C:\Users\Kiwi\AppData\Local\Temp\ccKDkYuk.s 			page 14


 558:ssd1306.c     ****         gfx_drawPixel( x0 + x, y0 + y, color );
 559:ssd1306.c     ****         gfx_drawPixel( x0 - x, y0 + y, color );
 560:ssd1306.c     ****         gfx_drawPixel( x0 + x, y0 - y, color );
 561:ssd1306.c     ****         gfx_drawPixel( x0 - x, y0 - y, color );
 562:ssd1306.c     ****         gfx_drawPixel( x0 + y, y0 + x, color );
 563:ssd1306.c     ****         gfx_drawPixel( x0 - y, y0 + x, color );
 564:ssd1306.c     ****         gfx_drawPixel( x0 + y, y0 - x, color );
 565:ssd1306.c     ****         gfx_drawPixel( x0 - y, y0 - x, color );
 566:ssd1306.c     ****     }
 567:ssd1306.c     **** }
 568:ssd1306.c     **** 
 569:ssd1306.c     **** void gfx_drawTriangle( int16_t x0, int16_t y0,int16_t x1, int16_t y1, int16_t x2, int16_t y2, uint1
 570:ssd1306.c     ****     
 571:ssd1306.c     ****     gfx_drawLine( x0, y0, x1, y1, color );
 572:ssd1306.c     ****     gfx_drawLine( x1, y1, x2, y2, color );
 573:ssd1306.c     ****     gfx_drawLine( x2, y2, x0, y0, color );
 574:ssd1306.c     **** }
 575:ssd1306.c     **** 
 576:ssd1306.c     **** 
 577:ssd1306.c     **** // Draw a character
 578:ssd1306.c     **** void gfx_drawChar( int16_t x, int16_t y, unsigned char c,uint16_t color, uint16_t bg, uint8_t size)
 579:ssd1306.c     ****     if( (x >= _width) || // Clip right
 580:ssd1306.c     ****         (y >= _height) || // Clip bottom
 581:ssd1306.c     ****         ((x + 6 * size - 1) < 0) || // Clip left
 582:ssd1306.c     ****         ((y + 8 * size - 1) < 0)) // Clip top
 583:ssd1306.c     ****         return;
 584:ssd1306.c     **** 
 585:ssd1306.c     ****     int8_t i = 0;
 586:ssd1306.c     ****     for( i = 0 ; i < 6 ; i++ ){
 587:ssd1306.c     ****         uint8_t line;
 588:ssd1306.c     ****         if( i == 5 )
 589:ssd1306.c     ****             line = 0x0;
 590:ssd1306.c     ****         else
 591:ssd1306.c     ****            line = font[(c*5)+i];
 592:ssd1306.c     ****         int8_t j = 0;
 593:ssd1306.c     ****         for( j = 0; j < 8 ; j++ ){
 594:ssd1306.c     ****             if( line & 0x1 ){
 595:ssd1306.c     ****                 if( size == 1 ) // default size
 596:ssd1306.c     ****                     gfx_drawPixel( x+i, y+j, color );
 597:ssd1306.c     ****                 else { // big size
 598:ssd1306.c     ****                     gfx_fillRect( x+(i*size), y+(j*size), size, size, color );
 599:ssd1306.c     ****                 }
 600:ssd1306.c     ****             } else if( bg != color ){
 601:ssd1306.c     ****                 if( size == 1 ) // default size
 602:ssd1306.c     ****                     gfx_drawPixel( x+i, y+j, bg );
 603:ssd1306.c     ****                 else { // big size
 604:ssd1306.c     ****                     gfx_fillRect( x+i*size, y+j*size, size, size, bg );
 605:ssd1306.c     ****                 }
 606:ssd1306.c     ****             }
 607:ssd1306.c     ****             line >>= 1;
 608:ssd1306.c     ****         }
 609:ssd1306.c     ****     }
 610:ssd1306.c     **** }
 611:ssd1306.c     **** 
 612:ssd1306.c     **** void gfx_write( uint8_t ch ){
 182              		.loc 1 612 0
 183              		.cfi_startproc
ARM GAS  C:\Users\Kiwi\AppData\Local\Temp\ccKDkYuk.s 			page 15


 184              		@ args = 0, pretend = 0, frame = 0
 185              		@ frame_needed = 0, uses_anonymous_args = 0
 186              		@ link register save eliminated.
 187              	.LVL16:
 613:ssd1306.c     ****     if( ch == '\n' ){
 614:ssd1306.c     ****         cursor_y += textsize*8;
 188              		.loc 1 614 0
 189 0000 044B     		ldr	r3, .L16
 190 0002 5A88     		ldrh	r2, [r3, #2]
 191 0004 1979     		ldrb	r1, [r3, #4]	@ zero_extendqisi2
 192 0006 02EBC102 		add	r2, r2, r1, lsl #3
 193 000a 5A80     		strh	r2, [r3, #2]	@ movhi
 615:ssd1306.c     ****         cursor_x = 0;
 194              		.loc 1 615 0
 195 000c 0022     		movs	r2, #0
 196 000e DA80     		strh	r2, [r3, #6]	@ movhi
 197 0010 7047     		bx	lr
 198              	.L17:
 199 0012 00BF     		.align	2
 200              	.L16:
 201 0014 00000000 		.word	.LANCHOR0
 202              		.cfi_endproc
 203              	.LFE98:
 204              		.size	gfx_write.part.3, .-gfx_write.part.3
 205              		.section	.text.display_clear,"ax",%progbits
 206              		.align	1
 207              		.global	display_clear
 208              		.thumb
 209              		.thumb_func
 210              		.type	display_clear, %function
 211              	display_clear:
 212              	.LFB66:
 191:ssd1306.c     ****     memset( _displaybuf, 0, _displaybuf_size );
 213              		.loc 1 191 0
 214              		.cfi_startproc
 215              		@ args = 0, pretend = 0, frame = 0
 216              		@ frame_needed = 0, uses_anonymous_args = 0
 217 0000 10B5     		push	{r4, lr}
 218              		.cfi_def_cfa_offset 8
 219              		.cfi_offset 4, -8
 220              		.cfi_offset 14, -4
 192:ssd1306.c     ****     SSD1306_buffer[0] = 0x40; // to be sure its there
 221              		.loc 1 192 0
 222 0002 054C     		ldr	r4, .L19
 223 0004 4FF48062 		mov	r2, #1024
 224 0008 0021     		movs	r1, #0
 225 000a 601C     		adds	r0, r4, #1
 226 000c FFF7FEFF 		bl	memset
 227              	.LVL17:
 193:ssd1306.c     **** }
 228              		.loc 1 193 0
 229 0010 4023     		movs	r3, #64
 230 0012 2370     		strb	r3, [r4]
 231 0014 10BD     		pop	{r4, pc}
 232              	.L20:
 233 0016 00BF     		.align	2
 234              	.L19:
ARM GAS  C:\Users\Kiwi\AppData\Local\Temp\ccKDkYuk.s 			page 16


 235 0018 00000000 		.word	.LANCHOR1
 236              		.cfi_endproc
 237              	.LFE66:
 238              		.size	display_clear, .-display_clear
 239              		.section	.text.display_contrast,"ax",%progbits
 240              		.align	1
 241              		.global	display_contrast
 242              		.thumb
 243              		.thumb_func
 244              		.type	display_contrast, %function
 245              	display_contrast:
 246              	.LFB67:
 198:ssd1306.c     ****         
 247              		.loc 1 198 0
 248              		.cfi_startproc
 249              		@ args = 0, pretend = 0, frame = 8
 250              		@ frame_needed = 0, uses_anonymous_args = 0
 251              	.LVL18:
 252 0000 07B5     		push	{r0, r1, r2, lr}
 253              		.cfi_def_cfa_offset 16
 254              		.cfi_offset 14, -4
 200:ssd1306.c     ****         0x00,  
 255              		.loc 1 200 0
 256 0002 0023     		movs	r3, #0
 257 0004 8DF80430 		strb	r3, [sp, #4]
 258 0008 8DF80600 		strb	r0, [sp, #6]
 259 000c 8123     		movs	r3, #129
 205:ssd1306.c     **** }
 260              		.loc 1 205 0
 261 000e 0321     		movs	r1, #3
 262 0010 01A8     		add	r0, sp, #4
 263              	.LVL19:
 200:ssd1306.c     ****         0x00,  
 264              		.loc 1 200 0
 265 0012 8DF80530 		strb	r3, [sp, #5]
 205:ssd1306.c     **** }
 266              		.loc 1 205 0
 267 0016 FFF7FEFF 		bl	display_write_buf
 268              	.LVL20:
 206:ssd1306.c     **** 
 269              		.loc 1 206 0
 270 001a 03B0     		add	sp, sp, #12
 271              		.cfi_def_cfa_offset 4
 272              		@ sp needed
 273 001c 5DF804FB 		ldr	pc, [sp], #4
 274              		.cfi_endproc
 275              	.LFE67:
 276              		.size	display_contrast, .-display_contrast
 277              		.section	.text.display_invert,"ax",%progbits
 278              		.align	1
 279              		.global	display_invert
 280              		.thumb
 281              		.thumb_func
 282              		.type	display_invert, %function
 283              	display_invert:
 284              	.LFB68:
 210:ssd1306.c     **** 
ARM GAS  C:\Users\Kiwi\AppData\Local\Temp\ccKDkYuk.s 			page 17


 285              		.loc 1 210 0
 286              		.cfi_startproc
 287              		@ args = 0, pretend = 0, frame = 8
 288              		@ frame_needed = 0, uses_anonymous_args = 0
 289              	.LVL21:
 290 0000 07B5     		push	{r0, r1, r2, lr}
 291              		.cfi_def_cfa_offset 16
 292              		.cfi_offset 14, -4
 212:ssd1306.c     ****         0x00,  
 293              		.loc 1 212 0
 294 0002 0023     		movs	r3, #0
 216:ssd1306.c     ****     display_write_buf( cmdbuf, sizeof(cmdbuf) ); 
 295              		.loc 1 216 0
 296 0004 9842     		cmp	r0, r3
 212:ssd1306.c     ****         0x00,  
 297              		.loc 1 212 0
 298 0006 8DF80430 		strb	r3, [sp, #4]
 217:ssd1306.c     **** }
 299              		.loc 1 217 0
 300 000a 4FF00201 		mov	r1, #2
 216:ssd1306.c     ****     display_write_buf( cmdbuf, sizeof(cmdbuf) ); 
 301              		.loc 1 216 0
 302 000e 14BF     		ite	ne
 303 0010 A723     		movne	r3, #167
 304 0012 A623     		moveq	r3, #166
 217:ssd1306.c     **** }
 305              		.loc 1 217 0
 306 0014 01A8     		add	r0, sp, #4
 307              	.LVL22:
 216:ssd1306.c     ****     display_write_buf( cmdbuf, sizeof(cmdbuf) ); 
 308              		.loc 1 216 0
 309 0016 8DF80530 		strb	r3, [sp, #5]
 217:ssd1306.c     **** }
 310              		.loc 1 217 0
 311 001a FFF7FEFF 		bl	display_write_buf
 312              	.LVL23:
 218:ssd1306.c     **** 
 313              		.loc 1 218 0
 314 001e 03B0     		add	sp, sp, #12
 315              		.cfi_def_cfa_offset 4
 316              		@ sp needed
 317 0020 5DF804FB 		ldr	pc, [sp], #4
 318              		.cfi_endproc
 319              	.LFE68:
 320              		.size	display_invert, .-display_invert
 321              		.section	.text.display_update,"ax",%progbits
 322              		.align	1
 323              		.global	display_update
 324              		.thumb
 325              		.thumb_func
 326              		.type	display_update, %function
 327              	display_update:
 328              	.LFB69:
 221:ssd1306.c     ****       
 329              		.loc 1 221 0
 330              		.cfi_startproc
 331              		@ args = 0, pretend = 0, frame = 8
ARM GAS  C:\Users\Kiwi\AppData\Local\Temp\ccKDkYuk.s 			page 18


 332              		@ frame_needed = 0, uses_anonymous_args = 0
 333 0000 07B5     		push	{r0, r1, r2, lr}
 334              		.cfi_def_cfa_offset 16
 335              		.cfi_offset 14, -4
 223:ssd1306.c     ****         0x00,
 336              		.loc 1 223 0
 337 0002 0A4B     		ldr	r3, .L26
 232:ssd1306.c     ****     display_write_buf( SSD1306_buffer, sizeof(SSD1306_buffer) );
 338              		.loc 1 232 0
 339 0004 0721     		movs	r1, #7
 223:ssd1306.c     ****         0x00,
 340              		.loc 1 223 0
 341 0006 1868     		ldr	r0, [r3]	@ unaligned
 342 0008 9A88     		ldrh	r2, [r3, #4]	@ unaligned
 343 000a 9B79     		ldrb	r3, [r3, #6]	@ zero_extendqisi2
 344 000c 0090     		str	r0, [sp]	@ unaligned
 232:ssd1306.c     ****     display_write_buf( SSD1306_buffer, sizeof(SSD1306_buffer) );
 345              		.loc 1 232 0
 346 000e 6846     		mov	r0, sp
 223:ssd1306.c     ****         0x00,
 347              		.loc 1 223 0
 348 0010 ADF80420 		strh	r2, [sp, #4]	@ unaligned
 349 0014 8DF80630 		strb	r3, [sp, #6]
 232:ssd1306.c     ****     display_write_buf( SSD1306_buffer, sizeof(SSD1306_buffer) );
 350              		.loc 1 232 0
 351 0018 FFF7FEFF 		bl	display_write_buf
 352              	.LVL24:
 233:ssd1306.c     **** }
 353              		.loc 1 233 0
 354 001c 40F20141 		movw	r1, #1025
 355 0020 0348     		ldr	r0, .L26+4
 356 0022 FFF7FEFF 		bl	display_write_buf
 357              	.LVL25:
 234:ssd1306.c     **** 
 358              		.loc 1 234 0
 359 0026 03B0     		add	sp, sp, #12
 360              		.cfi_def_cfa_offset 4
 361              		@ sp needed
 362 0028 5DF804FB 		ldr	pc, [sp], #4
 363              	.L27:
 364              		.align	2
 365              	.L26:
 366 002c 00000000 		.word	.LANCHOR2
 367 0030 00000000 		.word	.LANCHOR1
 368              		.cfi_endproc
 369              	.LFE69:
 370              		.size	display_update, .-display_update
 371              		.section	.text.display_stopscroll,"ax",%progbits
 372              		.align	1
 373              		.global	display_stopscroll
 374              		.thumb
 375              		.thumb_func
 376              		.type	display_stopscroll, %function
 377              	display_stopscroll:
 378              	.LFB71:
 301:ssd1306.c     **** 
 379              		.loc 1 301 0
ARM GAS  C:\Users\Kiwi\AppData\Local\Temp\ccKDkYuk.s 			page 19


 380              		.cfi_startproc
 381              		@ args = 0, pretend = 0, frame = 8
 382              		@ frame_needed = 0, uses_anonymous_args = 0
 383 0000 07B5     		push	{r0, r1, r2, lr}
 384              		.cfi_def_cfa_offset 16
 385              		.cfi_offset 14, -4
 303:ssd1306.c     ****         0x00,
 386              		.loc 1 303 0
 387 0002 0023     		movs	r3, #0
 388 0004 8DF80430 		strb	r3, [sp, #4]
 307:ssd1306.c     **** }
 389              		.loc 1 307 0
 390 0008 0221     		movs	r1, #2
 303:ssd1306.c     ****         0x00,
 391              		.loc 1 303 0
 392 000a 2E23     		movs	r3, #46
 307:ssd1306.c     **** }
 393              		.loc 1 307 0
 394 000c 01A8     		add	r0, sp, #4
 303:ssd1306.c     ****         0x00,
 395              		.loc 1 303 0
 396 000e 8DF80530 		strb	r3, [sp, #5]
 307:ssd1306.c     **** }
 397              		.loc 1 307 0
 398 0012 FFF7FEFF 		bl	display_write_buf
 399              	.LVL26:
 308:ssd1306.c     **** 
 400              		.loc 1 308 0
 401 0016 03B0     		add	sp, sp, #12
 402              		.cfi_def_cfa_offset 4
 403              		@ sp needed
 404 0018 5DF804FB 		ldr	pc, [sp], #4
 405              		.cfi_endproc
 406              	.LFE71:
 407              		.size	display_stopscroll, .-display_stopscroll
 408              		.section	.text.display_scroll,"ax",%progbits
 409              		.align	1
 410              		.global	display_scroll
 411              		.thumb
 412              		.thumb_func
 413              		.type	display_scroll, %function
 414              	display_scroll:
 415              	.LFB72:
 310:ssd1306.c     ****    
 416              		.loc 1 310 0
 417              		.cfi_startproc
 418              		@ args = 0, pretend = 0, frame = 16
 419              		@ frame_needed = 0, uses_anonymous_args = 0
 420              	.LVL27:
 421 0000 1FB5     		push	{r0, r1, r2, r3, r4, lr}
 422              		.cfi_def_cfa_offset 24
 423              		.cfi_offset 4, -8
 424              		.cfi_offset 14, -4
 312:ssd1306.c     ****         0x00,
 425              		.loc 1 312 0
 426 0002 8DF80830 		strb	r3, [sp, #8]
 427 0006 FF23     		movs	r3, #255
ARM GAS  C:\Users\Kiwi\AppData\Local\Temp\ccKDkYuk.s 			page 20


 428              	.LVL28:
 429 0008 0024     		movs	r4, #0
 430 000a 8DF80700 		strb	r0, [sp, #7]
 431 000e 8DF80910 		strb	r1, [sp, #9]
 432 0012 8DF80B30 		strb	r3, [sp, #11]
 323:ssd1306.c     **** }
 433              		.loc 1 323 0
 434 0016 0921     		movs	r1, #9
 435              	.LVL29:
 312:ssd1306.c     ****         0x00,
 436              		.loc 1 312 0
 437 0018 2F23     		movs	r3, #47
 323:ssd1306.c     **** }
 438              		.loc 1 323 0
 439 001a 01A8     		add	r0, sp, #4
 440              	.LVL30:
 312:ssd1306.c     ****         0x00,
 441              		.loc 1 312 0
 442 001c 8DF80440 		strb	r4, [sp, #4]
 443 0020 8DF80520 		strb	r2, [sp, #5]
 444 0024 8DF80640 		strb	r4, [sp, #6]
 445 0028 8DF80A40 		strb	r4, [sp, #10]
 446 002c 8DF80C30 		strb	r3, [sp, #12]
 323:ssd1306.c     **** }
 447              		.loc 1 323 0
 448 0030 FFF7FEFF 		bl	display_write_buf
 449              	.LVL31:
 324:ssd1306.c     **** 
 450              		.loc 1 324 0
 451 0034 04B0     		add	sp, sp, #16
 452              		.cfi_def_cfa_offset 8
 453              		@ sp needed
 454 0036 10BD     		pop	{r4, pc}
 455              		.cfi_endproc
 456              	.LFE72:
 457              		.size	display_scroll, .-display_scroll
 458              		.section	.text.gfx_init,"ax",%progbits
 459              		.align	1
 460              		.global	gfx_init
 461              		.thumb
 462              		.thumb_func
 463              		.type	gfx_init, %function
 464              	gfx_init:
 465              	.LFB73:
 341:ssd1306.c     ****     WIDTH = width;
 466              		.loc 1 341 0
 467              		.cfi_startproc
 468              		@ args = 0, pretend = 0, frame = 0
 469              		@ frame_needed = 0, uses_anonymous_args = 0
 470              		@ link register save eliminated.
 471              	.LVL32:
 342:ssd1306.c     ****     HEIGHT = height;
 472              		.loc 1 342 0
 473 0000 0A4B     		ldr	r3, .L31
 347:ssd1306.c     ****     cursor_y = cursor_x = 0;
 474              		.loc 1 347 0
 475 0002 0022     		movs	r2, #0
ARM GAS  C:\Users\Kiwi\AppData\Local\Temp\ccKDkYuk.s 			page 21


 342:ssd1306.c     ****     HEIGHT = height;
 476              		.loc 1 342 0
 477 0004 1880     		strh	r0, [r3]	@ movhi
 343:ssd1306.c     ****     _width = WIDTH;
 478              		.loc 1 343 0
 479 0006 0A4B     		ldr	r3, .L31+4
 480 0008 1980     		strh	r1, [r3]	@ movhi
 344:ssd1306.c     ****     _height = HEIGHT;
 481              		.loc 1 344 0
 482 000a 0A4B     		ldr	r3, .L31+8
 345:ssd1306.c     ****     
 483              		.loc 1 345 0
 484 000c 5981     		strh	r1, [r3, #10]	@ movhi
 347:ssd1306.c     ****     cursor_y = cursor_x = 0;
 485              		.loc 1 347 0
 486 000e 0A49     		ldr	r1, .L31+12
 487              	.LVL33:
 348:ssd1306.c     ****     textsize = 1;
 488              		.loc 1 348 0
 489 0010 DA80     		strh	r2, [r3, #6]	@ movhi
 347:ssd1306.c     ****     cursor_y = cursor_x = 0;
 490              		.loc 1 347 0
 491 0012 0A70     		strb	r2, [r1]
 350:ssd1306.c     ****     wrap = 1;
 492              		.loc 1 350 0
 493 0014 4FF6FF71 		movw	r1, #65535
 348:ssd1306.c     ****     textsize = 1;
 494              		.loc 1 348 0
 495 0018 5A80     		strh	r2, [r3, #2]	@ movhi
 349:ssd1306.c     ****     textcolor = textbgcolor = 0xFFFF;
 496              		.loc 1 349 0
 497 001a 0122     		movs	r2, #1
 344:ssd1306.c     ****     _height = HEIGHT;
 498              		.loc 1 344 0
 499 001c 1881     		strh	r0, [r3, #8]	@ movhi
 349:ssd1306.c     ****     textcolor = textbgcolor = 0xFFFF;
 500              		.loc 1 349 0
 501 001e 1A71     		strb	r2, [r3, #4]
 350:ssd1306.c     ****     wrap = 1;
 502              		.loc 1 350 0
 503 0020 9981     		strh	r1, [r3, #12]	@ movhi
 504 0022 D981     		strh	r1, [r3, #14]	@ movhi
 351:ssd1306.c     **** }
 505              		.loc 1 351 0
 506 0024 054B     		ldr	r3, .L31+16
 507 0026 1A70     		strb	r2, [r3]
 508 0028 7047     		bx	lr
 509              	.L32:
 510 002a 00BF     		.align	2
 511              	.L31:
 512 002c 00000000 		.word	WIDTH
 513 0030 00000000 		.word	HEIGHT
 514 0034 00000000 		.word	.LANCHOR0
 515 0038 00000000 		.word	rotation
 516 003c 00000000 		.word	wrap
 517              		.cfi_endproc
 518              	.LFE73:
ARM GAS  C:\Users\Kiwi\AppData\Local\Temp\ccKDkYuk.s 			page 22


 519              		.size	gfx_init, .-gfx_init
 520              		.section	.text.display_init,"ax",%progbits
 521              		.align	1
 522              		.global	display_init
 523              		.thumb
 524              		.thumb_func
 525              		.type	display_init, %function
 526              	display_init:
 527              	.LFB63:
 116:ssd1306.c     ****     
 528              		.loc 1 116 0
 529              		.cfi_startproc
 530              		@ args = 0, pretend = 0, frame = 32
 531              		@ frame_needed = 0, uses_anonymous_args = 0
 532              	.LVL34:
 533 0000 70B5     		push	{r4, r5, r6, lr}
 534              		.cfi_def_cfa_offset 16
 535              		.cfi_offset 4, -16
 536              		.cfi_offset 5, -12
 537              		.cfi_offset 6, -8
 538              		.cfi_offset 14, -4
 118:ssd1306.c     ****     gfx_init( DISPLAYWIDTH, DISPLAYHEIGHT );
 539              		.loc 1 118 0
 540 0002 0E4B     		ldr	r3, .L36
 116:ssd1306.c     ****     
 541              		.loc 1 116 0
 542 0004 88B0     		sub	sp, sp, #32
 543              		.cfi_def_cfa_offset 48
 118:ssd1306.c     ****     gfx_init( DISPLAYWIDTH, DISPLAYHEIGHT );
 544              		.loc 1 118 0
 545 0006 1870     		strb	r0, [r3]
 119:ssd1306.c     ****     
 546              		.loc 1 119 0
 547 0008 4021     		movs	r1, #64
 548 000a 8020     		movs	r0, #128
 549              	.LVL35:
 550 000c FFF7FEFF 		bl	gfx_init
 551              	.LVL36:
 121:ssd1306.c     ****         0x00,
 552              		.loc 1 121 0
 553 0010 01AA     		add	r2, sp, #4
 554 0012 1546     		mov	r5, r2
 555 0014 0A4B     		ldr	r3, .L36+4
 556 0016 03F11806 		add	r6, r3, #24
 557              	.L34:
 558 001a 1446     		mov	r4, r2
 559 001c 1868     		ldr	r0, [r3]	@ unaligned
 560 001e 5968     		ldr	r1, [r3, #4]	@ unaligned
 561 0020 0833     		adds	r3, r3, #8
 562 0022 03C4     		stmia	r4!, {r0, r1}
 563 0024 B342     		cmp	r3, r6
 564 0026 2246     		mov	r2, r4
 565 0028 F7D1     		bne	.L34
 566 002a 1B88     		ldrh	r3, [r3]	@ unaligned
 150:ssd1306.c     **** }
 567              		.loc 1 150 0
 568 002c 1A21     		movs	r1, #26
ARM GAS  C:\Users\Kiwi\AppData\Local\Temp\ccKDkYuk.s 			page 23


 121:ssd1306.c     ****         0x00,
 569              		.loc 1 121 0
 570 002e 2380     		strh	r3, [r4]	@ unaligned
 150:ssd1306.c     **** }
 571              		.loc 1 150 0
 572 0030 2846     		mov	r0, r5
 573 0032 FFF7FEFF 		bl	display_write_buf
 574              	.LVL37:
 151:ssd1306.c     **** 
 575              		.loc 1 151 0
 576 0036 08B0     		add	sp, sp, #32
 577              		.cfi_def_cfa_offset 16
 578              		@ sp needed
 579 0038 70BD     		pop	{r4, r5, r6, pc}
 580              	.L37:
 581 003a 00BF     		.align	2
 582              	.L36:
 583 003c 00000000 		.word	.LANCHOR0
 584 0040 07000000 		.word	.LANCHOR2+7
 585              		.cfi_endproc
 586              	.LFE63:
 587              		.size	display_init, .-display_init
 588              		.section	.text.gfx_width,"ax",%progbits
 589              		.align	1
 590              		.global	gfx_width
 591              		.thumb
 592              		.thumb_func
 593              		.type	gfx_width, %function
 594              	gfx_width:
 595              	.LFB74:
 355:ssd1306.c     ****     return _width;
 596              		.loc 1 355 0
 597              		.cfi_startproc
 598              		@ args = 0, pretend = 0, frame = 0
 599              		@ frame_needed = 0, uses_anonymous_args = 0
 600              		@ link register save eliminated.
 357:ssd1306.c     **** 
 601              		.loc 1 357 0
 602 0000 014B     		ldr	r3, .L39
 603 0002 B3F90800 		ldrsh	r0, [r3, #8]
 604 0006 7047     		bx	lr
 605              	.L40:
 606              		.align	2
 607              	.L39:
 608 0008 00000000 		.word	.LANCHOR0
 609              		.cfi_endproc
 610              	.LFE74:
 611              		.size	gfx_width, .-gfx_width
 612              		.section	.text.gfx_height,"ax",%progbits
 613              		.align	1
 614              		.global	gfx_height
 615              		.thumb
 616              		.thumb_func
 617              		.type	gfx_height, %function
 618              	gfx_height:
 619              	.LFB75:
 359:ssd1306.c     ****     return _height;
ARM GAS  C:\Users\Kiwi\AppData\Local\Temp\ccKDkYuk.s 			page 24


 620              		.loc 1 359 0
 621              		.cfi_startproc
 622              		@ args = 0, pretend = 0, frame = 0
 623              		@ frame_needed = 0, uses_anonymous_args = 0
 624              		@ link register save eliminated.
 361:ssd1306.c     **** 
 625              		.loc 1 361 0
 626 0000 014B     		ldr	r3, .L42
 627 0002 B3F90A00 		ldrsh	r0, [r3, #10]
 628 0006 7047     		bx	lr
 629              	.L43:
 630              		.align	2
 631              	.L42:
 632 0008 00000000 		.word	.LANCHOR0
 633              		.cfi_endproc
 634              	.LFE75:
 635              		.size	gfx_height, .-gfx_height
 636              		.section	.text.gfx_rotation,"ax",%progbits
 637              		.align	1
 638              		.global	gfx_rotation
 639              		.thumb
 640              		.thumb_func
 641              		.type	gfx_rotation, %function
 642              	gfx_rotation:
 643              	.LFB76:
 363:ssd1306.c     ****     return rotation;
 644              		.loc 1 363 0
 645              		.cfi_startproc
 646              		@ args = 0, pretend = 0, frame = 0
 647              		@ frame_needed = 0, uses_anonymous_args = 0
 648              		@ link register save eliminated.
 365:ssd1306.c     **** 
 649              		.loc 1 365 0
 650 0000 014B     		ldr	r3, .L45
 651 0002 1878     		ldrb	r0, [r3]	@ zero_extendqisi2
 652 0004 7047     		bx	lr
 653              	.L46:
 654 0006 00BF     		.align	2
 655              	.L45:
 656 0008 00000000 		.word	rotation
 657              		.cfi_endproc
 658              	.LFE76:
 659              		.size	gfx_rotation, .-gfx_rotation
 660              		.section	.text.gfx_setCursor,"ax",%progbits
 661              		.align	1
 662              		.global	gfx_setCursor
 663              		.thumb
 664              		.thumb_func
 665              		.type	gfx_setCursor, %function
 666              	gfx_setCursor:
 667              	.LFB77:
 367:ssd1306.c     ****     cursor_x = x;
 668              		.loc 1 367 0
 669              		.cfi_startproc
 670              		@ args = 0, pretend = 0, frame = 0
 671              		@ frame_needed = 0, uses_anonymous_args = 0
 672              		@ link register save eliminated.
ARM GAS  C:\Users\Kiwi\AppData\Local\Temp\ccKDkYuk.s 			page 25


 673              	.LVL38:
 368:ssd1306.c     ****     cursor_y = y;
 674              		.loc 1 368 0
 675 0000 014B     		ldr	r3, .L48
 676 0002 D880     		strh	r0, [r3, #6]	@ movhi
 369:ssd1306.c     **** }
 677              		.loc 1 369 0
 678 0004 5980     		strh	r1, [r3, #2]	@ movhi
 679 0006 7047     		bx	lr
 680              	.L49:
 681              		.align	2
 682              	.L48:
 683 0008 00000000 		.word	.LANCHOR0
 684              		.cfi_endproc
 685              	.LFE77:
 686              		.size	gfx_setCursor, .-gfx_setCursor
 687              		.section	.text.gfx_setTextSize,"ax",%progbits
 688              		.align	1
 689              		.global	gfx_setTextSize
 690              		.thumb
 691              		.thumb_func
 692              		.type	gfx_setTextSize, %function
 693              	gfx_setTextSize:
 694              	.LFB78:
 372:ssd1306.c     ****     textsize = (size > 0) ? size : 1;
 695              		.loc 1 372 0
 696              		.cfi_startproc
 697              		@ args = 0, pretend = 0, frame = 0
 698              		@ frame_needed = 0, uses_anonymous_args = 0
 699              		@ link register save eliminated.
 700              	.LVL39:
 373:ssd1306.c     **** }
 701              		.loc 1 373 0
 702 0000 0028     		cmp	r0, #0
 703 0002 08BF     		it	eq
 704 0004 0120     		moveq	r0, #1
 705              	.LVL40:
 706 0006 014B     		ldr	r3, .L53
 707 0008 1871     		strb	r0, [r3, #4]
 708 000a 7047     		bx	lr
 709              	.L54:
 710              		.align	2
 711              	.L53:
 712 000c 00000000 		.word	.LANCHOR0
 713              		.cfi_endproc
 714              	.LFE78:
 715              		.size	gfx_setTextSize, .-gfx_setTextSize
 716              		.section	.text.gfx_setTextColor,"ax",%progbits
 717              		.align	1
 718              		.global	gfx_setTextColor
 719              		.thumb
 720              		.thumb_func
 721              		.type	gfx_setTextColor, %function
 722              	gfx_setTextColor:
 723              	.LFB79:
 376:ssd1306.c     ****     // For 'transparent' background, we'll set the bg
 724              		.loc 1 376 0
ARM GAS  C:\Users\Kiwi\AppData\Local\Temp\ccKDkYuk.s 			page 26


 725              		.cfi_startproc
 726              		@ args = 0, pretend = 0, frame = 0
 727              		@ frame_needed = 0, uses_anonymous_args = 0
 728              		@ link register save eliminated.
 729              	.LVL41:
 379:ssd1306.c     **** }
 730              		.loc 1 379 0
 731 0000 014B     		ldr	r3, .L56
 732 0002 9881     		strh	r0, [r3, #12]	@ movhi
 733 0004 D881     		strh	r0, [r3, #14]	@ movhi
 734 0006 7047     		bx	lr
 735              	.L57:
 736              		.align	2
 737              	.L56:
 738 0008 00000000 		.word	.LANCHOR0
 739              		.cfi_endproc
 740              	.LFE79:
 741              		.size	gfx_setTextColor, .-gfx_setTextColor
 742              		.section	.text.gfx_setTextBg,"ax",%progbits
 743              		.align	1
 744              		.global	gfx_setTextBg
 745              		.thumb
 746              		.thumb_func
 747              		.type	gfx_setTextBg, %function
 748              	gfx_setTextBg:
 749              	.LFB80:
 382:ssd1306.c     ****     textbgcolor = color;
 750              		.loc 1 382 0
 751              		.cfi_startproc
 752              		@ args = 0, pretend = 0, frame = 0
 753              		@ frame_needed = 0, uses_anonymous_args = 0
 754              		@ link register save eliminated.
 755              	.LVL42:
 383:ssd1306.c     **** }
 756              		.loc 1 383 0
 757 0000 014B     		ldr	r3, .L59
 758 0002 9881     		strh	r0, [r3, #12]	@ movhi
 759 0004 7047     		bx	lr
 760              	.L60:
 761 0006 00BF     		.align	2
 762              	.L59:
 763 0008 00000000 		.word	.LANCHOR0
 764              		.cfi_endproc
 765              	.LFE80:
 766              		.size	gfx_setTextBg, .-gfx_setTextBg
 767              		.section	.text.gfx_setTextWrap,"ax",%progbits
 768              		.align	1
 769              		.global	gfx_setTextWrap
 770              		.thumb
 771              		.thumb_func
 772              		.type	gfx_setTextWrap, %function
 773              	gfx_setTextWrap:
 774              	.LFB81:
 386:ssd1306.c     ****     wrap = w;
 775              		.loc 1 386 0
 776              		.cfi_startproc
 777              		@ args = 0, pretend = 0, frame = 0
ARM GAS  C:\Users\Kiwi\AppData\Local\Temp\ccKDkYuk.s 			page 27


 778              		@ frame_needed = 0, uses_anonymous_args = 0
 779              		@ link register save eliminated.
 780              	.LVL43:
 387:ssd1306.c     **** }
 781              		.loc 1 387 0
 782 0000 014B     		ldr	r3, .L62
 783 0002 1870     		strb	r0, [r3]
 784 0004 7047     		bx	lr
 785              	.L63:
 786 0006 00BF     		.align	2
 787              	.L62:
 788 0008 00000000 		.word	wrap
 789              		.cfi_endproc
 790              	.LFE81:
 791              		.size	gfx_setTextWrap, .-gfx_setTextWrap
 792              		.section	.text.gfx_setRotation,"ax",%progbits
 793              		.align	1
 794              		.global	gfx_setRotation
 795              		.thumb
 796              		.thumb_func
 797              		.type	gfx_setRotation, %function
 798              	gfx_setRotation:
 799              	.LFB82:
 390:ssd1306.c     ****     
 800              		.loc 1 390 0
 801              		.cfi_startproc
 802              		@ args = 0, pretend = 0, frame = 0
 803              		@ frame_needed = 0, uses_anonymous_args = 0
 804              		@ link register save eliminated.
 805              	.LVL44:
 392:ssd1306.c     ****     switch( rotation ){
 806              		.loc 1 392 0
 807 0000 00F00300 		and	r0, r0, #3
 808              	.LVL45:
 809 0004 084B     		ldr	r3, .L75
 393:ssd1306.c     ****         case 0:
 810              		.loc 1 393 0
 811 0006 0128     		cmp	r0, #1
 392:ssd1306.c     ****     switch( rotation ){
 812              		.loc 1 392 0
 813 0008 1870     		strb	r0, [r3]
 814 000a 084A     		ldr	r2, .L75+4
 815 000c 084B     		ldr	r3, .L75+8
 816 000e 0949     		ldr	r1, .L75+12
 393:ssd1306.c     ****         case 0:
 817              		.loc 1 393 0
 818 0010 05D0     		beq	.L66
 819 0012 0328     		cmp	r0, #3
 820 0014 03D0     		beq	.L66
 396:ssd1306.c     ****             _height = HEIGHT;
 821              		.loc 1 396 0
 822 0016 1288     		ldrh	r2, [r2]
 823 0018 1A81     		strh	r2, [r3, #8]	@ movhi
 397:ssd1306.c     ****             break;
 824              		.loc 1 397 0
 825 001a 0A88     		ldrh	r2, [r1]
 826 001c 02E0     		b	.L74
ARM GAS  C:\Users\Kiwi\AppData\Local\Temp\ccKDkYuk.s 			page 28


 827              	.L66:
 401:ssd1306.c     ****             _height = WIDTH;
 828              		.loc 1 401 0
 829 001e 0988     		ldrh	r1, [r1]
 402:ssd1306.c     ****         break;
 830              		.loc 1 402 0
 831 0020 1288     		ldrh	r2, [r2]
 401:ssd1306.c     ****             _height = WIDTH;
 832              		.loc 1 401 0
 833 0022 1981     		strh	r1, [r3, #8]	@ movhi
 834              	.L74:
 402:ssd1306.c     ****         break;
 835              		.loc 1 402 0
 836 0024 5A81     		strh	r2, [r3, #10]	@ movhi
 837 0026 7047     		bx	lr
 838              	.L76:
 839              		.align	2
 840              	.L75:
 841 0028 00000000 		.word	rotation
 842 002c 00000000 		.word	WIDTH
 843 0030 00000000 		.word	.LANCHOR0
 844 0034 00000000 		.word	HEIGHT
 845              		.cfi_endproc
 846              	.LFE82:
 847              		.size	gfx_setRotation, .-gfx_setRotation
 848              		.section	.text.gfx_drawPixel,"ax",%progbits
 849              		.align	1
 850              		.global	gfx_drawPixel
 851              		.thumb
 852              		.thumb_func
 853              		.type	gfx_drawPixel, %function
 854              	gfx_drawPixel:
 855              	.LFB84:
 427:ssd1306.c     ****     
 856              		.loc 1 427 0
 857              		.cfi_startproc
 858              		@ args = 0, pretend = 0, frame = 8
 859              		@ frame_needed = 0, uses_anonymous_args = 0
 860              	.LVL46:
 861 0000 13B5     		push	{r0, r1, r4, lr}
 862              		.cfi_def_cfa_offset 16
 863              		.cfi_offset 4, -8
 864              		.cfi_offset 14, -4
 427:ssd1306.c     ****     
 865              		.loc 1 427 0
 866 0002 ADF80600 		strh	r0, [sp, #6]	@ movhi
 429:ssd1306.c     ****         return;
 867              		.loc 1 429 0
 868 0006 0028     		cmp	r0, #0
 869              	.LVL47:
 427:ssd1306.c     ****     
 870              		.loc 1 427 0
 871 0008 1446     		mov	r4, r2
 872 000a ADF80410 		strh	r1, [sp, #4]	@ movhi
 429:ssd1306.c     ****         return;
 873              		.loc 1 429 0
 874 000e 44DB     		blt	.L77
ARM GAS  C:\Users\Kiwi\AppData\Local\Temp\ccKDkYuk.s 			page 29


 429:ssd1306.c     ****         return;
 875              		.loc 1 429 0 is_stmt 0 discriminator 1
 876 0010 234A     		ldr	r2, .L85
 877              	.LVL48:
 878 0012 B2F90830 		ldrsh	r3, [r2, #8]
 879 0016 8342     		cmp	r3, r0
 880 0018 3FDD     		ble	.L77
 429:ssd1306.c     ****         return;
 881              		.loc 1 429 0 discriminator 2
 882 001a 0BB2     		sxth	r3, r1
 883 001c 002B     		cmp	r3, #0
 884 001e 3CDB     		blt	.L77
 429:ssd1306.c     ****         return;
 885              		.loc 1 429 0 discriminator 3
 886 0020 B2F90A20 		ldrsh	r2, [r2, #10]
 887 0024 9A42     		cmp	r2, r3
 888 0026 38DD     		ble	.L77
 432:ssd1306.c     **** 
 889              		.loc 1 432 0 is_stmt 1
 890 0028 01A9     		add	r1, sp, #4
 891              	.LVL49:
 892 002a 0DF10600 		add	r0, sp, #6
 893              	.LVL50:
 894 002e FFF7FEFF 		bl	gfx_rotation_adjust
 895              	.LVL51:
 434:ssd1306.c     **** }
 896              		.loc 1 434 0
 897 0032 BDF90630 		ldrsh	r3, [sp, #6]
 898              	.LVL52:
 899              	.LBB13:
 900              	.LBB14:
 174:ssd1306.c     ****         return;
 901              		.loc 1 174 0
 902 0036 9AB2     		uxth	r2, r3
 903 0038 7F2A     		cmp	r2, #127
 904 003a 2ED8     		bhi	.L77
 905              	.LBE14:
 906              	.LBE13:
 434:ssd1306.c     **** }
 907              		.loc 1 434 0
 908 003c BDF90400 		ldrsh	r0, [sp, #4]
 909              	.LBB16:
 910              	.LBB15:
 174:ssd1306.c     ****         return;
 911              		.loc 1 174 0
 912 0040 81B2     		uxth	r1, r0
 913 0042 3F29     		cmp	r1, #63
 914 0044 29D8     		bhi	.L77
 177:ssd1306.c     ****         case WHITE: 
 915              		.loc 1 177 0
 916 0046 012C     		cmp	r4, #1
 917 0048 0ED0     		beq	.L81
 918 004a 19D3     		bcc	.L82
 919 004c 022C     		cmp	r4, #2
 920 004e 24D1     		bne	.L77
 185:ssd1306.c     ****             break;
 921              		.loc 1 185 0
ARM GAS  C:\Users\Kiwi\AppData\Local\Temp\ccKDkYuk.s 			page 30


 922 0050 144C     		ldr	r4, .L85+4
 923              	.LVL53:
 924 0052 C010     		asrs	r0, r0, #3
 925 0054 0122     		movs	r2, #1
 926 0056 03EBC013 		add	r3, r3, r0, lsl #7
 927              	.LVL54:
 928 005a 01F00701 		and	r1, r1, #7
 929 005e 02FA01F1 		lsl	r1, r2, r1
 930 0062 E25C     		ldrb	r2, [r4, r3]	@ zero_extendqisi2
 931 0064 5140     		eors	r1, r1, r2
 932 0066 17E0     		b	.L84
 933              	.LVL55:
 934              	.L81:
 179:ssd1306.c     ****             break;
 935              		.loc 1 179 0
 936 0068 0E4A     		ldr	r2, .L85+4
 937 006a C010     		asrs	r0, r0, #3
 938 006c 03EBC013 		add	r3, r3, r0, lsl #7
 939              	.LVL56:
 940 0070 01F00701 		and	r1, r1, #7
 941 0074 04FA01F1 		lsl	r1, r4, r1
 942 0078 D45C     		ldrb	r4, [r2, r3]	@ zero_extendqisi2
 943              	.LVL57:
 944 007a 2143     		orrs	r1, r1, r4
 945 007c D154     		strb	r1, [r2, r3]
 946 007e 0CE0     		b	.L77
 947              	.LVL58:
 948              	.L82:
 182:ssd1306.c     ****             break;
 949              		.loc 1 182 0
 950 0080 084C     		ldr	r4, .L85+4
 951              	.LVL59:
 952 0082 C010     		asrs	r0, r0, #3
 953 0084 0122     		movs	r2, #1
 954 0086 03EBC013 		add	r3, r3, r0, lsl #7
 955              	.LVL60:
 956 008a 01F00701 		and	r1, r1, #7
 957 008e 02FA01F1 		lsl	r1, r2, r1
 958 0092 E25C     		ldrb	r2, [r4, r3]	@ zero_extendqisi2
 959 0094 22EA0101 		bic	r1, r2, r1
 960              	.L84:
 185:ssd1306.c     ****             break;
 961              		.loc 1 185 0
 962 0098 E154     		strb	r1, [r4, r3]
 963              	.LVL61:
 964              	.L77:
 965              	.LBE15:
 966              	.LBE16:
 435:ssd1306.c     **** 
 967              		.loc 1 435 0
 968 009a 02B0     		add	sp, sp, #8
 969              		.cfi_def_cfa_offset 8
 970              		@ sp needed
 971 009c 10BD     		pop	{r4, pc}
 972              	.LVL62:
 973              	.L86:
 974 009e 00BF     		.align	2
ARM GAS  C:\Users\Kiwi\AppData\Local\Temp\ccKDkYuk.s 			page 31


 975              	.L85:
 976 00a0 00000000 		.word	.LANCHOR0
 977 00a4 01000000 		.word	.LANCHOR1+1
 978              		.cfi_endproc
 979              	.LFE84:
 980              		.size	gfx_drawPixel, .-gfx_drawPixel
 981              		.section	.text.gfx_drawLine,"ax",%progbits
 982              		.align	1
 983              		.global	gfx_drawLine
 984              		.thumb
 985              		.thumb_func
 986              		.type	gfx_drawLine, %function
 987              	gfx_drawLine:
 988              	.LFB86:
 472:ssd1306.c     ****  
 989              		.loc 1 472 0
 990              		.cfi_startproc
 991              		@ args = 4, pretend = 0, frame = 16
 992              		@ frame_needed = 0, uses_anonymous_args = 0
 993              	.LVL63:
 994 0000 2DE9F04F 		push	{r4, r5, r6, r7, r8, r9, r10, fp, lr}
 995              		.cfi_def_cfa_offset 36
 996              		.cfi_offset 4, -36
 997              		.cfi_offset 5, -32
 998              		.cfi_offset 6, -28
 999              		.cfi_offset 7, -24
 1000              		.cfi_offset 8, -20
 1001              		.cfi_offset 9, -16
 1002              		.cfi_offset 10, -12
 1003              		.cfi_offset 11, -8
 1004              		.cfi_offset 14, -4
 1005 0004 1646     		mov	r6, r2
 1006 0006 85B0     		sub	sp, sp, #20
 1007              		.cfi_def_cfa_offset 56
 474:ssd1306.c     ****         // vertical and horizontal lines can be drawn faster
 1008              		.loc 1 474 0
 1009 0008 B042     		cmp	r0, r6
 472:ssd1306.c     ****  
 1010              		.loc 1 472 0
 1011 000a 0446     		mov	r4, r0
 1012 000c 0D46     		mov	r5, r1
 1013 000e 1A46     		mov	r2, r3
 1014              	.LVL64:
 1015 0010 BDF83870 		ldrh	r7, [sp, #56]
 474:ssd1306.c     ****         // vertical and horizontal lines can be drawn faster
 1016              		.loc 1 474 0
 1017 0014 02D0     		beq	.L88
 474:ssd1306.c     ****         // vertical and horizontal lines can be drawn faster
 1018              		.loc 1 474 0 is_stmt 0 discriminator 1
 1019 0016 9942     		cmp	r1, r3
 1020 0018 40F00681 		bne	.L89
 1021              	.L88:
 1022              	.LBB26:
 1023              	.LBB27:
 440:ssd1306.c     ****         // neither vertical nor horizontal
 1024              		.loc 1 440 0 is_stmt 1
 1025 001c B442     		cmp	r4, r6
ARM GAS  C:\Users\Kiwi\AppData\Local\Temp\ccKDkYuk.s 			page 32


 1026 001e ADF80840 		strh	r4, [sp, #8]	@ movhi
 1027              	.LVL65:
 1028 0022 ADF80A50 		strh	r5, [sp, #10]	@ movhi
 1029              	.LVL66:
 1030 0026 ADF80C60 		strh	r6, [sp, #12]	@ movhi
 1031              	.LVL67:
 1032 002a ADF80E20 		strh	r2, [sp, #14]	@ movhi
 1033              	.LVL68:
 1034 002e 02D0     		beq	.L90
 1035 0030 9542     		cmp	r5, r2
 1036 0032 40F05481 		bne	.L87
 1037              	.L90:
 446:ssd1306.c     ****         if( x1 < 0 || x1 >= HEIGHT || x2 < 0 || x2 >= HEIGHT )
 1038              		.loc 1 446 0
 1039 0036 AB4B     		ldr	r3, .L133
 1040              	.LVL69:
 1041 0038 1B78     		ldrb	r3, [r3]	@ zero_extendqisi2
 1042 003a 03F0FD03 		and	r3, r3, #253
 1043 003e 012B     		cmp	r3, #1
 1044 0040 1CD1     		bne	.L91
 447:ssd1306.c     ****             return;
 1045              		.loc 1 447 0
 1046 0042 002C     		cmp	r4, #0
 1047 0044 C0F24B81 		blt	.L87
 1048 0048 A74B     		ldr	r3, .L133+4
 1049 004a B3F90030 		ldrsh	r3, [r3]
 1050 004e 9C42     		cmp	r4, r3
 1051 0050 80F24581 		bge	.L87
 1052 0054 002E     		cmp	r6, #0
 1053 0056 C0F24281 		blt	.L87
 1054 005a 9E42     		cmp	r6, r3
 1055 005c 80F23F81 		bge	.L87
 449:ssd1306.c     ****             return;
 1056              		.loc 1 449 0
 1057 0060 002D     		cmp	r5, #0
 1058 0062 C0F23C81 		blt	.L87
 1059 0066 A14B     		ldr	r3, .L133+8
 1060 0068 B3F90030 		ldrsh	r3, [r3]
 1061 006c 9D42     		cmp	r5, r3
 1062 006e 80F23681 		bge	.L87
 1063 0072 002A     		cmp	r2, #0
 1064 0074 C0F23381 		blt	.L87
 1065 0078 9A42     		cmp	r2, r3
 1066 007a 1BE0     		b	.L127
 1067              	.L91:
 452:ssd1306.c     ****             return;
 1068              		.loc 1 452 0
 1069 007c 002D     		cmp	r5, #0
 1070 007e C0F22E81 		blt	.L87
 1071 0082 994B     		ldr	r3, .L133+4
 1072 0084 B3F90030 		ldrsh	r3, [r3]
 1073 0088 9D42     		cmp	r5, r3
 1074 008a 80F22881 		bge	.L87
 1075 008e 002A     		cmp	r2, #0
 1076 0090 C0F22581 		blt	.L87
 1077 0094 9A42     		cmp	r2, r3
 1078 0096 80F22281 		bge	.L87
ARM GAS  C:\Users\Kiwi\AppData\Local\Temp\ccKDkYuk.s 			page 33


 454:ssd1306.c     ****             return;
 1079              		.loc 1 454 0
 1080 009a 002C     		cmp	r4, #0
 1081 009c C0F21F81 		blt	.L87
 1082 00a0 924B     		ldr	r3, .L133+8
 1083 00a2 B3F90030 		ldrsh	r3, [r3]
 1084 00a6 9C42     		cmp	r4, r3
 1085 00a8 80F21981 		bge	.L87
 1086 00ac 002E     		cmp	r6, #0
 1087 00ae C0F21681 		blt	.L87
 1088 00b2 9E42     		cmp	r6, r3
 1089              	.L127:
 1090 00b4 80F21381 		bge	.L87
 458:ssd1306.c     ****     gfx_rotation_adjust( &x2, &y2 );
 1091              		.loc 1 458 0
 1092 00b8 0DF10A01 		add	r1, sp, #10
 1093              	.LVL70:
 1094 00bc 02A8     		add	r0, sp, #8
 1095              	.LVL71:
 1096 00be FFF7FEFF 		bl	gfx_rotation_adjust
 1097              	.LVL72:
 459:ssd1306.c     ****     
 1098              		.loc 1 459 0
 1099 00c2 0DF10E01 		add	r1, sp, #14
 1100              	.LVL73:
 1101 00c6 03A8     		add	r0, sp, #12
 1102 00c8 FFF7FEFF 		bl	gfx_rotation_adjust
 1103              	.LVL74:
 462:ssd1306.c     ****         // swap as needed
 1104              		.loc 1 462 0
 1105 00cc BDF90820 		ldrsh	r2, [sp, #8]
 1106 00d0 BDF90C10 		ldrsh	r1, [sp, #12]
 1107 00d4 BDF90E00 		ldrsh	r0, [sp, #14]
 1108 00d8 8A42     		cmp	r2, r1
 1109 00da BDF90A30 		ldrsh	r3, [sp, #10]
 1110 00de 01D1     		bne	.L94
 1111 00e0 9842     		cmp	r0, r3
 1112 00e2 03DB     		blt	.L95
 1113              	.L94:
 1114 00e4 8342     		cmp	r3, r0
 1115 00e6 0BD1     		bne	.L96
 1116 00e8 8A42     		cmp	r2, r1
 1117 00ea 09DD     		ble	.L96
 1118              	.L95:
 1119              	.LVL75:
 1120              	.LBB28:
 464:ssd1306.c     ****         t = y1; y1 = y2; y2 = t;
 1121              		.loc 1 464 0
 1122 00ec ADF80C20 		strh	r2, [sp, #12]	@ movhi
 1123              	.LVL76:
 465:ssd1306.c     ****     }
 1124              		.loc 1 465 0
 1125 00f0 BDF80E20 		ldrh	r2, [sp, #14]
 464:ssd1306.c     ****         t = y1; y1 = y2; y2 = t;
 1126              		.loc 1 464 0
 1127 00f4 ADF80810 		strh	r1, [sp, #8]	@ movhi
 465:ssd1306.c     ****     }
ARM GAS  C:\Users\Kiwi\AppData\Local\Temp\ccKDkYuk.s 			page 34


 1128              		.loc 1 465 0
 1129 00f8 ADF80A20 		strh	r2, [sp, #10]	@ movhi
 1130 00fc ADF80E30 		strh	r3, [sp, #14]	@ movhi
 1131              	.LVL77:
 1132              	.L96:
 1133              	.LBE28:
 468:ssd1306.c     **** }
 1134              		.loc 1 468 0
 1135 0100 BDF90800 		ldrsh	r0, [sp, #8]
 1136 0104 BDF90C40 		ldrsh	r4, [sp, #12]
 1137              	.LVL78:
 1138 0108 BDF90A10 		ldrsh	r1, [sp, #10]
 1139              	.LVL79:
 1140              	.LBB29:
 1141              	.LBB30:
 242:ssd1306.c     ****         // vertical
 1142              		.loc 1 242 0
 1143 010c A042     		cmp	r0, r4
 1144 010e 784B     		ldr	r3, .L133+12
 1145 0110 4FF00802 		mov	r2, #8
 1146 0114 68D1     		bne	.L97
 1147              	.LVL80:
 1148              	.LBE30:
 1149              	.LBE29:
 468:ssd1306.c     **** }
 1150              		.loc 1 468 0
 1151 0116 BDF90EE0 		ldrsh	lr, [sp, #14]
 1152              	.LBB47:
 1153              	.LBB45:
 1154              	.LBB31:
 244:ssd1306.c     ****         uint8_t* pend = GDDRAM_ADDRESS(x2,y2);       
 1155              		.loc 1 244 0
 1156 011a 91FBF2F5 		sdiv	r5, r1, r2
 1157              	.LVL81:
 245:ssd1306.c     ****         uint8_t* ptr = pstart;             
 1158              		.loc 1 245 0
 1159 011e 9EFBF2F2 		sdiv	r2, lr, r2
 244:ssd1306.c     ****         uint8_t* pend = GDDRAM_ADDRESS(x2,y2);       
 1160              		.loc 1 244 0
 1161 0122 00EBC515 		add	r5, r0, r5, lsl #7
 245:ssd1306.c     ****         uint8_t* ptr = pstart;             
 1162              		.loc 1 245 0
 1163 0126 00EBC212 		add	r2, r0, r2, lsl #7
 244:ssd1306.c     ****         uint8_t* pend = GDDRAM_ADDRESS(x2,y2);       
 1164              		.loc 1 244 0
 1165 012a 1D44     		add	r5, r5, r3
 1166              	.LVL82:
 245:ssd1306.c     ****         uint8_t* ptr = pstart;             
 1167              		.loc 1 245 0
 1168 012c 1344     		add	r3, r3, r2
 1169              	.LVL83:
 1170              	.LBB32:
 1171              	.LBB33:
 253:ssd1306.c     ****                 // bottom (line can be very short, all inside this one byte)
 1172              		.loc 1 253 0
 1173 012e 714A     		ldr	r2, .L133+16
 1174 0130 05F18000 		add	r0, r5, #128
ARM GAS  C:\Users\Kiwi\AppData\Local\Temp\ccKDkYuk.s 			page 35


 1175              	.LVL84:
 1176 0134 0A40     		ands	r2, r2, r1
 1177 0136 002A     		cmp	r2, #0
 1178 0138 BEBF     		ittt	lt
 1179 013a 02F1FF32 		addlt	r2, r2, #-1
 1180 013e 62F00702 		ornlt	r2, r2, #7
 1181 0142 0132     		addlt	r2, r2, #1
 1182 0144 D6B2     		uxtb	r6, r2
 1183              	.LVL85:
 1184              	.LBE33:
 262:ssd1306.c     ****             }
 1185              		.loc 1 262 0
 1186 0146 6B4A     		ldr	r2, .L133+16
 1187              	.LBB34:
 255:ssd1306.c     ****                 if( ubit >= 7 )
 1188              		.loc 1 255 0
 1189 0148 741A     		subs	r4, r6, r1
 1190              	.LBE34:
 262:ssd1306.c     ****             }
 1191              		.loc 1 262 0
 1192 014a 0EEA0202 		and	r2, lr, r2
 1193 014e 002A     		cmp	r2, #0
 1194 0150 B8BF     		it	lt
 1195 0152 02F1FF32 		addlt	r2, r2, #-1
 1196              	.LBB35:
 255:ssd1306.c     ****                 if( ubit >= 7 )
 1197              		.loc 1 255 0
 1198 0156 7444     		add	r4, r4, lr
 1199              	.LBE35:
 262:ssd1306.c     ****             }
 1200              		.loc 1 262 0
 1201 0158 B8BF     		it	lt
 1202 015a 62F00702 		ornlt	r2, r2, #7
 1203              	.LBB36:
 255:ssd1306.c     ****                 if( ubit >= 7 )
 1204              		.loc 1 255 0
 1205 015e E4B2     		uxtb	r4, r4
 1206              	.LBE36:
 262:ssd1306.c     ****             }
 1207              		.loc 1 262 0
 1208 0160 B8BF     		it	lt
 1209 0162 0132     		addlt	r2, r2, #1
 1210              	.LBB37:
 258:ssd1306.c     ****             }else if( ptr == pend ){
 1211              		.loc 1 258 0
 1212 0164 072C     		cmp	r4, #7
 1213 0166 94BF     		ite	ls
 1214 0168 C6EB0404 		rsbls	r4, r6, r4
 1215 016c C6F10704 		rsbhi	r4, r6, #7
 1216              	.LBE37:
 262:ssd1306.c     ****             }
 1217              		.loc 1 262 0
 1218 0170 4FF0010E 		mov	lr, #1
 1219 0174 12B2     		sxth	r2, r2
 1220 0176 0EFA02F2 		lsl	r2, lr, r2
 1221 017a 013A     		subs	r2, r2, #1
 1222 017c D1B2     		uxtb	r1, r2
ARM GAS  C:\Users\Kiwi\AppData\Local\Temp\ccKDkYuk.s 			page 36


 1223              	.LVL86:
 1224              	.LBE32:
 244:ssd1306.c     ****         uint8_t* pend = GDDRAM_ADDRESS(x2,y2);       
 1225              		.loc 1 244 0
 1226 017e 2A46     		mov	r2, r5
 1227              	.LBB40:
 1228              	.LBB38:
 258:ssd1306.c     ****             }else if( ptr == pend ){
 1229              		.loc 1 258 0
 1230 0180 7444     		add	r4, r4, lr
 1231 0182 0EFA04F4 		lsl	r4, lr, r4
 1232 0186 013C     		subs	r4, r4, #1
 1233 0188 04FA06F6 		lsl	r6, r4, r6
 1234 018c F6B2     		uxtb	r6, r6
 1235              	.LBE38:
 274:ssd1306.c     ****                     case INVERSE:   *ptr ^= 0xff; break;
 1236              		.loc 1 274 0
 1237 018e 4FF0000C 		mov	ip, #0
 273:ssd1306.c     ****                     case BLACK:     *ptr = 0x00; break;
 1238              		.loc 1 273 0
 1239 0192 4FF0FF08 		mov	r8, #255
 1240              	.LVL87:
 1241              	.L100:
 1242              	.LBE40:
 248:ssd1306.c     ****             
 1243              		.loc 1 248 0
 1244 0196 9342     		cmp	r3, r2
 1245 0198 C0F0A180 		bcc	.L87
 1246              	.LBB41:
 251:ssd1306.c     ****                 // top
 1247              		.loc 1 251 0
 1248 019c 9542     		cmp	r5, r2
 1249 019e 04D0     		beq	.L125
 259:ssd1306.c     ****                 // top is always bit 0, that makes it easy
 1250              		.loc 1 259 0
 1251 01a0 9342     		cmp	r3, r2
 1252 01a2 40F09280 		bne	.L102
 262:ssd1306.c     ****             }
 1253              		.loc 1 262 0
 1254 01a6 0C46     		mov	r4, r1
 1255 01a8 00E0     		b	.L101
 1256              	.L125:
 1257              	.LBB39:
 258:ssd1306.c     ****             }else if( ptr == pend ){
 1258              		.loc 1 258 0
 1259 01aa 3446     		mov	r4, r6
 1260              	.L101:
 1261              	.LBE39:
 266:ssd1306.c     ****                     case WHITE:     *ptr |= mask; break;
 1262              		.loc 1 266 0
 1263 01ac 012F     		cmp	r7, #1
 1264 01ae 07D0     		beq	.L104
 1265 01b0 0BD3     		bcc	.L105
 1266 01b2 022F     		cmp	r7, #2
 1267 01b4 15D1     		bne	.L103
 269:ssd1306.c     ****                 };  
 1268              		.loc 1 269 0
ARM GAS  C:\Users\Kiwi\AppData\Local\Temp\ccKDkYuk.s 			page 37


 1269 01b6 10F880EC 		ldrb	lr, [r0, #-128]	@ zero_extendqisi2
 1270 01ba 84EA0E04 		eor	r4, r4, lr
 1271 01be 0EE0     		b	.L128
 1272              	.L104:
 267:ssd1306.c     ****                     case BLACK:     *ptr &= ~mask; break;
 1273              		.loc 1 267 0
 1274 01c0 10F880EC 		ldrb	lr, [r0, #-128]	@ zero_extendqisi2
 1275 01c4 44EA0E04 		orr	r4, r4, lr
 1276 01c8 09E0     		b	.L128
 1277              	.L105:
 268:ssd1306.c     ****                     case INVERSE:   *ptr ^= mask; break;
 1278              		.loc 1 268 0
 1279 01ca 10F880EC 		ldrb	lr, [r0, #-128]	@ zero_extendqisi2
 1280 01ce 2EEA0404 		bic	r4, lr, r4
 1281 01d2 04E0     		b	.L128
 1282              	.L132:
 272:ssd1306.c     ****                     case WHITE:     *ptr = 0xff; break;
 1283              		.loc 1 272 0
 1284 01d4 022F     		cmp	r7, #2
 1285 01d6 04D1     		bne	.L103
 275:ssd1306.c     ****                 };  
 1286              		.loc 1 275 0
 1287 01d8 10F8804C 		ldrb	r4, [r0, #-128]	@ zero_extendqisi2
 1288 01dc E443     		mvns	r4, r4
 1289              	.L128:
 1290 01de 00F8804C 		strb	r4, [r0, #-128]
 1291              	.L103:
 279:ssd1306.c     ****         }
 1292              		.loc 1 279 0
 1293 01e2 8032     		adds	r2, r2, #128
 1294              	.LVL88:
 1295 01e4 8030     		adds	r0, r0, #128
 1296 01e6 D6E7     		b	.L100
 1297              	.LVL89:
 1298              	.L97:
 1299              	.LBE41:
 1300              	.LBE31:
 1301              	.LBB43:
 283:ssd1306.c     ****         uint8_t* pend = pstart + x2 - x1;
 1302              		.loc 1 283 0
 1303 01e8 91FBF2F2 		sdiv	r2, r1, r2
 285:ssd1306.c     **** 
 1304              		.loc 1 285 0
 1305 01ec 01F00701 		and	r1, r1, #7
 1306              	.LVL90:
 283:ssd1306.c     ****         uint8_t* pend = pstart + x2 - x1;
 1307              		.loc 1 283 0
 1308 01f0 00EBC212 		add	r2, r0, r2, lsl #7
 284:ssd1306.c     ****         uint8_t pixmask = GDDRAM_PIXMASK(y1);    
 1309              		.loc 1 284 0
 1310 01f4 201A     		subs	r0, r4, r0
 1311              	.LVL91:
 285:ssd1306.c     **** 
 1312              		.loc 1 285 0
 1313 01f6 0124     		movs	r4, #1
 1314              	.LVL92:
 1315 01f8 04FA01F1 		lsl	r1, r4, r1
ARM GAS  C:\Users\Kiwi\AppData\Local\Temp\ccKDkYuk.s 			page 38


 1316 01fc CCB2     		uxtb	r4, r1
 291:ssd1306.c     ****                 case INVERSE:   *ptr ^= pixmask; break;
 1317              		.loc 1 291 0
 1318 01fe C943     		mvns	r1, r1
 283:ssd1306.c     ****         uint8_t* pend = pstart + x2 - x1;
 1319              		.loc 1 283 0
 1320 0200 1344     		add	r3, r3, r2
 1321              	.LVL93:
 284:ssd1306.c     ****         uint8_t pixmask = GDDRAM_PIXMASK(y1);    
 1322              		.loc 1 284 0
 1323 0202 1844     		add	r0, r0, r3
 1324              	.LVL94:
 1325              	.L111:
 288:ssd1306.c     ****             switch( color ){
 1326              		.loc 1 288 0
 1327 0204 9842     		cmp	r0, r3
 1328 0206 6AD3     		bcc	.L87
 289:ssd1306.c     ****                 case WHITE:     *ptr |= pixmask; break;
 1329              		.loc 1 289 0
 1330 0208 012F     		cmp	r7, #1
 1331 020a 05D0     		beq	.L113
 1332 020c 07D3     		bcc	.L114
 1333 020e 022F     		cmp	r7, #2
 1334 0210 08D1     		bne	.L112
 292:ssd1306.c     ****             };
 1335              		.loc 1 292 0
 1336 0212 1A78     		ldrb	r2, [r3]	@ zero_extendqisi2
 1337 0214 6240     		eors	r2, r2, r4
 1338 0216 04E0     		b	.L129
 1339              	.L113:
 290:ssd1306.c     ****                 case BLACK:     *ptr &= ~pixmask; break;
 1340              		.loc 1 290 0
 1341 0218 1A78     		ldrb	r2, [r3]	@ zero_extendqisi2
 1342 021a 2243     		orrs	r2, r2, r4
 1343 021c 01E0     		b	.L129
 1344              	.L114:
 291:ssd1306.c     ****                 case INVERSE:   *ptr ^= pixmask; break;
 1345              		.loc 1 291 0
 1346 021e 1A78     		ldrb	r2, [r3]	@ zero_extendqisi2
 1347 0220 0A40     		ands	r2, r2, r1
 1348              	.L129:
 292:ssd1306.c     ****             };
 1349              		.loc 1 292 0
 1350 0222 1A70     		strb	r2, [r3]
 1351              	.L112:
 294:ssd1306.c     ****         }
 1352              		.loc 1 294 0
 1353 0224 0133     		adds	r3, r3, #1
 1354              	.LVL95:
 1355 0226 EDE7     		b	.L111
 1356              	.LVL96:
 1357              	.L89:
 1358              	.LBE43:
 1359              	.LBE45:
 1360              	.LBE47:
 1361              	.LBE27:
 1362              	.LBE26:
ARM GAS  C:\Users\Kiwi\AppData\Local\Temp\ccKDkYuk.s 			page 39


 482:ssd1306.c     ****     if( steep ){
 1363              		.loc 1 482 0
 1364 0228 C1EB0308 		rsb	r8, r1, r3
 1365 022c C0EB0609 		rsb	r9, r0, r6
 1366 0230 B8F1000F 		cmp	r8, #0
 1367 0234 B8BF     		it	lt
 1368 0236 C8F10008 		rsblt	r8, r8, #0
 1369 023a B9F1000F 		cmp	r9, #0
 1370 023e B8BF     		it	lt
 1371 0240 C9F10009 		rsblt	r9, r9, #0
 1372              	.LVL97:
 483:ssd1306.c     ****         t = x0; x0 = y0; y0 = t;
 1373              		.loc 1 483 0
 1374 0244 C845     		cmp	r8, r9
 1375 0246 04DD     		ble	.L117
 1376 0248 3346     		mov	r3, r6
 1377              	.LVL98:
 1378 024a 0C46     		mov	r4, r1
 1379 024c 1646     		mov	r6, r2
 1380 024e 0546     		mov	r5, r0
 1381 0250 1A46     		mov	r2, r3
 1382              	.L117:
 1383              	.LVL99:
 487:ssd1306.c     ****         t = x0; x0 = x1; x1 = t;
 1384              		.loc 1 487 0
 1385 0252 B442     		cmp	r4, r6
 1386 0254 05DD     		ble	.L118
 1387 0256 2B46     		mov	r3, r5
 489:ssd1306.c     ****     }
 1388              		.loc 1 489 0
 1389 0258 1546     		mov	r5, r2
 1390              	.LVL100:
 1391 025a 1A46     		mov	r2, r3
 1392              	.LVL101:
 487:ssd1306.c     ****         t = x0; x0 = x1; x1 = t;
 1393              		.loc 1 487 0
 1394 025c 2346     		mov	r3, r4
 1395 025e 3446     		mov	r4, r6
 1396              	.LVL102:
 1397 0260 1E46     		mov	r6, r3
 1398              	.LVL103:
 1399              	.L118:
 493:ssd1306.c     ****     int16_t err = dx / 2;
 1400              		.loc 1 493 0
 1401 0262 C5EB020B 		rsb	fp, r5, r2
 1402 0266 5B46     		mov	r3, fp
 492:ssd1306.c     ****     dy = abs(y1 - y0);
 1403              		.loc 1 492 0
 1404 0268 C4EB060A 		rsb	r10, r4, r6
 493:ssd1306.c     ****     int16_t err = dx / 2;
 1405              		.loc 1 493 0
 1406 026c 002B     		cmp	r3, #0
 1407 026e B8BF     		it	lt
 1408 0270 5B42     		rsblt	r3, r3, #0
 492:ssd1306.c     ****     dy = abs(y1 - y0);
 1409              		.loc 1 492 0
 1410 0272 1FFA8AFA 		uxth	r10, r10
ARM GAS  C:\Users\Kiwi\AppData\Local\Temp\ccKDkYuk.s 			page 40


 1411              	.LVL104:
 493:ssd1306.c     ****     int16_t err = dx / 2;
 1412              		.loc 1 493 0
 1413 0276 0193     		str	r3, [sp, #4]
 1414              	.LVL105:
 494:ssd1306.c     ****     int16_t ystep;
 1415              		.loc 1 494 0
 1416 0278 0FFA8AF1 		sxth	r1, r10
 1417 027c 0223     		movs	r3, #2
 1418 027e 91FBF3FB 		sdiv	fp, r1, r3
 1419              	.LVL106:
 499:ssd1306.c     ****     }
 1420              		.loc 1 499 0
 1421 0282 9542     		cmp	r5, r2
 1422 0284 B4BF     		ite	lt
 1423 0286 0123     		movlt	r3, #1
 1424 0288 4FF0FF33 		movge	r3, #-1
 1425 028c 0093     		str	r3, [sp]
 1426              	.LVL107:
 1427              	.L120:
 501:ssd1306.c     ****         if( steep ){
 1428              		.loc 1 501 0 discriminator 1
 1429 028e B442     		cmp	r4, r6
 1430 0290 25DC     		bgt	.L87
 502:ssd1306.c     ****             gfx_drawPixel( y0, x0, color );
 1431              		.loc 1 502 0
 1432 0292 C845     		cmp	r8, r9
 503:ssd1306.c     ****         }else{
 1433              		.loc 1 503 0
 1434 0294 3A46     		mov	r2, r7
 1435 0296 C7BF     		ittee	gt
 1436 0298 2146     		movgt	r1, r4
 1437 029a 2846     		movgt	r0, r5
 505:ssd1306.c     ****         }
 1438              		.loc 1 505 0
 1439 029c 2946     		movle	r1, r5
 1440 029e 2046     		movle	r0, r4
 1441 02a0 FFF7FEFF 		bl	gfx_drawPixel
 1442              	.LVL108:
 507:ssd1306.c     ****         if( err < 0 ){
 1443              		.loc 1 507 0
 1444 02a4 019B     		ldr	r3, [sp, #4]
 1445 02a6 C3EB0B03 		rsb	r3, r3, fp
 1446 02aa 9AB2     		uxth	r2, r3
 1447 02ac 0FFA82FB 		sxth	fp, r2
 1448              	.LVL109:
 508:ssd1306.c     ****             y0 += ystep;
 1449              		.loc 1 508 0
 1450 02b0 BBF1000F 		cmp	fp, #0
 1451 02b4 06DA     		bge	.L123
 509:ssd1306.c     ****             err += dx;
 1452              		.loc 1 509 0
 1453 02b6 009B     		ldr	r3, [sp]
 1454 02b8 1D44     		add	r5, r5, r3
 1455              	.LVL110:
 510:ssd1306.c     ****         }
 1456              		.loc 1 510 0
ARM GAS  C:\Users\Kiwi\AppData\Local\Temp\ccKDkYuk.s 			page 41


 1457 02ba 0AEB0203 		add	r3, r10, r2
 509:ssd1306.c     ****             err += dx;
 1458              		.loc 1 509 0
 1459 02be 2DB2     		sxth	r5, r5
 1460              	.LVL111:
 510:ssd1306.c     ****         }
 1461              		.loc 1 510 0
 1462 02c0 0FFA83FB 		sxth	fp, r3
 1463              	.LVL112:
 1464              	.L123:
 1465 02c4 0134     		adds	r4, r4, #1
 1466              	.LVL113:
 1467 02c6 24B2     		sxth	r4, r4
 1468              	.LVL114:
 1469 02c8 E1E7     		b	.L120
 1470              	.LVL115:
 1471              	.L102:
 1472              	.LBB50:
 1473              	.LBB49:
 1474              	.LBB48:
 1475              	.LBB46:
 1476              	.LBB44:
 1477              	.LBB42:
 272:ssd1306.c     ****                     case WHITE:     *ptr = 0xff; break;
 1478              		.loc 1 272 0
 1479 02ca 012F     		cmp	r7, #1
 1480 02cc 02D1     		bne	.L131
 273:ssd1306.c     ****                     case BLACK:     *ptr = 0x00; break;
 1481              		.loc 1 273 0
 1482 02ce 00F8808C 		strb	r8, [r0, #-128]
 1483 02d2 86E7     		b	.L103
 1484              	.L131:
 272:ssd1306.c     ****                     case WHITE:     *ptr = 0xff; break;
 1485              		.loc 1 272 0
 1486 02d4 BFF47EAF 		bcs	.L132
 274:ssd1306.c     ****                     case INVERSE:   *ptr ^= 0xff; break;
 1487              		.loc 1 274 0
 1488 02d8 00F880CC 		strb	ip, [r0, #-128]
 1489 02dc 81E7     		b	.L103
 1490              	.LVL116:
 1491              	.L87:
 1492              	.LBE42:
 1493              	.LBE44:
 1494              	.LBE46:
 1495              	.LBE48:
 1496              	.LBE49:
 1497              	.LBE50:
 513:ssd1306.c     **** 
 1498              		.loc 1 513 0
 1499 02de 05B0     		add	sp, sp, #20
 1500              		.cfi_def_cfa_offset 36
 1501              		@ sp needed
 1502 02e0 BDE8F08F 		pop	{r4, r5, r6, r7, r8, r9, r10, fp, pc}
 1503              	.LVL117:
 1504              	.L134:
 1505              		.align	2
 1506              	.L133:
ARM GAS  C:\Users\Kiwi\AppData\Local\Temp\ccKDkYuk.s 			page 42


 1507 02e4 00000000 		.word	rotation
 1508 02e8 00000000 		.word	HEIGHT
 1509 02ec 00000000 		.word	WIDTH
 1510 02f0 01000000 		.word	.LANCHOR1+1
 1511 02f4 07000080 		.word	-2147483641
 1512              		.cfi_endproc
 1513              	.LFE86:
 1514              		.size	gfx_drawLine, .-gfx_drawLine
 1515              		.section	.text.gfx_drawRect,"ax",%progbits
 1516              		.align	1
 1517              		.global	gfx_drawRect
 1518              		.thumb
 1519              		.thumb_func
 1520              		.type	gfx_drawRect, %function
 1521              	gfx_drawRect:
 1522              	.LFB87:
 515:ssd1306.c     ****     
 1523              		.loc 1 515 0
 1524              		.cfi_startproc
 1525              		@ args = 4, pretend = 0, frame = 0
 1526              		@ frame_needed = 0, uses_anonymous_args = 0
 1527              	.LVL118:
 1528 0000 2DE9F341 		push	{r0, r1, r4, r5, r6, r7, r8, lr}
 1529              		.cfi_def_cfa_offset 32
 1530              		.cfi_offset 4, -24
 1531              		.cfi_offset 5, -20
 1532              		.cfi_offset 6, -16
 1533              		.cfi_offset 7, -12
 1534              		.cfi_offset 8, -8
 1535              		.cfi_offset 14, -4
 515:ssd1306.c     ****     
 1536              		.loc 1 515 0
 1537 0004 1C46     		mov	r4, r3
 1538 0006 0E46     		mov	r6, r1
 1539 0008 8046     		mov	r8, r0
 517:ssd1306.c     ****     gfx_drawLine( x, y+h-1, x+w-1, y+h-1, color );
 1540              		.loc 1 517 0
 1541 000a 013A     		subs	r2, r2, #1
 1542              	.LVL119:
 515:ssd1306.c     ****     
 1543              		.loc 1 515 0
 1544 000c BDF82070 		ldrh	r7, [sp, #32]
 517:ssd1306.c     ****     gfx_drawLine( x, y+h-1, x+w-1, y+h-1, color );
 1545              		.loc 1 517 0
 1546 0010 1518     		adds	r5, r2, r0
 518:ssd1306.c     ****     gfx_drawLine( x, y, x, y+h-1, color );
 1547              		.loc 1 518 0
 1548 0012 013C     		subs	r4, r4, #1
 517:ssd1306.c     ****     gfx_drawLine( x, y+h-1, x+w-1, y+h-1, color );
 1549              		.loc 1 517 0
 1550 0014 2DB2     		sxth	r5, r5
 518:ssd1306.c     ****     gfx_drawLine( x, y, x, y+h-1, color );
 1551              		.loc 1 518 0
 1552 0016 3444     		add	r4, r4, r6
 1553 0018 24B2     		sxth	r4, r4
 517:ssd1306.c     ****     gfx_drawLine( x, y+h-1, x+w-1, y+h-1, color );
 1554              		.loc 1 517 0
ARM GAS  C:\Users\Kiwi\AppData\Local\Temp\ccKDkYuk.s 			page 43


 1555 001a 0B46     		mov	r3, r1
 1556              	.LVL120:
 1557 001c 2A46     		mov	r2, r5
 1558 001e 0097     		str	r7, [sp]
 1559 0020 FFF7FEFF 		bl	gfx_drawLine
 1560              	.LVL121:
 518:ssd1306.c     ****     gfx_drawLine( x, y, x, y+h-1, color );
 1561              		.loc 1 518 0
 1562 0024 2346     		mov	r3, r4
 1563 0026 2A46     		mov	r2, r5
 1564 0028 2146     		mov	r1, r4
 1565 002a 4046     		mov	r0, r8
 1566 002c 0097     		str	r7, [sp]
 1567 002e FFF7FEFF 		bl	gfx_drawLine
 1568              	.LVL122:
 519:ssd1306.c     ****     gfx_drawLine( x+w-1, y, x+w-1, y+h-1, color );
 1569              		.loc 1 519 0
 1570 0032 2346     		mov	r3, r4
 1571 0034 4246     		mov	r2, r8
 1572 0036 3146     		mov	r1, r6
 1573 0038 4046     		mov	r0, r8
 1574 003a 0097     		str	r7, [sp]
 1575 003c FFF7FEFF 		bl	gfx_drawLine
 1576              	.LVL123:
 520:ssd1306.c     **** }
 1577              		.loc 1 520 0
 1578 0040 2346     		mov	r3, r4
 1579 0042 2A46     		mov	r2, r5
 1580 0044 3146     		mov	r1, r6
 1581 0046 2846     		mov	r0, r5
 1582 0048 0897     		str	r7, [sp, #32]
 521:ssd1306.c     **** 
 1583              		.loc 1 521 0
 1584 004a 02B0     		add	sp, sp, #8
 1585              		.cfi_def_cfa_offset 24
 1586              		@ sp needed
 1587 004c BDE8F041 		pop	{r4, r5, r6, r7, r8, lr}
 1588              		.cfi_restore 14
 1589              		.cfi_restore 8
 1590              		.cfi_restore 7
 1591              		.cfi_restore 6
 1592              		.cfi_restore 5
 1593              		.cfi_restore 4
 1594              		.cfi_def_cfa_offset 0
 1595              	.LVL124:
 520:ssd1306.c     **** }
 1596              		.loc 1 520 0
 1597 0050 FFF7FEBF 		b	gfx_drawLine
 1598              	.LVL125:
 1599              		.cfi_endproc
 1600              	.LFE87:
 1601              		.size	gfx_drawRect, .-gfx_drawRect
 1602              		.section	.text.gfx_fillRect,"ax",%progbits
 1603              		.align	1
 1604              		.global	gfx_fillRect
 1605              		.thumb
 1606              		.thumb_func
ARM GAS  C:\Users\Kiwi\AppData\Local\Temp\ccKDkYuk.s 			page 44


 1607              		.type	gfx_fillRect, %function
 1608              	gfx_fillRect:
 1609              	.LFB88:
 523:ssd1306.c     ****     int16_t i = 0;
 1610              		.loc 1 523 0
 1611              		.cfi_startproc
 1612              		@ args = 4, pretend = 0, frame = 0
 1613              		@ frame_needed = 0, uses_anonymous_args = 0
 1614              	.LVL126:
 1615 0000 2DE9F743 		push	{r0, r1, r2, r4, r5, r6, r7, r8, r9, lr}
 1616              		.cfi_def_cfa_offset 40
 1617              		.cfi_offset 4, -28
 1618              		.cfi_offset 5, -24
 1619              		.cfi_offset 6, -20
 1620              		.cfi_offset 7, -16
 1621              		.cfi_offset 8, -12
 1622              		.cfi_offset 9, -8
 1623              		.cfi_offset 14, -4
 525:ssd1306.c     ****         for( i = x ; i < x+w ; i++ ){
 1624              		.loc 1 525 0
 1625 0004 9342     		cmp	r3, r2
 523:ssd1306.c     ****     int16_t i = 0;
 1626              		.loc 1 523 0
 1627 0006 0746     		mov	r7, r0
 1628 0008 0E46     		mov	r6, r1
 1629 000a 1546     		mov	r5, r2
 1630 000c 9846     		mov	r8, r3
 1631 000e BDF82890 		ldrh	r9, [sp, #40]
 525:ssd1306.c     ****         for( i = x ; i < x+w ; i++ ){
 1632              		.loc 1 525 0
 1633 0012 04DC     		bgt	.L137
 531:ssd1306.c     ****         }
 1634              		.loc 1 531 0 discriminator 1
 1635 0014 431E     		subs	r3, r0, #1
 1636              	.LVL127:
 1637 0016 1D44     		add	r5, r5, r3
 1638 0018 0C46     		mov	r4, r1
 1639 001a 2DB2     		sxth	r5, r5
 1640 001c 12E0     		b	.L138
 1641              	.LVL128:
 1642              	.L137:
 1643 001e 0446     		mov	r4, r0
 1644              	.LBB53:
 1645              	.LBB54:
 527:ssd1306.c     ****         }
 1646              		.loc 1 527 0
 1647 0020 4B1E     		subs	r3, r1, #1
 1648              	.LVL129:
 1649 0022 9844     		add	r8, r8, r3
 1650 0024 0FFA88F8 		sxth	r8, r8
 1651              	.LVL130:
 1652              	.L139:
 526:ssd1306.c     ****             gfx_drawLine( i, y, i, y+h-1, color );
 1653              		.loc 1 526 0
 1654 0028 7B19     		adds	r3, r7, r5
 1655 002a 9C42     		cmp	r4, r3
 1656 002c 19DA     		bge	.L136
ARM GAS  C:\Users\Kiwi\AppData\Local\Temp\ccKDkYuk.s 			page 45


 527:ssd1306.c     ****         }
 1657              		.loc 1 527 0
 1658 002e 2246     		mov	r2, r4
 1659 0030 2046     		mov	r0, r4
 1660 0032 CDF80090 		str	r9, [sp]
 1661 0036 4346     		mov	r3, r8
 1662 0038 3146     		mov	r1, r6
 1663 003a 0134     		adds	r4, r4, #1
 1664              	.LVL131:
 1665 003c FFF7FEFF 		bl	gfx_drawLine
 1666              	.LVL132:
 1667 0040 24B2     		sxth	r4, r4
 1668              	.LVL133:
 1669 0042 F1E7     		b	.L139
 1670              	.LVL134:
 1671              	.L138:
 1672              	.LBE54:
 1673              	.LBE53:
 530:ssd1306.c     ****             gfx_drawLine( x, i, x+w-1, i, color );
 1674              		.loc 1 530 0 discriminator 1
 1675 0044 06EB0803 		add	r3, r6, r8
 1676 0048 9C42     		cmp	r4, r3
 1677 004a 0ADA     		bge	.L136
 531:ssd1306.c     ****         }
 1678              		.loc 1 531 0 discriminator 3
 1679 004c 2346     		mov	r3, r4
 1680 004e 2146     		mov	r1, r4
 1681 0050 CDF80090 		str	r9, [sp]
 1682 0054 2A46     		mov	r2, r5
 1683 0056 3846     		mov	r0, r7
 1684 0058 0134     		adds	r4, r4, #1
 1685              	.LVL135:
 1686 005a FFF7FEFF 		bl	gfx_drawLine
 1687              	.LVL136:
 1688 005e 24B2     		sxth	r4, r4
 1689              	.LVL137:
 1690 0060 F0E7     		b	.L138
 1691              	.LVL138:
 1692              	.L136:
 534:ssd1306.c     **** 
 1693              		.loc 1 534 0
 1694 0062 03B0     		add	sp, sp, #12
 1695              		.cfi_def_cfa_offset 28
 1696              		@ sp needed
 1697 0064 BDE8F083 		pop	{r4, r5, r6, r7, r8, r9, pc}
 1698              		.cfi_endproc
 1699              	.LFE88:
 1700              		.size	gfx_fillRect, .-gfx_fillRect
 1701              		.section	.text.gfx_drawCircle,"ax",%progbits
 1702              		.align	1
 1703              		.global	gfx_drawCircle
 1704              		.thumb
 1705              		.thumb_func
 1706              		.type	gfx_drawCircle, %function
 1707              	gfx_drawCircle:
 1708              	.LFB89:
 538:ssd1306.c     **** 
ARM GAS  C:\Users\Kiwi\AppData\Local\Temp\ccKDkYuk.s 			page 46


 1709              		.loc 1 538 0
 1710              		.cfi_startproc
 1711              		@ args = 0, pretend = 0, frame = 32
 1712              		@ frame_needed = 0, uses_anonymous_args = 0
 1713              	.LVL139:
 1714 0000 2DE9F04F 		push	{r4, r5, r6, r7, r8, r9, r10, fp, lr}
 1715              		.cfi_def_cfa_offset 36
 1716              		.cfi_offset 4, -36
 1717              		.cfi_offset 5, -32
 1718              		.cfi_offset 6, -28
 1719              		.cfi_offset 7, -24
 1720              		.cfi_offset 8, -20
 1721              		.cfi_offset 9, -16
 1722              		.cfi_offset 10, -12
 1723              		.cfi_offset 11, -8
 1724              		.cfi_offset 14, -4
 1725 0004 1C46     		mov	r4, r3
 1726 0006 0546     		mov	r5, r0
 1727 0008 8946     		mov	r9, r1
 540:ssd1306.c     ****     int16_t ddF_x = 1;
 1728              		.loc 1 540 0
 1729 000a 96B2     		uxth	r6, r2
 1730 000c C6F10103 		rsb	r3, r6, #1
 1731              	.LVL140:
 538:ssd1306.c     **** 
 1732              		.loc 1 538 0
 1733 0010 89B0     		sub	sp, sp, #36
 1734              		.cfi_def_cfa_offset 72
 540:ssd1306.c     ****     int16_t ddF_x = 1;
 1735              		.loc 1 540 0
 1736 0012 1BB2     		sxth	r3, r3
 545:ssd1306.c     ****     gfx_drawPixel( x0 , y0-r, color );
 1737              		.loc 1 545 0
 1738 0014 1FFA81F8 		uxth	r8, r1
 540:ssd1306.c     ****     int16_t ddF_x = 1;
 1739              		.loc 1 540 0
 1740 0018 0193     		str	r3, [sp, #4]
 1741              	.LVL141:
 542:ssd1306.c     ****     int16_t x = 0;
 1742              		.loc 1 542 0
 1743 001a C6EBC633 		rsb	r3, r6, r6, lsl #15
 1744 001e 5B00     		lsls	r3, r3, #1
 545:ssd1306.c     ****     gfx_drawPixel( x0 , y0-r, color );
 1745              		.loc 1 545 0
 1746 0020 06EB0801 		add	r1, r6, r8
 1747              	.LVL142:
 542:ssd1306.c     ****     int16_t x = 0;
 1748              		.loc 1 542 0
 1749 0024 1BB2     		sxth	r3, r3
 545:ssd1306.c     ****     gfx_drawPixel( x0 , y0-r, color );
 1750              		.loc 1 545 0
 1751 0026 09B2     		sxth	r1, r1
 538:ssd1306.c     **** 
 1752              		.loc 1 538 0
 1753 0028 1746     		mov	r7, r2
 545:ssd1306.c     ****     gfx_drawPixel( x0 , y0-r, color );
 1754              		.loc 1 545 0
ARM GAS  C:\Users\Kiwi\AppData\Local\Temp\ccKDkYuk.s 			page 47


 1755 002a 2246     		mov	r2, r4
 1756              	.LVL143:
 542:ssd1306.c     ****     int16_t x = 0;
 1757              		.loc 1 542 0
 1758 002c 0393     		str	r3, [sp, #12]
 1759              	.LVL144:
 545:ssd1306.c     ****     gfx_drawPixel( x0 , y0-r, color );
 1760              		.loc 1 545 0
 1761 002e FFF7FEFF 		bl	gfx_drawPixel
 1762              	.LVL145:
 546:ssd1306.c     ****     gfx_drawPixel( x0+r, y0 , color );
 1763              		.loc 1 546 0
 1764 0032 C6EB0801 		rsb	r1, r6, r8
 1765 0036 2846     		mov	r0, r5
 1766 0038 2246     		mov	r2, r4
 547:ssd1306.c     ****     gfx_drawPixel( x0-r, y0 , color );
 1767              		.loc 1 547 0
 1768 003a ADB2     		uxth	r5, r5
 546:ssd1306.c     ****     gfx_drawPixel( x0+r, y0 , color );
 1769              		.loc 1 546 0
 1770 003c 09B2     		sxth	r1, r1
 1771 003e FFF7FEFF 		bl	gfx_drawPixel
 1772              	.LVL146:
 547:ssd1306.c     ****     gfx_drawPixel( x0-r, y0 , color );
 1773              		.loc 1 547 0
 1774 0042 7019     		adds	r0, r6, r5
 1775 0044 2246     		mov	r2, r4
 1776 0046 4946     		mov	r1, r9
 1777 0048 00B2     		sxth	r0, r0
 1778 004a FFF7FEFF 		bl	gfx_drawPixel
 1779              	.LVL147:
 548:ssd1306.c     ****     while( x < y ){
 1780              		.loc 1 548 0
 1781 004e A81B     		subs	r0, r5, r6
 1782 0050 2246     		mov	r2, r4
 1783 0052 4946     		mov	r1, r9
 1784 0054 00B2     		sxth	r0, r0
 1785 0056 FFF7FEFF 		bl	gfx_drawPixel
 1786              	.LVL148:
 549:ssd1306.c     ****         if( f >= 0 ){
 1787              		.loc 1 549 0
 1788 005a 0023     		movs	r3, #0
 1789 005c 0293     		str	r3, [sp, #8]
 1790 005e 6B1C     		adds	r3, r5, #1
 1791 0060 0493     		str	r3, [sp, #16]
 1792 0062 6B1E     		subs	r3, r5, #1
 1793 0064 0593     		str	r3, [sp, #20]
 1794 0066 08F10103 		add	r3, r8, #1
 1795 006a 0693     		str	r3, [sp, #24]
 1796              	.LVL149:
 1797              	.L144:
 1798 006c BDF90830 		ldrsh	r3, [sp, #8]
 1799 0070 BB42     		cmp	r3, r7
 1800 0072 65DA     		bge	.L147
 550:ssd1306.c     ****             y--;
 1801              		.loc 1 550 0
 1802 0074 019B     		ldr	r3, [sp, #4]
ARM GAS  C:\Users\Kiwi\AppData\Local\Temp\ccKDkYuk.s 			page 48


 1803 0076 002B     		cmp	r3, #0
 1804 0078 0ADB     		blt	.L145
 552:ssd1306.c     ****             f += ddF_y;
 1805              		.loc 1 552 0
 1806 007a 039B     		ldr	r3, [sp, #12]
 551:ssd1306.c     ****             ddF_y += 2;
 1807              		.loc 1 551 0
 1808 007c 013F     		subs	r7, r7, #1
 1809              	.LVL150:
 552:ssd1306.c     ****             f += ddF_y;
 1810              		.loc 1 552 0
 1811 007e 0233     		adds	r3, r3, #2
 1812 0080 9BB2     		uxth	r3, r3
 1813 0082 1AB2     		sxth	r2, r3
 1814 0084 0392     		str	r2, [sp, #12]
 1815              	.LVL151:
 553:ssd1306.c     ****         }
 1816              		.loc 1 553 0
 1817 0086 019A     		ldr	r2, [sp, #4]
 551:ssd1306.c     ****             ddF_y += 2;
 1818              		.loc 1 551 0
 1819 0088 3FB2     		sxth	r7, r7
 1820              	.LVL152:
 553:ssd1306.c     ****         }
 1821              		.loc 1 553 0
 1822 008a 1344     		add	r3, r3, r2
 1823 008c 1BB2     		sxth	r3, r3
 1824 008e 0193     		str	r3, [sp, #4]
 1825              	.LVL153:
 1826              	.L145:
 1827 0090 BDF80890 		ldrh	r9, [sp, #8]
 1828              	.LVL154:
 557:ssd1306.c     ****         gfx_drawPixel( x0 + x, y0 + y, color );
 1829              		.loc 1 557 0
 1830 0094 019B     		ldr	r3, [sp, #4]
 558:ssd1306.c     ****         gfx_drawPixel( x0 - x, y0 + y, color );
 1831              		.loc 1 558 0
 1832 0096 BEB2     		uxth	r6, r7
 557:ssd1306.c     ****         gfx_drawPixel( x0 + x, y0 + y, color );
 1833              		.loc 1 557 0
 1834 0098 03EB4903 		add	r3, r3, r9, lsl #1
 1835 009c 0333     		adds	r3, r3, #3
 1836 009e 1BB2     		sxth	r3, r3
 1837 00a0 0193     		str	r3, [sp, #4]
 1838              	.LVL155:
 1839 00a2 049B     		ldr	r3, [sp, #16]
 558:ssd1306.c     ****         gfx_drawPixel( x0 - x, y0 + y, color );
 1840              		.loc 1 558 0
 1841 00a4 08EB060B 		add	fp, r8, r6
 1842 00a8 4B44     		add	r3, r9, r3
 1843 00aa 1BB2     		sxth	r3, r3
 1844 00ac 0FFA8BFB 		sxth	fp, fp
 1845 00b0 5946     		mov	r1, fp
 1846 00b2 1846     		mov	r0, r3
 1847 00b4 2246     		mov	r2, r4
 1848 00b6 0793     		str	r3, [sp, #28]
 1849 00b8 FFF7FEFF 		bl	gfx_drawPixel
ARM GAS  C:\Users\Kiwi\AppData\Local\Temp\ccKDkYuk.s 			page 49


 1850              	.LVL156:
 1851 00bc 059B     		ldr	r3, [sp, #20]
 559:ssd1306.c     ****         gfx_drawPixel( x0 + x, y0 - y, color );
 1852              		.loc 1 559 0
 1853 00be 5946     		mov	r1, fp
 1854 00c0 C9EB030A 		rsb	r10, r9, r3
 1855 00c4 0FFA8AFA 		sxth	r10, r10
 1856 00c8 5046     		mov	r0, r10
 1857 00ca 2246     		mov	r2, r4
 1858 00cc FFF7FEFF 		bl	gfx_drawPixel
 1859              	.LVL157:
 560:ssd1306.c     ****         gfx_drawPixel( x0 - x, y0 - y, color );
 1860              		.loc 1 560 0
 1861 00d0 C6EB080B 		rsb	fp, r6, r8
 1862 00d4 079B     		ldr	r3, [sp, #28]
 1863 00d6 0FFA8BFB 		sxth	fp, fp
 1864 00da 1846     		mov	r0, r3
 1865 00dc 5946     		mov	r1, fp
 1866 00de 2246     		mov	r2, r4
 1867 00e0 FFF7FEFF 		bl	gfx_drawPixel
 1868              	.LVL158:
 561:ssd1306.c     ****         gfx_drawPixel( x0 + y, y0 + x, color );
 1869              		.loc 1 561 0
 1870 00e4 5946     		mov	r1, fp
 1871 00e6 5046     		mov	r0, r10
 1872 00e8 2246     		mov	r2, r4
 1873 00ea FFF7FEFF 		bl	gfx_drawPixel
 1874              	.LVL159:
 1875 00ee 069B     		ldr	r3, [sp, #24]
 562:ssd1306.c     ****         gfx_drawPixel( x0 - y, y0 + x, color );
 1876              		.loc 1 562 0
 1877 00f0 05EB060A 		add	r10, r5, r6
 1878 00f4 09EB030B 		add	fp, r9, r3
 1879 00f8 0FFA8AFA 		sxth	r10, r10
 1880 00fc 0FFA8BFB 		sxth	fp, fp
 563:ssd1306.c     ****         gfx_drawPixel( x0 + y, y0 - x, color );
 1881              		.loc 1 563 0
 1882 0100 AE1B     		subs	r6, r5, r6
 562:ssd1306.c     ****         gfx_drawPixel( x0 - y, y0 + x, color );
 1883              		.loc 1 562 0
 1884 0102 2246     		mov	r2, r4
 1885 0104 5946     		mov	r1, fp
 1886 0106 5046     		mov	r0, r10
 563:ssd1306.c     ****         gfx_drawPixel( x0 + y, y0 - x, color );
 1887              		.loc 1 563 0
 1888 0108 36B2     		sxth	r6, r6
 562:ssd1306.c     ****         gfx_drawPixel( x0 - y, y0 + x, color );
 1889              		.loc 1 562 0
 1890 010a FFF7FEFF 		bl	gfx_drawPixel
 1891              	.LVL160:
 563:ssd1306.c     ****         gfx_drawPixel( x0 + y, y0 - x, color );
 1892              		.loc 1 563 0
 1893 010e 2246     		mov	r2, r4
 1894 0110 5946     		mov	r1, fp
 1895 0112 3046     		mov	r0, r6
 1896 0114 FFF7FEFF 		bl	gfx_drawPixel
 1897              	.LVL161:
ARM GAS  C:\Users\Kiwi\AppData\Local\Temp\ccKDkYuk.s 			page 50


 1898 0118 08F1FF33 		add	r3, r8, #-1
 1899 011c C9EB0309 		rsb	r9, r9, r3
 1900 0120 0FFA89F9 		sxth	r9, r9
 564:ssd1306.c     ****         gfx_drawPixel( x0 - y, y0 - x, color );
 1901              		.loc 1 564 0
 1902 0124 2246     		mov	r2, r4
 1903 0126 4946     		mov	r1, r9
 1904 0128 5046     		mov	r0, r10
 1905 012a FFF7FEFF 		bl	gfx_drawPixel
 1906              	.LVL162:
 565:ssd1306.c     ****     }
 1907              		.loc 1 565 0
 1908 012e 2246     		mov	r2, r4
 1909 0130 4946     		mov	r1, r9
 1910 0132 3046     		mov	r0, r6
 1911 0134 FFF7FEFF 		bl	gfx_drawPixel
 1912              	.LVL163:
 1913 0138 029B     		ldr	r3, [sp, #8]
 1914 013a 0133     		adds	r3, r3, #1
 1915 013c 0293     		str	r3, [sp, #8]
 1916              	.LVL164:
 1917 013e 95E7     		b	.L144
 1918              	.LVL165:
 1919              	.L147:
 567:ssd1306.c     **** 
 1920              		.loc 1 567 0
 1921 0140 09B0     		add	sp, sp, #36
 1922              		.cfi_def_cfa_offset 36
 1923              		@ sp needed
 1924 0142 BDE8F08F 		pop	{r4, r5, r6, r7, r8, r9, r10, fp, pc}
 1925              		.cfi_endproc
 1926              	.LFE89:
 1927              		.size	gfx_drawCircle, .-gfx_drawCircle
 1928              		.section	.text.gfx_drawTriangle,"ax",%progbits
 1929              		.align	1
 1930              		.global	gfx_drawTriangle
 1931              		.thumb
 1932              		.thumb_func
 1933              		.type	gfx_drawTriangle, %function
 1934              	gfx_drawTriangle:
 1935              	.LFB90:
 569:ssd1306.c     ****     
 1936              		.loc 1 569 0
 1937              		.cfi_startproc
 1938              		@ args = 12, pretend = 0, frame = 0
 1939              		@ frame_needed = 0, uses_anonymous_args = 0
 1940              	.LVL166:
 1941 0000 2DE9F347 		push	{r0, r1, r4, r5, r6, r7, r8, r9, r10, lr}
 1942              		.cfi_def_cfa_offset 40
 1943              		.cfi_offset 4, -32
 1944              		.cfi_offset 5, -28
 1945              		.cfi_offset 6, -24
 1946              		.cfi_offset 7, -20
 1947              		.cfi_offset 8, -16
 1948              		.cfi_offset 9, -12
 1949              		.cfi_offset 10, -8
 1950              		.cfi_offset 14, -4
ARM GAS  C:\Users\Kiwi\AppData\Local\Temp\ccKDkYuk.s 			page 51


 569:ssd1306.c     ****     
 1951              		.loc 1 569 0
 1952 0004 9146     		mov	r9, r2
 1953 0006 9A46     		mov	r10, r3
 1954 0008 0746     		mov	r7, r0
 1955 000a 8846     		mov	r8, r1
 1956 000c BDF83040 		ldrh	r4, [sp, #48]
 1957 0010 BDF92850 		ldrsh	r5, [sp, #40]
 1958 0014 BDF92C60 		ldrsh	r6, [sp, #44]
 571:ssd1306.c     ****     gfx_drawLine( x1, y1, x2, y2, color );
 1959              		.loc 1 571 0
 1960 0018 0094     		str	r4, [sp]
 1961 001a FFF7FEFF 		bl	gfx_drawLine
 1962              	.LVL167:
 572:ssd1306.c     ****     gfx_drawLine( x2, y2, x0, y0, color );
 1963              		.loc 1 572 0
 1964 001e 3346     		mov	r3, r6
 1965 0020 2A46     		mov	r2, r5
 1966 0022 5146     		mov	r1, r10
 1967 0024 4846     		mov	r0, r9
 1968 0026 0094     		str	r4, [sp]
 1969 0028 FFF7FEFF 		bl	gfx_drawLine
 1970              	.LVL168:
 573:ssd1306.c     **** }
 1971              		.loc 1 573 0
 1972 002c 4346     		mov	r3, r8
 1973 002e 3A46     		mov	r2, r7
 1974 0030 3146     		mov	r1, r6
 1975 0032 2846     		mov	r0, r5
 1976 0034 0A94     		str	r4, [sp, #40]
 574:ssd1306.c     **** 
 1977              		.loc 1 574 0
 1978 0036 02B0     		add	sp, sp, #8
 1979              		.cfi_def_cfa_offset 32
 1980              		@ sp needed
 1981 0038 BDE8F047 		pop	{r4, r5, r6, r7, r8, r9, r10, lr}
 1982              		.cfi_restore 14
 1983              		.cfi_restore 10
 1984              		.cfi_restore 9
 1985              		.cfi_restore 8
 1986              		.cfi_restore 7
 1987              		.cfi_restore 6
 1988              		.cfi_restore 5
 1989              		.cfi_restore 4
 1990              		.cfi_def_cfa_offset 0
 1991              	.LVL169:
 573:ssd1306.c     **** }
 1992              		.loc 1 573 0
 1993 003c FFF7FEBF 		b	gfx_drawLine
 1994              	.LVL170:
 1995              		.cfi_endproc
 1996              	.LFE90:
 1997              		.size	gfx_drawTriangle, .-gfx_drawTriangle
 1998              		.section	.text.gfx_drawChar,"ax",%progbits
 1999              		.align	1
 2000              		.global	gfx_drawChar
 2001              		.thumb
ARM GAS  C:\Users\Kiwi\AppData\Local\Temp\ccKDkYuk.s 			page 52


 2002              		.thumb_func
 2003              		.type	gfx_drawChar, %function
 2004              	gfx_drawChar:
 2005              	.LFB91:
 578:ssd1306.c     ****     if( (x >= _width) || // Clip right
 2006              		.loc 1 578 0
 2007              		.cfi_startproc
 2008              		@ args = 8, pretend = 0, frame = 40
 2009              		@ frame_needed = 0, uses_anonymous_args = 0
 2010              	.LVL171:
 2011 0000 2DE9F04F 		push	{r4, r5, r6, r7, r8, r9, r10, fp, lr}
 2012              		.cfi_def_cfa_offset 36
 2013              		.cfi_offset 4, -36
 2014              		.cfi_offset 5, -32
 2015              		.cfi_offset 6, -28
 2016              		.cfi_offset 7, -24
 2017              		.cfi_offset 8, -20
 2018              		.cfi_offset 9, -16
 2019              		.cfi_offset 10, -12
 2020              		.cfi_offset 11, -8
 2021              		.cfi_offset 14, -4
 2022 0004 8DB0     		sub	sp, sp, #52
 2023              		.cfi_def_cfa_offset 88
 578:ssd1306.c     ****     if( (x >= _width) || // Clip right
 2024              		.loc 1 578 0
 2025 0006 0593     		str	r3, [sp, #20]
 2026 0008 BDF85830 		ldrh	r3, [sp, #88]
 2027              	.LVL172:
 2028 000c 8A46     		mov	r10, r1
 2029 000e 0693     		str	r3, [sp, #24]
 579:ssd1306.c     ****         (y >= _height) || // Clip bottom
 2030              		.loc 1 579 0
 2031 0010 3A4B     		ldr	r3, .L164
 578:ssd1306.c     ****     if( (x >= _width) || // Clip right
 2032              		.loc 1 578 0
 2033 0012 0490     		str	r0, [sp, #16]
 579:ssd1306.c     ****         (y >= _height) || // Clip bottom
 2034              		.loc 1 579 0
 2035 0014 B3F90810 		ldrsh	r1, [r3, #8]
 2036              	.LVL173:
 578:ssd1306.c     ****     if( (x >= _width) || // Clip right
 2037              		.loc 1 578 0
 2038 0018 9DF85C70 		ldrb	r7, [sp, #92]	@ zero_extendqisi2
 579:ssd1306.c     ****         (y >= _height) || // Clip bottom
 2039              		.loc 1 579 0
 2040 001c 8142     		cmp	r1, r0
 2041 001e 69DD     		ble	.L149
 579:ssd1306.c     ****         (y >= _height) || // Clip bottom
 2042              		.loc 1 579 0 is_stmt 0 discriminator 1
 2043 0020 B3F90A30 		ldrsh	r3, [r3, #10]
 2044 0024 5345     		cmp	r3, r10
 2045 0026 65DD     		ble	.L149
 580:ssd1306.c     ****         ((x + 6 * size - 1) < 0) || // Clip left
 2046              		.loc 1 580 0 is_stmt 1
 2047 0028 0623     		movs	r3, #6
 2048 002a 03FB0701 		mla	r1, r3, r7, r0
 2049 002e 0029     		cmp	r1, #0
ARM GAS  C:\Users\Kiwi\AppData\Local\Temp\ccKDkYuk.s 			page 53


 2050 0030 60DD     		ble	.L149
 581:ssd1306.c     ****         ((y + 8 * size - 1) < 0)) // Clip top
 2051              		.loc 1 581 0
 2052 0032 0AEBC701 		add	r1, r10, r7, lsl #3
 2053 0036 0029     		cmp	r1, #0
 2054 0038 5CDD     		ble	.L149
 2055              	.LBB58:
 2056              	.LBB59:
 2057              	.LBB60:
 591:ssd1306.c     ****         int8_t j = 0;
 2058              		.loc 1 591 0
 2059 003a 0893     		str	r3, [sp, #32]
 2060 003c 304B     		ldr	r3, .L164+4
 2061 003e 02EB8202 		add	r2, r2, r2, lsl #2
 2062              	.LVL174:
 2063 0042 1344     		add	r3, r3, r2
 2064 0044 0025     		movs	r5, #0
 2065 0046 0B93     		str	r3, [sp, #44]
 2066              	.LVL175:
 2067              	.L158:
 2068 0048 1FFA8AF4 		uxth	r4, r10
 598:ssd1306.c     ****                 }
 2069              		.loc 1 598 0
 2070 004c 2646     		mov	r6, r4
 588:ssd1306.c     ****             line = 0x0;
 2071              		.loc 1 588 0
 2072 004e 052D     		cmp	r5, #5
 591:ssd1306.c     ****         int8_t j = 0;
 2073              		.loc 1 591 0
 2074 0050 18BF     		it	ne
 2075 0052 0B9B     		ldrne	r3, [sp, #44]
 598:ssd1306.c     ****                 }
 2076              		.loc 1 598 0
 2077 0054 AAB2     		uxth	r2, r5
 591:ssd1306.c     ****         int8_t j = 0;
 2078              		.loc 1 591 0
 2079 0056 1CBF     		itt	ne
 2080 0058 5B19     		addne	r3, r3, r5
 2081 005a 93F82190 		ldrbne	r9, [r3, #33]	@ zero_extendqisi2
 2082              	.LVL176:
 598:ssd1306.c     ****                 }
 2083              		.loc 1 598 0
 2084 005e BDF81030 		ldrh	r3, [sp, #16]
 2085 0062 1FFA87FB 		uxth	fp, r7
 2086 0066 0BFB0231 		mla	r1, fp, r2, r3
 2087 006a 09B2     		sxth	r1, r1
 2088 006c 0791     		str	r1, [sp, #28]
 602:ssd1306.c     ****                 else { // big size
 2089              		.loc 1 602 0
 2090 006e 1344     		add	r3, r3, r2
 2091 0070 04F10801 		add	r1, r4, #8
 2092 0074 89B2     		uxth	r1, r1
 2093 0076 1BB2     		sxth	r3, r3
 589:ssd1306.c     ****         else
 2094              		.loc 1 589 0
 2095 0078 08BF     		it	eq
 2096 007a 4FF00009 		moveq	r9, #0
ARM GAS  C:\Users\Kiwi\AppData\Local\Temp\ccKDkYuk.s 			page 54


 2097              	.LVL177:
 2098 007e 0A91     		str	r1, [sp, #40]
 598:ssd1306.c     ****                 }
 2099              		.loc 1 598 0
 2100 0080 0394     		str	r4, [sp, #12]
 604:ssd1306.c     ****                 }
 2101              		.loc 1 604 0
 2102 0082 0FFA87F8 		sxth	r8, r7
 602:ssd1306.c     ****                 else { // big size
 2103              		.loc 1 602 0
 2104 0086 0993     		str	r3, [sp, #36]
 2105              	.LVL178:
 2106              	.L157:
 594:ssd1306.c     ****                 if( size == 1 ) // default size
 2107              		.loc 1 594 0
 2108 0088 19F0010F 		tst	r9, #1
 2109 008c 0AD0     		beq	.L153
 595:ssd1306.c     ****                     gfx_drawPixel( x+i, y+j, color );
 2110              		.loc 1 595 0
 2111 008e 012F     		cmp	r7, #1
 2112 0090 01D1     		bne	.L154
 596:ssd1306.c     ****                 else { // big size
 2113              		.loc 1 596 0
 2114 0092 059A     		ldr	r2, [sp, #20]
 2115 0094 0CE0     		b	.L162
 2116              	.L154:
 598:ssd1306.c     ****                 }
 2117              		.loc 1 598 0
 2118 0096 059B     		ldr	r3, [sp, #20]
 2119 0098 4246     		mov	r2, r8
 2120 009a 0093     		str	r3, [sp]
 2121 009c BDF90C10 		ldrsh	r1, [sp, #12]
 2122 00a0 4346     		mov	r3, r8
 2123 00a2 0FE0     		b	.L163
 2124              	.L153:
 600:ssd1306.c     ****                 if( size == 1 ) // default size
 2125              		.loc 1 600 0
 2126 00a4 059B     		ldr	r3, [sp, #20]
 2127 00a6 069A     		ldr	r2, [sp, #24]
 2128 00a8 9342     		cmp	r3, r2
 2129 00aa 0ED0     		beq	.L155
 601:ssd1306.c     ****                     gfx_drawPixel( x+i, y+j, bg );
 2130              		.loc 1 601 0
 2131 00ac 012F     		cmp	r7, #1
 2132 00ae 04D1     		bne	.L156
 2133              	.L162:
 602:ssd1306.c     ****                 else { // big size
 2134              		.loc 1 602 0
 2135 00b0 31B2     		sxth	r1, r6
 2136 00b2 0998     		ldr	r0, [sp, #36]
 2137 00b4 FFF7FEFF 		bl	gfx_drawPixel
 2138              	.LVL179:
 2139 00b8 07E0     		b	.L155
 2140              	.L156:
 604:ssd1306.c     ****                 }
 2141              		.loc 1 604 0
 2142 00ba 069B     		ldr	r3, [sp, #24]
ARM GAS  C:\Users\Kiwi\AppData\Local\Temp\ccKDkYuk.s 			page 55


 2143 00bc 4246     		mov	r2, r8
 2144 00be 0093     		str	r3, [sp]
 2145 00c0 4346     		mov	r3, r8
 2146 00c2 21B2     		sxth	r1, r4
 2147              	.L163:
 2148 00c4 0798     		ldr	r0, [sp, #28]
 2149 00c6 FFF7FEFF 		bl	gfx_fillRect
 2150              	.LVL180:
 2151              	.L155:
 2152 00ca 039B     		ldr	r3, [sp, #12]
 2153 00cc 0136     		adds	r6, r6, #1
 2154 00ce 5B44     		add	r3, r3, fp
 2155 00d0 9BB2     		uxth	r3, r3
 2156 00d2 0393     		str	r3, [sp, #12]
 593:ssd1306.c     ****             if( line & 0x1 ){
 2157              		.loc 1 593 0
 2158 00d4 0A9B     		ldr	r3, [sp, #40]
 2159 00d6 B6B2     		uxth	r6, r6
 2160 00d8 5C44     		add	r4, r4, fp
 2161 00da 9E42     		cmp	r6, r3
 607:ssd1306.c     ****         }
 2162              		.loc 1 607 0
 2163 00dc 4FEA5909 		lsr	r9, r9, #1
 2164              	.LVL181:
 2165 00e0 A4B2     		uxth	r4, r4
 593:ssd1306.c     ****             if( line & 0x1 ){
 2166              		.loc 1 593 0
 2167 00e2 D1D1     		bne	.L157
 2168 00e4 089B     		ldr	r3, [sp, #32]
 2169              	.LBE60:
 586:ssd1306.c     ****         uint8_t line;
 2170              		.loc 1 586 0
 2171 00e6 0135     		adds	r5, r5, #1
 2172              	.LVL182:
 2173 00e8 013B     		subs	r3, r3, #1
 2174 00ea 13F0FF03 		ands	r3, r3, #255
 2175 00ee 6DB2     		sxtb	r5, r5
 2176              	.LVL183:
 2177 00f0 0893     		str	r3, [sp, #32]
 2178 00f2 A9D1     		bne	.L158
 2179              	.LVL184:
 2180              	.L149:
 2181              	.LBE59:
 2182              	.LBE58:
 610:ssd1306.c     **** 
 2183              		.loc 1 610 0
 2184 00f4 0DB0     		add	sp, sp, #52
 2185              		.cfi_def_cfa_offset 36
 2186              		@ sp needed
 2187 00f6 BDE8F08F 		pop	{r4, r5, r6, r7, r8, r9, r10, fp, pc}
 2188              	.LVL185:
 2189              	.L165:
 2190 00fa 00BF     		.align	2
 2191              	.L164:
 2192 00fc 00000000 		.word	.LANCHOR0
 2193 0100 00000000 		.word	.LANCHOR2
 2194              		.cfi_endproc
ARM GAS  C:\Users\Kiwi\AppData\Local\Temp\ccKDkYuk.s 			page 56


 2195              	.LFE91:
 2196              		.size	gfx_drawChar, .-gfx_drawChar
 2197              		.section	.text.gfx_write,"ax",%progbits
 2198              		.align	1
 2199              		.global	gfx_write
 2200              		.thumb
 2201              		.thumb_func
 2202              		.type	gfx_write, %function
 2203              	gfx_write:
 2204              	.LFB92:
 612:ssd1306.c     ****     if( ch == '\n' ){
 2205              		.loc 1 612 0
 2206              		.cfi_startproc
 2207              		@ args = 0, pretend = 0, frame = 0
 2208              		@ frame_needed = 0, uses_anonymous_args = 0
 2209              	.LVL186:
 613:ssd1306.c     ****         cursor_y += textsize*8;
 2210              		.loc 1 613 0
 2211 0000 0A28     		cmp	r0, #10
 612:ssd1306.c     ****     if( ch == '\n' ){
 2212              		.loc 1 612 0
 2213 0002 F7B5     		push	{r0, r1, r2, r4, r5, r6, r7, lr}
 2214              		.cfi_def_cfa_offset 32
 2215              		.cfi_offset 4, -20
 2216              		.cfi_offset 5, -16
 2217              		.cfi_offset 6, -12
 2218              		.cfi_offset 7, -8
 2219              		.cfi_offset 14, -4
 612:ssd1306.c     ****     if( ch == '\n' ){
 2220              		.loc 1 612 0
 2221 0004 0246     		mov	r2, r0
 613:ssd1306.c     ****         cursor_y += textsize*8;
 2222              		.loc 1 613 0
 2223 0006 04D1     		bne	.L167
 616:ssd1306.c     ****     }else if( ch == '\r' ){
 617:ssd1306.c     ****         // skip em
 618:ssd1306.c     ****     }else{
 619:ssd1306.c     ****         gfx_drawChar(cursor_x, cursor_y, ch, textcolor, textbgcolor, textsize);
 620:ssd1306.c     ****         cursor_x += textsize*6;
 621:ssd1306.c     ****         if( wrap && (cursor_x > (_width - textsize*6)) ){
 622:ssd1306.c     ****             cursor_y += textsize*8;
 623:ssd1306.c     ****             cursor_x = 0;
 624:ssd1306.c     ****         }
 625:ssd1306.c     ****     }
 626:ssd1306.c     **** }
 2224              		.loc 1 626 0
 2225 0008 03B0     		add	sp, sp, #12
 2226              		.cfi_remember_state
 2227              		.cfi_def_cfa_offset 20
 2228              		@ sp needed
 2229 000a BDE8F040 		pop	{r4, r5, r6, r7, lr}
 2230              		.cfi_restore 14
 2231              		.cfi_restore 7
 2232              		.cfi_restore 6
 2233              		.cfi_restore 5
 2234              		.cfi_restore 4
 2235              		.cfi_def_cfa_offset 0
ARM GAS  C:\Users\Kiwi\AppData\Local\Temp\ccKDkYuk.s 			page 57


 2236 000e FFF7FEBF 		b	gfx_write.part.3
 2237              	.LVL187:
 2238              	.L167:
 2239              		.cfi_restore_state
 616:ssd1306.c     ****     }else if( ch == '\r' ){
 2240              		.loc 1 616 0
 2241 0012 0D28     		cmp	r0, #13
 2242 0014 24D0     		beq	.L166
 619:ssd1306.c     ****         cursor_x += textsize*6;
 2243              		.loc 1 619 0
 2244 0016 134C     		ldr	r4, .L174
 2245 0018 B4F90650 		ldrsh	r5, [r4, #6]
 2246 001c 2679     		ldrb	r6, [r4, #4]	@ zero_extendqisi2
 2247 001e A189     		ldrh	r1, [r4, #12]
 2248 0020 B4F90270 		ldrsh	r7, [r4, #2]
 2249 0024 E389     		ldrh	r3, [r4, #14]
 2250 0026 0091     		str	r1, [sp]
 2251 0028 2846     		mov	r0, r5
 2252              	.LVL188:
 2253 002a 0196     		str	r6, [sp, #4]
 2254 002c 3946     		mov	r1, r7
 2255 002e FFF7FEFF 		bl	gfx_drawChar
 2256              	.LVL189:
 620:ssd1306.c     ****         if( wrap && (cursor_x > (_width - textsize*6)) ){
 2257              		.loc 1 620 0
 2258 0032 B3B2     		uxth	r3, r6
 2259 0034 03EB4302 		add	r2, r3, r3, lsl #1
 2260 0038 05EB4205 		add	r5, r5, r2, lsl #1
 621:ssd1306.c     ****             cursor_y += textsize*8;
 2261              		.loc 1 621 0
 2262 003c 0A4A     		ldr	r2, .L174+4
 620:ssd1306.c     ****         if( wrap && (cursor_x > (_width - textsize*6)) ){
 2263              		.loc 1 620 0
 2264 003e 2DB2     		sxth	r5, r5
 621:ssd1306.c     ****             cursor_y += textsize*8;
 2265              		.loc 1 621 0
 2266 0040 1278     		ldrb	r2, [r2]	@ zero_extendqisi2
 620:ssd1306.c     ****         if( wrap && (cursor_x > (_width - textsize*6)) ){
 2267              		.loc 1 620 0
 2268 0042 E580     		strh	r5, [r4, #6]	@ movhi
 621:ssd1306.c     ****             cursor_y += textsize*8;
 2269              		.loc 1 621 0
 2270 0044 62B1     		cbz	r2, .L166
 621:ssd1306.c     ****             cursor_y += textsize*8;
 2271              		.loc 1 621 0 is_stmt 0 discriminator 1
 2272 0046 B4F90820 		ldrsh	r2, [r4, #8]
 2273 004a 6FF00501 		mvn	r1, #5
 2274 004e 01FB0626 		mla	r6, r1, r6, r2
 2275 0052 B542     		cmp	r5, r6
 622:ssd1306.c     ****             cursor_x = 0;
 2276              		.loc 1 622 0 is_stmt 1 discriminator 1
 2277 0054 C1BF     		itttt	gt
 2278 0056 07EBC307 		addgt	r7, r7, r3, lsl #3
 623:ssd1306.c     ****         }
 2279              		.loc 1 623 0 discriminator 1
 2280 005a 0023     		movgt	r3, #0
 622:ssd1306.c     ****             cursor_x = 0;
ARM GAS  C:\Users\Kiwi\AppData\Local\Temp\ccKDkYuk.s 			page 58


 2281              		.loc 1 622 0 discriminator 1
 2282 005c 6780     		strhgt	r7, [r4, #2]	@ movhi
 623:ssd1306.c     ****         }
 2283              		.loc 1 623 0 discriminator 1
 2284 005e E380     		strhgt	r3, [r4, #6]	@ movhi
 2285              	.L166:
 2286              		.loc 1 626 0
 2287 0060 03B0     		add	sp, sp, #12
 2288              		.cfi_def_cfa_offset 20
 2289              		@ sp needed
 2290 0062 F0BD     		pop	{r4, r5, r6, r7, pc}
 2291              	.L175:
 2292              		.align	2
 2293              	.L174:
 2294 0064 00000000 		.word	.LANCHOR0
 2295 0068 00000000 		.word	wrap
 2296              		.cfi_endproc
 2297              	.LFE92:
 2298              		.size	gfx_write, .-gfx_write
 2299              		.section	.text.gfx_print,"ax",%progbits
 2300              		.align	1
 2301              		.global	gfx_print
 2302              		.thumb
 2303              		.thumb_func
 2304              		.type	gfx_print, %function
 2305              	gfx_print:
 2306              	.LFB93:
 627:ssd1306.c     **** 
 628:ssd1306.c     **** void gfx_print( const char* s ){
 2307              		.loc 1 628 0
 2308              		.cfi_startproc
 2309              		@ args = 0, pretend = 0, frame = 0
 2310              		@ frame_needed = 0, uses_anonymous_args = 0
 2311              	.LVL190:
 2312 0000 38B5     		push	{r3, r4, r5, lr}
 2313              		.cfi_def_cfa_offset 16
 2314              		.cfi_offset 3, -16
 2315              		.cfi_offset 4, -12
 2316              		.cfi_offset 5, -8
 2317              		.cfi_offset 14, -4
 2318              		.loc 1 628 0
 2319 0002 0446     		mov	r4, r0
 629:ssd1306.c     ****     
 630:ssd1306.c     ****     unsigned int len = strlen( s );
 2320              		.loc 1 630 0
 2321 0004 FFF7FEFF 		bl	strlen
 2322              	.LVL191:
 2323 0008 2518     		adds	r5, r4, r0
 2324              	.LVL192:
 2325              	.L177:
 631:ssd1306.c     ****     unsigned int i = 0; 
 632:ssd1306.c     ****     for( i = 0 ; i < len ; i++ ){
 2326              		.loc 1 632 0 discriminator 1
 2327 000a AC42     		cmp	r4, r5
 2328 000c 04D0     		beq	.L179
 633:ssd1306.c     ****         gfx_write( s[i] );
 2329              		.loc 1 633 0 discriminator 3
ARM GAS  C:\Users\Kiwi\AppData\Local\Temp\ccKDkYuk.s 			page 59


 2330 000e 14F8010B 		ldrb	r0, [r4], #1	@ zero_extendqisi2
 2331              	.LVL193:
 2332 0012 FFF7FEFF 		bl	gfx_write
 2333              	.LVL194:
 2334 0016 F8E7     		b	.L177
 2335              	.L179:
 634:ssd1306.c     ****     }
 635:ssd1306.c     **** }
 2336              		.loc 1 635 0
 2337 0018 38BD     		pop	{r3, r4, r5, pc}
 2338              		.cfi_endproc
 2339              	.LFE93:
 2340              		.size	gfx_print, .-gfx_print
 2341              		.section	.text.gfx_println,"ax",%progbits
 2342              		.align	1
 2343              		.global	gfx_println
 2344              		.thumb
 2345              		.thumb_func
 2346              		.type	gfx_println, %function
 2347              	gfx_println:
 2348              	.LFB94:
 636:ssd1306.c     **** 
 637:ssd1306.c     **** void gfx_println( const char* s ){ 
 2349              		.loc 1 637 0
 2350              		.cfi_startproc
 2351              		@ args = 0, pretend = 0, frame = 0
 2352              		@ frame_needed = 0, uses_anonymous_args = 0
 2353              	.LVL195:
 2354 0000 08B5     		push	{r3, lr}
 2355              		.cfi_def_cfa_offset 8
 2356              		.cfi_offset 3, -8
 2357              		.cfi_offset 14, -4
 638:ssd1306.c     ****     gfx_print( s ); 
 2358              		.loc 1 638 0
 2359 0002 FFF7FEFF 		bl	gfx_print
 2360              	.LVL196:
 639:ssd1306.c     ****     gfx_write( '\n' );
 640:ssd1306.c     **** }
 2361              		.loc 1 640 0
 2362 0006 BDE80840 		pop	{r3, lr}
 2363              		.cfi_restore 14
 2364              		.cfi_restore 3
 2365              		.cfi_def_cfa_offset 0
 2366              	.LBB61:
 2367              	.LBB62:
 2368 000a FFF7FEBF 		b	gfx_write.part.3
 2369              	.LVL197:
 2370              	.LBE62:
 2371              	.LBE61:
 2372              		.cfi_endproc
 2373              	.LFE94:
 2374              		.size	gfx_println, .-gfx_println
 2375              		.comm	wrap,1,1
 2376              		.comm	rotation,1,1
 2377              		.comm	HEIGHT,2,2
 2378              		.comm	WIDTH,2,2
 2379              		.section	.rodata
ARM GAS  C:\Users\Kiwi\AppData\Local\Temp\ccKDkYuk.s 			page 60


 2380              		.set	.LANCHOR2,. + 0
 2381              	.LC1:
 2382 0000 00       		.byte	0
 2383 0001 21       		.byte	33
 2384 0002 00       		.byte	0
 2385 0003 7F       		.byte	127
 2386 0004 22       		.byte	34
 2387 0005 00       		.byte	0
 2388 0006 07       		.byte	7
 2389              	.LC0:
 2390 0007 00       		.byte	0
 2391 0008 AE       		.byte	-82
 2392 0009 D5       		.byte	-43
 2393 000a 80       		.byte	-128
 2394 000b A8       		.byte	-88
 2395 000c 3F       		.byte	63
 2396 000d D3       		.byte	-45
 2397 000e 00       		.byte	0
 2398 000f 40       		.byte	64
 2399 0010 8D       		.byte	-115
 2400 0011 14       		.byte	20
 2401 0012 20       		.byte	32
 2402 0013 00       		.byte	0
 2403 0014 A1       		.byte	-95
 2404 0015 C8       		.byte	-56
 2405 0016 DA       		.byte	-38
 2406 0017 12       		.byte	18
 2407 0018 81       		.byte	-127
 2408 0019 CF       		.byte	-49
 2409 001a D9       		.byte	-39
 2410 001b F1       		.byte	-15
 2411 001c DB       		.byte	-37
 2412 001d 40       		.byte	64
 2413 001e A4       		.byte	-92
 2414 001f A6       		.byte	-90
 2415 0020 AF       		.byte	-81
 2416              		.type	font, %object
 2417              		.size	font, 1275
 2418              	font:
 2419 0021 00       		.byte	0
 2420 0022 00       		.byte	0
 2421 0023 00       		.byte	0
 2422 0024 00       		.byte	0
 2423 0025 00       		.byte	0
 2424 0026 3E       		.byte	62
 2425 0027 5B       		.byte	91
 2426 0028 4F       		.byte	79
 2427 0029 5B       		.byte	91
 2428 002a 3E       		.byte	62
 2429 002b 3E       		.byte	62
 2430 002c 6B       		.byte	107
 2431 002d 4F       		.byte	79
 2432 002e 6B       		.byte	107
 2433 002f 3E       		.byte	62
 2434 0030 1C       		.byte	28
 2435 0031 3E       		.byte	62
 2436 0032 7C       		.byte	124
ARM GAS  C:\Users\Kiwi\AppData\Local\Temp\ccKDkYuk.s 			page 61


 2437 0033 3E       		.byte	62
 2438 0034 1C       		.byte	28
 2439 0035 18       		.byte	24
 2440 0036 3C       		.byte	60
 2441 0037 7E       		.byte	126
 2442 0038 3C       		.byte	60
 2443 0039 18       		.byte	24
 2444 003a 1C       		.byte	28
 2445 003b 57       		.byte	87
 2446 003c 7D       		.byte	125
 2447 003d 57       		.byte	87
 2448 003e 1C       		.byte	28
 2449 003f 1C       		.byte	28
 2450 0040 5E       		.byte	94
 2451 0041 7F       		.byte	127
 2452 0042 5E       		.byte	94
 2453 0043 1C       		.byte	28
 2454 0044 00       		.byte	0
 2455 0045 18       		.byte	24
 2456 0046 3C       		.byte	60
 2457 0047 18       		.byte	24
 2458 0048 00       		.byte	0
 2459 0049 FF       		.byte	-1
 2460 004a E7       		.byte	-25
 2461 004b C3       		.byte	-61
 2462 004c E7       		.byte	-25
 2463 004d FF       		.byte	-1
 2464 004e 00       		.byte	0
 2465 004f 18       		.byte	24
 2466 0050 24       		.byte	36
 2467 0051 18       		.byte	24
 2468 0052 00       		.byte	0
 2469 0053 FF       		.byte	-1
 2470 0054 E7       		.byte	-25
 2471 0055 DB       		.byte	-37
 2472 0056 E7       		.byte	-25
 2473 0057 FF       		.byte	-1
 2474 0058 30       		.byte	48
 2475 0059 48       		.byte	72
 2476 005a 3A       		.byte	58
 2477 005b 06       		.byte	6
 2478 005c 0E       		.byte	14
 2479 005d 26       		.byte	38
 2480 005e 29       		.byte	41
 2481 005f 79       		.byte	121
 2482 0060 29       		.byte	41
 2483 0061 26       		.byte	38
 2484 0062 40       		.byte	64
 2485 0063 7F       		.byte	127
 2486 0064 05       		.byte	5
 2487 0065 05       		.byte	5
 2488 0066 07       		.byte	7
 2489 0067 40       		.byte	64
 2490 0068 7F       		.byte	127
 2491 0069 05       		.byte	5
 2492 006a 25       		.byte	37
 2493 006b 3F       		.byte	63
ARM GAS  C:\Users\Kiwi\AppData\Local\Temp\ccKDkYuk.s 			page 62


 2494 006c 5A       		.byte	90
 2495 006d 3C       		.byte	60
 2496 006e E7       		.byte	-25
 2497 006f 3C       		.byte	60
 2498 0070 5A       		.byte	90
 2499 0071 7F       		.byte	127
 2500 0072 3E       		.byte	62
 2501 0073 1C       		.byte	28
 2502 0074 1C       		.byte	28
 2503 0075 08       		.byte	8
 2504 0076 08       		.byte	8
 2505 0077 1C       		.byte	28
 2506 0078 1C       		.byte	28
 2507 0079 3E       		.byte	62
 2508 007a 7F       		.byte	127
 2509 007b 14       		.byte	20
 2510 007c 22       		.byte	34
 2511 007d 7F       		.byte	127
 2512 007e 22       		.byte	34
 2513 007f 14       		.byte	20
 2514 0080 5F       		.byte	95
 2515 0081 5F       		.byte	95
 2516 0082 00       		.byte	0
 2517 0083 5F       		.byte	95
 2518 0084 5F       		.byte	95
 2519 0085 06       		.byte	6
 2520 0086 09       		.byte	9
 2521 0087 7F       		.byte	127
 2522 0088 01       		.byte	1
 2523 0089 7F       		.byte	127
 2524 008a 00       		.byte	0
 2525 008b 66       		.byte	102
 2526 008c 89       		.byte	-119
 2527 008d 95       		.byte	-107
 2528 008e 6A       		.byte	106
 2529 008f 60       		.byte	96
 2530 0090 60       		.byte	96
 2531 0091 60       		.byte	96
 2532 0092 60       		.byte	96
 2533 0093 60       		.byte	96
 2534 0094 94       		.byte	-108
 2535 0095 A2       		.byte	-94
 2536 0096 FF       		.byte	-1
 2537 0097 A2       		.byte	-94
 2538 0098 94       		.byte	-108
 2539 0099 08       		.byte	8
 2540 009a 04       		.byte	4
 2541 009b 7E       		.byte	126
 2542 009c 04       		.byte	4
 2543 009d 08       		.byte	8
 2544 009e 10       		.byte	16
 2545 009f 20       		.byte	32
 2546 00a0 7E       		.byte	126
 2547 00a1 20       		.byte	32
 2548 00a2 10       		.byte	16
 2549 00a3 08       		.byte	8
 2550 00a4 08       		.byte	8
ARM GAS  C:\Users\Kiwi\AppData\Local\Temp\ccKDkYuk.s 			page 63


 2551 00a5 2A       		.byte	42
 2552 00a6 1C       		.byte	28
 2553 00a7 08       		.byte	8
 2554 00a8 08       		.byte	8
 2555 00a9 1C       		.byte	28
 2556 00aa 2A       		.byte	42
 2557 00ab 08       		.byte	8
 2558 00ac 08       		.byte	8
 2559 00ad 1E       		.byte	30
 2560 00ae 10       		.byte	16
 2561 00af 10       		.byte	16
 2562 00b0 10       		.byte	16
 2563 00b1 10       		.byte	16
 2564 00b2 0C       		.byte	12
 2565 00b3 1E       		.byte	30
 2566 00b4 0C       		.byte	12
 2567 00b5 1E       		.byte	30
 2568 00b6 0C       		.byte	12
 2569 00b7 30       		.byte	48
 2570 00b8 38       		.byte	56
 2571 00b9 3E       		.byte	62
 2572 00ba 38       		.byte	56
 2573 00bb 30       		.byte	48
 2574 00bc 06       		.byte	6
 2575 00bd 0E       		.byte	14
 2576 00be 3E       		.byte	62
 2577 00bf 0E       		.byte	14
 2578 00c0 06       		.byte	6
 2579 00c1 00       		.byte	0
 2580 00c2 00       		.byte	0
 2581 00c3 00       		.byte	0
 2582 00c4 00       		.byte	0
 2583 00c5 00       		.byte	0
 2584 00c6 00       		.byte	0
 2585 00c7 00       		.byte	0
 2586 00c8 5F       		.byte	95
 2587 00c9 00       		.byte	0
 2588 00ca 00       		.byte	0
 2589 00cb 00       		.byte	0
 2590 00cc 07       		.byte	7
 2591 00cd 00       		.byte	0
 2592 00ce 07       		.byte	7
 2593 00cf 00       		.byte	0
 2594 00d0 14       		.byte	20
 2595 00d1 7F       		.byte	127
 2596 00d2 14       		.byte	20
 2597 00d3 7F       		.byte	127
 2598 00d4 14       		.byte	20
 2599 00d5 24       		.byte	36
 2600 00d6 2A       		.byte	42
 2601 00d7 7F       		.byte	127
 2602 00d8 2A       		.byte	42
 2603 00d9 12       		.byte	18
 2604 00da 23       		.byte	35
 2605 00db 13       		.byte	19
 2606 00dc 08       		.byte	8
 2607 00dd 64       		.byte	100
ARM GAS  C:\Users\Kiwi\AppData\Local\Temp\ccKDkYuk.s 			page 64


 2608 00de 62       		.byte	98
 2609 00df 36       		.byte	54
 2610 00e0 49       		.byte	73
 2611 00e1 56       		.byte	86
 2612 00e2 20       		.byte	32
 2613 00e3 50       		.byte	80
 2614 00e4 00       		.byte	0
 2615 00e5 08       		.byte	8
 2616 00e6 07       		.byte	7
 2617 00e7 03       		.byte	3
 2618 00e8 00       		.byte	0
 2619 00e9 00       		.byte	0
 2620 00ea 1C       		.byte	28
 2621 00eb 22       		.byte	34
 2622 00ec 41       		.byte	65
 2623 00ed 00       		.byte	0
 2624 00ee 00       		.byte	0
 2625 00ef 41       		.byte	65
 2626 00f0 22       		.byte	34
 2627 00f1 1C       		.byte	28
 2628 00f2 00       		.byte	0
 2629 00f3 2A       		.byte	42
 2630 00f4 1C       		.byte	28
 2631 00f5 7F       		.byte	127
 2632 00f6 1C       		.byte	28
 2633 00f7 2A       		.byte	42
 2634 00f8 08       		.byte	8
 2635 00f9 08       		.byte	8
 2636 00fa 3E       		.byte	62
 2637 00fb 08       		.byte	8
 2638 00fc 08       		.byte	8
 2639 00fd 00       		.byte	0
 2640 00fe 80       		.byte	-128
 2641 00ff 70       		.byte	112
 2642 0100 30       		.byte	48
 2643 0101 00       		.byte	0
 2644 0102 08       		.byte	8
 2645 0103 08       		.byte	8
 2646 0104 08       		.byte	8
 2647 0105 08       		.byte	8
 2648 0106 08       		.byte	8
 2649 0107 00       		.byte	0
 2650 0108 00       		.byte	0
 2651 0109 60       		.byte	96
 2652 010a 60       		.byte	96
 2653 010b 00       		.byte	0
 2654 010c 20       		.byte	32
 2655 010d 10       		.byte	16
 2656 010e 08       		.byte	8
 2657 010f 04       		.byte	4
 2658 0110 02       		.byte	2
 2659 0111 3E       		.byte	62
 2660 0112 51       		.byte	81
 2661 0113 49       		.byte	73
 2662 0114 45       		.byte	69
 2663 0115 3E       		.byte	62
 2664 0116 00       		.byte	0
ARM GAS  C:\Users\Kiwi\AppData\Local\Temp\ccKDkYuk.s 			page 65


 2665 0117 42       		.byte	66
 2666 0118 7F       		.byte	127
 2667 0119 40       		.byte	64
 2668 011a 00       		.byte	0
 2669 011b 72       		.byte	114
 2670 011c 49       		.byte	73
 2671 011d 49       		.byte	73
 2672 011e 49       		.byte	73
 2673 011f 46       		.byte	70
 2674 0120 21       		.byte	33
 2675 0121 41       		.byte	65
 2676 0122 49       		.byte	73
 2677 0123 4D       		.byte	77
 2678 0124 33       		.byte	51
 2679 0125 18       		.byte	24
 2680 0126 14       		.byte	20
 2681 0127 12       		.byte	18
 2682 0128 7F       		.byte	127
 2683 0129 10       		.byte	16
 2684 012a 27       		.byte	39
 2685 012b 45       		.byte	69
 2686 012c 45       		.byte	69
 2687 012d 45       		.byte	69
 2688 012e 39       		.byte	57
 2689 012f 3C       		.byte	60
 2690 0130 4A       		.byte	74
 2691 0131 49       		.byte	73
 2692 0132 49       		.byte	73
 2693 0133 31       		.byte	49
 2694 0134 41       		.byte	65
 2695 0135 21       		.byte	33
 2696 0136 11       		.byte	17
 2697 0137 09       		.byte	9
 2698 0138 07       		.byte	7
 2699 0139 36       		.byte	54
 2700 013a 49       		.byte	73
 2701 013b 49       		.byte	73
 2702 013c 49       		.byte	73
 2703 013d 36       		.byte	54
 2704 013e 46       		.byte	70
 2705 013f 49       		.byte	73
 2706 0140 49       		.byte	73
 2707 0141 29       		.byte	41
 2708 0142 1E       		.byte	30
 2709 0143 00       		.byte	0
 2710 0144 00       		.byte	0
 2711 0145 14       		.byte	20
 2712 0146 00       		.byte	0
 2713 0147 00       		.byte	0
 2714 0148 00       		.byte	0
 2715 0149 40       		.byte	64
 2716 014a 34       		.byte	52
 2717 014b 00       		.byte	0
 2718 014c 00       		.byte	0
 2719 014d 00       		.byte	0
 2720 014e 08       		.byte	8
 2721 014f 14       		.byte	20
ARM GAS  C:\Users\Kiwi\AppData\Local\Temp\ccKDkYuk.s 			page 66


 2722 0150 22       		.byte	34
 2723 0151 41       		.byte	65
 2724 0152 14       		.byte	20
 2725 0153 14       		.byte	20
 2726 0154 14       		.byte	20
 2727 0155 14       		.byte	20
 2728 0156 14       		.byte	20
 2729 0157 00       		.byte	0
 2730 0158 41       		.byte	65
 2731 0159 22       		.byte	34
 2732 015a 14       		.byte	20
 2733 015b 08       		.byte	8
 2734 015c 02       		.byte	2
 2735 015d 01       		.byte	1
 2736 015e 59       		.byte	89
 2737 015f 09       		.byte	9
 2738 0160 06       		.byte	6
 2739 0161 3E       		.byte	62
 2740 0162 41       		.byte	65
 2741 0163 5D       		.byte	93
 2742 0164 59       		.byte	89
 2743 0165 4E       		.byte	78
 2744 0166 7C       		.byte	124
 2745 0167 12       		.byte	18
 2746 0168 11       		.byte	17
 2747 0169 12       		.byte	18
 2748 016a 7C       		.byte	124
 2749 016b 7F       		.byte	127
 2750 016c 49       		.byte	73
 2751 016d 49       		.byte	73
 2752 016e 49       		.byte	73
 2753 016f 36       		.byte	54
 2754 0170 3E       		.byte	62
 2755 0171 41       		.byte	65
 2756 0172 41       		.byte	65
 2757 0173 41       		.byte	65
 2758 0174 22       		.byte	34
 2759 0175 7F       		.byte	127
 2760 0176 41       		.byte	65
 2761 0177 41       		.byte	65
 2762 0178 41       		.byte	65
 2763 0179 3E       		.byte	62
 2764 017a 7F       		.byte	127
 2765 017b 49       		.byte	73
 2766 017c 49       		.byte	73
 2767 017d 49       		.byte	73
 2768 017e 41       		.byte	65
 2769 017f 7F       		.byte	127
 2770 0180 09       		.byte	9
 2771 0181 09       		.byte	9
 2772 0182 09       		.byte	9
 2773 0183 01       		.byte	1
 2774 0184 3E       		.byte	62
 2775 0185 41       		.byte	65
 2776 0186 41       		.byte	65
 2777 0187 51       		.byte	81
 2778 0188 73       		.byte	115
ARM GAS  C:\Users\Kiwi\AppData\Local\Temp\ccKDkYuk.s 			page 67


 2779 0189 7F       		.byte	127
 2780 018a 08       		.byte	8
 2781 018b 08       		.byte	8
 2782 018c 08       		.byte	8
 2783 018d 7F       		.byte	127
 2784 018e 00       		.byte	0
 2785 018f 41       		.byte	65
 2786 0190 7F       		.byte	127
 2787 0191 41       		.byte	65
 2788 0192 00       		.byte	0
 2789 0193 20       		.byte	32
 2790 0194 40       		.byte	64
 2791 0195 41       		.byte	65
 2792 0196 3F       		.byte	63
 2793 0197 01       		.byte	1
 2794 0198 7F       		.byte	127
 2795 0199 08       		.byte	8
 2796 019a 14       		.byte	20
 2797 019b 22       		.byte	34
 2798 019c 41       		.byte	65
 2799 019d 7F       		.byte	127
 2800 019e 40       		.byte	64
 2801 019f 40       		.byte	64
 2802 01a0 40       		.byte	64
 2803 01a1 40       		.byte	64
 2804 01a2 7F       		.byte	127
 2805 01a3 02       		.byte	2
 2806 01a4 1C       		.byte	28
 2807 01a5 02       		.byte	2
 2808 01a6 7F       		.byte	127
 2809 01a7 7F       		.byte	127
 2810 01a8 04       		.byte	4
 2811 01a9 08       		.byte	8
 2812 01aa 10       		.byte	16
 2813 01ab 7F       		.byte	127
 2814 01ac 3E       		.byte	62
 2815 01ad 41       		.byte	65
 2816 01ae 41       		.byte	65
 2817 01af 41       		.byte	65
 2818 01b0 3E       		.byte	62
 2819 01b1 7F       		.byte	127
 2820 01b2 09       		.byte	9
 2821 01b3 09       		.byte	9
 2822 01b4 09       		.byte	9
 2823 01b5 06       		.byte	6
 2824 01b6 3E       		.byte	62
 2825 01b7 41       		.byte	65
 2826 01b8 51       		.byte	81
 2827 01b9 21       		.byte	33
 2828 01ba 5E       		.byte	94
 2829 01bb 7F       		.byte	127
 2830 01bc 09       		.byte	9
 2831 01bd 19       		.byte	25
 2832 01be 29       		.byte	41
 2833 01bf 46       		.byte	70
 2834 01c0 26       		.byte	38
 2835 01c1 49       		.byte	73
ARM GAS  C:\Users\Kiwi\AppData\Local\Temp\ccKDkYuk.s 			page 68


 2836 01c2 49       		.byte	73
 2837 01c3 49       		.byte	73
 2838 01c4 32       		.byte	50
 2839 01c5 03       		.byte	3
 2840 01c6 01       		.byte	1
 2841 01c7 7F       		.byte	127
 2842 01c8 01       		.byte	1
 2843 01c9 03       		.byte	3
 2844 01ca 3F       		.byte	63
 2845 01cb 40       		.byte	64
 2846 01cc 40       		.byte	64
 2847 01cd 40       		.byte	64
 2848 01ce 3F       		.byte	63
 2849 01cf 1F       		.byte	31
 2850 01d0 20       		.byte	32
 2851 01d1 40       		.byte	64
 2852 01d2 20       		.byte	32
 2853 01d3 1F       		.byte	31
 2854 01d4 3F       		.byte	63
 2855 01d5 40       		.byte	64
 2856 01d6 38       		.byte	56
 2857 01d7 40       		.byte	64
 2858 01d8 3F       		.byte	63
 2859 01d9 63       		.byte	99
 2860 01da 14       		.byte	20
 2861 01db 08       		.byte	8
 2862 01dc 14       		.byte	20
 2863 01dd 63       		.byte	99
 2864 01de 03       		.byte	3
 2865 01df 04       		.byte	4
 2866 01e0 78       		.byte	120
 2867 01e1 04       		.byte	4
 2868 01e2 03       		.byte	3
 2869 01e3 61       		.byte	97
 2870 01e4 59       		.byte	89
 2871 01e5 49       		.byte	73
 2872 01e6 4D       		.byte	77
 2873 01e7 43       		.byte	67
 2874 01e8 00       		.byte	0
 2875 01e9 7F       		.byte	127
 2876 01ea 41       		.byte	65
 2877 01eb 41       		.byte	65
 2878 01ec 41       		.byte	65
 2879 01ed 02       		.byte	2
 2880 01ee 04       		.byte	4
 2881 01ef 08       		.byte	8
 2882 01f0 10       		.byte	16
 2883 01f1 20       		.byte	32
 2884 01f2 00       		.byte	0
 2885 01f3 41       		.byte	65
 2886 01f4 41       		.byte	65
 2887 01f5 41       		.byte	65
 2888 01f6 7F       		.byte	127
 2889 01f7 04       		.byte	4
 2890 01f8 02       		.byte	2
 2891 01f9 01       		.byte	1
 2892 01fa 02       		.byte	2
ARM GAS  C:\Users\Kiwi\AppData\Local\Temp\ccKDkYuk.s 			page 69


 2893 01fb 04       		.byte	4
 2894 01fc 40       		.byte	64
 2895 01fd 40       		.byte	64
 2896 01fe 40       		.byte	64
 2897 01ff 40       		.byte	64
 2898 0200 40       		.byte	64
 2899 0201 00       		.byte	0
 2900 0202 03       		.byte	3
 2901 0203 07       		.byte	7
 2902 0204 08       		.byte	8
 2903 0205 00       		.byte	0
 2904 0206 20       		.byte	32
 2905 0207 54       		.byte	84
 2906 0208 54       		.byte	84
 2907 0209 78       		.byte	120
 2908 020a 40       		.byte	64
 2909 020b 7F       		.byte	127
 2910 020c 28       		.byte	40
 2911 020d 44       		.byte	68
 2912 020e 44       		.byte	68
 2913 020f 38       		.byte	56
 2914 0210 38       		.byte	56
 2915 0211 44       		.byte	68
 2916 0212 44       		.byte	68
 2917 0213 44       		.byte	68
 2918 0214 28       		.byte	40
 2919 0215 38       		.byte	56
 2920 0216 44       		.byte	68
 2921 0217 44       		.byte	68
 2922 0218 28       		.byte	40
 2923 0219 7F       		.byte	127
 2924 021a 38       		.byte	56
 2925 021b 54       		.byte	84
 2926 021c 54       		.byte	84
 2927 021d 54       		.byte	84
 2928 021e 18       		.byte	24
 2929 021f 00       		.byte	0
 2930 0220 08       		.byte	8
 2931 0221 7E       		.byte	126
 2932 0222 09       		.byte	9
 2933 0223 02       		.byte	2
 2934 0224 18       		.byte	24
 2935 0225 A4       		.byte	-92
 2936 0226 A4       		.byte	-92
 2937 0227 9C       		.byte	-100
 2938 0228 78       		.byte	120
 2939 0229 7F       		.byte	127
 2940 022a 08       		.byte	8
 2941 022b 04       		.byte	4
 2942 022c 04       		.byte	4
 2943 022d 78       		.byte	120
 2944 022e 00       		.byte	0
 2945 022f 44       		.byte	68
 2946 0230 7D       		.byte	125
 2947 0231 40       		.byte	64
 2948 0232 00       		.byte	0
 2949 0233 20       		.byte	32
ARM GAS  C:\Users\Kiwi\AppData\Local\Temp\ccKDkYuk.s 			page 70


 2950 0234 40       		.byte	64
 2951 0235 40       		.byte	64
 2952 0236 3D       		.byte	61
 2953 0237 00       		.byte	0
 2954 0238 7F       		.byte	127
 2955 0239 10       		.byte	16
 2956 023a 28       		.byte	40
 2957 023b 44       		.byte	68
 2958 023c 00       		.byte	0
 2959 023d 00       		.byte	0
 2960 023e 41       		.byte	65
 2961 023f 7F       		.byte	127
 2962 0240 40       		.byte	64
 2963 0241 00       		.byte	0
 2964 0242 7C       		.byte	124
 2965 0243 04       		.byte	4
 2966 0244 78       		.byte	120
 2967 0245 04       		.byte	4
 2968 0246 78       		.byte	120
 2969 0247 7C       		.byte	124
 2970 0248 08       		.byte	8
 2971 0249 04       		.byte	4
 2972 024a 04       		.byte	4
 2973 024b 78       		.byte	120
 2974 024c 38       		.byte	56
 2975 024d 44       		.byte	68
 2976 024e 44       		.byte	68
 2977 024f 44       		.byte	68
 2978 0250 38       		.byte	56
 2979 0251 FC       		.byte	-4
 2980 0252 18       		.byte	24
 2981 0253 24       		.byte	36
 2982 0254 24       		.byte	36
 2983 0255 18       		.byte	24
 2984 0256 18       		.byte	24
 2985 0257 24       		.byte	36
 2986 0258 24       		.byte	36
 2987 0259 18       		.byte	24
 2988 025a FC       		.byte	-4
 2989 025b 7C       		.byte	124
 2990 025c 08       		.byte	8
 2991 025d 04       		.byte	4
 2992 025e 04       		.byte	4
 2993 025f 08       		.byte	8
 2994 0260 48       		.byte	72
 2995 0261 54       		.byte	84
 2996 0262 54       		.byte	84
 2997 0263 54       		.byte	84
 2998 0264 24       		.byte	36
 2999 0265 04       		.byte	4
 3000 0266 04       		.byte	4
 3001 0267 3F       		.byte	63
 3002 0268 44       		.byte	68
 3003 0269 24       		.byte	36
 3004 026a 3C       		.byte	60
 3005 026b 40       		.byte	64
 3006 026c 40       		.byte	64
ARM GAS  C:\Users\Kiwi\AppData\Local\Temp\ccKDkYuk.s 			page 71


 3007 026d 20       		.byte	32
 3008 026e 7C       		.byte	124
 3009 026f 1C       		.byte	28
 3010 0270 20       		.byte	32
 3011 0271 40       		.byte	64
 3012 0272 20       		.byte	32
 3013 0273 1C       		.byte	28
 3014 0274 3C       		.byte	60
 3015 0275 40       		.byte	64
 3016 0276 30       		.byte	48
 3017 0277 40       		.byte	64
 3018 0278 3C       		.byte	60
 3019 0279 44       		.byte	68
 3020 027a 28       		.byte	40
 3021 027b 10       		.byte	16
 3022 027c 28       		.byte	40
 3023 027d 44       		.byte	68
 3024 027e 4C       		.byte	76
 3025 027f 90       		.byte	-112
 3026 0280 90       		.byte	-112
 3027 0281 90       		.byte	-112
 3028 0282 7C       		.byte	124
 3029 0283 44       		.byte	68
 3030 0284 64       		.byte	100
 3031 0285 54       		.byte	84
 3032 0286 4C       		.byte	76
 3033 0287 44       		.byte	68
 3034 0288 00       		.byte	0
 3035 0289 08       		.byte	8
 3036 028a 36       		.byte	54
 3037 028b 41       		.byte	65
 3038 028c 00       		.byte	0
 3039 028d 00       		.byte	0
 3040 028e 00       		.byte	0
 3041 028f 77       		.byte	119
 3042 0290 00       		.byte	0
 3043 0291 00       		.byte	0
 3044 0292 00       		.byte	0
 3045 0293 41       		.byte	65
 3046 0294 36       		.byte	54
 3047 0295 08       		.byte	8
 3048 0296 00       		.byte	0
 3049 0297 02       		.byte	2
 3050 0298 01       		.byte	1
 3051 0299 02       		.byte	2
 3052 029a 04       		.byte	4
 3053 029b 02       		.byte	2
 3054 029c 3C       		.byte	60
 3055 029d 26       		.byte	38
 3056 029e 23       		.byte	35
 3057 029f 26       		.byte	38
 3058 02a0 3C       		.byte	60
 3059 02a1 1E       		.byte	30
 3060 02a2 A1       		.byte	-95
 3061 02a3 A1       		.byte	-95
 3062 02a4 61       		.byte	97
 3063 02a5 12       		.byte	18
ARM GAS  C:\Users\Kiwi\AppData\Local\Temp\ccKDkYuk.s 			page 72


 3064 02a6 3A       		.byte	58
 3065 02a7 40       		.byte	64
 3066 02a8 40       		.byte	64
 3067 02a9 20       		.byte	32
 3068 02aa 7A       		.byte	122
 3069 02ab 38       		.byte	56
 3070 02ac 54       		.byte	84
 3071 02ad 54       		.byte	84
 3072 02ae 55       		.byte	85
 3073 02af 59       		.byte	89
 3074 02b0 21       		.byte	33
 3075 02b1 55       		.byte	85
 3076 02b2 55       		.byte	85
 3077 02b3 79       		.byte	121
 3078 02b4 41       		.byte	65
 3079 02b5 22       		.byte	34
 3080 02b6 54       		.byte	84
 3081 02b7 54       		.byte	84
 3082 02b8 78       		.byte	120
 3083 02b9 42       		.byte	66
 3084 02ba 21       		.byte	33
 3085 02bb 55       		.byte	85
 3086 02bc 54       		.byte	84
 3087 02bd 78       		.byte	120
 3088 02be 40       		.byte	64
 3089 02bf 20       		.byte	32
 3090 02c0 54       		.byte	84
 3091 02c1 55       		.byte	85
 3092 02c2 79       		.byte	121
 3093 02c3 40       		.byte	64
 3094 02c4 0C       		.byte	12
 3095 02c5 1E       		.byte	30
 3096 02c6 52       		.byte	82
 3097 02c7 72       		.byte	114
 3098 02c8 12       		.byte	18
 3099 02c9 39       		.byte	57
 3100 02ca 55       		.byte	85
 3101 02cb 55       		.byte	85
 3102 02cc 55       		.byte	85
 3103 02cd 59       		.byte	89
 3104 02ce 39       		.byte	57
 3105 02cf 54       		.byte	84
 3106 02d0 54       		.byte	84
 3107 02d1 54       		.byte	84
 3108 02d2 59       		.byte	89
 3109 02d3 39       		.byte	57
 3110 02d4 55       		.byte	85
 3111 02d5 54       		.byte	84
 3112 02d6 54       		.byte	84
 3113 02d7 58       		.byte	88
 3114 02d8 00       		.byte	0
 3115 02d9 00       		.byte	0
 3116 02da 45       		.byte	69
 3117 02db 7C       		.byte	124
 3118 02dc 41       		.byte	65
 3119 02dd 00       		.byte	0
 3120 02de 02       		.byte	2
ARM GAS  C:\Users\Kiwi\AppData\Local\Temp\ccKDkYuk.s 			page 73


 3121 02df 45       		.byte	69
 3122 02e0 7D       		.byte	125
 3123 02e1 42       		.byte	66
 3124 02e2 00       		.byte	0
 3125 02e3 01       		.byte	1
 3126 02e4 45       		.byte	69
 3127 02e5 7C       		.byte	124
 3128 02e6 40       		.byte	64
 3129 02e7 7D       		.byte	125
 3130 02e8 12       		.byte	18
 3131 02e9 11       		.byte	17
 3132 02ea 12       		.byte	18
 3133 02eb 7D       		.byte	125
 3134 02ec F0       		.byte	-16
 3135 02ed 28       		.byte	40
 3136 02ee 25       		.byte	37
 3137 02ef 28       		.byte	40
 3138 02f0 F0       		.byte	-16
 3139 02f1 7C       		.byte	124
 3140 02f2 54       		.byte	84
 3141 02f3 55       		.byte	85
 3142 02f4 45       		.byte	69
 3143 02f5 00       		.byte	0
 3144 02f6 20       		.byte	32
 3145 02f7 54       		.byte	84
 3146 02f8 54       		.byte	84
 3147 02f9 7C       		.byte	124
 3148 02fa 54       		.byte	84
 3149 02fb 7C       		.byte	124
 3150 02fc 0A       		.byte	10
 3151 02fd 09       		.byte	9
 3152 02fe 7F       		.byte	127
 3153 02ff 49       		.byte	73
 3154 0300 32       		.byte	50
 3155 0301 49       		.byte	73
 3156 0302 49       		.byte	73
 3157 0303 49       		.byte	73
 3158 0304 32       		.byte	50
 3159 0305 3A       		.byte	58
 3160 0306 44       		.byte	68
 3161 0307 44       		.byte	68
 3162 0308 44       		.byte	68
 3163 0309 3A       		.byte	58
 3164 030a 32       		.byte	50
 3165 030b 4A       		.byte	74
 3166 030c 48       		.byte	72
 3167 030d 48       		.byte	72
 3168 030e 30       		.byte	48
 3169 030f 3A       		.byte	58
 3170 0310 41       		.byte	65
 3171 0311 41       		.byte	65
 3172 0312 21       		.byte	33
 3173 0313 7A       		.byte	122
 3174 0314 3A       		.byte	58
 3175 0315 42       		.byte	66
 3176 0316 40       		.byte	64
 3177 0317 20       		.byte	32
ARM GAS  C:\Users\Kiwi\AppData\Local\Temp\ccKDkYuk.s 			page 74


 3178 0318 78       		.byte	120
 3179 0319 00       		.byte	0
 3180 031a 9D       		.byte	-99
 3181 031b A0       		.byte	-96
 3182 031c A0       		.byte	-96
 3183 031d 7D       		.byte	125
 3184 031e 3D       		.byte	61
 3185 031f 42       		.byte	66
 3186 0320 42       		.byte	66
 3187 0321 42       		.byte	66
 3188 0322 3D       		.byte	61
 3189 0323 3D       		.byte	61
 3190 0324 40       		.byte	64
 3191 0325 40       		.byte	64
 3192 0326 40       		.byte	64
 3193 0327 3D       		.byte	61
 3194 0328 3C       		.byte	60
 3195 0329 24       		.byte	36
 3196 032a FF       		.byte	-1
 3197 032b 24       		.byte	36
 3198 032c 24       		.byte	36
 3199 032d 48       		.byte	72
 3200 032e 7E       		.byte	126
 3201 032f 49       		.byte	73
 3202 0330 43       		.byte	67
 3203 0331 66       		.byte	102
 3204 0332 2B       		.byte	43
 3205 0333 2F       		.byte	47
 3206 0334 FC       		.byte	-4
 3207 0335 2F       		.byte	47
 3208 0336 2B       		.byte	43
 3209 0337 FF       		.byte	-1
 3210 0338 09       		.byte	9
 3211 0339 29       		.byte	41
 3212 033a F6       		.byte	-10
 3213 033b 20       		.byte	32
 3214 033c C0       		.byte	-64
 3215 033d 88       		.byte	-120
 3216 033e 7E       		.byte	126
 3217 033f 09       		.byte	9
 3218 0340 03       		.byte	3
 3219 0341 20       		.byte	32
 3220 0342 54       		.byte	84
 3221 0343 54       		.byte	84
 3222 0344 79       		.byte	121
 3223 0345 41       		.byte	65
 3224 0346 00       		.byte	0
 3225 0347 00       		.byte	0
 3226 0348 44       		.byte	68
 3227 0349 7D       		.byte	125
 3228 034a 41       		.byte	65
 3229 034b 30       		.byte	48
 3230 034c 48       		.byte	72
 3231 034d 48       		.byte	72
 3232 034e 4A       		.byte	74
 3233 034f 32       		.byte	50
 3234 0350 38       		.byte	56
ARM GAS  C:\Users\Kiwi\AppData\Local\Temp\ccKDkYuk.s 			page 75


 3235 0351 40       		.byte	64
 3236 0352 40       		.byte	64
 3237 0353 22       		.byte	34
 3238 0354 7A       		.byte	122
 3239 0355 00       		.byte	0
 3240 0356 7A       		.byte	122
 3241 0357 0A       		.byte	10
 3242 0358 0A       		.byte	10
 3243 0359 72       		.byte	114
 3244 035a 7D       		.byte	125
 3245 035b 0D       		.byte	13
 3246 035c 19       		.byte	25
 3247 035d 31       		.byte	49
 3248 035e 7D       		.byte	125
 3249 035f 26       		.byte	38
 3250 0360 29       		.byte	41
 3251 0361 29       		.byte	41
 3252 0362 2F       		.byte	47
 3253 0363 28       		.byte	40
 3254 0364 26       		.byte	38
 3255 0365 29       		.byte	41
 3256 0366 29       		.byte	41
 3257 0367 29       		.byte	41
 3258 0368 26       		.byte	38
 3259 0369 30       		.byte	48
 3260 036a 48       		.byte	72
 3261 036b 4D       		.byte	77
 3262 036c 40       		.byte	64
 3263 036d 20       		.byte	32
 3264 036e 38       		.byte	56
 3265 036f 08       		.byte	8
 3266 0370 08       		.byte	8
 3267 0371 08       		.byte	8
 3268 0372 08       		.byte	8
 3269 0373 08       		.byte	8
 3270 0374 08       		.byte	8
 3271 0375 08       		.byte	8
 3272 0376 08       		.byte	8
 3273 0377 38       		.byte	56
 3274 0378 2F       		.byte	47
 3275 0379 10       		.byte	16
 3276 037a C8       		.byte	-56
 3277 037b AC       		.byte	-84
 3278 037c BA       		.byte	-70
 3279 037d 2F       		.byte	47
 3280 037e 10       		.byte	16
 3281 037f 28       		.byte	40
 3282 0380 34       		.byte	52
 3283 0381 FA       		.byte	-6
 3284 0382 00       		.byte	0
 3285 0383 00       		.byte	0
 3286 0384 7B       		.byte	123
 3287 0385 00       		.byte	0
 3288 0386 00       		.byte	0
 3289 0387 08       		.byte	8
 3290 0388 14       		.byte	20
 3291 0389 2A       		.byte	42
ARM GAS  C:\Users\Kiwi\AppData\Local\Temp\ccKDkYuk.s 			page 76


 3292 038a 14       		.byte	20
 3293 038b 22       		.byte	34
 3294 038c 22       		.byte	34
 3295 038d 14       		.byte	20
 3296 038e 2A       		.byte	42
 3297 038f 14       		.byte	20
 3298 0390 08       		.byte	8
 3299 0391 AA       		.byte	-86
 3300 0392 00       		.byte	0
 3301 0393 55       		.byte	85
 3302 0394 00       		.byte	0
 3303 0395 AA       		.byte	-86
 3304 0396 AA       		.byte	-86
 3305 0397 55       		.byte	85
 3306 0398 AA       		.byte	-86
 3307 0399 55       		.byte	85
 3308 039a AA       		.byte	-86
 3309 039b 00       		.byte	0
 3310 039c 00       		.byte	0
 3311 039d 00       		.byte	0
 3312 039e FF       		.byte	-1
 3313 039f 00       		.byte	0
 3314 03a0 10       		.byte	16
 3315 03a1 10       		.byte	16
 3316 03a2 10       		.byte	16
 3317 03a3 FF       		.byte	-1
 3318 03a4 00       		.byte	0
 3319 03a5 14       		.byte	20
 3320 03a6 14       		.byte	20
 3321 03a7 14       		.byte	20
 3322 03a8 FF       		.byte	-1
 3323 03a9 00       		.byte	0
 3324 03aa 10       		.byte	16
 3325 03ab 10       		.byte	16
 3326 03ac FF       		.byte	-1
 3327 03ad 00       		.byte	0
 3328 03ae FF       		.byte	-1
 3329 03af 10       		.byte	16
 3330 03b0 10       		.byte	16
 3331 03b1 F0       		.byte	-16
 3332 03b2 10       		.byte	16
 3333 03b3 F0       		.byte	-16
 3334 03b4 14       		.byte	20
 3335 03b5 14       		.byte	20
 3336 03b6 14       		.byte	20
 3337 03b7 FC       		.byte	-4
 3338 03b8 00       		.byte	0
 3339 03b9 14       		.byte	20
 3340 03ba 14       		.byte	20
 3341 03bb F7       		.byte	-9
 3342 03bc 00       		.byte	0
 3343 03bd FF       		.byte	-1
 3344 03be 00       		.byte	0
 3345 03bf 00       		.byte	0
 3346 03c0 FF       		.byte	-1
 3347 03c1 00       		.byte	0
 3348 03c2 FF       		.byte	-1
ARM GAS  C:\Users\Kiwi\AppData\Local\Temp\ccKDkYuk.s 			page 77


 3349 03c3 14       		.byte	20
 3350 03c4 14       		.byte	20
 3351 03c5 F4       		.byte	-12
 3352 03c6 04       		.byte	4
 3353 03c7 FC       		.byte	-4
 3354 03c8 14       		.byte	20
 3355 03c9 14       		.byte	20
 3356 03ca 17       		.byte	23
 3357 03cb 10       		.byte	16
 3358 03cc 1F       		.byte	31
 3359 03cd 10       		.byte	16
 3360 03ce 10       		.byte	16
 3361 03cf 1F       		.byte	31
 3362 03d0 10       		.byte	16
 3363 03d1 1F       		.byte	31
 3364 03d2 14       		.byte	20
 3365 03d3 14       		.byte	20
 3366 03d4 14       		.byte	20
 3367 03d5 1F       		.byte	31
 3368 03d6 00       		.byte	0
 3369 03d7 10       		.byte	16
 3370 03d8 10       		.byte	16
 3371 03d9 10       		.byte	16
 3372 03da F0       		.byte	-16
 3373 03db 00       		.byte	0
 3374 03dc 00       		.byte	0
 3375 03dd 00       		.byte	0
 3376 03de 00       		.byte	0
 3377 03df 1F       		.byte	31
 3378 03e0 10       		.byte	16
 3379 03e1 10       		.byte	16
 3380 03e2 10       		.byte	16
 3381 03e3 10       		.byte	16
 3382 03e4 1F       		.byte	31
 3383 03e5 10       		.byte	16
 3384 03e6 10       		.byte	16
 3385 03e7 10       		.byte	16
 3386 03e8 10       		.byte	16
 3387 03e9 F0       		.byte	-16
 3388 03ea 10       		.byte	16
 3389 03eb 00       		.byte	0
 3390 03ec 00       		.byte	0
 3391 03ed 00       		.byte	0
 3392 03ee FF       		.byte	-1
 3393 03ef 10       		.byte	16
 3394 03f0 10       		.byte	16
 3395 03f1 10       		.byte	16
 3396 03f2 10       		.byte	16
 3397 03f3 10       		.byte	16
 3398 03f4 10       		.byte	16
 3399 03f5 10       		.byte	16
 3400 03f6 10       		.byte	16
 3401 03f7 10       		.byte	16
 3402 03f8 FF       		.byte	-1
 3403 03f9 10       		.byte	16
 3404 03fa 00       		.byte	0
 3405 03fb 00       		.byte	0
ARM GAS  C:\Users\Kiwi\AppData\Local\Temp\ccKDkYuk.s 			page 78


 3406 03fc 00       		.byte	0
 3407 03fd FF       		.byte	-1
 3408 03fe 14       		.byte	20
 3409 03ff 00       		.byte	0
 3410 0400 00       		.byte	0
 3411 0401 FF       		.byte	-1
 3412 0402 00       		.byte	0
 3413 0403 FF       		.byte	-1
 3414 0404 00       		.byte	0
 3415 0405 00       		.byte	0
 3416 0406 1F       		.byte	31
 3417 0407 10       		.byte	16
 3418 0408 17       		.byte	23
 3419 0409 00       		.byte	0
 3420 040a 00       		.byte	0
 3421 040b FC       		.byte	-4
 3422 040c 04       		.byte	4
 3423 040d F4       		.byte	-12
 3424 040e 14       		.byte	20
 3425 040f 14       		.byte	20
 3426 0410 17       		.byte	23
 3427 0411 10       		.byte	16
 3428 0412 17       		.byte	23
 3429 0413 14       		.byte	20
 3430 0414 14       		.byte	20
 3431 0415 F4       		.byte	-12
 3432 0416 04       		.byte	4
 3433 0417 F4       		.byte	-12
 3434 0418 00       		.byte	0
 3435 0419 00       		.byte	0
 3436 041a FF       		.byte	-1
 3437 041b 00       		.byte	0
 3438 041c F7       		.byte	-9
 3439 041d 14       		.byte	20
 3440 041e 14       		.byte	20
 3441 041f 14       		.byte	20
 3442 0420 14       		.byte	20
 3443 0421 14       		.byte	20
 3444 0422 14       		.byte	20
 3445 0423 14       		.byte	20
 3446 0424 F7       		.byte	-9
 3447 0425 00       		.byte	0
 3448 0426 F7       		.byte	-9
 3449 0427 14       		.byte	20
 3450 0428 14       		.byte	20
 3451 0429 14       		.byte	20
 3452 042a 17       		.byte	23
 3453 042b 14       		.byte	20
 3454 042c 10       		.byte	16
 3455 042d 10       		.byte	16
 3456 042e 1F       		.byte	31
 3457 042f 10       		.byte	16
 3458 0430 1F       		.byte	31
 3459 0431 14       		.byte	20
 3460 0432 14       		.byte	20
 3461 0433 14       		.byte	20
 3462 0434 F4       		.byte	-12
ARM GAS  C:\Users\Kiwi\AppData\Local\Temp\ccKDkYuk.s 			page 79


 3463 0435 14       		.byte	20
 3464 0436 10       		.byte	16
 3465 0437 10       		.byte	16
 3466 0438 F0       		.byte	-16
 3467 0439 10       		.byte	16
 3468 043a F0       		.byte	-16
 3469 043b 00       		.byte	0
 3470 043c 00       		.byte	0
 3471 043d 1F       		.byte	31
 3472 043e 10       		.byte	16
 3473 043f 1F       		.byte	31
 3474 0440 00       		.byte	0
 3475 0441 00       		.byte	0
 3476 0442 00       		.byte	0
 3477 0443 1F       		.byte	31
 3478 0444 14       		.byte	20
 3479 0445 00       		.byte	0
 3480 0446 00       		.byte	0
 3481 0447 00       		.byte	0
 3482 0448 FC       		.byte	-4
 3483 0449 14       		.byte	20
 3484 044a 00       		.byte	0
 3485 044b 00       		.byte	0
 3486 044c F0       		.byte	-16
 3487 044d 10       		.byte	16
 3488 044e F0       		.byte	-16
 3489 044f 10       		.byte	16
 3490 0450 10       		.byte	16
 3491 0451 FF       		.byte	-1
 3492 0452 10       		.byte	16
 3493 0453 FF       		.byte	-1
 3494 0454 14       		.byte	20
 3495 0455 14       		.byte	20
 3496 0456 14       		.byte	20
 3497 0457 FF       		.byte	-1
 3498 0458 14       		.byte	20
 3499 0459 10       		.byte	16
 3500 045a 10       		.byte	16
 3501 045b 10       		.byte	16
 3502 045c 1F       		.byte	31
 3503 045d 00       		.byte	0
 3504 045e 00       		.byte	0
 3505 045f 00       		.byte	0
 3506 0460 00       		.byte	0
 3507 0461 F0       		.byte	-16
 3508 0462 10       		.byte	16
 3509 0463 FF       		.byte	-1
 3510 0464 FF       		.byte	-1
 3511 0465 FF       		.byte	-1
 3512 0466 FF       		.byte	-1
 3513 0467 FF       		.byte	-1
 3514 0468 F0       		.byte	-16
 3515 0469 F0       		.byte	-16
 3516 046a F0       		.byte	-16
 3517 046b F0       		.byte	-16
 3518 046c F0       		.byte	-16
 3519 046d FF       		.byte	-1
ARM GAS  C:\Users\Kiwi\AppData\Local\Temp\ccKDkYuk.s 			page 80


 3520 046e FF       		.byte	-1
 3521 046f FF       		.byte	-1
 3522 0470 00       		.byte	0
 3523 0471 00       		.byte	0
 3524 0472 00       		.byte	0
 3525 0473 00       		.byte	0
 3526 0474 00       		.byte	0
 3527 0475 FF       		.byte	-1
 3528 0476 FF       		.byte	-1
 3529 0477 0F       		.byte	15
 3530 0478 0F       		.byte	15
 3531 0479 0F       		.byte	15
 3532 047a 0F       		.byte	15
 3533 047b 0F       		.byte	15
 3534 047c 38       		.byte	56
 3535 047d 44       		.byte	68
 3536 047e 44       		.byte	68
 3537 047f 38       		.byte	56
 3538 0480 44       		.byte	68
 3539 0481 FC       		.byte	-4
 3540 0482 4A       		.byte	74
 3541 0483 4A       		.byte	74
 3542 0484 4A       		.byte	74
 3543 0485 34       		.byte	52
 3544 0486 7E       		.byte	126
 3545 0487 02       		.byte	2
 3546 0488 02       		.byte	2
 3547 0489 06       		.byte	6
 3548 048a 06       		.byte	6
 3549 048b 02       		.byte	2
 3550 048c 7E       		.byte	126
 3551 048d 02       		.byte	2
 3552 048e 7E       		.byte	126
 3553 048f 02       		.byte	2
 3554 0490 63       		.byte	99
 3555 0491 55       		.byte	85
 3556 0492 49       		.byte	73
 3557 0493 41       		.byte	65
 3558 0494 63       		.byte	99
 3559 0495 38       		.byte	56
 3560 0496 44       		.byte	68
 3561 0497 44       		.byte	68
 3562 0498 3C       		.byte	60
 3563 0499 04       		.byte	4
 3564 049a 40       		.byte	64
 3565 049b 7E       		.byte	126
 3566 049c 20       		.byte	32
 3567 049d 1E       		.byte	30
 3568 049e 20       		.byte	32
 3569 049f 06       		.byte	6
 3570 04a0 02       		.byte	2
 3571 04a1 7E       		.byte	126
 3572 04a2 02       		.byte	2
 3573 04a3 02       		.byte	2
 3574 04a4 99       		.byte	-103
 3575 04a5 A5       		.byte	-91
 3576 04a6 E7       		.byte	-25
ARM GAS  C:\Users\Kiwi\AppData\Local\Temp\ccKDkYuk.s 			page 81


 3577 04a7 A5       		.byte	-91
 3578 04a8 99       		.byte	-103
 3579 04a9 1C       		.byte	28
 3580 04aa 2A       		.byte	42
 3581 04ab 49       		.byte	73
 3582 04ac 2A       		.byte	42
 3583 04ad 1C       		.byte	28
 3584 04ae 4C       		.byte	76
 3585 04af 72       		.byte	114
 3586 04b0 01       		.byte	1
 3587 04b1 72       		.byte	114
 3588 04b2 4C       		.byte	76
 3589 04b3 30       		.byte	48
 3590 04b4 4A       		.byte	74
 3591 04b5 4D       		.byte	77
 3592 04b6 4D       		.byte	77
 3593 04b7 30       		.byte	48
 3594 04b8 30       		.byte	48
 3595 04b9 48       		.byte	72
 3596 04ba 78       		.byte	120
 3597 04bb 48       		.byte	72
 3598 04bc 30       		.byte	48
 3599 04bd BC       		.byte	-68
 3600 04be 62       		.byte	98
 3601 04bf 5A       		.byte	90
 3602 04c0 46       		.byte	70
 3603 04c1 3D       		.byte	61
 3604 04c2 3E       		.byte	62
 3605 04c3 49       		.byte	73
 3606 04c4 49       		.byte	73
 3607 04c5 49       		.byte	73
 3608 04c6 00       		.byte	0
 3609 04c7 7E       		.byte	126
 3610 04c8 01       		.byte	1
 3611 04c9 01       		.byte	1
 3612 04ca 01       		.byte	1
 3613 04cb 7E       		.byte	126
 3614 04cc 2A       		.byte	42
 3615 04cd 2A       		.byte	42
 3616 04ce 2A       		.byte	42
 3617 04cf 2A       		.byte	42
 3618 04d0 2A       		.byte	42
 3619 04d1 44       		.byte	68
 3620 04d2 44       		.byte	68
 3621 04d3 5F       		.byte	95
 3622 04d4 44       		.byte	68
 3623 04d5 44       		.byte	68
 3624 04d6 40       		.byte	64
 3625 04d7 51       		.byte	81
 3626 04d8 4A       		.byte	74
 3627 04d9 44       		.byte	68
 3628 04da 40       		.byte	64
 3629 04db 40       		.byte	64
 3630 04dc 44       		.byte	68
 3631 04dd 4A       		.byte	74
 3632 04de 51       		.byte	81
 3633 04df 40       		.byte	64
ARM GAS  C:\Users\Kiwi\AppData\Local\Temp\ccKDkYuk.s 			page 82


 3634 04e0 00       		.byte	0
 3635 04e1 00       		.byte	0
 3636 04e2 FF       		.byte	-1
 3637 04e3 01       		.byte	1
 3638 04e4 03       		.byte	3
 3639 04e5 E0       		.byte	-32
 3640 04e6 80       		.byte	-128
 3641 04e7 FF       		.byte	-1
 3642 04e8 00       		.byte	0
 3643 04e9 00       		.byte	0
 3644 04ea 08       		.byte	8
 3645 04eb 08       		.byte	8
 3646 04ec 6B       		.byte	107
 3647 04ed 6B       		.byte	107
 3648 04ee 08       		.byte	8
 3649 04ef 36       		.byte	54
 3650 04f0 12       		.byte	18
 3651 04f1 36       		.byte	54
 3652 04f2 24       		.byte	36
 3653 04f3 36       		.byte	54
 3654 04f4 06       		.byte	6
 3655 04f5 0F       		.byte	15
 3656 04f6 09       		.byte	9
 3657 04f7 0F       		.byte	15
 3658 04f8 06       		.byte	6
 3659 04f9 00       		.byte	0
 3660 04fa 00       		.byte	0
 3661 04fb 18       		.byte	24
 3662 04fc 18       		.byte	24
 3663 04fd 00       		.byte	0
 3664 04fe 00       		.byte	0
 3665 04ff 00       		.byte	0
 3666 0500 10       		.byte	16
 3667 0501 10       		.byte	16
 3668 0502 00       		.byte	0
 3669 0503 30       		.byte	48
 3670 0504 40       		.byte	64
 3671 0505 FF       		.byte	-1
 3672 0506 01       		.byte	1
 3673 0507 01       		.byte	1
 3674 0508 00       		.byte	0
 3675 0509 1F       		.byte	31
 3676 050a 01       		.byte	1
 3677 050b 01       		.byte	1
 3678 050c 1E       		.byte	30
 3679 050d 00       		.byte	0
 3680 050e 19       		.byte	25
 3681 050f 1D       		.byte	29
 3682 0510 17       		.byte	23
 3683 0511 12       		.byte	18
 3684 0512 00       		.byte	0
 3685 0513 3C       		.byte	60
 3686 0514 3C       		.byte	60
 3687 0515 3C       		.byte	60
 3688 0516 3C       		.byte	60
 3689 0517 00       		.byte	0
 3690 0518 00       		.byte	0
ARM GAS  C:\Users\Kiwi\AppData\Local\Temp\ccKDkYuk.s 			page 83


 3691 0519 00       		.byte	0
 3692 051a 00       		.byte	0
 3693 051b 00       		.byte	0
 3694              		.data
 3695              		.set	.LANCHOR1,. + 0
 3696              		.type	SSD1306_buffer, %object
 3697              		.size	SSD1306_buffer, 1025
 3698              	SSD1306_buffer:
 3699 0000 40       		.byte	64
 3700 0001 00000000 		.space	1024
 3700      00000000 
 3700      00000000 
 3700      00000000 
 3700      00000000 
 3701              		.bss
 3702              		.align	1
 3703              		.set	.LANCHOR0,. + 0
 3704              		.type	_i2caddr, %object
 3705              		.size	_i2caddr, 1
 3706              	_i2caddr:
 3707 0000 00       		.space	1
 3708 0001 00       		.space	1
 3709              		.type	cursor_y, %object
 3710              		.size	cursor_y, 2
 3711              	cursor_y:
 3712 0002 0000     		.space	2
 3713              		.type	textsize, %object
 3714              		.size	textsize, 1
 3715              	textsize:
 3716 0004 00       		.space	1
 3717 0005 00       		.space	1
 3718              		.type	cursor_x, %object
 3719              		.size	cursor_x, 2
 3720              	cursor_x:
 3721 0006 0000     		.space	2
 3722              		.type	_width, %object
 3723              		.size	_width, 2
 3724              	_width:
 3725 0008 0000     		.space	2
 3726              		.type	_height, %object
 3727              		.size	_height, 2
 3728              	_height:
 3729 000a 0000     		.space	2
 3730              		.type	textbgcolor, %object
 3731              		.size	textbgcolor, 2
 3732              	textbgcolor:
 3733 000c 0000     		.space	2
 3734              		.type	textcolor, %object
 3735              		.size	textcolor, 2
 3736              	textcolor:
 3737 000e 0000     		.space	2
 3738              		.text
 3739              	.Letext0:
 3740              		.file 2 "c:\\program files (x86)\\cypress\\psoc creator\\4.4\\psoc creator\\import\\gnu\\arm\\5.4.
 3741              		.file 3 "c:\\program files (x86)\\cypress\\psoc creator\\4.4\\psoc creator\\import\\gnu\\arm\\5.4.
 3742              		.file 4 "Generated_Source\\PSoC5/cytypes.h"
 3743              		.file 5 "ssd1306.h"
ARM GAS  C:\Users\Kiwi\AppData\Local\Temp\ccKDkYuk.s 			page 84


 3744              		.file 6 "font.h"
 3745              		.file 7 "Generated_Source\\PSoC5/core_cm3.h"
 3746              		.file 8 "Generated_Source\\PSoC5/I2COLED.h"
 3747              		.file 9 "c:\\program files (x86)\\cypress\\psoc creator\\4.4\\psoc creator\\import\\gnu\\arm\\5.4.
 3748              		.section	.debug_info,"",%progbits
 3749              	.Ldebug_info0:
 3750 0000 DB130000 		.4byte	0x13db
 3751 0004 0400     		.2byte	0x4
 3752 0006 00000000 		.4byte	.Ldebug_abbrev0
 3753 000a 04       		.byte	0x4
 3754 000b 01       		.uleb128 0x1
 3755 000c 13050000 		.4byte	.LASF121
 3756 0010 0C       		.byte	0xc
 3757 0011 D7030000 		.4byte	.LASF122
 3758 0015 0E000000 		.4byte	.LASF123
 3759 0019 E8000000 		.4byte	.Ldebug_ranges0+0xe8
 3760 001d 00000000 		.4byte	0
 3761 0021 00000000 		.4byte	.Ldebug_line0
 3762 0025 02       		.uleb128 0x2
 3763 0026 AE030000 		.4byte	.LASF0
 3764 002a 02       		.byte	0x2
 3765 002b 1B       		.byte	0x1b
 3766 002c 30000000 		.4byte	0x30
 3767 0030 03       		.uleb128 0x3
 3768 0031 01       		.byte	0x1
 3769 0032 06       		.byte	0x6
 3770 0033 D9050000 		.4byte	.LASF2
 3771 0037 02       		.uleb128 0x2
 3772 0038 76040000 		.4byte	.LASF1
 3773 003c 02       		.byte	0x2
 3774 003d 1D       		.byte	0x1d
 3775 003e 42000000 		.4byte	0x42
 3776 0042 03       		.uleb128 0x3
 3777 0043 01       		.byte	0x1
 3778 0044 08       		.byte	0x8
 3779 0045 FB040000 		.4byte	.LASF3
 3780 0049 02       		.uleb128 0x2
 3781 004a 40030000 		.4byte	.LASF4
 3782 004e 02       		.byte	0x2
 3783 004f 29       		.byte	0x29
 3784 0050 54000000 		.4byte	0x54
 3785 0054 03       		.uleb128 0x3
 3786 0055 02       		.byte	0x2
 3787 0056 05       		.byte	0x5
 3788 0057 FC030000 		.4byte	.LASF5
 3789 005b 02       		.uleb128 0x2
 3790 005c BD010000 		.4byte	.LASF6
 3791 0060 02       		.byte	0x2
 3792 0061 2B       		.byte	0x2b
 3793 0062 66000000 		.4byte	0x66
 3794 0066 03       		.uleb128 0x3
 3795 0067 02       		.byte	0x2
 3796 0068 07       		.byte	0x7
 3797 0069 E5050000 		.4byte	.LASF7
 3798 006d 02       		.uleb128 0x2
 3799 006e 8B000000 		.4byte	.LASF8
 3800 0072 02       		.byte	0x2
ARM GAS  C:\Users\Kiwi\AppData\Local\Temp\ccKDkYuk.s 			page 85


 3801 0073 3F       		.byte	0x3f
 3802 0074 78000000 		.4byte	0x78
 3803 0078 03       		.uleb128 0x3
 3804 0079 04       		.byte	0x4
 3805 007a 05       		.byte	0x5
 3806 007b 0E040000 		.4byte	.LASF9
 3807 007f 03       		.uleb128 0x3
 3808 0080 04       		.byte	0x4
 3809 0081 07       		.byte	0x7
 3810 0082 B0040000 		.4byte	.LASF10
 3811 0086 03       		.uleb128 0x3
 3812 0087 08       		.byte	0x8
 3813 0088 05       		.byte	0x5
 3814 0089 06030000 		.4byte	.LASF11
 3815 008d 03       		.uleb128 0x3
 3816 008e 08       		.byte	0x8
 3817 008f 07       		.byte	0x7
 3818 0090 A6010000 		.4byte	.LASF12
 3819 0094 04       		.uleb128 0x4
 3820 0095 04       		.byte	0x4
 3821 0096 05       		.byte	0x5
 3822 0097 696E7400 		.ascii	"int\000"
 3823 009b 03       		.uleb128 0x3
 3824 009c 04       		.byte	0x4
 3825 009d 07       		.byte	0x7
 3826 009e 66000000 		.4byte	.LASF13
 3827 00a2 02       		.uleb128 0x2
 3828 00a3 5E010000 		.4byte	.LASF14
 3829 00a7 03       		.byte	0x3
 3830 00a8 14       		.byte	0x14
 3831 00a9 25000000 		.4byte	0x25
 3832 00ad 02       		.uleb128 0x2
 3833 00ae D4020000 		.4byte	.LASF15
 3834 00b2 03       		.byte	0x3
 3835 00b3 18       		.byte	0x18
 3836 00b4 37000000 		.4byte	0x37
 3837 00b8 02       		.uleb128 0x2
 3838 00b9 9E010000 		.4byte	.LASF16
 3839 00bd 03       		.byte	0x3
 3840 00be 20       		.byte	0x20
 3841 00bf 49000000 		.4byte	0x49
 3842 00c3 02       		.uleb128 0x2
 3843 00c4 CE030000 		.4byte	.LASF17
 3844 00c8 03       		.byte	0x3
 3845 00c9 24       		.byte	0x24
 3846 00ca 5B000000 		.4byte	0x5b
 3847 00ce 02       		.uleb128 0x2
 3848 00cf DC040000 		.4byte	.LASF18
 3849 00d3 03       		.byte	0x3
 3850 00d4 2C       		.byte	0x2c
 3851 00d5 6D000000 		.4byte	0x6d
 3852 00d9 05       		.uleb128 0x5
 3853 00da 0B060000 		.4byte	.LASF19
 3854 00de 04       		.byte	0x4
 3855 00df E901     		.2byte	0x1e9
 3856 00e1 42000000 		.4byte	0x42
 3857 00e5 05       		.uleb128 0x5
ARM GAS  C:\Users\Kiwi\AppData\Local\Temp\ccKDkYuk.s 			page 86


 3858 00e6 6F030000 		.4byte	.LASF20
 3859 00ea 04       		.byte	0x4
 3860 00eb EB01     		.2byte	0x1eb
 3861 00ed 7F000000 		.4byte	0x7f
 3862 00f1 03       		.uleb128 0x3
 3863 00f2 04       		.byte	0x4
 3864 00f3 04       		.byte	0x4
 3865 00f4 65010000 		.4byte	.LASF21
 3866 00f8 03       		.uleb128 0x3
 3867 00f9 08       		.byte	0x8
 3868 00fa 04       		.byte	0x4
 3869 00fb 11060000 		.4byte	.LASF22
 3870 00ff 03       		.uleb128 0x3
 3871 0100 01       		.byte	0x1
 3872 0101 08       		.byte	0x8
 3873 0102 C8020000 		.4byte	.LASF23
 3874 0106 03       		.uleb128 0x3
 3875 0107 08       		.byte	0x8
 3876 0108 04       		.byte	0x4
 3877 0109 B7030000 		.4byte	.LASF24
 3878 010d 03       		.uleb128 0x3
 3879 010e 04       		.byte	0x4
 3880 010f 07       		.byte	0x7
 3881 0110 A0040000 		.4byte	.LASF25
 3882 0114 06       		.uleb128 0x6
 3883 0115 04       		.byte	0x4
 3884 0116 1A010000 		.4byte	0x11a
 3885 011a 07       		.uleb128 0x7
 3886 011b FF000000 		.4byte	0xff
 3887 011f 08       		.uleb128 0x8
 3888 0120 D9000000 		.4byte	0xd9
 3889 0124 2F010000 		.4byte	0x12f
 3890 0128 09       		.uleb128 0x9
 3891 0129 0D010000 		.4byte	0x10d
 3892 012d 06       		.byte	0x6
 3893 012e 00       		.byte	0
 3894 012f 0A       		.uleb128 0xa
 3895 0130 01       		.byte	0x1
 3896 0131 42000000 		.4byte	0x42
 3897 0135 05       		.byte	0x5
 3898 0136 19       		.byte	0x19
 3899 0137 48010000 		.4byte	0x148
 3900 013b 0B       		.uleb128 0xb
 3901 013c EE040000 		.4byte	.LASF26
 3902 0140 26       		.byte	0x26
 3903 0141 0B       		.uleb128 0xb
 3904 0142 C2040000 		.4byte	.LASF27
 3905 0146 2A       		.byte	0x2a
 3906 0147 00       		.byte	0
 3907 0148 02       		.uleb128 0x2
 3908 0149 B8000000 		.4byte	.LASF28
 3909 014d 05       		.byte	0x5
 3910 014e 1C       		.byte	0x1c
 3911 014f 2F010000 		.4byte	0x12f
 3912 0153 0A       		.uleb128 0xa
 3913 0154 01       		.byte	0x1
 3914 0155 42000000 		.4byte	0x42
ARM GAS  C:\Users\Kiwi\AppData\Local\Temp\ccKDkYuk.s 			page 87


 3915 0159 05       		.byte	0x5
 3916 015a 1E       		.byte	0x1e
 3917 015b 90010000 		.4byte	0x190
 3918 015f 0B       		.uleb128 0xb
 3919 0160 DF000000 		.4byte	.LASF29
 3920 0164 03       		.byte	0x3
 3921 0165 0B       		.uleb128 0xb
 3922 0166 EE000000 		.4byte	.LASF30
 3923 016a 02       		.byte	0x2
 3924 016b 0B       		.uleb128 0xb
 3925 016c FD000000 		.4byte	.LASF31
 3926 0170 01       		.byte	0x1
 3927 0171 0B       		.uleb128 0xb
 3928 0172 0C010000 		.4byte	.LASF32
 3929 0176 06       		.byte	0x6
 3930 0177 0B       		.uleb128 0xb
 3931 0178 1B010000 		.4byte	.LASF33
 3932 017c 00       		.byte	0
 3933 017d 0B       		.uleb128 0xb
 3934 017e 2A010000 		.4byte	.LASF34
 3935 0182 05       		.byte	0x5
 3936 0183 0B       		.uleb128 0xb
 3937 0184 39010000 		.4byte	.LASF35
 3938 0188 04       		.byte	0x4
 3939 0189 0B       		.uleb128 0xb
 3940 018a 48010000 		.4byte	.LASF36
 3941 018e 07       		.byte	0x7
 3942 018f 00       		.byte	0
 3943 0190 02       		.uleb128 0x2
 3944 0191 1D030000 		.4byte	.LASF37
 3945 0195 05       		.byte	0x5
 3946 0196 27       		.byte	0x27
 3947 0197 53010000 		.4byte	0x153
 3948 019b 0A       		.uleb128 0xa
 3949 019c 01       		.byte	0x1
 3950 019d 42000000 		.4byte	0x42
 3951 01a1 05       		.byte	0x5
 3952 01a2 29       		.byte	0x29
 3953 01a3 D8010000 		.4byte	0x1d8
 3954 01a7 0B       		.uleb128 0xb
 3955 01a8 15020000 		.4byte	.LASF38
 3956 01ac 00       		.byte	0
 3957 01ad 0B       		.uleb128 0xb
 3958 01ae 23020000 		.4byte	.LASF39
 3959 01b2 01       		.byte	0x1
 3960 01b3 0B       		.uleb128 0xb
 3961 01b4 31020000 		.4byte	.LASF40
 3962 01b8 02       		.byte	0x2
 3963 01b9 0B       		.uleb128 0xb
 3964 01ba 3F020000 		.4byte	.LASF41
 3965 01be 03       		.byte	0x3
 3966 01bf 0B       		.uleb128 0xb
 3967 01c0 4D020000 		.4byte	.LASF42
 3968 01c4 04       		.byte	0x4
 3969 01c5 0B       		.uleb128 0xb
 3970 01c6 5B020000 		.4byte	.LASF43
 3971 01ca 05       		.byte	0x5
ARM GAS  C:\Users\Kiwi\AppData\Local\Temp\ccKDkYuk.s 			page 88


 3972 01cb 0B       		.uleb128 0xb
 3973 01cc 69020000 		.4byte	.LASF44
 3974 01d0 06       		.byte	0x6
 3975 01d1 0B       		.uleb128 0xb
 3976 01d2 77020000 		.4byte	.LASF45
 3977 01d6 07       		.byte	0x7
 3978 01d7 00       		.byte	0
 3979 01d8 02       		.uleb128 0x2
 3980 01d9 2A030000 		.4byte	.LASF46
 3981 01dd 05       		.byte	0x5
 3982 01de 32       		.byte	0x32
 3983 01df 9B010000 		.4byte	0x19b
 3984 01e3 0C       		.uleb128 0xc
 3985 01e4 D5010000 		.4byte	.LASF79
 3986 01e8 01       		.byte	0x1
 3987 01e9 9701     		.2byte	0x197
 3988 01eb 01       		.byte	0x1
 3989 01ec 12020000 		.4byte	0x212
 3990 01f0 0D       		.uleb128 0xd
 3991 01f1 707800   		.ascii	"px\000"
 3992 01f4 01       		.byte	0x1
 3993 01f5 9701     		.2byte	0x197
 3994 01f7 12020000 		.4byte	0x212
 3995 01fb 0D       		.uleb128 0xd
 3996 01fc 707900   		.ascii	"py\000"
 3997 01ff 01       		.byte	0x1
 3998 0200 9701     		.2byte	0x197
 3999 0202 12020000 		.4byte	0x212
 4000 0206 0E       		.uleb128 0xe
 4001 0207 793000   		.ascii	"y0\000"
 4002 020a 01       		.byte	0x1
 4003 020b 9901     		.2byte	0x199
 4004 020d B8000000 		.4byte	0xb8
 4005 0211 00       		.byte	0
 4006 0212 06       		.uleb128 0x6
 4007 0213 04       		.byte	0x4
 4008 0214 B8000000 		.4byte	0xb8
 4009 0218 0F       		.uleb128 0xf
 4010 0219 EF030000 		.4byte	.LASF48
 4011 021d 01       		.byte	0x1
 4012 021e 0B02     		.2byte	0x20b
 4013 0220 01       		.byte	0x1
 4014 0221 64020000 		.4byte	0x264
 4015 0225 0D       		.uleb128 0xd
 4016 0226 7800     		.ascii	"x\000"
 4017 0228 01       		.byte	0x1
 4018 0229 0B02     		.2byte	0x20b
 4019 022b B8000000 		.4byte	0xb8
 4020 022f 0D       		.uleb128 0xd
 4021 0230 7900     		.ascii	"y\000"
 4022 0232 01       		.byte	0x1
 4023 0233 0B02     		.2byte	0x20b
 4024 0235 B8000000 		.4byte	0xb8
 4025 0239 0D       		.uleb128 0xd
 4026 023a 7700     		.ascii	"w\000"
 4027 023c 01       		.byte	0x1
 4028 023d 0B02     		.2byte	0x20b
ARM GAS  C:\Users\Kiwi\AppData\Local\Temp\ccKDkYuk.s 			page 89


 4029 023f B8000000 		.4byte	0xb8
 4030 0243 0D       		.uleb128 0xd
 4031 0244 6800     		.ascii	"h\000"
 4032 0246 01       		.byte	0x1
 4033 0247 0B02     		.2byte	0x20b
 4034 0249 B8000000 		.4byte	0xb8
 4035 024d 10       		.uleb128 0x10
 4036 024e 49040000 		.4byte	.LASF47
 4037 0252 01       		.byte	0x1
 4038 0253 0B02     		.2byte	0x20b
 4039 0255 C3000000 		.4byte	0xc3
 4040 0259 0E       		.uleb128 0xe
 4041 025a 6900     		.ascii	"i\000"
 4042 025c 01       		.byte	0x1
 4043 025d 0C02     		.2byte	0x20c
 4044 025f B8000000 		.4byte	0xb8
 4045 0263 00       		.byte	0
 4046 0264 0F       		.uleb128 0xf
 4047 0265 C8010000 		.4byte	.LASF49
 4048 0269 01       		.byte	0x1
 4049 026a 4202     		.2byte	0x242
 4050 026c 01       		.byte	0x1
 4051 026d D5020000 		.4byte	0x2d5
 4052 0271 0D       		.uleb128 0xd
 4053 0272 7800     		.ascii	"x\000"
 4054 0274 01       		.byte	0x1
 4055 0275 4202     		.2byte	0x242
 4056 0277 B8000000 		.4byte	0xb8
 4057 027b 0D       		.uleb128 0xd
 4058 027c 7900     		.ascii	"y\000"
 4059 027e 01       		.byte	0x1
 4060 027f 4202     		.2byte	0x242
 4061 0281 B8000000 		.4byte	0xb8
 4062 0285 0D       		.uleb128 0xd
 4063 0286 6300     		.ascii	"c\000"
 4064 0288 01       		.byte	0x1
 4065 0289 4202     		.2byte	0x242
 4066 028b 42000000 		.4byte	0x42
 4067 028f 10       		.uleb128 0x10
 4068 0290 49040000 		.4byte	.LASF47
 4069 0294 01       		.byte	0x1
 4070 0295 4202     		.2byte	0x242
 4071 0297 C3000000 		.4byte	0xc3
 4072 029b 0D       		.uleb128 0xd
 4073 029c 626700   		.ascii	"bg\000"
 4074 029f 01       		.byte	0x1
 4075 02a0 4202     		.2byte	0x242
 4076 02a2 C3000000 		.4byte	0xc3
 4077 02a6 10       		.uleb128 0x10
 4078 02a7 59030000 		.4byte	.LASF50
 4079 02ab 01       		.byte	0x1
 4080 02ac 4202     		.2byte	0x242
 4081 02ae AD000000 		.4byte	0xad
 4082 02b2 0E       		.uleb128 0xe
 4083 02b3 6900     		.ascii	"i\000"
 4084 02b5 01       		.byte	0x1
 4085 02b6 4902     		.2byte	0x249
ARM GAS  C:\Users\Kiwi\AppData\Local\Temp\ccKDkYuk.s 			page 90


 4086 02b8 A2000000 		.4byte	0xa2
 4087 02bc 11       		.uleb128 0x11
 4088 02bd 12       		.uleb128 0x12
 4089 02be 0E050000 		.4byte	.LASF51
 4090 02c2 01       		.byte	0x1
 4091 02c3 4B02     		.2byte	0x24b
 4092 02c5 AD000000 		.4byte	0xad
 4093 02c9 0E       		.uleb128 0xe
 4094 02ca 6A00     		.ascii	"j\000"
 4095 02cc 01       		.byte	0x1
 4096 02cd 5002     		.2byte	0x250
 4097 02cf A2000000 		.4byte	0xa2
 4098 02d3 00       		.byte	0
 4099 02d4 00       		.byte	0
 4100 02d5 0F       		.uleb128 0xf
 4101 02d6 30040000 		.4byte	.LASF52
 4102 02da 01       		.byte	0x1
 4103 02db 6402     		.2byte	0x264
 4104 02dd 01       		.byte	0x1
 4105 02de EE020000 		.4byte	0x2ee
 4106 02e2 0D       		.uleb128 0xd
 4107 02e3 636800   		.ascii	"ch\000"
 4108 02e6 01       		.byte	0x1
 4109 02e7 6402     		.2byte	0x264
 4110 02e9 AD000000 		.4byte	0xad
 4111 02ed 00       		.byte	0
 4112 02ee 13       		.uleb128 0x13
 4113 02ef 76030000 		.4byte	.LASF124
 4114 02f3 01       		.byte	0x1
 4115 02f4 9E       		.byte	0x9e
 4116 02f5 E5000000 		.4byte	0xe5
 4117 02f9 00000000 		.4byte	.LFB64
 4118 02fd 34000000 		.4byte	.LFE64-.LFB64
 4119 0301 01       		.uleb128 0x1
 4120 0302 9C       		.byte	0x9c
 4121 0303 71030000 		.4byte	0x371
 4122 0307 14       		.uleb128 0x14
 4123 0308 62756600 		.ascii	"buf\000"
 4124 030c 01       		.byte	0x1
 4125 030d 9E       		.byte	0x9e
 4126 030e 71030000 		.4byte	0x371
 4127 0312 00000000 		.4byte	.LLST0
 4128 0316 15       		.uleb128 0x15
 4129 0317 59030000 		.4byte	.LASF50
 4130 031b 01       		.byte	0x1
 4131 031c 9E       		.byte	0x9e
 4132 031d C3000000 		.4byte	0xc3
 4133 0321 2C000000 		.4byte	.LLST1
 4134 0325 16       		.uleb128 0x16
 4135 0326 DC020000 		.4byte	.LASF53
 4136 032a 01       		.byte	0x1
 4137 032b A0       		.byte	0xa0
 4138 032c E5000000 		.4byte	0xe5
 4139 0330 4D000000 		.4byte	.LLST2
 4140 0334 17       		.uleb128 0x17
 4141 0335 00000000 		.4byte	.Ldebug_ranges0+0
 4142 0339 54030000 		.4byte	0x354
ARM GAS  C:\Users\Kiwi\AppData\Local\Temp\ccKDkYuk.s 			page 91


 4143 033d 18       		.uleb128 0x18
 4144 033e 6900     		.ascii	"i\000"
 4145 0340 01       		.byte	0x1
 4146 0341 A3       		.byte	0xa3
 4147 0342 94000000 		.4byte	0x94
 4148 0346 6D000000 		.4byte	.LLST3
 4149 034a 19       		.uleb128 0x19
 4150 034b 22000000 		.4byte	.LVL6
 4151 034f A9130000 		.4byte	0x13a9
 4152 0353 00       		.byte	0
 4153 0354 1A       		.uleb128 0x1a
 4154 0355 10000000 		.4byte	.LVL3
 4155 0359 B4130000 		.4byte	0x13b4
 4156 035d 67030000 		.4byte	0x367
 4157 0361 1B       		.uleb128 0x1b
 4158 0362 01       		.uleb128 0x1
 4159 0363 51       		.byte	0x51
 4160 0364 01       		.uleb128 0x1
 4161 0365 30       		.byte	0x30
 4162 0366 00       		.byte	0
 4163 0367 19       		.uleb128 0x19
 4164 0368 2A000000 		.4byte	.LVL9
 4165 036c BF130000 		.4byte	0x13bf
 4166 0370 00       		.byte	0
 4167 0371 06       		.uleb128 0x6
 4168 0372 04       		.byte	0x4
 4169 0373 D9000000 		.4byte	0xd9
 4170 0377 1C       		.uleb128 0x1c
 4171 0378 E3010000 		.4byte	0x1e3
 4172 037c 00000000 		.4byte	.LFB83
 4173 0380 60000000 		.4byte	.LFE83-.LFB83
 4174 0384 01       		.uleb128 0x1
 4175 0385 9C       		.byte	0x9c
 4176 0386 CD030000 		.4byte	0x3cd
 4177 038a 1D       		.uleb128 0x1d
 4178 038b F0010000 		.4byte	0x1f0
 4179 038f 01       		.uleb128 0x1
 4180 0390 50       		.byte	0x50
 4181 0391 1D       		.uleb128 0x1d
 4182 0392 FB010000 		.4byte	0x1fb
 4183 0396 01       		.uleb128 0x1
 4184 0397 51       		.byte	0x51
 4185 0398 1E       		.uleb128 0x1e
 4186 0399 06020000 		.4byte	0x206
 4187 039d B2000000 		.4byte	.LLST4
 4188 03a1 1F       		.uleb128 0x1f
 4189 03a2 28000000 		.4byte	.LBB9
 4190 03a6 1A000000 		.4byte	.LBE9-.LBB9
 4191 03aa 20       		.uleb128 0x20
 4192 03ab FB010000 		.4byte	0x1fb
 4193 03af C5000000 		.4byte	.LLST5
 4194 03b3 20       		.uleb128 0x20
 4195 03b4 F0010000 		.4byte	0x1f0
 4196 03b8 D8000000 		.4byte	.LLST6
 4197 03bc 1F       		.uleb128 0x1f
 4198 03bd 28000000 		.4byte	.LBB10
 4199 03c1 1A000000 		.4byte	.LBE10-.LBB10
ARM GAS  C:\Users\Kiwi\AppData\Local\Temp\ccKDkYuk.s 			page 92


 4200 03c5 21       		.uleb128 0x21
 4201 03c6 06020000 		.4byte	0x206
 4202 03ca 00       		.byte	0
 4203 03cb 00       		.byte	0
 4204 03cc 00       		.byte	0
 4205 03cd 1C       		.uleb128 0x1c
 4206 03ce D5020000 		.4byte	0x2d5
 4207 03d2 00000000 		.4byte	.LFB98
 4208 03d6 18000000 		.4byte	.LFE98-.LFB98
 4209 03da 01       		.uleb128 0x1
 4210 03db 9C       		.byte	0x9c
 4211 03dc ED030000 		.4byte	0x3ed
 4212 03e0 1D       		.uleb128 0x1d
 4213 03e1 E2020000 		.4byte	0x2e2
 4214 03e5 06       		.uleb128 0x6
 4215 03e6 FA       		.byte	0xfa
 4216 03e7 E2020000 		.4byte	0x2e2
 4217 03eb 9F       		.byte	0x9f
 4218 03ec 00       		.byte	0
 4219 03ed 22       		.uleb128 0x22
 4220 03ee CE040000 		.4byte	.LASF54
 4221 03f2 01       		.byte	0x1
 4222 03f3 BF       		.byte	0xbf
 4223 03f4 00000000 		.4byte	.LFB66
 4224 03f8 1C000000 		.4byte	.LFE66-.LFB66
 4225 03fc 01       		.uleb128 0x1
 4226 03fd 9C       		.byte	0x9c
 4227 03fe 1F040000 		.4byte	0x41f
 4228 0402 23       		.uleb128 0x23
 4229 0403 10000000 		.4byte	.LVL17
 4230 0407 CA130000 		.4byte	0x13ca
 4231 040b 1B       		.uleb128 0x1b
 4232 040c 01       		.uleb128 0x1
 4233 040d 50       		.byte	0x50
 4234 040e 02       		.uleb128 0x2
 4235 040f 74       		.byte	0x74
 4236 0410 01       		.sleb128 1
 4237 0411 1B       		.uleb128 0x1b
 4238 0412 01       		.uleb128 0x1
 4239 0413 51       		.byte	0x51
 4240 0414 01       		.uleb128 0x1
 4241 0415 30       		.byte	0x30
 4242 0416 1B       		.uleb128 0x1b
 4243 0417 01       		.uleb128 0x1
 4244 0418 52       		.byte	0x52
 4245 0419 03       		.uleb128 0x3
 4246 041a 0A       		.byte	0xa
 4247 041b 0004     		.2byte	0x400
 4248 041d 00       		.byte	0
 4249 041e 00       		.byte	0
 4250 041f 22       		.uleb128 0x22
 4251 0420 BC050000 		.4byte	.LASF55
 4252 0424 01       		.byte	0x1
 4253 0425 C6       		.byte	0xc6
 4254 0426 00000000 		.4byte	.LFB67
 4255 042a 20000000 		.4byte	.LFE67-.LFB67
 4256 042e 01       		.uleb128 0x1
ARM GAS  C:\Users\Kiwi\AppData\Local\Temp\ccKDkYuk.s 			page 93


 4257 042f 9C       		.byte	0x9c
 4258 0430 67040000 		.4byte	0x467
 4259 0434 15       		.uleb128 0x15
 4260 0435 14030000 		.4byte	.LASF56
 4261 0439 01       		.byte	0x1
 4262 043a C6       		.byte	0xc6
 4263 043b AD000000 		.4byte	0xad
 4264 043f EB000000 		.4byte	.LLST7
 4265 0443 24       		.uleb128 0x24
 4266 0444 A9040000 		.4byte	.LASF57
 4267 0448 01       		.byte	0x1
 4268 0449 C8       		.byte	0xc8
 4269 044a 67040000 		.4byte	0x467
 4270 044e 02       		.uleb128 0x2
 4271 044f 91       		.byte	0x91
 4272 0450 74       		.sleb128 -12
 4273 0451 23       		.uleb128 0x23
 4274 0452 1A000000 		.4byte	.LVL20
 4275 0456 EE020000 		.4byte	0x2ee
 4276 045a 1B       		.uleb128 0x1b
 4277 045b 01       		.uleb128 0x1
 4278 045c 50       		.byte	0x50
 4279 045d 02       		.uleb128 0x2
 4280 045e 91       		.byte	0x91
 4281 045f 74       		.sleb128 -12
 4282 0460 1B       		.uleb128 0x1b
 4283 0461 01       		.uleb128 0x1
 4284 0462 51       		.byte	0x51
 4285 0463 01       		.uleb128 0x1
 4286 0464 33       		.byte	0x33
 4287 0465 00       		.byte	0
 4288 0466 00       		.byte	0
 4289 0467 08       		.uleb128 0x8
 4290 0468 D9000000 		.4byte	0xd9
 4291 046c 77040000 		.4byte	0x477
 4292 0470 09       		.uleb128 0x9
 4293 0471 0D010000 		.4byte	0x10d
 4294 0475 02       		.byte	0x2
 4295 0476 00       		.byte	0
 4296 0477 22       		.uleb128 0x22
 4297 0478 3A040000 		.4byte	.LASF58
 4298 047c 01       		.byte	0x1
 4299 047d D2       		.byte	0xd2
 4300 047e 00000000 		.4byte	.LFB68
 4301 0482 24000000 		.4byte	.LFE68-.LFB68
 4302 0486 01       		.uleb128 0x1
 4303 0487 9C       		.byte	0x9c
 4304 0488 BF040000 		.4byte	0x4bf
 4305 048c 15       		.uleb128 0x15
 4306 048d CD020000 		.4byte	.LASF59
 4307 0491 01       		.byte	0x1
 4308 0492 D2       		.byte	0xd2
 4309 0493 AD000000 		.4byte	0xad
 4310 0497 18010000 		.4byte	.LLST8
 4311 049b 24       		.uleb128 0x24
 4312 049c A9040000 		.4byte	.LASF57
 4313 04a0 01       		.byte	0x1
ARM GAS  C:\Users\Kiwi\AppData\Local\Temp\ccKDkYuk.s 			page 94


 4314 04a1 D4       		.byte	0xd4
 4315 04a2 BF040000 		.4byte	0x4bf
 4316 04a6 02       		.uleb128 0x2
 4317 04a7 91       		.byte	0x91
 4318 04a8 74       		.sleb128 -12
 4319 04a9 23       		.uleb128 0x23
 4320 04aa 1E000000 		.4byte	.LVL23
 4321 04ae EE020000 		.4byte	0x2ee
 4322 04b2 1B       		.uleb128 0x1b
 4323 04b3 01       		.uleb128 0x1
 4324 04b4 50       		.byte	0x50
 4325 04b5 02       		.uleb128 0x2
 4326 04b6 91       		.byte	0x91
 4327 04b7 74       		.sleb128 -12
 4328 04b8 1B       		.uleb128 0x1b
 4329 04b9 01       		.uleb128 0x1
 4330 04ba 51       		.byte	0x51
 4331 04bb 01       		.uleb128 0x1
 4332 04bc 32       		.byte	0x32
 4333 04bd 00       		.byte	0
 4334 04be 00       		.byte	0
 4335 04bf 08       		.uleb128 0x8
 4336 04c0 D9000000 		.4byte	0xd9
 4337 04c4 CF040000 		.4byte	0x4cf
 4338 04c8 09       		.uleb128 0x9
 4339 04c9 0D010000 		.4byte	0x10d
 4340 04cd 01       		.byte	0x1
 4341 04ce 00       		.byte	0
 4342 04cf 22       		.uleb128 0x22
 4343 04d0 B9020000 		.4byte	.LASF60
 4344 04d4 01       		.byte	0x1
 4345 04d5 DD       		.byte	0xdd
 4346 04d6 00000000 		.4byte	.LFB69
 4347 04da 34000000 		.4byte	.LFE69-.LFB69
 4348 04de 01       		.uleb128 0x1
 4349 04df 9C       		.byte	0x9c
 4350 04e0 26050000 		.4byte	0x526
 4351 04e4 24       		.uleb128 0x24
 4352 04e5 A9040000 		.4byte	.LASF57
 4353 04e9 01       		.byte	0x1
 4354 04ea DF       		.byte	0xdf
 4355 04eb 1F010000 		.4byte	0x11f
 4356 04ef 02       		.uleb128 0x2
 4357 04f0 91       		.byte	0x91
 4358 04f1 70       		.sleb128 -16
 4359 04f2 1A       		.uleb128 0x1a
 4360 04f3 1C000000 		.4byte	.LVL24
 4361 04f7 EE020000 		.4byte	0x2ee
 4362 04fb 0B050000 		.4byte	0x50b
 4363 04ff 1B       		.uleb128 0x1b
 4364 0500 01       		.uleb128 0x1
 4365 0501 50       		.byte	0x50
 4366 0502 02       		.uleb128 0x2
 4367 0503 7D       		.byte	0x7d
 4368 0504 00       		.sleb128 0
 4369 0505 1B       		.uleb128 0x1b
 4370 0506 01       		.uleb128 0x1
ARM GAS  C:\Users\Kiwi\AppData\Local\Temp\ccKDkYuk.s 			page 95


 4371 0507 51       		.byte	0x51
 4372 0508 01       		.uleb128 0x1
 4373 0509 37       		.byte	0x37
 4374 050a 00       		.byte	0
 4375 050b 23       		.uleb128 0x23
 4376 050c 26000000 		.4byte	.LVL25
 4377 0510 EE020000 		.4byte	0x2ee
 4378 0514 1B       		.uleb128 0x1b
 4379 0515 01       		.uleb128 0x1
 4380 0516 50       		.byte	0x50
 4381 0517 05       		.uleb128 0x5
 4382 0518 03       		.byte	0x3
 4383 0519 00000000 		.4byte	.LANCHOR1
 4384 051d 1B       		.uleb128 0x1b
 4385 051e 01       		.uleb128 0x1
 4386 051f 51       		.byte	0x51
 4387 0520 03       		.uleb128 0x3
 4388 0521 0A       		.byte	0xa
 4389 0522 0104     		.2byte	0x401
 4390 0524 00       		.byte	0
 4391 0525 00       		.byte	0
 4392 0526 25       		.uleb128 0x25
 4393 0527 F8050000 		.4byte	.LASF61
 4394 052b 01       		.byte	0x1
 4395 052c 2D01     		.2byte	0x12d
 4396 052e 00000000 		.4byte	.LFB71
 4397 0532 1C000000 		.4byte	.LFE71-.LFB71
 4398 0536 01       		.uleb128 0x1
 4399 0537 9C       		.byte	0x9c
 4400 0538 61050000 		.4byte	0x561
 4401 053c 26       		.uleb128 0x26
 4402 053d A9040000 		.4byte	.LASF57
 4403 0541 01       		.byte	0x1
 4404 0542 2F01     		.2byte	0x12f
 4405 0544 BF040000 		.4byte	0x4bf
 4406 0548 02       		.uleb128 0x2
 4407 0549 91       		.byte	0x91
 4408 054a 74       		.sleb128 -12
 4409 054b 23       		.uleb128 0x23
 4410 054c 16000000 		.4byte	.LVL26
 4411 0550 EE020000 		.4byte	0x2ee
 4412 0554 1B       		.uleb128 0x1b
 4413 0555 01       		.uleb128 0x1
 4414 0556 50       		.byte	0x50
 4415 0557 02       		.uleb128 0x2
 4416 0558 91       		.byte	0x91
 4417 0559 74       		.sleb128 -12
 4418 055a 1B       		.uleb128 0x1b
 4419 055b 01       		.uleb128 0x1
 4420 055c 51       		.byte	0x51
 4421 055d 01       		.uleb128 0x1
 4422 055e 32       		.byte	0x32
 4423 055f 00       		.byte	0
 4424 0560 00       		.byte	0
 4425 0561 25       		.uleb128 0x25
 4426 0562 A1050000 		.4byte	.LASF62
 4427 0566 01       		.byte	0x1
ARM GAS  C:\Users\Kiwi\AppData\Local\Temp\ccKDkYuk.s 			page 96


 4428 0567 3601     		.2byte	0x136
 4429 0569 00000000 		.4byte	.LFB72
 4430 056d 38000000 		.4byte	.LFE72-.LFB72
 4431 0571 01       		.uleb128 0x1
 4432 0572 9C       		.byte	0x9c
 4433 0573 DC050000 		.4byte	0x5dc
 4434 0577 27       		.uleb128 0x27
 4435 0578 85040000 		.4byte	.LASF63
 4436 057c 01       		.byte	0x1
 4437 057d 3601     		.2byte	0x136
 4438 057f D8010000 		.4byte	0x1d8
 4439 0583 39010000 		.4byte	.LLST9
 4440 0587 28       		.uleb128 0x28
 4441 0588 656E6400 		.ascii	"end\000"
 4442 058c 01       		.byte	0x1
 4443 058d 3601     		.2byte	0x136
 4444 058f D8010000 		.4byte	0x1d8
 4445 0593 66010000 		.4byte	.LLST10
 4446 0597 28       		.uleb128 0x28
 4447 0598 64697200 		.ascii	"dir\000"
 4448 059c 01       		.byte	0x1
 4449 059d 3601     		.2byte	0x136
 4450 059f 48010000 		.4byte	0x148
 4451 05a3 93010000 		.4byte	.LLST11
 4452 05a7 27       		.uleb128 0x27
 4453 05a8 CC000000 		.4byte	.LASF64
 4454 05ac 01       		.byte	0x1
 4455 05ad 3601     		.2byte	0x136
 4456 05af 90010000 		.4byte	0x190
 4457 05b3 B4010000 		.4byte	.LLST12
 4458 05b7 26       		.uleb128 0x26
 4459 05b8 A9040000 		.4byte	.LASF57
 4460 05bc 01       		.byte	0x1
 4461 05bd 3801     		.2byte	0x138
 4462 05bf DC050000 		.4byte	0x5dc
 4463 05c3 02       		.uleb128 0x2
 4464 05c4 91       		.byte	0x91
 4465 05c5 6C       		.sleb128 -20
 4466 05c6 23       		.uleb128 0x23
 4467 05c7 34000000 		.4byte	.LVL31
 4468 05cb EE020000 		.4byte	0x2ee
 4469 05cf 1B       		.uleb128 0x1b
 4470 05d0 01       		.uleb128 0x1
 4471 05d1 50       		.byte	0x50
 4472 05d2 02       		.uleb128 0x2
 4473 05d3 91       		.byte	0x91
 4474 05d4 6C       		.sleb128 -20
 4475 05d5 1B       		.uleb128 0x1b
 4476 05d6 01       		.uleb128 0x1
 4477 05d7 51       		.byte	0x51
 4478 05d8 01       		.uleb128 0x1
 4479 05d9 39       		.byte	0x39
 4480 05da 00       		.byte	0
 4481 05db 00       		.byte	0
 4482 05dc 08       		.uleb128 0x8
 4483 05dd D9000000 		.4byte	0xd9
 4484 05e1 EC050000 		.4byte	0x5ec
ARM GAS  C:\Users\Kiwi\AppData\Local\Temp\ccKDkYuk.s 			page 97


 4485 05e5 09       		.uleb128 0x9
 4486 05e6 0D010000 		.4byte	0x10d
 4487 05ea 08       		.byte	0x8
 4488 05eb 00       		.byte	0
 4489 05ec 25       		.uleb128 0x25
 4490 05ed F0020000 		.4byte	.LASF65
 4491 05f1 01       		.byte	0x1
 4492 05f2 5501     		.2byte	0x155
 4493 05f4 00000000 		.4byte	.LFB73
 4494 05f8 40000000 		.4byte	.LFE73-.LFB73
 4495 05fc 01       		.uleb128 0x1
 4496 05fd 9C       		.byte	0x9c
 4497 05fe 21060000 		.4byte	0x621
 4498 0602 29       		.uleb128 0x29
 4499 0603 FE010000 		.4byte	.LASF66
 4500 0607 01       		.byte	0x1
 4501 0608 5501     		.2byte	0x155
 4502 060a B8000000 		.4byte	0xb8
 4503 060e 01       		.uleb128 0x1
 4504 060f 50       		.byte	0x50
 4505 0610 27       		.uleb128 0x27
 4506 0611 96030000 		.4byte	.LASF67
 4507 0615 01       		.byte	0x1
 4508 0616 5501     		.2byte	0x155
 4509 0618 B8000000 		.4byte	0xb8
 4510 061c E1010000 		.4byte	.LLST13
 4511 0620 00       		.byte	0
 4512 0621 22       		.uleb128 0x22
 4513 0622 D2000000 		.4byte	.LASF68
 4514 0626 01       		.byte	0x1
 4515 0627 74       		.byte	0x74
 4516 0628 00000000 		.4byte	.LFB63
 4517 062c 44000000 		.4byte	.LFE63-.LFB63
 4518 0630 01       		.uleb128 0x1
 4519 0631 9C       		.byte	0x9c
 4520 0632 83060000 		.4byte	0x683
 4521 0636 15       		.uleb128 0x15
 4522 0637 95000000 		.4byte	.LASF69
 4523 063b 01       		.byte	0x1
 4524 063c 74       		.byte	0x74
 4525 063d D9000000 		.4byte	0xd9
 4526 0641 03020000 		.4byte	.LLST14
 4527 0645 24       		.uleb128 0x24
 4528 0646 A9040000 		.4byte	.LASF57
 4529 064a 01       		.byte	0x1
 4530 064b 79       		.byte	0x79
 4531 064c 83060000 		.4byte	0x683
 4532 0650 02       		.uleb128 0x2
 4533 0651 91       		.byte	0x91
 4534 0652 54       		.sleb128 -44
 4535 0653 1A       		.uleb128 0x1a
 4536 0654 10000000 		.4byte	.LVL36
 4537 0658 EC050000 		.4byte	0x5ec
 4538 065c 6D060000 		.4byte	0x66d
 4539 0660 1B       		.uleb128 0x1b
 4540 0661 01       		.uleb128 0x1
 4541 0662 50       		.byte	0x50
ARM GAS  C:\Users\Kiwi\AppData\Local\Temp\ccKDkYuk.s 			page 98


 4542 0663 02       		.uleb128 0x2
 4543 0664 08       		.byte	0x8
 4544 0665 80       		.byte	0x80
 4545 0666 1B       		.uleb128 0x1b
 4546 0667 01       		.uleb128 0x1
 4547 0668 51       		.byte	0x51
 4548 0669 02       		.uleb128 0x2
 4549 066a 08       		.byte	0x8
 4550 066b 40       		.byte	0x40
 4551 066c 00       		.byte	0
 4552 066d 23       		.uleb128 0x23
 4553 066e 36000000 		.4byte	.LVL37
 4554 0672 EE020000 		.4byte	0x2ee
 4555 0676 1B       		.uleb128 0x1b
 4556 0677 01       		.uleb128 0x1
 4557 0678 50       		.byte	0x50
 4558 0679 02       		.uleb128 0x2
 4559 067a 75       		.byte	0x75
 4560 067b 00       		.sleb128 0
 4561 067c 1B       		.uleb128 0x1b
 4562 067d 01       		.uleb128 0x1
 4563 067e 51       		.byte	0x51
 4564 067f 01       		.uleb128 0x1
 4565 0680 4A       		.byte	0x4a
 4566 0681 00       		.byte	0
 4567 0682 00       		.byte	0
 4568 0683 08       		.uleb128 0x8
 4569 0684 D9000000 		.4byte	0xd9
 4570 0688 93060000 		.4byte	0x693
 4571 068c 09       		.uleb128 0x9
 4572 068d 0D010000 		.4byte	0x10d
 4573 0691 19       		.byte	0x19
 4574 0692 00       		.byte	0
 4575 0693 2A       		.uleb128 0x2a
 4576 0694 36030000 		.4byte	.LASF70
 4577 0698 01       		.byte	0x1
 4578 0699 6301     		.2byte	0x163
 4579 069b B8000000 		.4byte	0xb8
 4580 069f 00000000 		.4byte	.LFB74
 4581 06a3 0C000000 		.4byte	.LFE74-.LFB74
 4582 06a7 01       		.uleb128 0x1
 4583 06a8 9C       		.byte	0x9c
 4584 06a9 2A       		.uleb128 0x2a
 4585 06aa C3030000 		.4byte	.LASF71
 4586 06ae 01       		.byte	0x1
 4587 06af 6701     		.2byte	0x167
 4588 06b1 B8000000 		.4byte	0xb8
 4589 06b5 00000000 		.4byte	.LFB75
 4590 06b9 0C000000 		.4byte	.LFE75-.LFB75
 4591 06bd 01       		.uleb128 0x1
 4592 06be 9C       		.byte	0x9c
 4593 06bf 2A       		.uleb128 0x2a
 4594 06c0 59000000 		.4byte	.LASF72
 4595 06c4 01       		.byte	0x1
 4596 06c5 6B01     		.2byte	0x16b
 4597 06c7 AD000000 		.4byte	0xad
 4598 06cb 00000000 		.4byte	.LFB76
ARM GAS  C:\Users\Kiwi\AppData\Local\Temp\ccKDkYuk.s 			page 99


 4599 06cf 0C000000 		.4byte	.LFE76-.LFB76
 4600 06d3 01       		.uleb128 0x1
 4601 06d4 9C       		.byte	0x9c
 4602 06d5 25       		.uleb128 0x25
 4603 06d6 2E060000 		.4byte	.LASF73
 4604 06da 01       		.byte	0x1
 4605 06db 6F01     		.2byte	0x16f
 4606 06dd 00000000 		.4byte	.LFB77
 4607 06e1 0C000000 		.4byte	.LFE77-.LFB77
 4608 06e5 01       		.uleb128 0x1
 4609 06e6 9C       		.byte	0x9c
 4610 06e7 04070000 		.4byte	0x704
 4611 06eb 2B       		.uleb128 0x2b
 4612 06ec 7800     		.ascii	"x\000"
 4613 06ee 01       		.byte	0x1
 4614 06ef 6F01     		.2byte	0x16f
 4615 06f1 B8000000 		.4byte	0xb8
 4616 06f5 01       		.uleb128 0x1
 4617 06f6 50       		.byte	0x50
 4618 06f7 2B       		.uleb128 0x2b
 4619 06f8 7900     		.ascii	"y\000"
 4620 06fa 01       		.byte	0x1
 4621 06fb 6F01     		.2byte	0x16f
 4622 06fd B8000000 		.4byte	0xb8
 4623 0701 01       		.uleb128 0x1
 4624 0702 51       		.byte	0x51
 4625 0703 00       		.byte	0
 4626 0704 25       		.uleb128 0x25
 4627 0705 66040000 		.4byte	.LASF74
 4628 0709 01       		.byte	0x1
 4629 070a 7401     		.2byte	0x174
 4630 070c 00000000 		.4byte	.LFB78
 4631 0710 10000000 		.4byte	.LFE78-.LFB78
 4632 0714 01       		.uleb128 0x1
 4633 0715 9C       		.byte	0x9c
 4634 0716 2B070000 		.4byte	0x72b
 4635 071a 27       		.uleb128 0x27
 4636 071b 59030000 		.4byte	.LASF50
 4637 071f 01       		.byte	0x1
 4638 0720 7401     		.2byte	0x174
 4639 0722 AD000000 		.4byte	0xad
 4640 0726 33020000 		.4byte	.LLST15
 4641 072a 00       		.byte	0
 4642 072b 25       		.uleb128 0x25
 4643 072c 9D030000 		.4byte	.LASF75
 4644 0730 01       		.byte	0x1
 4645 0731 7801     		.2byte	0x178
 4646 0733 00000000 		.4byte	.LFB79
 4647 0737 0C000000 		.4byte	.LFE79-.LFB79
 4648 073b 01       		.uleb128 0x1
 4649 073c 9C       		.byte	0x9c
 4650 073d 50070000 		.4byte	0x750
 4651 0741 29       		.uleb128 0x29
 4652 0742 49040000 		.4byte	.LASF47
 4653 0746 01       		.byte	0x1
 4654 0747 7801     		.2byte	0x178
 4655 0749 C3000000 		.4byte	0xc3
ARM GAS  C:\Users\Kiwi\AppData\Local\Temp\ccKDkYuk.s 			page 100


 4656 074d 01       		.uleb128 0x1
 4657 074e 50       		.byte	0x50
 4658 074f 00       		.byte	0
 4659 0750 25       		.uleb128 0x25
 4660 0751 E1030000 		.4byte	.LASF76
 4661 0755 01       		.byte	0x1
 4662 0756 7E01     		.2byte	0x17e
 4663 0758 00000000 		.4byte	.LFB80
 4664 075c 0C000000 		.4byte	.LFE80-.LFB80
 4665 0760 01       		.uleb128 0x1
 4666 0761 9C       		.byte	0x9c
 4667 0762 75070000 		.4byte	0x775
 4668 0766 29       		.uleb128 0x29
 4669 0767 49040000 		.4byte	.LASF47
 4670 076b 01       		.byte	0x1
 4671 076c 7E01     		.2byte	0x17e
 4672 076e C3000000 		.4byte	0xc3
 4673 0772 01       		.uleb128 0x1
 4674 0773 50       		.byte	0x50
 4675 0774 00       		.byte	0
 4676 0775 25       		.uleb128 0x25
 4677 0776 3C060000 		.4byte	.LASF77
 4678 077a 01       		.byte	0x1
 4679 077b 8201     		.2byte	0x182
 4680 077d 00000000 		.4byte	.LFB81
 4681 0781 0C000000 		.4byte	.LFE81-.LFB81
 4682 0785 01       		.uleb128 0x1
 4683 0786 9C       		.byte	0x9c
 4684 0787 98070000 		.4byte	0x798
 4685 078b 2B       		.uleb128 0x2b
 4686 078c 7700     		.ascii	"w\000"
 4687 078e 01       		.byte	0x1
 4688 078f 8201     		.2byte	0x182
 4689 0791 D9000000 		.4byte	0xd9
 4690 0795 01       		.uleb128 0x1
 4691 0796 50       		.byte	0x50
 4692 0797 00       		.byte	0
 4693 0798 25       		.uleb128 0x25
 4694 0799 9D000000 		.4byte	.LASF78
 4695 079d 01       		.byte	0x1
 4696 079e 8601     		.2byte	0x186
 4697 07a0 00000000 		.4byte	.LFB82
 4698 07a4 38000000 		.4byte	.LFE82-.LFB82
 4699 07a8 01       		.uleb128 0x1
 4700 07a9 9C       		.byte	0x9c
 4701 07aa BD070000 		.4byte	0x7bd
 4702 07ae 28       		.uleb128 0x28
 4703 07af 7800     		.ascii	"x\000"
 4704 07b1 01       		.byte	0x1
 4705 07b2 8601     		.2byte	0x186
 4706 07b4 AD000000 		.4byte	0xad
 4707 07b8 54020000 		.4byte	.LLST16
 4708 07bc 00       		.byte	0
 4709 07bd 2C       		.uleb128 0x2c
 4710 07be 04020000 		.4byte	.LASF80
 4711 07c2 01       		.byte	0x1
 4712 07c3 AC       		.byte	0xac
ARM GAS  C:\Users\Kiwi\AppData\Local\Temp\ccKDkYuk.s 			page 101


 4713 07c4 01       		.byte	0x1
 4714 07c5 E7070000 		.4byte	0x7e7
 4715 07c9 2D       		.uleb128 0x2d
 4716 07ca 7800     		.ascii	"x\000"
 4717 07cc 01       		.byte	0x1
 4718 07cd AC       		.byte	0xac
 4719 07ce B8000000 		.4byte	0xb8
 4720 07d2 2D       		.uleb128 0x2d
 4721 07d3 7900     		.ascii	"y\000"
 4722 07d5 01       		.byte	0x1
 4723 07d6 AC       		.byte	0xac
 4724 07d7 B8000000 		.4byte	0xb8
 4725 07db 2E       		.uleb128 0x2e
 4726 07dc 49040000 		.4byte	.LASF47
 4727 07e0 01       		.byte	0x1
 4728 07e1 AC       		.byte	0xac
 4729 07e2 C3000000 		.4byte	0xc3
 4730 07e6 00       		.byte	0
 4731 07e7 25       		.uleb128 0x25
 4732 07e8 00000000 		.4byte	.LASF81
 4733 07ec 01       		.byte	0x1
 4734 07ed AB01     		.2byte	0x1ab
 4735 07ef 00000000 		.4byte	.LFB84
 4736 07f3 A8000000 		.4byte	.LFE84-.LFB84
 4737 07f7 01       		.uleb128 0x1
 4738 07f8 9C       		.byte	0x9c
 4739 07f9 70080000 		.4byte	0x870
 4740 07fd 28       		.uleb128 0x28
 4741 07fe 7800     		.ascii	"x\000"
 4742 0800 01       		.byte	0x1
 4743 0801 AB01     		.2byte	0x1ab
 4744 0803 B8000000 		.4byte	0xb8
 4745 0807 75020000 		.4byte	.LLST17
 4746 080b 28       		.uleb128 0x28
 4747 080c 7900     		.ascii	"y\000"
 4748 080e 01       		.byte	0x1
 4749 080f AB01     		.2byte	0x1ab
 4750 0811 B8000000 		.4byte	0xb8
 4751 0815 B8020000 		.4byte	.LLST18
 4752 0819 27       		.uleb128 0x27
 4753 081a 49040000 		.4byte	.LASF47
 4754 081e 01       		.byte	0x1
 4755 081f AB01     		.2byte	0x1ab
 4756 0821 C3000000 		.4byte	0xc3
 4757 0825 EF020000 		.4byte	.LLST19
 4758 0829 2F       		.uleb128 0x2f
 4759 082a BD070000 		.4byte	0x7bd
 4760 082e 36000000 		.4byte	.LBB13
 4761 0832 18000000 		.4byte	.Ldebug_ranges0+0x18
 4762 0836 01       		.byte	0x1
 4763 0837 B201     		.2byte	0x1b2
 4764 0839 59080000 		.4byte	0x859
 4765 083d 20       		.uleb128 0x20
 4766 083e DB070000 		.4byte	0x7db
 4767 0842 10030000 		.4byte	.LLST20
 4768 0846 20       		.uleb128 0x20
 4769 0847 D2070000 		.4byte	0x7d2
ARM GAS  C:\Users\Kiwi\AppData\Local\Temp\ccKDkYuk.s 			page 102


 4770 084b 39030000 		.4byte	.LLST21
 4771 084f 20       		.uleb128 0x20
 4772 0850 C9070000 		.4byte	0x7c9
 4773 0854 4D030000 		.4byte	.LLST22
 4774 0858 00       		.byte	0
 4775 0859 23       		.uleb128 0x23
 4776 085a 32000000 		.4byte	.LVL51
 4777 085e E3010000 		.4byte	0x1e3
 4778 0862 1B       		.uleb128 0x1b
 4779 0863 01       		.uleb128 0x1
 4780 0864 50       		.byte	0x50
 4781 0865 02       		.uleb128 0x2
 4782 0866 91       		.byte	0x91
 4783 0867 76       		.sleb128 -10
 4784 0868 1B       		.uleb128 0x1b
 4785 0869 01       		.uleb128 0x1
 4786 086a 51       		.byte	0x51
 4787 086b 02       		.uleb128 0x2
 4788 086c 91       		.byte	0x91
 4789 086d 74       		.sleb128 -12
 4790 086e 00       		.byte	0
 4791 086f 00       		.byte	0
 4792 0870 0C       		.uleb128 0xc
 4793 0871 AD000000 		.4byte	.LASF82
 4794 0875 01       		.byte	0x1
 4795 0876 B601     		.2byte	0x1b6
 4796 0878 01       		.byte	0x1
 4797 0879 C2080000 		.4byte	0x8c2
 4798 087d 0D       		.uleb128 0xd
 4799 087e 783100   		.ascii	"x1\000"
 4800 0881 01       		.byte	0x1
 4801 0882 B601     		.2byte	0x1b6
 4802 0884 B8000000 		.4byte	0xb8
 4803 0888 0D       		.uleb128 0xd
 4804 0889 793100   		.ascii	"y1\000"
 4805 088c 01       		.byte	0x1
 4806 088d B601     		.2byte	0x1b6
 4807 088f B8000000 		.4byte	0xb8
 4808 0893 0D       		.uleb128 0xd
 4809 0894 783200   		.ascii	"x2\000"
 4810 0897 01       		.byte	0x1
 4811 0898 B601     		.2byte	0x1b6
 4812 089a B8000000 		.4byte	0xb8
 4813 089e 0D       		.uleb128 0xd
 4814 089f 793200   		.ascii	"y2\000"
 4815 08a2 01       		.byte	0x1
 4816 08a3 B601     		.2byte	0x1b6
 4817 08a5 B8000000 		.4byte	0xb8
 4818 08a9 10       		.uleb128 0x10
 4819 08aa 49040000 		.4byte	.LASF47
 4820 08ae 01       		.byte	0x1
 4821 08af B601     		.2byte	0x1b6
 4822 08b1 C3000000 		.4byte	0xc3
 4823 08b5 11       		.uleb128 0x11
 4824 08b6 0E       		.uleb128 0xe
 4825 08b7 7400     		.ascii	"t\000"
 4826 08b9 01       		.byte	0x1
ARM GAS  C:\Users\Kiwi\AppData\Local\Temp\ccKDkYuk.s 			page 103


 4827 08ba D001     		.2byte	0x1d0
 4828 08bc B8000000 		.4byte	0xb8
 4829 08c0 00       		.byte	0
 4830 08c1 00       		.byte	0
 4831 08c2 2C       		.uleb128 0x2c
 4832 08c3 4C000000 		.4byte	.LASF83
 4833 08c7 01       		.byte	0x1
 4834 08c8 F0       		.byte	0xf0
 4835 08c9 01       		.byte	0x1
 4836 08ca 80090000 		.4byte	0x980
 4837 08ce 2D       		.uleb128 0x2d
 4838 08cf 783100   		.ascii	"x1\000"
 4839 08d2 01       		.byte	0x1
 4840 08d3 F0       		.byte	0xf0
 4841 08d4 B8000000 		.4byte	0xb8
 4842 08d8 2D       		.uleb128 0x2d
 4843 08d9 793100   		.ascii	"y1\000"
 4844 08dc 01       		.byte	0x1
 4845 08dd F0       		.byte	0xf0
 4846 08de B8000000 		.4byte	0xb8
 4847 08e2 2D       		.uleb128 0x2d
 4848 08e3 783200   		.ascii	"x2\000"
 4849 08e6 01       		.byte	0x1
 4850 08e7 F0       		.byte	0xf0
 4851 08e8 B8000000 		.4byte	0xb8
 4852 08ec 2D       		.uleb128 0x2d
 4853 08ed 793200   		.ascii	"y2\000"
 4854 08f0 01       		.byte	0x1
 4855 08f1 F0       		.byte	0xf0
 4856 08f2 B8000000 		.4byte	0xb8
 4857 08f6 2E       		.uleb128 0x2e
 4858 08f7 49040000 		.4byte	.LASF47
 4859 08fb 01       		.byte	0x1
 4860 08fc F0       		.byte	0xf0
 4861 08fd C3000000 		.4byte	0xc3
 4862 0901 30       		.uleb128 0x30
 4863 0902 4D090000 		.4byte	0x94d
 4864 0906 31       		.uleb128 0x31
 4865 0907 6B010000 		.4byte	.LASF84
 4866 090b 01       		.byte	0x1
 4867 090c F4       		.byte	0xf4
 4868 090d 80090000 		.4byte	0x980
 4869 0911 31       		.uleb128 0x31
 4870 0912 E9040000 		.4byte	.LASF85
 4871 0916 01       		.byte	0x1
 4872 0917 F5       		.byte	0xf5
 4873 0918 80090000 		.4byte	0x980
 4874 091c 32       		.uleb128 0x32
 4875 091d 70747200 		.ascii	"ptr\000"
 4876 0921 01       		.byte	0x1
 4877 0922 F6       		.byte	0xf6
 4878 0923 80090000 		.4byte	0x980
 4879 0927 11       		.uleb128 0x11
 4880 0928 31       		.uleb128 0x31
 4881 0929 88030000 		.4byte	.LASF86
 4882 092d 01       		.byte	0x1
 4883 092e FA       		.byte	0xfa
ARM GAS  C:\Users\Kiwi\AppData\Local\Temp\ccKDkYuk.s 			page 104


 4884 092f AD000000 		.4byte	0xad
 4885 0933 11       		.uleb128 0x11
 4886 0934 31       		.uleb128 0x31
 4887 0935 80040000 		.4byte	.LASF87
 4888 0939 01       		.byte	0x1
 4889 093a FD       		.byte	0xfd
 4890 093b AD000000 		.4byte	0xad
 4891 093f 31       		.uleb128 0x31
 4892 0940 09050000 		.4byte	.LASF88
 4893 0944 01       		.byte	0x1
 4894 0945 FF       		.byte	0xff
 4895 0946 AD000000 		.4byte	0xad
 4896 094a 00       		.byte	0
 4897 094b 00       		.byte	0
 4898 094c 00       		.byte	0
 4899 094d 11       		.uleb128 0x11
 4900 094e 12       		.uleb128 0x12
 4901 094f 6B010000 		.4byte	.LASF84
 4902 0953 01       		.byte	0x1
 4903 0954 1B01     		.2byte	0x11b
 4904 0956 80090000 		.4byte	0x980
 4905 095a 12       		.uleb128 0x12
 4906 095b E9040000 		.4byte	.LASF85
 4907 095f 01       		.byte	0x1
 4908 0960 1C01     		.2byte	0x11c
 4909 0962 80090000 		.4byte	0x980
 4910 0966 12       		.uleb128 0x12
 4911 0967 06040000 		.4byte	.LASF89
 4912 096b 01       		.byte	0x1
 4913 096c 1D01     		.2byte	0x11d
 4914 096e AD000000 		.4byte	0xad
 4915 0972 0E       		.uleb128 0xe
 4916 0973 70747200 		.ascii	"ptr\000"
 4917 0977 01       		.byte	0x1
 4918 0978 1F01     		.2byte	0x11f
 4919 097a 80090000 		.4byte	0x980
 4920 097e 00       		.byte	0
 4921 097f 00       		.byte	0
 4922 0980 06       		.uleb128 0x6
 4923 0981 04       		.byte	0x4
 4924 0982 AD000000 		.4byte	0xad
 4925 0986 25       		.uleb128 0x25
 4926 0987 AC020000 		.4byte	.LASF90
 4927 098b 01       		.byte	0x1
 4928 098c D801     		.2byte	0x1d8
 4929 098e 00000000 		.4byte	.LFB86
 4930 0992 F8020000 		.4byte	.LFE86-.LFB86
 4931 0996 01       		.uleb128 0x1
 4932 0997 9C       		.byte	0x9c
 4933 0998 880B0000 		.4byte	0xb88
 4934 099c 28       		.uleb128 0x28
 4935 099d 783000   		.ascii	"x0\000"
 4936 09a0 01       		.byte	0x1
 4937 09a1 D801     		.2byte	0x1d8
 4938 09a3 B8000000 		.4byte	0xb8
 4939 09a7 9A030000 		.4byte	.LLST23
 4940 09ab 28       		.uleb128 0x28
ARM GAS  C:\Users\Kiwi\AppData\Local\Temp\ccKDkYuk.s 			page 105


 4941 09ac 793000   		.ascii	"y0\000"
 4942 09af 01       		.byte	0x1
 4943 09b0 D801     		.2byte	0x1d8
 4944 09b2 B8000000 		.4byte	0xb8
 4945 09b6 F5030000 		.4byte	.LLST24
 4946 09ba 28       		.uleb128 0x28
 4947 09bb 783100   		.ascii	"x1\000"
 4948 09be 01       		.byte	0x1
 4949 09bf D801     		.2byte	0x1d8
 4950 09c1 B8000000 		.4byte	0xb8
 4951 09c5 50040000 		.4byte	.LLST25
 4952 09c9 28       		.uleb128 0x28
 4953 09ca 793100   		.ascii	"y1\000"
 4954 09cd 01       		.byte	0x1
 4955 09ce D801     		.2byte	0x1d8
 4956 09d0 B8000000 		.4byte	0xb8
 4957 09d4 8A040000 		.4byte	.LLST26
 4958 09d8 27       		.uleb128 0x27
 4959 09d9 49040000 		.4byte	.LASF47
 4960 09dd 01       		.byte	0x1
 4961 09de D801     		.2byte	0x1d8
 4962 09e0 C3000000 		.4byte	0xc3
 4963 09e4 E8040000 		.4byte	.LLST27
 4964 09e8 0E       		.uleb128 0xe
 4965 09e9 7400     		.ascii	"t\000"
 4966 09eb 01       		.byte	0x1
 4967 09ec E001     		.2byte	0x1e0
 4968 09ee B8000000 		.4byte	0xb8
 4969 09f2 33       		.uleb128 0x33
 4970 09f3 00030000 		.4byte	.LASF91
 4971 09f7 01       		.byte	0x1
 4972 09f8 E201     		.2byte	0x1e2
 4973 09fa B8000000 		.4byte	0xb8
 4974 09fe 08050000 		.4byte	.LLST28
 4975 0a02 34       		.uleb128 0x34
 4976 0a03 647800   		.ascii	"dx\000"
 4977 0a06 01       		.byte	0x1
 4978 0a07 EB01     		.2byte	0x1eb
 4979 0a09 B8000000 		.4byte	0xb8
 4980 0a0d 23050000 		.4byte	.LLST29
 4981 0a11 34       		.uleb128 0x34
 4982 0a12 647900   		.ascii	"dy\000"
 4983 0a15 01       		.byte	0x1
 4984 0a16 EB01     		.2byte	0x1eb
 4985 0a18 B8000000 		.4byte	0xb8
 4986 0a1c 36050000 		.4byte	.LLST30
 4987 0a20 34       		.uleb128 0x34
 4988 0a21 65727200 		.ascii	"err\000"
 4989 0a25 01       		.byte	0x1
 4990 0a26 EE01     		.2byte	0x1ee
 4991 0a28 B8000000 		.4byte	0xb8
 4992 0a2c 4A050000 		.4byte	.LLST31
 4993 0a30 12       		.uleb128 0x12
 4994 0a31 95040000 		.4byte	.LASF92
 4995 0a35 01       		.byte	0x1
 4996 0a36 EF01     		.2byte	0x1ef
 4997 0a38 B8000000 		.4byte	0xb8
ARM GAS  C:\Users\Kiwi\AppData\Local\Temp\ccKDkYuk.s 			page 106


 4998 0a3c 2F       		.uleb128 0x2f
 4999 0a3d 70080000 		.4byte	0x870
 5000 0a41 1C000000 		.4byte	.LBB26
 5001 0a45 30000000 		.4byte	.Ldebug_ranges0+0x30
 5002 0a49 01       		.byte	0x1
 5003 0a4a DC01     		.2byte	0x1dc
 5004 0a4c 770B0000 		.4byte	0xb77
 5005 0a50 20       		.uleb128 0x20
 5006 0a51 A9080000 		.4byte	0x8a9
 5007 0a55 5D050000 		.4byte	.LLST32
 5008 0a59 20       		.uleb128 0x20
 5009 0a5a 9E080000 		.4byte	0x89e
 5010 0a5e 7B050000 		.4byte	.LLST33
 5011 0a62 20       		.uleb128 0x20
 5012 0a63 93080000 		.4byte	0x893
 5013 0a67 BE050000 		.4byte	.LLST34
 5014 0a6b 20       		.uleb128 0x20
 5015 0a6c 88080000 		.4byte	0x888
 5016 0a70 E9050000 		.4byte	.LLST35
 5017 0a74 20       		.uleb128 0x20
 5018 0a75 7D080000 		.4byte	0x87d
 5019 0a79 14060000 		.4byte	.LLST36
 5020 0a7d 35       		.uleb128 0x35
 5021 0a7e EC000000 		.4byte	.LBB28
 5022 0a82 14000000 		.4byte	.LBE28-.LBB28
 5023 0a86 940A0000 		.4byte	0xa94
 5024 0a8a 1E       		.uleb128 0x1e
 5025 0a8b B6080000 		.4byte	0x8b6
 5026 0a8f 3F060000 		.4byte	.LLST37
 5027 0a93 00       		.byte	0
 5028 0a94 2F       		.uleb128 0x2f
 5029 0a95 C2080000 		.4byte	0x8c2
 5030 0a99 0C010000 		.4byte	.LBB29
 5031 0a9d 48000000 		.4byte	.Ldebug_ranges0+0x48
 5032 0aa1 01       		.byte	0x1
 5033 0aa2 D401     		.2byte	0x1d4
 5034 0aa4 460B0000 		.4byte	0xb46
 5035 0aa8 20       		.uleb128 0x20
 5036 0aa9 F6080000 		.4byte	0x8f6
 5037 0aad 5D060000 		.4byte	.LLST38
 5038 0ab1 20       		.uleb128 0x20
 5039 0ab2 EC080000 		.4byte	0x8ec
 5040 0ab6 7B060000 		.4byte	.LLST39
 5041 0aba 20       		.uleb128 0x20
 5042 0abb E2080000 		.4byte	0x8e2
 5043 0abf 9B060000 		.4byte	.LLST40
 5044 0ac3 20       		.uleb128 0x20
 5045 0ac4 D8080000 		.4byte	0x8d8
 5046 0ac8 DC060000 		.4byte	.LLST41
 5047 0acc 20       		.uleb128 0x20
 5048 0acd CE080000 		.4byte	0x8ce
 5049 0ad1 12070000 		.4byte	.LLST42
 5050 0ad5 17       		.uleb128 0x17
 5051 0ad6 68000000 		.4byte	.Ldebug_ranges0+0x68
 5052 0ada 170B0000 		.4byte	0xb17
 5053 0ade 1E       		.uleb128 0x1e
 5054 0adf 06090000 		.4byte	0x906
ARM GAS  C:\Users\Kiwi\AppData\Local\Temp\ccKDkYuk.s 			page 107


 5055 0ae3 48070000 		.4byte	.LLST43
 5056 0ae7 1E       		.uleb128 0x1e
 5057 0ae8 11090000 		.4byte	0x911
 5058 0aec 66070000 		.4byte	.LLST44
 5059 0af0 1E       		.uleb128 0x1e
 5060 0af1 1C090000 		.4byte	0x91c
 5061 0af5 84070000 		.4byte	.LLST45
 5062 0af9 36       		.uleb128 0x36
 5063 0afa 80000000 		.4byte	.Ldebug_ranges0+0x80
 5064 0afe 21       		.uleb128 0x21
 5065 0aff 28090000 		.4byte	0x928
 5066 0b03 36       		.uleb128 0x36
 5067 0b04 A8000000 		.4byte	.Ldebug_ranges0+0xa8
 5068 0b08 37       		.uleb128 0x37
 5069 0b09 34090000 		.4byte	0x934
 5070 0b0d 01       		.uleb128 0x1
 5071 0b0e 56       		.byte	0x56
 5072 0b0f 21       		.uleb128 0x21
 5073 0b10 3F090000 		.4byte	0x93f
 5074 0b14 00       		.byte	0
 5075 0b15 00       		.byte	0
 5076 0b16 00       		.byte	0
 5077 0b17 1F       		.uleb128 0x1f
 5078 0b18 E8010000 		.4byte	.LBB43
 5079 0b1c 40000000 		.4byte	.LBE43-.LBB43
 5080 0b20 1E       		.uleb128 0x1e
 5081 0b21 4E090000 		.4byte	0x94e
 5082 0b25 AD070000 		.4byte	.LLST46
 5083 0b29 1E       		.uleb128 0x1e
 5084 0b2a 5A090000 		.4byte	0x95a
 5085 0b2e E6070000 		.4byte	.LLST47
 5086 0b32 1E       		.uleb128 0x1e
 5087 0b33 66090000 		.4byte	0x966
 5088 0b37 F9070000 		.4byte	.LLST48
 5089 0b3b 1E       		.uleb128 0x1e
 5090 0b3c 72090000 		.4byte	0x972
 5091 0b40 0C080000 		.4byte	.LLST49
 5092 0b44 00       		.byte	0
 5093 0b45 00       		.byte	0
 5094 0b46 1A       		.uleb128 0x1a
 5095 0b47 C2000000 		.4byte	.LVL72
 5096 0b4b E3010000 		.4byte	0x1e3
 5097 0b4f 600B0000 		.4byte	0xb60
 5098 0b53 1B       		.uleb128 0x1b
 5099 0b54 01       		.uleb128 0x1
 5100 0b55 50       		.byte	0x50
 5101 0b56 02       		.uleb128 0x2
 5102 0b57 91       		.byte	0x91
 5103 0b58 50       		.sleb128 -48
 5104 0b59 1B       		.uleb128 0x1b
 5105 0b5a 01       		.uleb128 0x1
 5106 0b5b 51       		.byte	0x51
 5107 0b5c 02       		.uleb128 0x2
 5108 0b5d 91       		.byte	0x91
 5109 0b5e 52       		.sleb128 -46
 5110 0b5f 00       		.byte	0
 5111 0b60 23       		.uleb128 0x23
ARM GAS  C:\Users\Kiwi\AppData\Local\Temp\ccKDkYuk.s 			page 108


 5112 0b61 CC000000 		.4byte	.LVL74
 5113 0b65 E3010000 		.4byte	0x1e3
 5114 0b69 1B       		.uleb128 0x1b
 5115 0b6a 01       		.uleb128 0x1
 5116 0b6b 50       		.byte	0x50
 5117 0b6c 02       		.uleb128 0x2
 5118 0b6d 91       		.byte	0x91
 5119 0b6e 54       		.sleb128 -44
 5120 0b6f 1B       		.uleb128 0x1b
 5121 0b70 01       		.uleb128 0x1
 5122 0b71 51       		.byte	0x51
 5123 0b72 02       		.uleb128 0x2
 5124 0b73 91       		.byte	0x91
 5125 0b74 56       		.sleb128 -42
 5126 0b75 00       		.byte	0
 5127 0b76 00       		.byte	0
 5128 0b77 23       		.uleb128 0x23
 5129 0b78 A4020000 		.4byte	.LVL108
 5130 0b7c E7070000 		.4byte	0x7e7
 5131 0b80 1B       		.uleb128 0x1b
 5132 0b81 01       		.uleb128 0x1
 5133 0b82 52       		.byte	0x52
 5134 0b83 02       		.uleb128 0x2
 5135 0b84 77       		.byte	0x77
 5136 0b85 00       		.sleb128 0
 5137 0b86 00       		.byte	0
 5138 0b87 00       		.byte	0
 5139 0b88 25       		.uleb128 0x25
 5140 0b89 E3020000 		.4byte	.LASF93
 5141 0b8d 01       		.byte	0x1
 5142 0b8e 0302     		.2byte	0x203
 5143 0b90 00000000 		.4byte	.LFB87
 5144 0b94 54000000 		.4byte	.LFE87-.LFB87
 5145 0b98 01       		.uleb128 0x1
 5146 0b99 9C       		.byte	0x9c
 5147 0b9a 770C0000 		.4byte	0xc77
 5148 0b9e 28       		.uleb128 0x28
 5149 0b9f 7800     		.ascii	"x\000"
 5150 0ba1 01       		.byte	0x1
 5151 0ba2 0302     		.2byte	0x203
 5152 0ba4 B8000000 		.4byte	0xb8
 5153 0ba8 1F080000 		.4byte	.LLST50
 5154 0bac 28       		.uleb128 0x28
 5155 0bad 7900     		.ascii	"y\000"
 5156 0baf 01       		.byte	0x1
 5157 0bb0 0302     		.2byte	0x203
 5158 0bb2 B8000000 		.4byte	0xb8
 5159 0bb6 40080000 		.4byte	.LLST51
 5160 0bba 28       		.uleb128 0x28
 5161 0bbb 7700     		.ascii	"w\000"
 5162 0bbd 01       		.byte	0x1
 5163 0bbe 0302     		.2byte	0x203
 5164 0bc0 B8000000 		.4byte	0xb8
 5165 0bc4 61080000 		.4byte	.LLST52
 5166 0bc8 28       		.uleb128 0x28
 5167 0bc9 6800     		.ascii	"h\000"
 5168 0bcb 01       		.byte	0x1
ARM GAS  C:\Users\Kiwi\AppData\Local\Temp\ccKDkYuk.s 			page 109


 5169 0bcc 0302     		.2byte	0x203
 5170 0bce B8000000 		.4byte	0xb8
 5171 0bd2 82080000 		.4byte	.LLST53
 5172 0bd6 27       		.uleb128 0x27
 5173 0bd7 49040000 		.4byte	.LASF47
 5174 0bdb 01       		.byte	0x1
 5175 0bdc 0302     		.2byte	0x203
 5176 0bde C3000000 		.4byte	0xc3
 5177 0be2 A3080000 		.4byte	.LLST54
 5178 0be6 1A       		.uleb128 0x1a
 5179 0be7 24000000 		.4byte	.LVL121
 5180 0beb 86090000 		.4byte	0x986
 5181 0bef 130C0000 		.4byte	0xc13
 5182 0bf3 1B       		.uleb128 0x1b
 5183 0bf4 01       		.uleb128 0x1
 5184 0bf5 50       		.byte	0x50
 5185 0bf6 02       		.uleb128 0x2
 5186 0bf7 78       		.byte	0x78
 5187 0bf8 00       		.sleb128 0
 5188 0bf9 1B       		.uleb128 0x1b
 5189 0bfa 01       		.uleb128 0x1
 5190 0bfb 51       		.byte	0x51
 5191 0bfc 02       		.uleb128 0x2
 5192 0bfd 76       		.byte	0x76
 5193 0bfe 00       		.sleb128 0
 5194 0bff 1B       		.uleb128 0x1b
 5195 0c00 01       		.uleb128 0x1
 5196 0c01 52       		.byte	0x52
 5197 0c02 02       		.uleb128 0x2
 5198 0c03 75       		.byte	0x75
 5199 0c04 00       		.sleb128 0
 5200 0c05 1B       		.uleb128 0x1b
 5201 0c06 01       		.uleb128 0x1
 5202 0c07 53       		.byte	0x53
 5203 0c08 02       		.uleb128 0x2
 5204 0c09 76       		.byte	0x76
 5205 0c0a 00       		.sleb128 0
 5206 0c0b 1B       		.uleb128 0x1b
 5207 0c0c 02       		.uleb128 0x2
 5208 0c0d 7D       		.byte	0x7d
 5209 0c0e 00       		.sleb128 0
 5210 0c0f 02       		.uleb128 0x2
 5211 0c10 77       		.byte	0x77
 5212 0c11 00       		.sleb128 0
 5213 0c12 00       		.byte	0
 5214 0c13 1A       		.uleb128 0x1a
 5215 0c14 32000000 		.4byte	.LVL122
 5216 0c18 86090000 		.4byte	0x986
 5217 0c1c 400C0000 		.4byte	0xc40
 5218 0c20 1B       		.uleb128 0x1b
 5219 0c21 01       		.uleb128 0x1
 5220 0c22 50       		.byte	0x50
 5221 0c23 02       		.uleb128 0x2
 5222 0c24 78       		.byte	0x78
 5223 0c25 00       		.sleb128 0
 5224 0c26 1B       		.uleb128 0x1b
 5225 0c27 01       		.uleb128 0x1
ARM GAS  C:\Users\Kiwi\AppData\Local\Temp\ccKDkYuk.s 			page 110


 5226 0c28 51       		.byte	0x51
 5227 0c29 02       		.uleb128 0x2
 5228 0c2a 74       		.byte	0x74
 5229 0c2b 00       		.sleb128 0
 5230 0c2c 1B       		.uleb128 0x1b
 5231 0c2d 01       		.uleb128 0x1
 5232 0c2e 52       		.byte	0x52
 5233 0c2f 02       		.uleb128 0x2
 5234 0c30 75       		.byte	0x75
 5235 0c31 00       		.sleb128 0
 5236 0c32 1B       		.uleb128 0x1b
 5237 0c33 01       		.uleb128 0x1
 5238 0c34 53       		.byte	0x53
 5239 0c35 02       		.uleb128 0x2
 5240 0c36 74       		.byte	0x74
 5241 0c37 00       		.sleb128 0
 5242 0c38 1B       		.uleb128 0x1b
 5243 0c39 02       		.uleb128 0x2
 5244 0c3a 7D       		.byte	0x7d
 5245 0c3b 00       		.sleb128 0
 5246 0c3c 02       		.uleb128 0x2
 5247 0c3d 77       		.byte	0x77
 5248 0c3e 00       		.sleb128 0
 5249 0c3f 00       		.byte	0
 5250 0c40 1A       		.uleb128 0x1a
 5251 0c41 40000000 		.4byte	.LVL123
 5252 0c45 86090000 		.4byte	0x986
 5253 0c49 6D0C0000 		.4byte	0xc6d
 5254 0c4d 1B       		.uleb128 0x1b
 5255 0c4e 01       		.uleb128 0x1
 5256 0c4f 50       		.byte	0x50
 5257 0c50 02       		.uleb128 0x2
 5258 0c51 78       		.byte	0x78
 5259 0c52 00       		.sleb128 0
 5260 0c53 1B       		.uleb128 0x1b
 5261 0c54 01       		.uleb128 0x1
 5262 0c55 51       		.byte	0x51
 5263 0c56 02       		.uleb128 0x2
 5264 0c57 76       		.byte	0x76
 5265 0c58 00       		.sleb128 0
 5266 0c59 1B       		.uleb128 0x1b
 5267 0c5a 01       		.uleb128 0x1
 5268 0c5b 52       		.byte	0x52
 5269 0c5c 02       		.uleb128 0x2
 5270 0c5d 78       		.byte	0x78
 5271 0c5e 00       		.sleb128 0
 5272 0c5f 1B       		.uleb128 0x1b
 5273 0c60 01       		.uleb128 0x1
 5274 0c61 53       		.byte	0x53
 5275 0c62 02       		.uleb128 0x2
 5276 0c63 74       		.byte	0x74
 5277 0c64 00       		.sleb128 0
 5278 0c65 1B       		.uleb128 0x1b
 5279 0c66 02       		.uleb128 0x2
 5280 0c67 7D       		.byte	0x7d
 5281 0c68 00       		.sleb128 0
 5282 0c69 02       		.uleb128 0x2
ARM GAS  C:\Users\Kiwi\AppData\Local\Temp\ccKDkYuk.s 			page 111


 5283 0c6a 77       		.byte	0x77
 5284 0c6b 00       		.sleb128 0
 5285 0c6c 00       		.byte	0
 5286 0c6d 38       		.uleb128 0x38
 5287 0c6e 54000000 		.4byte	.LVL125
 5288 0c72 86090000 		.4byte	0x986
 5289 0c76 00       		.byte	0
 5290 0c77 1C       		.uleb128 0x1c
 5291 0c78 18020000 		.4byte	0x218
 5292 0c7c 00000000 		.4byte	.LFB88
 5293 0c80 68000000 		.4byte	.LFE88-.LFB88
 5294 0c84 01       		.uleb128 0x1
 5295 0c85 9C       		.byte	0x9c
 5296 0c86 4C0D0000 		.4byte	0xd4c
 5297 0c8a 20       		.uleb128 0x20
 5298 0c8b 25020000 		.4byte	0x225
 5299 0c8f C3080000 		.4byte	.LLST55
 5300 0c93 20       		.uleb128 0x20
 5301 0c94 2F020000 		.4byte	0x22f
 5302 0c98 E4080000 		.4byte	.LLST56
 5303 0c9c 20       		.uleb128 0x20
 5304 0c9d 39020000 		.4byte	0x239
 5305 0ca1 05090000 		.4byte	.LLST57
 5306 0ca5 20       		.uleb128 0x20
 5307 0ca6 43020000 		.4byte	0x243
 5308 0caa 26090000 		.4byte	.LLST58
 5309 0cae 1D       		.uleb128 0x1d
 5310 0caf 4D020000 		.4byte	0x24d
 5311 0cb3 02       		.uleb128 0x2
 5312 0cb4 91       		.byte	0x91
 5313 0cb5 00       		.sleb128 0
 5314 0cb6 1E       		.uleb128 0x1e
 5315 0cb7 59020000 		.4byte	0x259
 5316 0cbb 60090000 		.4byte	.LLST59
 5317 0cbf 35       		.uleb128 0x35
 5318 0cc0 20000000 		.4byte	.LBB53
 5319 0cc4 24000000 		.4byte	.LBE53-.LBB53
 5320 0cc8 220D0000 		.4byte	0xd22
 5321 0ccc 39       		.uleb128 0x39
 5322 0ccd 4D020000 		.4byte	0x24d
 5323 0cd1 39       		.uleb128 0x39
 5324 0cd2 43020000 		.4byte	0x243
 5325 0cd6 39       		.uleb128 0x39
 5326 0cd7 39020000 		.4byte	0x239
 5327 0cdb 39       		.uleb128 0x39
 5328 0cdc 2F020000 		.4byte	0x22f
 5329 0ce0 39       		.uleb128 0x39
 5330 0ce1 25020000 		.4byte	0x225
 5331 0ce5 1F       		.uleb128 0x1f
 5332 0ce6 20000000 		.4byte	.LBB54
 5333 0cea 24000000 		.4byte	.LBE54-.LBB54
 5334 0cee 1E       		.uleb128 0x1e
 5335 0cef 59020000 		.4byte	0x259
 5336 0cf3 8A090000 		.4byte	.LLST60
 5337 0cf7 23       		.uleb128 0x23
 5338 0cf8 40000000 		.4byte	.LVL132
 5339 0cfc 86090000 		.4byte	0x986
ARM GAS  C:\Users\Kiwi\AppData\Local\Temp\ccKDkYuk.s 			page 112


 5340 0d00 1B       		.uleb128 0x1b
 5341 0d01 01       		.uleb128 0x1
 5342 0d02 50       		.byte	0x50
 5343 0d03 02       		.uleb128 0x2
 5344 0d04 74       		.byte	0x74
 5345 0d05 7F       		.sleb128 -1
 5346 0d06 1B       		.uleb128 0x1b
 5347 0d07 01       		.uleb128 0x1
 5348 0d08 51       		.byte	0x51
 5349 0d09 02       		.uleb128 0x2
 5350 0d0a 76       		.byte	0x76
 5351 0d0b 00       		.sleb128 0
 5352 0d0c 1B       		.uleb128 0x1b
 5353 0d0d 01       		.uleb128 0x1
 5354 0d0e 52       		.byte	0x52
 5355 0d0f 02       		.uleb128 0x2
 5356 0d10 74       		.byte	0x74
 5357 0d11 7F       		.sleb128 -1
 5358 0d12 1B       		.uleb128 0x1b
 5359 0d13 01       		.uleb128 0x1
 5360 0d14 53       		.byte	0x53
 5361 0d15 02       		.uleb128 0x2
 5362 0d16 78       		.byte	0x78
 5363 0d17 00       		.sleb128 0
 5364 0d18 1B       		.uleb128 0x1b
 5365 0d19 02       		.uleb128 0x2
 5366 0d1a 7D       		.byte	0x7d
 5367 0d1b 00       		.sleb128 0
 5368 0d1c 02       		.uleb128 0x2
 5369 0d1d 79       		.byte	0x79
 5370 0d1e 00       		.sleb128 0
 5371 0d1f 00       		.byte	0
 5372 0d20 00       		.byte	0
 5373 0d21 00       		.byte	0
 5374 0d22 23       		.uleb128 0x23
 5375 0d23 5E000000 		.4byte	.LVL136
 5376 0d27 86090000 		.4byte	0x986
 5377 0d2b 1B       		.uleb128 0x1b
 5378 0d2c 01       		.uleb128 0x1
 5379 0d2d 50       		.byte	0x50
 5380 0d2e 02       		.uleb128 0x2
 5381 0d2f 77       		.byte	0x77
 5382 0d30 00       		.sleb128 0
 5383 0d31 1B       		.uleb128 0x1b
 5384 0d32 01       		.uleb128 0x1
 5385 0d33 51       		.byte	0x51
 5386 0d34 02       		.uleb128 0x2
 5387 0d35 74       		.byte	0x74
 5388 0d36 7F       		.sleb128 -1
 5389 0d37 1B       		.uleb128 0x1b
 5390 0d38 01       		.uleb128 0x1
 5391 0d39 52       		.byte	0x52
 5392 0d3a 02       		.uleb128 0x2
 5393 0d3b 75       		.byte	0x75
 5394 0d3c 00       		.sleb128 0
 5395 0d3d 1B       		.uleb128 0x1b
 5396 0d3e 01       		.uleb128 0x1
ARM GAS  C:\Users\Kiwi\AppData\Local\Temp\ccKDkYuk.s 			page 113


 5397 0d3f 53       		.byte	0x53
 5398 0d40 02       		.uleb128 0x2
 5399 0d41 74       		.byte	0x74
 5400 0d42 7F       		.sleb128 -1
 5401 0d43 1B       		.uleb128 0x1b
 5402 0d44 02       		.uleb128 0x2
 5403 0d45 7D       		.byte	0x7d
 5404 0d46 00       		.sleb128 0
 5405 0d47 02       		.uleb128 0x2
 5406 0d48 79       		.byte	0x79
 5407 0d49 00       		.sleb128 0
 5408 0d4a 00       		.byte	0
 5409 0d4b 00       		.byte	0
 5410 0d4c 25       		.uleb128 0x25
 5411 0d4d EF010000 		.4byte	.LASF94
 5412 0d51 01       		.byte	0x1
 5413 0d52 1A02     		.2byte	0x21a
 5414 0d54 00000000 		.4byte	.LFB89
 5415 0d58 46010000 		.4byte	.LFE89-.LFB89
 5416 0d5c 01       		.uleb128 0x1
 5417 0d5d 9C       		.byte	0x9c
 5418 0d5e 6F0F0000 		.4byte	0xf6f
 5419 0d62 28       		.uleb128 0x28
 5420 0d63 783000   		.ascii	"x0\000"
 5421 0d66 01       		.byte	0x1
 5422 0d67 1A02     		.2byte	0x21a
 5423 0d69 B8000000 		.4byte	0xb8
 5424 0d6d A8090000 		.4byte	.LLST61
 5425 0d71 28       		.uleb128 0x28
 5426 0d72 793000   		.ascii	"y0\000"
 5427 0d75 01       		.byte	0x1
 5428 0d76 1A02     		.2byte	0x21a
 5429 0d78 B8000000 		.4byte	0xb8
 5430 0d7c C9090000 		.4byte	.LLST62
 5431 0d80 28       		.uleb128 0x28
 5432 0d81 7200     		.ascii	"r\000"
 5433 0d83 01       		.byte	0x1
 5434 0d84 1A02     		.2byte	0x21a
 5435 0d86 B8000000 		.4byte	0xb8
 5436 0d8a E7090000 		.4byte	.LLST63
 5437 0d8e 27       		.uleb128 0x27
 5438 0d8f 49040000 		.4byte	.LASF47
 5439 0d93 01       		.byte	0x1
 5440 0d94 1A02     		.2byte	0x21a
 5441 0d96 C3000000 		.4byte	0xc3
 5442 0d9a 130A0000 		.4byte	.LLST64
 5443 0d9e 3A       		.uleb128 0x3a
 5444 0d9f 6600     		.ascii	"f\000"
 5445 0da1 01       		.byte	0x1
 5446 0da2 1C02     		.2byte	0x21c
 5447 0da4 B8000000 		.4byte	0xb8
 5448 0da8 03       		.uleb128 0x3
 5449 0da9 91       		.byte	0x91
 5450 0daa BC7F     		.sleb128 -68
 5451 0dac 33       		.uleb128 0x33
 5452 0dad CD050000 		.4byte	.LASF95
 5453 0db1 01       		.byte	0x1
ARM GAS  C:\Users\Kiwi\AppData\Local\Temp\ccKDkYuk.s 			page 114


 5454 0db2 1D02     		.2byte	0x21d
 5455 0db4 B8000000 		.4byte	0xb8
 5456 0db8 340A0000 		.4byte	.LLST65
 5457 0dbc 33       		.uleb128 0x33
 5458 0dbd D3050000 		.4byte	.LASF96
 5459 0dc1 01       		.byte	0x1
 5460 0dc2 1E02     		.2byte	0x21e
 5461 0dc4 B8000000 		.4byte	0xb8
 5462 0dc8 810A0000 		.4byte	.LLST66
 5463 0dcc 34       		.uleb128 0x34
 5464 0dcd 7800     		.ascii	"x\000"
 5465 0dcf 01       		.byte	0x1
 5466 0dd0 1F02     		.2byte	0x21f
 5467 0dd2 B8000000 		.4byte	0xb8
 5468 0dd6 A10A0000 		.4byte	.LLST67
 5469 0dda 34       		.uleb128 0x34
 5470 0ddb 7900     		.ascii	"y\000"
 5471 0ddd 01       		.byte	0x1
 5472 0dde 2002     		.2byte	0x220
 5473 0de0 B8000000 		.4byte	0xb8
 5474 0de4 DE0A0000 		.4byte	.LLST68
 5475 0de8 1A       		.uleb128 0x1a
 5476 0de9 32000000 		.4byte	.LVL145
 5477 0ded E7070000 		.4byte	0x7e7
 5478 0df1 0B0E0000 		.4byte	0xe0b
 5479 0df5 1B       		.uleb128 0x1b
 5480 0df6 01       		.uleb128 0x1
 5481 0df7 50       		.byte	0x50
 5482 0df8 02       		.uleb128 0x2
 5483 0df9 75       		.byte	0x75
 5484 0dfa 00       		.sleb128 0
 5485 0dfb 1B       		.uleb128 0x1b
 5486 0dfc 01       		.uleb128 0x1
 5487 0dfd 51       		.byte	0x51
 5488 0dfe 05       		.uleb128 0x5
 5489 0dff 76       		.byte	0x76
 5490 0e00 00       		.sleb128 0
 5491 0e01 78       		.byte	0x78
 5492 0e02 00       		.sleb128 0
 5493 0e03 22       		.byte	0x22
 5494 0e04 1B       		.uleb128 0x1b
 5495 0e05 01       		.uleb128 0x1
 5496 0e06 52       		.byte	0x52
 5497 0e07 02       		.uleb128 0x2
 5498 0e08 74       		.byte	0x74
 5499 0e09 00       		.sleb128 0
 5500 0e0a 00       		.byte	0
 5501 0e0b 1A       		.uleb128 0x1a
 5502 0e0c 42000000 		.4byte	.LVL146
 5503 0e10 E7070000 		.4byte	0x7e7
 5504 0e14 280E0000 		.4byte	0xe28
 5505 0e18 1B       		.uleb128 0x1b
 5506 0e19 01       		.uleb128 0x1
 5507 0e1a 51       		.byte	0x51
 5508 0e1b 05       		.uleb128 0x5
 5509 0e1c 78       		.byte	0x78
 5510 0e1d 00       		.sleb128 0
ARM GAS  C:\Users\Kiwi\AppData\Local\Temp\ccKDkYuk.s 			page 115


 5511 0e1e 76       		.byte	0x76
 5512 0e1f 00       		.sleb128 0
 5513 0e20 1C       		.byte	0x1c
 5514 0e21 1B       		.uleb128 0x1b
 5515 0e22 01       		.uleb128 0x1
 5516 0e23 52       		.byte	0x52
 5517 0e24 02       		.uleb128 0x2
 5518 0e25 74       		.byte	0x74
 5519 0e26 00       		.sleb128 0
 5520 0e27 00       		.byte	0
 5521 0e28 1A       		.uleb128 0x1a
 5522 0e29 4E000000 		.4byte	.LVL147
 5523 0e2d E7070000 		.4byte	0x7e7
 5524 0e31 4B0E0000 		.4byte	0xe4b
 5525 0e35 1B       		.uleb128 0x1b
 5526 0e36 01       		.uleb128 0x1
 5527 0e37 50       		.byte	0x50
 5528 0e38 05       		.uleb128 0x5
 5529 0e39 76       		.byte	0x76
 5530 0e3a 00       		.sleb128 0
 5531 0e3b 75       		.byte	0x75
 5532 0e3c 00       		.sleb128 0
 5533 0e3d 22       		.byte	0x22
 5534 0e3e 1B       		.uleb128 0x1b
 5535 0e3f 01       		.uleb128 0x1
 5536 0e40 51       		.byte	0x51
 5537 0e41 02       		.uleb128 0x2
 5538 0e42 79       		.byte	0x79
 5539 0e43 00       		.sleb128 0
 5540 0e44 1B       		.uleb128 0x1b
 5541 0e45 01       		.uleb128 0x1
 5542 0e46 52       		.byte	0x52
 5543 0e47 02       		.uleb128 0x2
 5544 0e48 74       		.byte	0x74
 5545 0e49 00       		.sleb128 0
 5546 0e4a 00       		.byte	0
 5547 0e4b 1A       		.uleb128 0x1a
 5548 0e4c 5A000000 		.4byte	.LVL148
 5549 0e50 E7070000 		.4byte	0x7e7
 5550 0e54 6E0E0000 		.4byte	0xe6e
 5551 0e58 1B       		.uleb128 0x1b
 5552 0e59 01       		.uleb128 0x1
 5553 0e5a 50       		.byte	0x50
 5554 0e5b 05       		.uleb128 0x5
 5555 0e5c 75       		.byte	0x75
 5556 0e5d 00       		.sleb128 0
 5557 0e5e 76       		.byte	0x76
 5558 0e5f 00       		.sleb128 0
 5559 0e60 1C       		.byte	0x1c
 5560 0e61 1B       		.uleb128 0x1b
 5561 0e62 01       		.uleb128 0x1
 5562 0e63 51       		.byte	0x51
 5563 0e64 02       		.uleb128 0x2
 5564 0e65 79       		.byte	0x79
 5565 0e66 00       		.sleb128 0
 5566 0e67 1B       		.uleb128 0x1b
 5567 0e68 01       		.uleb128 0x1
ARM GAS  C:\Users\Kiwi\AppData\Local\Temp\ccKDkYuk.s 			page 116


 5568 0e69 52       		.byte	0x52
 5569 0e6a 02       		.uleb128 0x2
 5570 0e6b 74       		.byte	0x74
 5571 0e6c 00       		.sleb128 0
 5572 0e6d 00       		.byte	0
 5573 0e6e 1A       		.uleb128 0x1a
 5574 0e6f BC000000 		.4byte	.LVL156
 5575 0e73 E7070000 		.4byte	0x7e7
 5576 0e77 900E0000 		.4byte	0xe90
 5577 0e7b 1B       		.uleb128 0x1b
 5578 0e7c 01       		.uleb128 0x1
 5579 0e7d 50       		.byte	0x50
 5580 0e7e 04       		.uleb128 0x4
 5581 0e7f 91       		.byte	0x91
 5582 0e80 54       		.sleb128 -44
 5583 0e81 94       		.byte	0x94
 5584 0e82 02       		.byte	0x2
 5585 0e83 1B       		.uleb128 0x1b
 5586 0e84 01       		.uleb128 0x1
 5587 0e85 51       		.byte	0x51
 5588 0e86 02       		.uleb128 0x2
 5589 0e87 7B       		.byte	0x7b
 5590 0e88 00       		.sleb128 0
 5591 0e89 1B       		.uleb128 0x1b
 5592 0e8a 01       		.uleb128 0x1
 5593 0e8b 52       		.byte	0x52
 5594 0e8c 02       		.uleb128 0x2
 5595 0e8d 74       		.byte	0x74
 5596 0e8e 00       		.sleb128 0
 5597 0e8f 00       		.byte	0
 5598 0e90 1A       		.uleb128 0x1a
 5599 0e91 D0000000 		.4byte	.LVL157
 5600 0e95 E7070000 		.4byte	0x7e7
 5601 0e99 B00E0000 		.4byte	0xeb0
 5602 0e9d 1B       		.uleb128 0x1b
 5603 0e9e 01       		.uleb128 0x1
 5604 0e9f 50       		.byte	0x50
 5605 0ea0 02       		.uleb128 0x2
 5606 0ea1 7A       		.byte	0x7a
 5607 0ea2 00       		.sleb128 0
 5608 0ea3 1B       		.uleb128 0x1b
 5609 0ea4 01       		.uleb128 0x1
 5610 0ea5 51       		.byte	0x51
 5611 0ea6 02       		.uleb128 0x2
 5612 0ea7 7B       		.byte	0x7b
 5613 0ea8 00       		.sleb128 0
 5614 0ea9 1B       		.uleb128 0x1b
 5615 0eaa 01       		.uleb128 0x1
 5616 0eab 52       		.byte	0x52
 5617 0eac 02       		.uleb128 0x2
 5618 0ead 74       		.byte	0x74
 5619 0eae 00       		.sleb128 0
 5620 0eaf 00       		.byte	0
 5621 0eb0 1A       		.uleb128 0x1a
 5622 0eb1 E4000000 		.4byte	.LVL158
 5623 0eb5 E7070000 		.4byte	0x7e7
 5624 0eb9 D20E0000 		.4byte	0xed2
ARM GAS  C:\Users\Kiwi\AppData\Local\Temp\ccKDkYuk.s 			page 117


 5625 0ebd 1B       		.uleb128 0x1b
 5626 0ebe 01       		.uleb128 0x1
 5627 0ebf 50       		.byte	0x50
 5628 0ec0 04       		.uleb128 0x4
 5629 0ec1 91       		.byte	0x91
 5630 0ec2 54       		.sleb128 -44
 5631 0ec3 94       		.byte	0x94
 5632 0ec4 02       		.byte	0x2
 5633 0ec5 1B       		.uleb128 0x1b
 5634 0ec6 01       		.uleb128 0x1
 5635 0ec7 51       		.byte	0x51
 5636 0ec8 02       		.uleb128 0x2
 5637 0ec9 7B       		.byte	0x7b
 5638 0eca 00       		.sleb128 0
 5639 0ecb 1B       		.uleb128 0x1b
 5640 0ecc 01       		.uleb128 0x1
 5641 0ecd 52       		.byte	0x52
 5642 0ece 02       		.uleb128 0x2
 5643 0ecf 74       		.byte	0x74
 5644 0ed0 00       		.sleb128 0
 5645 0ed1 00       		.byte	0
 5646 0ed2 1A       		.uleb128 0x1a
 5647 0ed3 EE000000 		.4byte	.LVL159
 5648 0ed7 E7070000 		.4byte	0x7e7
 5649 0edb F20E0000 		.4byte	0xef2
 5650 0edf 1B       		.uleb128 0x1b
 5651 0ee0 01       		.uleb128 0x1
 5652 0ee1 50       		.byte	0x50
 5653 0ee2 02       		.uleb128 0x2
 5654 0ee3 7A       		.byte	0x7a
 5655 0ee4 00       		.sleb128 0
 5656 0ee5 1B       		.uleb128 0x1b
 5657 0ee6 01       		.uleb128 0x1
 5658 0ee7 51       		.byte	0x51
 5659 0ee8 02       		.uleb128 0x2
 5660 0ee9 7B       		.byte	0x7b
 5661 0eea 00       		.sleb128 0
 5662 0eeb 1B       		.uleb128 0x1b
 5663 0eec 01       		.uleb128 0x1
 5664 0eed 52       		.byte	0x52
 5665 0eee 02       		.uleb128 0x2
 5666 0eef 74       		.byte	0x74
 5667 0ef0 00       		.sleb128 0
 5668 0ef1 00       		.byte	0
 5669 0ef2 1A       		.uleb128 0x1a
 5670 0ef3 0E010000 		.4byte	.LVL160
 5671 0ef7 E7070000 		.4byte	0x7e7
 5672 0efb 120F0000 		.4byte	0xf12
 5673 0eff 1B       		.uleb128 0x1b
 5674 0f00 01       		.uleb128 0x1
 5675 0f01 50       		.byte	0x50
 5676 0f02 02       		.uleb128 0x2
 5677 0f03 7A       		.byte	0x7a
 5678 0f04 00       		.sleb128 0
 5679 0f05 1B       		.uleb128 0x1b
 5680 0f06 01       		.uleb128 0x1
 5681 0f07 51       		.byte	0x51
ARM GAS  C:\Users\Kiwi\AppData\Local\Temp\ccKDkYuk.s 			page 118


 5682 0f08 02       		.uleb128 0x2
 5683 0f09 7B       		.byte	0x7b
 5684 0f0a 00       		.sleb128 0
 5685 0f0b 1B       		.uleb128 0x1b
 5686 0f0c 01       		.uleb128 0x1
 5687 0f0d 52       		.byte	0x52
 5688 0f0e 02       		.uleb128 0x2
 5689 0f0f 74       		.byte	0x74
 5690 0f10 00       		.sleb128 0
 5691 0f11 00       		.byte	0
 5692 0f12 1A       		.uleb128 0x1a
 5693 0f13 18010000 		.4byte	.LVL161
 5694 0f17 E7070000 		.4byte	0x7e7
 5695 0f1b 320F0000 		.4byte	0xf32
 5696 0f1f 1B       		.uleb128 0x1b
 5697 0f20 01       		.uleb128 0x1
 5698 0f21 50       		.byte	0x50
 5699 0f22 02       		.uleb128 0x2
 5700 0f23 76       		.byte	0x76
 5701 0f24 00       		.sleb128 0
 5702 0f25 1B       		.uleb128 0x1b
 5703 0f26 01       		.uleb128 0x1
 5704 0f27 51       		.byte	0x51
 5705 0f28 02       		.uleb128 0x2
 5706 0f29 7B       		.byte	0x7b
 5707 0f2a 00       		.sleb128 0
 5708 0f2b 1B       		.uleb128 0x1b
 5709 0f2c 01       		.uleb128 0x1
 5710 0f2d 52       		.byte	0x52
 5711 0f2e 02       		.uleb128 0x2
 5712 0f2f 74       		.byte	0x74
 5713 0f30 00       		.sleb128 0
 5714 0f31 00       		.byte	0
 5715 0f32 1A       		.uleb128 0x1a
 5716 0f33 2E010000 		.4byte	.LVL162
 5717 0f37 E7070000 		.4byte	0x7e7
 5718 0f3b 520F0000 		.4byte	0xf52
 5719 0f3f 1B       		.uleb128 0x1b
 5720 0f40 01       		.uleb128 0x1
 5721 0f41 50       		.byte	0x50
 5722 0f42 02       		.uleb128 0x2
 5723 0f43 7A       		.byte	0x7a
 5724 0f44 00       		.sleb128 0
 5725 0f45 1B       		.uleb128 0x1b
 5726 0f46 01       		.uleb128 0x1
 5727 0f47 51       		.byte	0x51
 5728 0f48 02       		.uleb128 0x2
 5729 0f49 79       		.byte	0x79
 5730 0f4a 00       		.sleb128 0
 5731 0f4b 1B       		.uleb128 0x1b
 5732 0f4c 01       		.uleb128 0x1
 5733 0f4d 52       		.byte	0x52
 5734 0f4e 02       		.uleb128 0x2
 5735 0f4f 74       		.byte	0x74
 5736 0f50 00       		.sleb128 0
 5737 0f51 00       		.byte	0
 5738 0f52 23       		.uleb128 0x23
ARM GAS  C:\Users\Kiwi\AppData\Local\Temp\ccKDkYuk.s 			page 119


 5739 0f53 38010000 		.4byte	.LVL163
 5740 0f57 E7070000 		.4byte	0x7e7
 5741 0f5b 1B       		.uleb128 0x1b
 5742 0f5c 01       		.uleb128 0x1
 5743 0f5d 50       		.byte	0x50
 5744 0f5e 02       		.uleb128 0x2
 5745 0f5f 76       		.byte	0x76
 5746 0f60 00       		.sleb128 0
 5747 0f61 1B       		.uleb128 0x1b
 5748 0f62 01       		.uleb128 0x1
 5749 0f63 51       		.byte	0x51
 5750 0f64 02       		.uleb128 0x2
 5751 0f65 79       		.byte	0x79
 5752 0f66 00       		.sleb128 0
 5753 0f67 1B       		.uleb128 0x1b
 5754 0f68 01       		.uleb128 0x1
 5755 0f69 52       		.byte	0x52
 5756 0f6a 02       		.uleb128 0x2
 5757 0f6b 74       		.byte	0x74
 5758 0f6c 00       		.sleb128 0
 5759 0f6d 00       		.byte	0
 5760 0f6e 00       		.byte	0
 5761 0f6f 25       		.uleb128 0x25
 5762 0f70 84010000 		.4byte	.LASF97
 5763 0f74 01       		.byte	0x1
 5764 0f75 3902     		.2byte	0x239
 5765 0f77 00000000 		.4byte	.LFB90
 5766 0f7b 40000000 		.4byte	.LFE90-.LFB90
 5767 0f7f 01       		.uleb128 0x1
 5768 0f80 9C       		.byte	0x9c
 5769 0f81 65100000 		.4byte	0x1065
 5770 0f85 28       		.uleb128 0x28
 5771 0f86 783000   		.ascii	"x0\000"
 5772 0f89 01       		.byte	0x1
 5773 0f8a 3902     		.2byte	0x239
 5774 0f8c B8000000 		.4byte	0xb8
 5775 0f90 FC0A0000 		.4byte	.LLST69
 5776 0f94 28       		.uleb128 0x28
 5777 0f95 793000   		.ascii	"y0\000"
 5778 0f98 01       		.byte	0x1
 5779 0f99 3902     		.2byte	0x239
 5780 0f9b B8000000 		.4byte	0xb8
 5781 0f9f 1D0B0000 		.4byte	.LLST70
 5782 0fa3 28       		.uleb128 0x28
 5783 0fa4 783100   		.ascii	"x1\000"
 5784 0fa7 01       		.byte	0x1
 5785 0fa8 3902     		.2byte	0x239
 5786 0faa B8000000 		.4byte	0xb8
 5787 0fae 3E0B0000 		.4byte	.LLST71
 5788 0fb2 28       		.uleb128 0x28
 5789 0fb3 793100   		.ascii	"y1\000"
 5790 0fb6 01       		.byte	0x1
 5791 0fb7 3902     		.2byte	0x239
 5792 0fb9 B8000000 		.4byte	0xb8
 5793 0fbd 5F0B0000 		.4byte	.LLST72
 5794 0fc1 28       		.uleb128 0x28
 5795 0fc2 783200   		.ascii	"x2\000"
ARM GAS  C:\Users\Kiwi\AppData\Local\Temp\ccKDkYuk.s 			page 120


 5796 0fc5 01       		.byte	0x1
 5797 0fc6 3902     		.2byte	0x239
 5798 0fc8 B8000000 		.4byte	0xb8
 5799 0fcc 800B0000 		.4byte	.LLST73
 5800 0fd0 28       		.uleb128 0x28
 5801 0fd1 793200   		.ascii	"y2\000"
 5802 0fd4 01       		.byte	0x1
 5803 0fd5 3902     		.2byte	0x239
 5804 0fd7 B8000000 		.4byte	0xb8
 5805 0fdb A00B0000 		.4byte	.LLST74
 5806 0fdf 27       		.uleb128 0x27
 5807 0fe0 49040000 		.4byte	.LASF47
 5808 0fe4 01       		.byte	0x1
 5809 0fe5 3902     		.2byte	0x239
 5810 0fe7 C3000000 		.4byte	0xc3
 5811 0feb C00B0000 		.4byte	.LLST75
 5812 0fef 1A       		.uleb128 0x1a
 5813 0ff0 1E000000 		.4byte	.LVL167
 5814 0ff4 86090000 		.4byte	0x986
 5815 0ff8 1C100000 		.4byte	0x101c
 5816 0ffc 1B       		.uleb128 0x1b
 5817 0ffd 01       		.uleb128 0x1
 5818 0ffe 50       		.byte	0x50
 5819 0fff 02       		.uleb128 0x2
 5820 1000 77       		.byte	0x77
 5821 1001 00       		.sleb128 0
 5822 1002 1B       		.uleb128 0x1b
 5823 1003 01       		.uleb128 0x1
 5824 1004 51       		.byte	0x51
 5825 1005 02       		.uleb128 0x2
 5826 1006 78       		.byte	0x78
 5827 1007 00       		.sleb128 0
 5828 1008 1B       		.uleb128 0x1b
 5829 1009 01       		.uleb128 0x1
 5830 100a 52       		.byte	0x52
 5831 100b 02       		.uleb128 0x2
 5832 100c 79       		.byte	0x79
 5833 100d 00       		.sleb128 0
 5834 100e 1B       		.uleb128 0x1b
 5835 100f 01       		.uleb128 0x1
 5836 1010 53       		.byte	0x53
 5837 1011 02       		.uleb128 0x2
 5838 1012 7A       		.byte	0x7a
 5839 1013 00       		.sleb128 0
 5840 1014 1B       		.uleb128 0x1b
 5841 1015 02       		.uleb128 0x2
 5842 1016 7D       		.byte	0x7d
 5843 1017 00       		.sleb128 0
 5844 1018 02       		.uleb128 0x2
 5845 1019 74       		.byte	0x74
 5846 101a 00       		.sleb128 0
 5847 101b 00       		.byte	0
 5848 101c 1A       		.uleb128 0x1a
 5849 101d 2C000000 		.4byte	.LVL168
 5850 1021 86090000 		.4byte	0x986
 5851 1025 49100000 		.4byte	0x1049
 5852 1029 1B       		.uleb128 0x1b
ARM GAS  C:\Users\Kiwi\AppData\Local\Temp\ccKDkYuk.s 			page 121


 5853 102a 01       		.uleb128 0x1
 5854 102b 50       		.byte	0x50
 5855 102c 02       		.uleb128 0x2
 5856 102d 79       		.byte	0x79
 5857 102e 00       		.sleb128 0
 5858 102f 1B       		.uleb128 0x1b
 5859 1030 01       		.uleb128 0x1
 5860 1031 51       		.byte	0x51
 5861 1032 02       		.uleb128 0x2
 5862 1033 7A       		.byte	0x7a
 5863 1034 00       		.sleb128 0
 5864 1035 1B       		.uleb128 0x1b
 5865 1036 01       		.uleb128 0x1
 5866 1037 52       		.byte	0x52
 5867 1038 02       		.uleb128 0x2
 5868 1039 75       		.byte	0x75
 5869 103a 00       		.sleb128 0
 5870 103b 1B       		.uleb128 0x1b
 5871 103c 01       		.uleb128 0x1
 5872 103d 53       		.byte	0x53
 5873 103e 02       		.uleb128 0x2
 5874 103f 76       		.byte	0x76
 5875 1040 00       		.sleb128 0
 5876 1041 1B       		.uleb128 0x1b
 5877 1042 02       		.uleb128 0x2
 5878 1043 7D       		.byte	0x7d
 5879 1044 00       		.sleb128 0
 5880 1045 02       		.uleb128 0x2
 5881 1046 74       		.byte	0x74
 5882 1047 00       		.sleb128 0
 5883 1048 00       		.byte	0
 5884 1049 3B       		.uleb128 0x3b
 5885 104a 40000000 		.4byte	.LVL170
 5886 104e 86090000 		.4byte	0x986
 5887 1052 1B       		.uleb128 0x1b
 5888 1053 01       		.uleb128 0x1
 5889 1054 51       		.byte	0x51
 5890 1055 04       		.uleb128 0x4
 5891 1056 7D       		.byte	0x7d
 5892 1057 04       		.sleb128 4
 5893 1058 94       		.byte	0x94
 5894 1059 02       		.byte	0x2
 5895 105a 1B       		.uleb128 0x1b
 5896 105b 02       		.uleb128 0x2
 5897 105c 91       		.byte	0x91
 5898 105d 00       		.sleb128 0
 5899 105e 04       		.uleb128 0x4
 5900 105f 7D       		.byte	0x7d
 5901 1060 08       		.sleb128 8
 5902 1061 94       		.byte	0x94
 5903 1062 02       		.byte	0x2
 5904 1063 00       		.byte	0
 5905 1064 00       		.byte	0
 5906 1065 1C       		.uleb128 0x1c
 5907 1066 64020000 		.4byte	0x264
 5908 106a 00000000 		.4byte	.LFB91
 5909 106e 04010000 		.4byte	.LFE91-.LFB91
ARM GAS  C:\Users\Kiwi\AppData\Local\Temp\ccKDkYuk.s 			page 122


 5910 1072 01       		.uleb128 0x1
 5911 1073 9C       		.byte	0x9c
 5912 1074 39110000 		.4byte	0x1139
 5913 1078 20       		.uleb128 0x20
 5914 1079 71020000 		.4byte	0x271
 5915 107d E00B0000 		.4byte	.LLST76
 5916 1081 20       		.uleb128 0x20
 5917 1082 7B020000 		.4byte	0x27b
 5918 1086 010C0000 		.4byte	.LLST77
 5919 108a 20       		.uleb128 0x20
 5920 108b 85020000 		.4byte	0x285
 5921 108f 220C0000 		.4byte	.LLST78
 5922 1093 20       		.uleb128 0x20
 5923 1094 8F020000 		.4byte	0x28f
 5924 1098 430C0000 		.4byte	.LLST79
 5925 109c 20       		.uleb128 0x20
 5926 109d 9B020000 		.4byte	0x29b
 5927 10a1 640C0000 		.4byte	.LLST80
 5928 10a5 20       		.uleb128 0x20
 5929 10a6 A6020000 		.4byte	0x2a6
 5930 10aa 840C0000 		.4byte	.LLST81
 5931 10ae 21       		.uleb128 0x21
 5932 10af B2020000 		.4byte	0x2b2
 5933 10b3 1F       		.uleb128 0x1f
 5934 10b4 3A000000 		.4byte	.LBB58
 5935 10b8 BA000000 		.4byte	.LBE58-.LBB58
 5936 10bc 39       		.uleb128 0x39
 5937 10bd A6020000 		.4byte	0x2a6
 5938 10c1 39       		.uleb128 0x39
 5939 10c2 9B020000 		.4byte	0x29b
 5940 10c6 39       		.uleb128 0x39
 5941 10c7 8F020000 		.4byte	0x28f
 5942 10cb 39       		.uleb128 0x39
 5943 10cc 85020000 		.4byte	0x285
 5944 10d0 39       		.uleb128 0x39
 5945 10d1 7B020000 		.4byte	0x27b
 5946 10d5 39       		.uleb128 0x39
 5947 10d6 71020000 		.4byte	0x271
 5948 10da 1F       		.uleb128 0x1f
 5949 10db 3A000000 		.4byte	.LBB59
 5950 10df BA000000 		.4byte	.LBE59-.LBB59
 5951 10e3 1E       		.uleb128 0x1e
 5952 10e4 B2020000 		.4byte	0x2b2
 5953 10e8 A40C0000 		.4byte	.LLST82
 5954 10ec 1F       		.uleb128 0x1f
 5955 10ed 3A000000 		.4byte	.LBB60
 5956 10f1 AC000000 		.4byte	.LBE60-.LBB60
 5957 10f5 1E       		.uleb128 0x1e
 5958 10f6 BD020000 		.4byte	0x2bd
 5959 10fa C20C0000 		.4byte	.LLST83
 5960 10fe 1E       		.uleb128 0x1e
 5961 10ff C9020000 		.4byte	0x2c9
 5962 1103 D50C0000 		.4byte	.LLST84
 5963 1107 1A       		.uleb128 0x1a
 5964 1108 B8000000 		.4byte	.LVL179
 5965 110c E7070000 		.4byte	0x7e7
 5966 1110 23110000 		.4byte	0x1123
ARM GAS  C:\Users\Kiwi\AppData\Local\Temp\ccKDkYuk.s 			page 123


 5967 1114 1B       		.uleb128 0x1b
 5968 1115 01       		.uleb128 0x1
 5969 1116 50       		.byte	0x50
 5970 1117 04       		.uleb128 0x4
 5971 1118 91       		.byte	0x91
 5972 1119 4C       		.sleb128 -52
 5973 111a 94       		.byte	0x94
 5974 111b 02       		.byte	0x2
 5975 111c 1B       		.uleb128 0x1b
 5976 111d 01       		.uleb128 0x1
 5977 111e 51       		.byte	0x51
 5978 111f 02       		.uleb128 0x2
 5979 1120 76       		.byte	0x76
 5980 1121 00       		.sleb128 0
 5981 1122 00       		.byte	0
 5982 1123 23       		.uleb128 0x23
 5983 1124 CA000000 		.4byte	.LVL180
 5984 1128 18020000 		.4byte	0x218
 5985 112c 1B       		.uleb128 0x1b
 5986 112d 01       		.uleb128 0x1
 5987 112e 50       		.byte	0x50
 5988 112f 04       		.uleb128 0x4
 5989 1130 91       		.byte	0x91
 5990 1131 44       		.sleb128 -60
 5991 1132 94       		.byte	0x94
 5992 1133 02       		.byte	0x2
 5993 1134 00       		.byte	0
 5994 1135 00       		.byte	0
 5995 1136 00       		.byte	0
 5996 1137 00       		.byte	0
 5997 1138 00       		.byte	0
 5998 1139 1C       		.uleb128 0x1c
 5999 113a D5020000 		.4byte	0x2d5
 6000 113e 00000000 		.4byte	.LFB92
 6001 1142 6C000000 		.4byte	.LFE92-.LFB92
 6002 1146 01       		.uleb128 0x1
 6003 1147 9C       		.byte	0x9c
 6004 1148 88110000 		.4byte	0x1188
 6005 114c 20       		.uleb128 0x20
 6006 114d E2020000 		.4byte	0x2e2
 6007 1151 E90C0000 		.4byte	.LLST85
 6008 1155 3C       		.uleb128 0x3c
 6009 1156 12000000 		.4byte	.LVL187
 6010 115a CD030000 		.4byte	0x3cd
 6011 115e 6A110000 		.4byte	0x116a
 6012 1162 3D       		.uleb128 0x3d
 6013 1163 E2020000 		.4byte	0x2e2
 6014 1167 01       		.uleb128 0x1
 6015 1168 3A       		.byte	0x3a
 6016 1169 00       		.byte	0
 6017 116a 23       		.uleb128 0x23
 6018 116b 32000000 		.4byte	.LVL189
 6019 116f 64020000 		.4byte	0x264
 6020 1173 1B       		.uleb128 0x1b
 6021 1174 01       		.uleb128 0x1
 6022 1175 50       		.byte	0x50
 6023 1176 02       		.uleb128 0x2
ARM GAS  C:\Users\Kiwi\AppData\Local\Temp\ccKDkYuk.s 			page 124


 6024 1177 75       		.byte	0x75
 6025 1178 00       		.sleb128 0
 6026 1179 1B       		.uleb128 0x1b
 6027 117a 01       		.uleb128 0x1
 6028 117b 51       		.byte	0x51
 6029 117c 02       		.uleb128 0x2
 6030 117d 77       		.byte	0x77
 6031 117e 00       		.sleb128 0
 6032 117f 1B       		.uleb128 0x1b
 6033 1180 02       		.uleb128 0x2
 6034 1181 7D       		.byte	0x7d
 6035 1182 04       		.sleb128 4
 6036 1183 02       		.uleb128 0x2
 6037 1184 76       		.byte	0x76
 6038 1185 00       		.sleb128 0
 6039 1186 00       		.byte	0
 6040 1187 00       		.byte	0
 6041 1188 25       		.uleb128 0x25
 6042 1189 8B040000 		.4byte	.LASF98
 6043 118d 01       		.byte	0x1
 6044 118e 7402     		.2byte	0x274
 6045 1190 00000000 		.4byte	.LFB93
 6046 1194 1A000000 		.4byte	.LFE93-.LFB93
 6047 1198 01       		.uleb128 0x1
 6048 1199 9C       		.byte	0x9c
 6049 119a E8110000 		.4byte	0x11e8
 6050 119e 28       		.uleb128 0x28
 6051 119f 7300     		.ascii	"s\000"
 6052 11a1 01       		.byte	0x1
 6053 11a2 7402     		.2byte	0x274
 6054 11a4 14010000 		.4byte	0x114
 6055 11a8 230D0000 		.4byte	.LLST86
 6056 11ac 34       		.uleb128 0x34
 6057 11ad 6C656E00 		.ascii	"len\000"
 6058 11b1 01       		.byte	0x1
 6059 11b2 7602     		.2byte	0x276
 6060 11b4 9B000000 		.4byte	0x9b
 6061 11b8 4F0D0000 		.4byte	.LLST87
 6062 11bc 34       		.uleb128 0x34
 6063 11bd 6900     		.ascii	"i\000"
 6064 11bf 01       		.byte	0x1
 6065 11c0 7702     		.2byte	0x277
 6066 11c2 9B000000 		.4byte	0x9b
 6067 11c6 620D0000 		.4byte	.LLST88
 6068 11ca 1A       		.uleb128 0x1a
 6069 11cb 08000000 		.4byte	.LVL191
 6070 11cf D3130000 		.4byte	0x13d3
 6071 11d3 DE110000 		.4byte	0x11de
 6072 11d7 1B       		.uleb128 0x1b
 6073 11d8 01       		.uleb128 0x1
 6074 11d9 50       		.byte	0x50
 6075 11da 02       		.uleb128 0x2
 6076 11db 74       		.byte	0x74
 6077 11dc 00       		.sleb128 0
 6078 11dd 00       		.byte	0
 6079 11de 19       		.uleb128 0x19
 6080 11df 16000000 		.4byte	.LVL194
ARM GAS  C:\Users\Kiwi\AppData\Local\Temp\ccKDkYuk.s 			page 125


 6081 11e3 D5020000 		.4byte	0x2d5
 6082 11e7 00       		.byte	0
 6083 11e8 25       		.uleb128 0x25
 6084 11e9 17040000 		.4byte	.LASF99
 6085 11ed 01       		.byte	0x1
 6086 11ee 7D02     		.2byte	0x27d
 6087 11f0 00000000 		.4byte	.LFB94
 6088 11f4 0E000000 		.4byte	.LFE94-.LFB94
 6089 11f8 01       		.uleb128 0x1
 6090 11f9 9C       		.byte	0x9c
 6091 11fa 4A120000 		.4byte	0x124a
 6092 11fe 28       		.uleb128 0x28
 6093 11ff 7300     		.ascii	"s\000"
 6094 1201 01       		.byte	0x1
 6095 1202 7D02     		.2byte	0x27d
 6096 1204 14010000 		.4byte	0x114
 6097 1208 AA0D0000 		.4byte	.LLST89
 6098 120c 3E       		.uleb128 0x3e
 6099 120d D5020000 		.4byte	0x2d5
 6100 1211 0A000000 		.4byte	.LBB61
 6101 1215 04000000 		.4byte	.LBE61-.LBB61
 6102 1219 01       		.byte	0x1
 6103 121a 7F02     		.2byte	0x27f
 6104 121c 38120000 		.4byte	0x1238
 6105 1220 3F       		.uleb128 0x3f
 6106 1221 E2020000 		.4byte	0x2e2
 6107 1225 0A       		.byte	0xa
 6108 1226 3B       		.uleb128 0x3b
 6109 1227 0E000000 		.4byte	.LVL197
 6110 122b CD030000 		.4byte	0x3cd
 6111 122f 3D       		.uleb128 0x3d
 6112 1230 E2020000 		.4byte	0x2e2
 6113 1234 01       		.uleb128 0x1
 6114 1235 3A       		.byte	0x3a
 6115 1236 00       		.byte	0
 6116 1237 00       		.byte	0
 6117 1238 23       		.uleb128 0x23
 6118 1239 06000000 		.4byte	.LVL196
 6119 123d 88110000 		.4byte	0x1188
 6120 1241 1B       		.uleb128 0x1b
 6121 1242 01       		.uleb128 0x1
 6122 1243 50       		.byte	0x50
 6123 1244 03       		.uleb128 0x3
 6124 1245 F3       		.byte	0xf3
 6125 1246 01       		.uleb128 0x1
 6126 1247 50       		.byte	0x50
 6127 1248 00       		.byte	0
 6128 1249 00       		.byte	0
 6129 124a 08       		.uleb128 0x8
 6130 124b 5B120000 		.4byte	0x125b
 6131 124f 5B120000 		.4byte	0x125b
 6132 1253 40       		.uleb128 0x40
 6133 1254 0D010000 		.4byte	0x10d
 6134 1258 FA04     		.2byte	0x4fa
 6135 125a 00       		.byte	0
 6136 125b 07       		.uleb128 0x7
 6137 125c 42000000 		.4byte	0x42
ARM GAS  C:\Users\Kiwi\AppData\Local\Temp\ccKDkYuk.s 			page 126


 6138 1260 24       		.uleb128 0x24
 6139 1261 9B040000 		.4byte	.LASF100
 6140 1265 06       		.byte	0x6
 6141 1266 05       		.byte	0x5
 6142 1267 71120000 		.4byte	0x1271
 6143 126b 05       		.uleb128 0x5
 6144 126c 03       		.byte	0x3
 6145 126d 21000000 		.4byte	font
 6146 1271 07       		.uleb128 0x7
 6147 1272 4A120000 		.4byte	0x124a
 6148 1276 24       		.uleb128 0x24
 6149 1277 8D030000 		.4byte	.LASF101
 6150 127b 01       		.byte	0x1
 6151 127c 5B       		.byte	0x5b
 6152 127d D9000000 		.4byte	0xd9
 6153 1281 05       		.uleb128 0x5
 6154 1282 03       		.byte	0x3
 6155 1283 00000000 		.4byte	_i2caddr
 6156 1287 08       		.uleb128 0x8
 6157 1288 AD000000 		.4byte	0xad
 6158 128c 98120000 		.4byte	0x1298
 6159 1290 40       		.uleb128 0x40
 6160 1291 0D010000 		.4byte	0x10d
 6161 1295 0004     		.2byte	0x400
 6162 1297 00       		.byte	0
 6163 1298 24       		.uleb128 0x24
 6164 1299 85020000 		.4byte	.LASF102
 6165 129d 01       		.byte	0x1
 6166 129e 5E       		.byte	0x5e
 6167 129f 87120000 		.4byte	0x1287
 6168 12a3 05       		.uleb128 0x5
 6169 12a4 03       		.byte	0x3
 6170 12a5 00000000 		.4byte	SSD1306_buffer
 6171 12a9 24       		.uleb128 0x24
 6172 12aa B0050000 		.4byte	.LASF103
 6173 12ae 01       		.byte	0x1
 6174 12af 60       		.byte	0x60
 6175 12b0 BB120000 		.4byte	0x12bb
 6176 12b4 06       		.uleb128 0x6
 6177 12b5 03       		.byte	0x3
 6178 12b6 01000000 		.4byte	SSD1306_buffer+1
 6179 12ba 9F       		.byte	0x9f
 6180 12bb 07       		.uleb128 0x7
 6181 12bc 80090000 		.4byte	0x980
 6182 12c0 41       		.uleb128 0x41
 6183 12c1 5E030000 		.4byte	.LASF104
 6184 12c5 01       		.byte	0x1
 6185 12c6 61       		.byte	0x61
 6186 12c7 CD120000 		.4byte	0x12cd
 6187 12cb 0004     		.2byte	0x400
 6188 12cd 07       		.uleb128 0x7
 6189 12ce C3000000 		.4byte	0xc3
 6190 12d2 26       		.uleb128 0x26
 6191 12d3 F9020000 		.4byte	.LASF105
 6192 12d7 01       		.byte	0x1
 6193 12d8 4C01     		.2byte	0x14c
 6194 12da B8000000 		.4byte	0xb8
ARM GAS  C:\Users\Kiwi\AppData\Local\Temp\ccKDkYuk.s 			page 127


 6195 12de 05       		.uleb128 0x5
 6196 12df 03       		.byte	0x3
 6197 12e0 08000000 		.4byte	_width
 6198 12e4 26       		.uleb128 0x26
 6199 12e5 4A030000 		.4byte	.LASF106
 6200 12e9 01       		.byte	0x1
 6201 12ea 4C01     		.2byte	0x14c
 6202 12ec B8000000 		.4byte	0xb8
 6203 12f0 05       		.uleb128 0x5
 6204 12f1 03       		.byte	0x3
 6205 12f2 0A000000 		.4byte	_height
 6206 12f6 26       		.uleb128 0x26
 6207 12f7 72010000 		.4byte	.LASF107
 6208 12fb 01       		.byte	0x1
 6209 12fc 4D01     		.2byte	0x14d
 6210 12fe B8000000 		.4byte	0xb8
 6211 1302 05       		.uleb128 0x5
 6212 1303 03       		.byte	0x3
 6213 1304 06000000 		.4byte	cursor_x
 6214 1308 26       		.uleb128 0x26
 6215 1309 7B010000 		.4byte	.LASF108
 6216 130d 01       		.byte	0x1
 6217 130e 4D01     		.2byte	0x14d
 6218 1310 B8000000 		.4byte	0xb8
 6219 1314 05       		.uleb128 0x5
 6220 1315 03       		.byte	0x3
 6221 1316 02000000 		.4byte	cursor_y
 6222 131a 26       		.uleb128 0x26
 6223 131b 18060000 		.4byte	.LASF109
 6224 131f 01       		.byte	0x1
 6225 1320 4E01     		.2byte	0x14e
 6226 1322 C3000000 		.4byte	0xc3
 6227 1326 05       		.uleb128 0x5
 6228 1327 03       		.byte	0x3
 6229 1328 0E000000 		.4byte	textcolor
 6230 132c 26       		.uleb128 0x26
 6231 132d 22060000 		.4byte	.LASF110
 6232 1331 01       		.byte	0x1
 6233 1332 4E01     		.2byte	0x14e
 6234 1334 C3000000 		.4byte	0xc3
 6235 1338 05       		.uleb128 0x5
 6236 1339 03       		.byte	0x3
 6237 133a 0C000000 		.4byte	textbgcolor
 6238 133e 26       		.uleb128 0x26
 6239 133f 95010000 		.4byte	.LASF111
 6240 1343 01       		.byte	0x1
 6241 1344 4F01     		.2byte	0x14f
 6242 1346 AD000000 		.4byte	0xad
 6243 134a 05       		.uleb128 0x5
 6244 134b 03       		.byte	0x3
 6245 134c 04000000 		.4byte	textsize
 6246 1350 42       		.uleb128 0x42
 6247 1351 23040000 		.4byte	.LASF112
 6248 1355 07       		.byte	0x7
 6249 1356 1207     		.2byte	0x712
 6250 1358 5C130000 		.4byte	0x135c
 6251 135c 43       		.uleb128 0x43
ARM GAS  C:\Users\Kiwi\AppData\Local\Temp\ccKDkYuk.s 			page 128


 6252 135d CE000000 		.4byte	0xce
 6253 1361 44       		.uleb128 0x44
 6254 1362 E9010000 		.4byte	.LASF113
 6255 1366 01       		.byte	0x1
 6256 1367 4B01     		.2byte	0x14b
 6257 1369 B8000000 		.4byte	0xb8
 6258 136d 05       		.uleb128 0x5
 6259 136e 03       		.byte	0x3
 6260 136f 00000000 		.4byte	WIDTH
 6261 1373 44       		.uleb128 0x44
 6262 1374 57010000 		.4byte	.LASF114
 6263 1378 01       		.byte	0x1
 6264 1379 4B01     		.2byte	0x14b
 6265 137b B8000000 		.4byte	0xb8
 6266 137f 05       		.uleb128 0x5
 6267 1380 03       		.byte	0x3
 6268 1381 00000000 		.4byte	HEIGHT
 6269 1385 44       		.uleb128 0x44
 6270 1386 C3000000 		.4byte	.LASF115
 6271 138a 01       		.byte	0x1
 6272 138b 5001     		.2byte	0x150
 6273 138d AD000000 		.4byte	0xad
 6274 1391 05       		.uleb128 0x5
 6275 1392 03       		.byte	0x3
 6276 1393 00000000 		.4byte	rotation
 6277 1397 44       		.uleb128 0x44
 6278 1398 E4040000 		.4byte	.LASF116
 6279 139c 01       		.byte	0x1
 6280 139d 5101     		.2byte	0x151
 6281 139f AD000000 		.4byte	0xad
 6282 13a3 05       		.uleb128 0x5
 6283 13a4 03       		.byte	0x3
 6284 13a5 00000000 		.4byte	wrap
 6285 13a9 45       		.uleb128 0x45
 6286 13aa 94020000 		.4byte	.LASF117
 6287 13ae 94020000 		.4byte	.LASF117
 6288 13b2 08       		.byte	0x8
 6289 13b3 B6       		.byte	0xb6
 6290 13b4 45       		.uleb128 0x45
 6291 13b5 73000000 		.4byte	.LASF118
 6292 13b9 73000000 		.4byte	.LASF118
 6293 13bd 08       		.byte	0x8
 6294 13be B1       		.byte	0xb1
 6295 13bf 45       		.uleb128 0x45
 6296 13c0 4F040000 		.4byte	.LASF119
 6297 13c4 4F040000 		.4byte	.LASF119
 6298 13c8 08       		.byte	0x8
 6299 13c9 B5       		.byte	0xb5
 6300 13ca 46       		.uleb128 0x46
 6301 13cb 52030000 		.4byte	.LASF125
 6302 13cf 52030000 		.4byte	.LASF125
 6303 13d3 45       		.uleb128 0x45
 6304 13d4 45000000 		.4byte	.LASF120
 6305 13d8 45000000 		.4byte	.LASF120
 6306 13dc 09       		.byte	0x9
 6307 13dd 21       		.byte	0x21
 6308 13de 00       		.byte	0
ARM GAS  C:\Users\Kiwi\AppData\Local\Temp\ccKDkYuk.s 			page 129


 6309              		.section	.debug_abbrev,"",%progbits
 6310              	.Ldebug_abbrev0:
 6311 0000 01       		.uleb128 0x1
 6312 0001 11       		.uleb128 0x11
 6313 0002 01       		.byte	0x1
 6314 0003 25       		.uleb128 0x25
 6315 0004 0E       		.uleb128 0xe
 6316 0005 13       		.uleb128 0x13
 6317 0006 0B       		.uleb128 0xb
 6318 0007 03       		.uleb128 0x3
 6319 0008 0E       		.uleb128 0xe
 6320 0009 1B       		.uleb128 0x1b
 6321 000a 0E       		.uleb128 0xe
 6322 000b 55       		.uleb128 0x55
 6323 000c 17       		.uleb128 0x17
 6324 000d 11       		.uleb128 0x11
 6325 000e 01       		.uleb128 0x1
 6326 000f 10       		.uleb128 0x10
 6327 0010 17       		.uleb128 0x17
 6328 0011 00       		.byte	0
 6329 0012 00       		.byte	0
 6330 0013 02       		.uleb128 0x2
 6331 0014 16       		.uleb128 0x16
 6332 0015 00       		.byte	0
 6333 0016 03       		.uleb128 0x3
 6334 0017 0E       		.uleb128 0xe
 6335 0018 3A       		.uleb128 0x3a
 6336 0019 0B       		.uleb128 0xb
 6337 001a 3B       		.uleb128 0x3b
 6338 001b 0B       		.uleb128 0xb
 6339 001c 49       		.uleb128 0x49
 6340 001d 13       		.uleb128 0x13
 6341 001e 00       		.byte	0
 6342 001f 00       		.byte	0
 6343 0020 03       		.uleb128 0x3
 6344 0021 24       		.uleb128 0x24
 6345 0022 00       		.byte	0
 6346 0023 0B       		.uleb128 0xb
 6347 0024 0B       		.uleb128 0xb
 6348 0025 3E       		.uleb128 0x3e
 6349 0026 0B       		.uleb128 0xb
 6350 0027 03       		.uleb128 0x3
 6351 0028 0E       		.uleb128 0xe
 6352 0029 00       		.byte	0
 6353 002a 00       		.byte	0
 6354 002b 04       		.uleb128 0x4
 6355 002c 24       		.uleb128 0x24
 6356 002d 00       		.byte	0
 6357 002e 0B       		.uleb128 0xb
 6358 002f 0B       		.uleb128 0xb
 6359 0030 3E       		.uleb128 0x3e
 6360 0031 0B       		.uleb128 0xb
 6361 0032 03       		.uleb128 0x3
 6362 0033 08       		.uleb128 0x8
 6363 0034 00       		.byte	0
 6364 0035 00       		.byte	0
 6365 0036 05       		.uleb128 0x5
ARM GAS  C:\Users\Kiwi\AppData\Local\Temp\ccKDkYuk.s 			page 130


 6366 0037 16       		.uleb128 0x16
 6367 0038 00       		.byte	0
 6368 0039 03       		.uleb128 0x3
 6369 003a 0E       		.uleb128 0xe
 6370 003b 3A       		.uleb128 0x3a
 6371 003c 0B       		.uleb128 0xb
 6372 003d 3B       		.uleb128 0x3b
 6373 003e 05       		.uleb128 0x5
 6374 003f 49       		.uleb128 0x49
 6375 0040 13       		.uleb128 0x13
 6376 0041 00       		.byte	0
 6377 0042 00       		.byte	0
 6378 0043 06       		.uleb128 0x6
 6379 0044 0F       		.uleb128 0xf
 6380 0045 00       		.byte	0
 6381 0046 0B       		.uleb128 0xb
 6382 0047 0B       		.uleb128 0xb
 6383 0048 49       		.uleb128 0x49
 6384 0049 13       		.uleb128 0x13
 6385 004a 00       		.byte	0
 6386 004b 00       		.byte	0
 6387 004c 07       		.uleb128 0x7
 6388 004d 26       		.uleb128 0x26
 6389 004e 00       		.byte	0
 6390 004f 49       		.uleb128 0x49
 6391 0050 13       		.uleb128 0x13
 6392 0051 00       		.byte	0
 6393 0052 00       		.byte	0
 6394 0053 08       		.uleb128 0x8
 6395 0054 01       		.uleb128 0x1
 6396 0055 01       		.byte	0x1
 6397 0056 49       		.uleb128 0x49
 6398 0057 13       		.uleb128 0x13
 6399 0058 01       		.uleb128 0x1
 6400 0059 13       		.uleb128 0x13
 6401 005a 00       		.byte	0
 6402 005b 00       		.byte	0
 6403 005c 09       		.uleb128 0x9
 6404 005d 21       		.uleb128 0x21
 6405 005e 00       		.byte	0
 6406 005f 49       		.uleb128 0x49
 6407 0060 13       		.uleb128 0x13
 6408 0061 2F       		.uleb128 0x2f
 6409 0062 0B       		.uleb128 0xb
 6410 0063 00       		.byte	0
 6411 0064 00       		.byte	0
 6412 0065 0A       		.uleb128 0xa
 6413 0066 04       		.uleb128 0x4
 6414 0067 01       		.byte	0x1
 6415 0068 0B       		.uleb128 0xb
 6416 0069 0B       		.uleb128 0xb
 6417 006a 49       		.uleb128 0x49
 6418 006b 13       		.uleb128 0x13
 6419 006c 3A       		.uleb128 0x3a
 6420 006d 0B       		.uleb128 0xb
 6421 006e 3B       		.uleb128 0x3b
 6422 006f 0B       		.uleb128 0xb
ARM GAS  C:\Users\Kiwi\AppData\Local\Temp\ccKDkYuk.s 			page 131


 6423 0070 01       		.uleb128 0x1
 6424 0071 13       		.uleb128 0x13
 6425 0072 00       		.byte	0
 6426 0073 00       		.byte	0
 6427 0074 0B       		.uleb128 0xb
 6428 0075 28       		.uleb128 0x28
 6429 0076 00       		.byte	0
 6430 0077 03       		.uleb128 0x3
 6431 0078 0E       		.uleb128 0xe
 6432 0079 1C       		.uleb128 0x1c
 6433 007a 0B       		.uleb128 0xb
 6434 007b 00       		.byte	0
 6435 007c 00       		.byte	0
 6436 007d 0C       		.uleb128 0xc
 6437 007e 2E       		.uleb128 0x2e
 6438 007f 01       		.byte	0x1
 6439 0080 03       		.uleb128 0x3
 6440 0081 0E       		.uleb128 0xe
 6441 0082 3A       		.uleb128 0x3a
 6442 0083 0B       		.uleb128 0xb
 6443 0084 3B       		.uleb128 0x3b
 6444 0085 05       		.uleb128 0x5
 6445 0086 27       		.uleb128 0x27
 6446 0087 19       		.uleb128 0x19
 6447 0088 20       		.uleb128 0x20
 6448 0089 0B       		.uleb128 0xb
 6449 008a 01       		.uleb128 0x1
 6450 008b 13       		.uleb128 0x13
 6451 008c 00       		.byte	0
 6452 008d 00       		.byte	0
 6453 008e 0D       		.uleb128 0xd
 6454 008f 05       		.uleb128 0x5
 6455 0090 00       		.byte	0
 6456 0091 03       		.uleb128 0x3
 6457 0092 08       		.uleb128 0x8
 6458 0093 3A       		.uleb128 0x3a
 6459 0094 0B       		.uleb128 0xb
 6460 0095 3B       		.uleb128 0x3b
 6461 0096 05       		.uleb128 0x5
 6462 0097 49       		.uleb128 0x49
 6463 0098 13       		.uleb128 0x13
 6464 0099 00       		.byte	0
 6465 009a 00       		.byte	0
 6466 009b 0E       		.uleb128 0xe
 6467 009c 34       		.uleb128 0x34
 6468 009d 00       		.byte	0
 6469 009e 03       		.uleb128 0x3
 6470 009f 08       		.uleb128 0x8
 6471 00a0 3A       		.uleb128 0x3a
 6472 00a1 0B       		.uleb128 0xb
 6473 00a2 3B       		.uleb128 0x3b
 6474 00a3 05       		.uleb128 0x5
 6475 00a4 49       		.uleb128 0x49
 6476 00a5 13       		.uleb128 0x13
 6477 00a6 00       		.byte	0
 6478 00a7 00       		.byte	0
 6479 00a8 0F       		.uleb128 0xf
ARM GAS  C:\Users\Kiwi\AppData\Local\Temp\ccKDkYuk.s 			page 132


 6480 00a9 2E       		.uleb128 0x2e
 6481 00aa 01       		.byte	0x1
 6482 00ab 3F       		.uleb128 0x3f
 6483 00ac 19       		.uleb128 0x19
 6484 00ad 03       		.uleb128 0x3
 6485 00ae 0E       		.uleb128 0xe
 6486 00af 3A       		.uleb128 0x3a
 6487 00b0 0B       		.uleb128 0xb
 6488 00b1 3B       		.uleb128 0x3b
 6489 00b2 05       		.uleb128 0x5
 6490 00b3 27       		.uleb128 0x27
 6491 00b4 19       		.uleb128 0x19
 6492 00b5 20       		.uleb128 0x20
 6493 00b6 0B       		.uleb128 0xb
 6494 00b7 01       		.uleb128 0x1
 6495 00b8 13       		.uleb128 0x13
 6496 00b9 00       		.byte	0
 6497 00ba 00       		.byte	0
 6498 00bb 10       		.uleb128 0x10
 6499 00bc 05       		.uleb128 0x5
 6500 00bd 00       		.byte	0
 6501 00be 03       		.uleb128 0x3
 6502 00bf 0E       		.uleb128 0xe
 6503 00c0 3A       		.uleb128 0x3a
 6504 00c1 0B       		.uleb128 0xb
 6505 00c2 3B       		.uleb128 0x3b
 6506 00c3 05       		.uleb128 0x5
 6507 00c4 49       		.uleb128 0x49
 6508 00c5 13       		.uleb128 0x13
 6509 00c6 00       		.byte	0
 6510 00c7 00       		.byte	0
 6511 00c8 11       		.uleb128 0x11
 6512 00c9 0B       		.uleb128 0xb
 6513 00ca 01       		.byte	0x1
 6514 00cb 00       		.byte	0
 6515 00cc 00       		.byte	0
 6516 00cd 12       		.uleb128 0x12
 6517 00ce 34       		.uleb128 0x34
 6518 00cf 00       		.byte	0
 6519 00d0 03       		.uleb128 0x3
 6520 00d1 0E       		.uleb128 0xe
 6521 00d2 3A       		.uleb128 0x3a
 6522 00d3 0B       		.uleb128 0xb
 6523 00d4 3B       		.uleb128 0x3b
 6524 00d5 05       		.uleb128 0x5
 6525 00d6 49       		.uleb128 0x49
 6526 00d7 13       		.uleb128 0x13
 6527 00d8 00       		.byte	0
 6528 00d9 00       		.byte	0
 6529 00da 13       		.uleb128 0x13
 6530 00db 2E       		.uleb128 0x2e
 6531 00dc 01       		.byte	0x1
 6532 00dd 03       		.uleb128 0x3
 6533 00de 0E       		.uleb128 0xe
 6534 00df 3A       		.uleb128 0x3a
 6535 00e0 0B       		.uleb128 0xb
 6536 00e1 3B       		.uleb128 0x3b
ARM GAS  C:\Users\Kiwi\AppData\Local\Temp\ccKDkYuk.s 			page 133


 6537 00e2 0B       		.uleb128 0xb
 6538 00e3 27       		.uleb128 0x27
 6539 00e4 19       		.uleb128 0x19
 6540 00e5 49       		.uleb128 0x49
 6541 00e6 13       		.uleb128 0x13
 6542 00e7 11       		.uleb128 0x11
 6543 00e8 01       		.uleb128 0x1
 6544 00e9 12       		.uleb128 0x12
 6545 00ea 06       		.uleb128 0x6
 6546 00eb 40       		.uleb128 0x40
 6547 00ec 18       		.uleb128 0x18
 6548 00ed 9742     		.uleb128 0x2117
 6549 00ef 19       		.uleb128 0x19
 6550 00f0 01       		.uleb128 0x1
 6551 00f1 13       		.uleb128 0x13
 6552 00f2 00       		.byte	0
 6553 00f3 00       		.byte	0
 6554 00f4 14       		.uleb128 0x14
 6555 00f5 05       		.uleb128 0x5
 6556 00f6 00       		.byte	0
 6557 00f7 03       		.uleb128 0x3
 6558 00f8 08       		.uleb128 0x8
 6559 00f9 3A       		.uleb128 0x3a
 6560 00fa 0B       		.uleb128 0xb
 6561 00fb 3B       		.uleb128 0x3b
 6562 00fc 0B       		.uleb128 0xb
 6563 00fd 49       		.uleb128 0x49
 6564 00fe 13       		.uleb128 0x13
 6565 00ff 02       		.uleb128 0x2
 6566 0100 17       		.uleb128 0x17
 6567 0101 00       		.byte	0
 6568 0102 00       		.byte	0
 6569 0103 15       		.uleb128 0x15
 6570 0104 05       		.uleb128 0x5
 6571 0105 00       		.byte	0
 6572 0106 03       		.uleb128 0x3
 6573 0107 0E       		.uleb128 0xe
 6574 0108 3A       		.uleb128 0x3a
 6575 0109 0B       		.uleb128 0xb
 6576 010a 3B       		.uleb128 0x3b
 6577 010b 0B       		.uleb128 0xb
 6578 010c 49       		.uleb128 0x49
 6579 010d 13       		.uleb128 0x13
 6580 010e 02       		.uleb128 0x2
 6581 010f 17       		.uleb128 0x17
 6582 0110 00       		.byte	0
 6583 0111 00       		.byte	0
 6584 0112 16       		.uleb128 0x16
 6585 0113 34       		.uleb128 0x34
 6586 0114 00       		.byte	0
 6587 0115 03       		.uleb128 0x3
 6588 0116 0E       		.uleb128 0xe
 6589 0117 3A       		.uleb128 0x3a
 6590 0118 0B       		.uleb128 0xb
 6591 0119 3B       		.uleb128 0x3b
 6592 011a 0B       		.uleb128 0xb
 6593 011b 49       		.uleb128 0x49
ARM GAS  C:\Users\Kiwi\AppData\Local\Temp\ccKDkYuk.s 			page 134


 6594 011c 13       		.uleb128 0x13
 6595 011d 02       		.uleb128 0x2
 6596 011e 17       		.uleb128 0x17
 6597 011f 00       		.byte	0
 6598 0120 00       		.byte	0
 6599 0121 17       		.uleb128 0x17
 6600 0122 0B       		.uleb128 0xb
 6601 0123 01       		.byte	0x1
 6602 0124 55       		.uleb128 0x55
 6603 0125 17       		.uleb128 0x17
 6604 0126 01       		.uleb128 0x1
 6605 0127 13       		.uleb128 0x13
 6606 0128 00       		.byte	0
 6607 0129 00       		.byte	0
 6608 012a 18       		.uleb128 0x18
 6609 012b 34       		.uleb128 0x34
 6610 012c 00       		.byte	0
 6611 012d 03       		.uleb128 0x3
 6612 012e 08       		.uleb128 0x8
 6613 012f 3A       		.uleb128 0x3a
 6614 0130 0B       		.uleb128 0xb
 6615 0131 3B       		.uleb128 0x3b
 6616 0132 0B       		.uleb128 0xb
 6617 0133 49       		.uleb128 0x49
 6618 0134 13       		.uleb128 0x13
 6619 0135 02       		.uleb128 0x2
 6620 0136 17       		.uleb128 0x17
 6621 0137 00       		.byte	0
 6622 0138 00       		.byte	0
 6623 0139 19       		.uleb128 0x19
 6624 013a 898201   		.uleb128 0x4109
 6625 013d 00       		.byte	0
 6626 013e 11       		.uleb128 0x11
 6627 013f 01       		.uleb128 0x1
 6628 0140 31       		.uleb128 0x31
 6629 0141 13       		.uleb128 0x13
 6630 0142 00       		.byte	0
 6631 0143 00       		.byte	0
 6632 0144 1A       		.uleb128 0x1a
 6633 0145 898201   		.uleb128 0x4109
 6634 0148 01       		.byte	0x1
 6635 0149 11       		.uleb128 0x11
 6636 014a 01       		.uleb128 0x1
 6637 014b 31       		.uleb128 0x31
 6638 014c 13       		.uleb128 0x13
 6639 014d 01       		.uleb128 0x1
 6640 014e 13       		.uleb128 0x13
 6641 014f 00       		.byte	0
 6642 0150 00       		.byte	0
 6643 0151 1B       		.uleb128 0x1b
 6644 0152 8A8201   		.uleb128 0x410a
 6645 0155 00       		.byte	0
 6646 0156 02       		.uleb128 0x2
 6647 0157 18       		.uleb128 0x18
 6648 0158 9142     		.uleb128 0x2111
 6649 015a 18       		.uleb128 0x18
 6650 015b 00       		.byte	0
ARM GAS  C:\Users\Kiwi\AppData\Local\Temp\ccKDkYuk.s 			page 135


 6651 015c 00       		.byte	0
 6652 015d 1C       		.uleb128 0x1c
 6653 015e 2E       		.uleb128 0x2e
 6654 015f 01       		.byte	0x1
 6655 0160 31       		.uleb128 0x31
 6656 0161 13       		.uleb128 0x13
 6657 0162 11       		.uleb128 0x11
 6658 0163 01       		.uleb128 0x1
 6659 0164 12       		.uleb128 0x12
 6660 0165 06       		.uleb128 0x6
 6661 0166 40       		.uleb128 0x40
 6662 0167 18       		.uleb128 0x18
 6663 0168 9742     		.uleb128 0x2117
 6664 016a 19       		.uleb128 0x19
 6665 016b 01       		.uleb128 0x1
 6666 016c 13       		.uleb128 0x13
 6667 016d 00       		.byte	0
 6668 016e 00       		.byte	0
 6669 016f 1D       		.uleb128 0x1d
 6670 0170 05       		.uleb128 0x5
 6671 0171 00       		.byte	0
 6672 0172 31       		.uleb128 0x31
 6673 0173 13       		.uleb128 0x13
 6674 0174 02       		.uleb128 0x2
 6675 0175 18       		.uleb128 0x18
 6676 0176 00       		.byte	0
 6677 0177 00       		.byte	0
 6678 0178 1E       		.uleb128 0x1e
 6679 0179 34       		.uleb128 0x34
 6680 017a 00       		.byte	0
 6681 017b 31       		.uleb128 0x31
 6682 017c 13       		.uleb128 0x13
 6683 017d 02       		.uleb128 0x2
 6684 017e 17       		.uleb128 0x17
 6685 017f 00       		.byte	0
 6686 0180 00       		.byte	0
 6687 0181 1F       		.uleb128 0x1f
 6688 0182 0B       		.uleb128 0xb
 6689 0183 01       		.byte	0x1
 6690 0184 11       		.uleb128 0x11
 6691 0185 01       		.uleb128 0x1
 6692 0186 12       		.uleb128 0x12
 6693 0187 06       		.uleb128 0x6
 6694 0188 00       		.byte	0
 6695 0189 00       		.byte	0
 6696 018a 20       		.uleb128 0x20
 6697 018b 05       		.uleb128 0x5
 6698 018c 00       		.byte	0
 6699 018d 31       		.uleb128 0x31
 6700 018e 13       		.uleb128 0x13
 6701 018f 02       		.uleb128 0x2
 6702 0190 17       		.uleb128 0x17
 6703 0191 00       		.byte	0
 6704 0192 00       		.byte	0
 6705 0193 21       		.uleb128 0x21
 6706 0194 34       		.uleb128 0x34
 6707 0195 00       		.byte	0
ARM GAS  C:\Users\Kiwi\AppData\Local\Temp\ccKDkYuk.s 			page 136


 6708 0196 31       		.uleb128 0x31
 6709 0197 13       		.uleb128 0x13
 6710 0198 00       		.byte	0
 6711 0199 00       		.byte	0
 6712 019a 22       		.uleb128 0x22
 6713 019b 2E       		.uleb128 0x2e
 6714 019c 01       		.byte	0x1
 6715 019d 3F       		.uleb128 0x3f
 6716 019e 19       		.uleb128 0x19
 6717 019f 03       		.uleb128 0x3
 6718 01a0 0E       		.uleb128 0xe
 6719 01a1 3A       		.uleb128 0x3a
 6720 01a2 0B       		.uleb128 0xb
 6721 01a3 3B       		.uleb128 0x3b
 6722 01a4 0B       		.uleb128 0xb
 6723 01a5 27       		.uleb128 0x27
 6724 01a6 19       		.uleb128 0x19
 6725 01a7 11       		.uleb128 0x11
 6726 01a8 01       		.uleb128 0x1
 6727 01a9 12       		.uleb128 0x12
 6728 01aa 06       		.uleb128 0x6
 6729 01ab 40       		.uleb128 0x40
 6730 01ac 18       		.uleb128 0x18
 6731 01ad 9742     		.uleb128 0x2117
 6732 01af 19       		.uleb128 0x19
 6733 01b0 01       		.uleb128 0x1
 6734 01b1 13       		.uleb128 0x13
 6735 01b2 00       		.byte	0
 6736 01b3 00       		.byte	0
 6737 01b4 23       		.uleb128 0x23
 6738 01b5 898201   		.uleb128 0x4109
 6739 01b8 01       		.byte	0x1
 6740 01b9 11       		.uleb128 0x11
 6741 01ba 01       		.uleb128 0x1
 6742 01bb 31       		.uleb128 0x31
 6743 01bc 13       		.uleb128 0x13
 6744 01bd 00       		.byte	0
 6745 01be 00       		.byte	0
 6746 01bf 24       		.uleb128 0x24
 6747 01c0 34       		.uleb128 0x34
 6748 01c1 00       		.byte	0
 6749 01c2 03       		.uleb128 0x3
 6750 01c3 0E       		.uleb128 0xe
 6751 01c4 3A       		.uleb128 0x3a
 6752 01c5 0B       		.uleb128 0xb
 6753 01c6 3B       		.uleb128 0x3b
 6754 01c7 0B       		.uleb128 0xb
 6755 01c8 49       		.uleb128 0x49
 6756 01c9 13       		.uleb128 0x13
 6757 01ca 02       		.uleb128 0x2
 6758 01cb 18       		.uleb128 0x18
 6759 01cc 00       		.byte	0
 6760 01cd 00       		.byte	0
 6761 01ce 25       		.uleb128 0x25
 6762 01cf 2E       		.uleb128 0x2e
 6763 01d0 01       		.byte	0x1
 6764 01d1 3F       		.uleb128 0x3f
ARM GAS  C:\Users\Kiwi\AppData\Local\Temp\ccKDkYuk.s 			page 137


 6765 01d2 19       		.uleb128 0x19
 6766 01d3 03       		.uleb128 0x3
 6767 01d4 0E       		.uleb128 0xe
 6768 01d5 3A       		.uleb128 0x3a
 6769 01d6 0B       		.uleb128 0xb
 6770 01d7 3B       		.uleb128 0x3b
 6771 01d8 05       		.uleb128 0x5
 6772 01d9 27       		.uleb128 0x27
 6773 01da 19       		.uleb128 0x19
 6774 01db 11       		.uleb128 0x11
 6775 01dc 01       		.uleb128 0x1
 6776 01dd 12       		.uleb128 0x12
 6777 01de 06       		.uleb128 0x6
 6778 01df 40       		.uleb128 0x40
 6779 01e0 18       		.uleb128 0x18
 6780 01e1 9742     		.uleb128 0x2117
 6781 01e3 19       		.uleb128 0x19
 6782 01e4 01       		.uleb128 0x1
 6783 01e5 13       		.uleb128 0x13
 6784 01e6 00       		.byte	0
 6785 01e7 00       		.byte	0
 6786 01e8 26       		.uleb128 0x26
 6787 01e9 34       		.uleb128 0x34
 6788 01ea 00       		.byte	0
 6789 01eb 03       		.uleb128 0x3
 6790 01ec 0E       		.uleb128 0xe
 6791 01ed 3A       		.uleb128 0x3a
 6792 01ee 0B       		.uleb128 0xb
 6793 01ef 3B       		.uleb128 0x3b
 6794 01f0 05       		.uleb128 0x5
 6795 01f1 49       		.uleb128 0x49
 6796 01f2 13       		.uleb128 0x13
 6797 01f3 02       		.uleb128 0x2
 6798 01f4 18       		.uleb128 0x18
 6799 01f5 00       		.byte	0
 6800 01f6 00       		.byte	0
 6801 01f7 27       		.uleb128 0x27
 6802 01f8 05       		.uleb128 0x5
 6803 01f9 00       		.byte	0
 6804 01fa 03       		.uleb128 0x3
 6805 01fb 0E       		.uleb128 0xe
 6806 01fc 3A       		.uleb128 0x3a
 6807 01fd 0B       		.uleb128 0xb
 6808 01fe 3B       		.uleb128 0x3b
 6809 01ff 05       		.uleb128 0x5
 6810 0200 49       		.uleb128 0x49
 6811 0201 13       		.uleb128 0x13
 6812 0202 02       		.uleb128 0x2
 6813 0203 17       		.uleb128 0x17
 6814 0204 00       		.byte	0
 6815 0205 00       		.byte	0
 6816 0206 28       		.uleb128 0x28
 6817 0207 05       		.uleb128 0x5
 6818 0208 00       		.byte	0
 6819 0209 03       		.uleb128 0x3
 6820 020a 08       		.uleb128 0x8
 6821 020b 3A       		.uleb128 0x3a
ARM GAS  C:\Users\Kiwi\AppData\Local\Temp\ccKDkYuk.s 			page 138


 6822 020c 0B       		.uleb128 0xb
 6823 020d 3B       		.uleb128 0x3b
 6824 020e 05       		.uleb128 0x5
 6825 020f 49       		.uleb128 0x49
 6826 0210 13       		.uleb128 0x13
 6827 0211 02       		.uleb128 0x2
 6828 0212 17       		.uleb128 0x17
 6829 0213 00       		.byte	0
 6830 0214 00       		.byte	0
 6831 0215 29       		.uleb128 0x29
 6832 0216 05       		.uleb128 0x5
 6833 0217 00       		.byte	0
 6834 0218 03       		.uleb128 0x3
 6835 0219 0E       		.uleb128 0xe
 6836 021a 3A       		.uleb128 0x3a
 6837 021b 0B       		.uleb128 0xb
 6838 021c 3B       		.uleb128 0x3b
 6839 021d 05       		.uleb128 0x5
 6840 021e 49       		.uleb128 0x49
 6841 021f 13       		.uleb128 0x13
 6842 0220 02       		.uleb128 0x2
 6843 0221 18       		.uleb128 0x18
 6844 0222 00       		.byte	0
 6845 0223 00       		.byte	0
 6846 0224 2A       		.uleb128 0x2a
 6847 0225 2E       		.uleb128 0x2e
 6848 0226 00       		.byte	0
 6849 0227 3F       		.uleb128 0x3f
 6850 0228 19       		.uleb128 0x19
 6851 0229 03       		.uleb128 0x3
 6852 022a 0E       		.uleb128 0xe
 6853 022b 3A       		.uleb128 0x3a
 6854 022c 0B       		.uleb128 0xb
 6855 022d 3B       		.uleb128 0x3b
 6856 022e 05       		.uleb128 0x5
 6857 022f 27       		.uleb128 0x27
 6858 0230 19       		.uleb128 0x19
 6859 0231 49       		.uleb128 0x49
 6860 0232 13       		.uleb128 0x13
 6861 0233 11       		.uleb128 0x11
 6862 0234 01       		.uleb128 0x1
 6863 0235 12       		.uleb128 0x12
 6864 0236 06       		.uleb128 0x6
 6865 0237 40       		.uleb128 0x40
 6866 0238 18       		.uleb128 0x18
 6867 0239 9742     		.uleb128 0x2117
 6868 023b 19       		.uleb128 0x19
 6869 023c 00       		.byte	0
 6870 023d 00       		.byte	0
 6871 023e 2B       		.uleb128 0x2b
 6872 023f 05       		.uleb128 0x5
 6873 0240 00       		.byte	0
 6874 0241 03       		.uleb128 0x3
 6875 0242 08       		.uleb128 0x8
 6876 0243 3A       		.uleb128 0x3a
 6877 0244 0B       		.uleb128 0xb
 6878 0245 3B       		.uleb128 0x3b
ARM GAS  C:\Users\Kiwi\AppData\Local\Temp\ccKDkYuk.s 			page 139


 6879 0246 05       		.uleb128 0x5
 6880 0247 49       		.uleb128 0x49
 6881 0248 13       		.uleb128 0x13
 6882 0249 02       		.uleb128 0x2
 6883 024a 18       		.uleb128 0x18
 6884 024b 00       		.byte	0
 6885 024c 00       		.byte	0
 6886 024d 2C       		.uleb128 0x2c
 6887 024e 2E       		.uleb128 0x2e
 6888 024f 01       		.byte	0x1
 6889 0250 03       		.uleb128 0x3
 6890 0251 0E       		.uleb128 0xe
 6891 0252 3A       		.uleb128 0x3a
 6892 0253 0B       		.uleb128 0xb
 6893 0254 3B       		.uleb128 0x3b
 6894 0255 0B       		.uleb128 0xb
 6895 0256 27       		.uleb128 0x27
 6896 0257 19       		.uleb128 0x19
 6897 0258 20       		.uleb128 0x20
 6898 0259 0B       		.uleb128 0xb
 6899 025a 01       		.uleb128 0x1
 6900 025b 13       		.uleb128 0x13
 6901 025c 00       		.byte	0
 6902 025d 00       		.byte	0
 6903 025e 2D       		.uleb128 0x2d
 6904 025f 05       		.uleb128 0x5
 6905 0260 00       		.byte	0
 6906 0261 03       		.uleb128 0x3
 6907 0262 08       		.uleb128 0x8
 6908 0263 3A       		.uleb128 0x3a
 6909 0264 0B       		.uleb128 0xb
 6910 0265 3B       		.uleb128 0x3b
 6911 0266 0B       		.uleb128 0xb
 6912 0267 49       		.uleb128 0x49
 6913 0268 13       		.uleb128 0x13
 6914 0269 00       		.byte	0
 6915 026a 00       		.byte	0
 6916 026b 2E       		.uleb128 0x2e
 6917 026c 05       		.uleb128 0x5
 6918 026d 00       		.byte	0
 6919 026e 03       		.uleb128 0x3
 6920 026f 0E       		.uleb128 0xe
 6921 0270 3A       		.uleb128 0x3a
 6922 0271 0B       		.uleb128 0xb
 6923 0272 3B       		.uleb128 0x3b
 6924 0273 0B       		.uleb128 0xb
 6925 0274 49       		.uleb128 0x49
 6926 0275 13       		.uleb128 0x13
 6927 0276 00       		.byte	0
 6928 0277 00       		.byte	0
 6929 0278 2F       		.uleb128 0x2f
 6930 0279 1D       		.uleb128 0x1d
 6931 027a 01       		.byte	0x1
 6932 027b 31       		.uleb128 0x31
 6933 027c 13       		.uleb128 0x13
 6934 027d 52       		.uleb128 0x52
 6935 027e 01       		.uleb128 0x1
ARM GAS  C:\Users\Kiwi\AppData\Local\Temp\ccKDkYuk.s 			page 140


 6936 027f 55       		.uleb128 0x55
 6937 0280 17       		.uleb128 0x17
 6938 0281 58       		.uleb128 0x58
 6939 0282 0B       		.uleb128 0xb
 6940 0283 59       		.uleb128 0x59
 6941 0284 05       		.uleb128 0x5
 6942 0285 01       		.uleb128 0x1
 6943 0286 13       		.uleb128 0x13
 6944 0287 00       		.byte	0
 6945 0288 00       		.byte	0
 6946 0289 30       		.uleb128 0x30
 6947 028a 0B       		.uleb128 0xb
 6948 028b 01       		.byte	0x1
 6949 028c 01       		.uleb128 0x1
 6950 028d 13       		.uleb128 0x13
 6951 028e 00       		.byte	0
 6952 028f 00       		.byte	0
 6953 0290 31       		.uleb128 0x31
 6954 0291 34       		.uleb128 0x34
 6955 0292 00       		.byte	0
 6956 0293 03       		.uleb128 0x3
 6957 0294 0E       		.uleb128 0xe
 6958 0295 3A       		.uleb128 0x3a
 6959 0296 0B       		.uleb128 0xb
 6960 0297 3B       		.uleb128 0x3b
 6961 0298 0B       		.uleb128 0xb
 6962 0299 49       		.uleb128 0x49
 6963 029a 13       		.uleb128 0x13
 6964 029b 00       		.byte	0
 6965 029c 00       		.byte	0
 6966 029d 32       		.uleb128 0x32
 6967 029e 34       		.uleb128 0x34
 6968 029f 00       		.byte	0
 6969 02a0 03       		.uleb128 0x3
 6970 02a1 08       		.uleb128 0x8
 6971 02a2 3A       		.uleb128 0x3a
 6972 02a3 0B       		.uleb128 0xb
 6973 02a4 3B       		.uleb128 0x3b
 6974 02a5 0B       		.uleb128 0xb
 6975 02a6 49       		.uleb128 0x49
 6976 02a7 13       		.uleb128 0x13
 6977 02a8 00       		.byte	0
 6978 02a9 00       		.byte	0
 6979 02aa 33       		.uleb128 0x33
 6980 02ab 34       		.uleb128 0x34
 6981 02ac 00       		.byte	0
 6982 02ad 03       		.uleb128 0x3
 6983 02ae 0E       		.uleb128 0xe
 6984 02af 3A       		.uleb128 0x3a
 6985 02b0 0B       		.uleb128 0xb
 6986 02b1 3B       		.uleb128 0x3b
 6987 02b2 05       		.uleb128 0x5
 6988 02b3 49       		.uleb128 0x49
 6989 02b4 13       		.uleb128 0x13
 6990 02b5 02       		.uleb128 0x2
 6991 02b6 17       		.uleb128 0x17
 6992 02b7 00       		.byte	0
ARM GAS  C:\Users\Kiwi\AppData\Local\Temp\ccKDkYuk.s 			page 141


 6993 02b8 00       		.byte	0
 6994 02b9 34       		.uleb128 0x34
 6995 02ba 34       		.uleb128 0x34
 6996 02bb 00       		.byte	0
 6997 02bc 03       		.uleb128 0x3
 6998 02bd 08       		.uleb128 0x8
 6999 02be 3A       		.uleb128 0x3a
 7000 02bf 0B       		.uleb128 0xb
 7001 02c0 3B       		.uleb128 0x3b
 7002 02c1 05       		.uleb128 0x5
 7003 02c2 49       		.uleb128 0x49
 7004 02c3 13       		.uleb128 0x13
 7005 02c4 02       		.uleb128 0x2
 7006 02c5 17       		.uleb128 0x17
 7007 02c6 00       		.byte	0
 7008 02c7 00       		.byte	0
 7009 02c8 35       		.uleb128 0x35
 7010 02c9 0B       		.uleb128 0xb
 7011 02ca 01       		.byte	0x1
 7012 02cb 11       		.uleb128 0x11
 7013 02cc 01       		.uleb128 0x1
 7014 02cd 12       		.uleb128 0x12
 7015 02ce 06       		.uleb128 0x6
 7016 02cf 01       		.uleb128 0x1
 7017 02d0 13       		.uleb128 0x13
 7018 02d1 00       		.byte	0
 7019 02d2 00       		.byte	0
 7020 02d3 36       		.uleb128 0x36
 7021 02d4 0B       		.uleb128 0xb
 7022 02d5 01       		.byte	0x1
 7023 02d6 55       		.uleb128 0x55
 7024 02d7 17       		.uleb128 0x17
 7025 02d8 00       		.byte	0
 7026 02d9 00       		.byte	0
 7027 02da 37       		.uleb128 0x37
 7028 02db 34       		.uleb128 0x34
 7029 02dc 00       		.byte	0
 7030 02dd 31       		.uleb128 0x31
 7031 02de 13       		.uleb128 0x13
 7032 02df 02       		.uleb128 0x2
 7033 02e0 18       		.uleb128 0x18
 7034 02e1 00       		.byte	0
 7035 02e2 00       		.byte	0
 7036 02e3 38       		.uleb128 0x38
 7037 02e4 898201   		.uleb128 0x4109
 7038 02e7 00       		.byte	0
 7039 02e8 11       		.uleb128 0x11
 7040 02e9 01       		.uleb128 0x1
 7041 02ea 9542     		.uleb128 0x2115
 7042 02ec 19       		.uleb128 0x19
 7043 02ed 31       		.uleb128 0x31
 7044 02ee 13       		.uleb128 0x13
 7045 02ef 00       		.byte	0
 7046 02f0 00       		.byte	0
 7047 02f1 39       		.uleb128 0x39
 7048 02f2 05       		.uleb128 0x5
 7049 02f3 00       		.byte	0
ARM GAS  C:\Users\Kiwi\AppData\Local\Temp\ccKDkYuk.s 			page 142


 7050 02f4 31       		.uleb128 0x31
 7051 02f5 13       		.uleb128 0x13
 7052 02f6 00       		.byte	0
 7053 02f7 00       		.byte	0
 7054 02f8 3A       		.uleb128 0x3a
 7055 02f9 34       		.uleb128 0x34
 7056 02fa 00       		.byte	0
 7057 02fb 03       		.uleb128 0x3
 7058 02fc 08       		.uleb128 0x8
 7059 02fd 3A       		.uleb128 0x3a
 7060 02fe 0B       		.uleb128 0xb
 7061 02ff 3B       		.uleb128 0x3b
 7062 0300 05       		.uleb128 0x5
 7063 0301 49       		.uleb128 0x49
 7064 0302 13       		.uleb128 0x13
 7065 0303 02       		.uleb128 0x2
 7066 0304 18       		.uleb128 0x18
 7067 0305 00       		.byte	0
 7068 0306 00       		.byte	0
 7069 0307 3B       		.uleb128 0x3b
 7070 0308 898201   		.uleb128 0x4109
 7071 030b 01       		.byte	0x1
 7072 030c 11       		.uleb128 0x11
 7073 030d 01       		.uleb128 0x1
 7074 030e 9542     		.uleb128 0x2115
 7075 0310 19       		.uleb128 0x19
 7076 0311 31       		.uleb128 0x31
 7077 0312 13       		.uleb128 0x13
 7078 0313 00       		.byte	0
 7079 0314 00       		.byte	0
 7080 0315 3C       		.uleb128 0x3c
 7081 0316 898201   		.uleb128 0x4109
 7082 0319 01       		.byte	0x1
 7083 031a 11       		.uleb128 0x11
 7084 031b 01       		.uleb128 0x1
 7085 031c 9542     		.uleb128 0x2115
 7086 031e 19       		.uleb128 0x19
 7087 031f 31       		.uleb128 0x31
 7088 0320 13       		.uleb128 0x13
 7089 0321 01       		.uleb128 0x1
 7090 0322 13       		.uleb128 0x13
 7091 0323 00       		.byte	0
 7092 0324 00       		.byte	0
 7093 0325 3D       		.uleb128 0x3d
 7094 0326 8A8201   		.uleb128 0x410a
 7095 0329 00       		.byte	0
 7096 032a 31       		.uleb128 0x31
 7097 032b 13       		.uleb128 0x13
 7098 032c 9142     		.uleb128 0x2111
 7099 032e 18       		.uleb128 0x18
 7100 032f 00       		.byte	0
 7101 0330 00       		.byte	0
 7102 0331 3E       		.uleb128 0x3e
 7103 0332 1D       		.uleb128 0x1d
 7104 0333 01       		.byte	0x1
 7105 0334 31       		.uleb128 0x31
 7106 0335 13       		.uleb128 0x13
ARM GAS  C:\Users\Kiwi\AppData\Local\Temp\ccKDkYuk.s 			page 143


 7107 0336 11       		.uleb128 0x11
 7108 0337 01       		.uleb128 0x1
 7109 0338 12       		.uleb128 0x12
 7110 0339 06       		.uleb128 0x6
 7111 033a 58       		.uleb128 0x58
 7112 033b 0B       		.uleb128 0xb
 7113 033c 59       		.uleb128 0x59
 7114 033d 05       		.uleb128 0x5
 7115 033e 01       		.uleb128 0x1
 7116 033f 13       		.uleb128 0x13
 7117 0340 00       		.byte	0
 7118 0341 00       		.byte	0
 7119 0342 3F       		.uleb128 0x3f
 7120 0343 05       		.uleb128 0x5
 7121 0344 00       		.byte	0
 7122 0345 31       		.uleb128 0x31
 7123 0346 13       		.uleb128 0x13
 7124 0347 1C       		.uleb128 0x1c
 7125 0348 0B       		.uleb128 0xb
 7126 0349 00       		.byte	0
 7127 034a 00       		.byte	0
 7128 034b 40       		.uleb128 0x40
 7129 034c 21       		.uleb128 0x21
 7130 034d 00       		.byte	0
 7131 034e 49       		.uleb128 0x49
 7132 034f 13       		.uleb128 0x13
 7133 0350 2F       		.uleb128 0x2f
 7134 0351 05       		.uleb128 0x5
 7135 0352 00       		.byte	0
 7136 0353 00       		.byte	0
 7137 0354 41       		.uleb128 0x41
 7138 0355 34       		.uleb128 0x34
 7139 0356 00       		.byte	0
 7140 0357 03       		.uleb128 0x3
 7141 0358 0E       		.uleb128 0xe
 7142 0359 3A       		.uleb128 0x3a
 7143 035a 0B       		.uleb128 0xb
 7144 035b 3B       		.uleb128 0x3b
 7145 035c 0B       		.uleb128 0xb
 7146 035d 49       		.uleb128 0x49
 7147 035e 13       		.uleb128 0x13
 7148 035f 1C       		.uleb128 0x1c
 7149 0360 05       		.uleb128 0x5
 7150 0361 00       		.byte	0
 7151 0362 00       		.byte	0
 7152 0363 42       		.uleb128 0x42
 7153 0364 34       		.uleb128 0x34
 7154 0365 00       		.byte	0
 7155 0366 03       		.uleb128 0x3
 7156 0367 0E       		.uleb128 0xe
 7157 0368 3A       		.uleb128 0x3a
 7158 0369 0B       		.uleb128 0xb
 7159 036a 3B       		.uleb128 0x3b
 7160 036b 05       		.uleb128 0x5
 7161 036c 49       		.uleb128 0x49
 7162 036d 13       		.uleb128 0x13
 7163 036e 3F       		.uleb128 0x3f
ARM GAS  C:\Users\Kiwi\AppData\Local\Temp\ccKDkYuk.s 			page 144


 7164 036f 19       		.uleb128 0x19
 7165 0370 3C       		.uleb128 0x3c
 7166 0371 19       		.uleb128 0x19
 7167 0372 00       		.byte	0
 7168 0373 00       		.byte	0
 7169 0374 43       		.uleb128 0x43
 7170 0375 35       		.uleb128 0x35
 7171 0376 00       		.byte	0
 7172 0377 49       		.uleb128 0x49
 7173 0378 13       		.uleb128 0x13
 7174 0379 00       		.byte	0
 7175 037a 00       		.byte	0
 7176 037b 44       		.uleb128 0x44
 7177 037c 34       		.uleb128 0x34
 7178 037d 00       		.byte	0
 7179 037e 03       		.uleb128 0x3
 7180 037f 0E       		.uleb128 0xe
 7181 0380 3A       		.uleb128 0x3a
 7182 0381 0B       		.uleb128 0xb
 7183 0382 3B       		.uleb128 0x3b
 7184 0383 05       		.uleb128 0x5
 7185 0384 49       		.uleb128 0x49
 7186 0385 13       		.uleb128 0x13
 7187 0386 3F       		.uleb128 0x3f
 7188 0387 19       		.uleb128 0x19
 7189 0388 02       		.uleb128 0x2
 7190 0389 18       		.uleb128 0x18
 7191 038a 00       		.byte	0
 7192 038b 00       		.byte	0
 7193 038c 45       		.uleb128 0x45
 7194 038d 2E       		.uleb128 0x2e
 7195 038e 00       		.byte	0
 7196 038f 3F       		.uleb128 0x3f
 7197 0390 19       		.uleb128 0x19
 7198 0391 3C       		.uleb128 0x3c
 7199 0392 19       		.uleb128 0x19
 7200 0393 6E       		.uleb128 0x6e
 7201 0394 0E       		.uleb128 0xe
 7202 0395 03       		.uleb128 0x3
 7203 0396 0E       		.uleb128 0xe
 7204 0397 3A       		.uleb128 0x3a
 7205 0398 0B       		.uleb128 0xb
 7206 0399 3B       		.uleb128 0x3b
 7207 039a 0B       		.uleb128 0xb
 7208 039b 00       		.byte	0
 7209 039c 00       		.byte	0
 7210 039d 46       		.uleb128 0x46
 7211 039e 2E       		.uleb128 0x2e
 7212 039f 00       		.byte	0
 7213 03a0 3F       		.uleb128 0x3f
 7214 03a1 19       		.uleb128 0x19
 7215 03a2 3C       		.uleb128 0x3c
 7216 03a3 19       		.uleb128 0x19
 7217 03a4 6E       		.uleb128 0x6e
 7218 03a5 0E       		.uleb128 0xe
 7219 03a6 03       		.uleb128 0x3
 7220 03a7 0E       		.uleb128 0xe
ARM GAS  C:\Users\Kiwi\AppData\Local\Temp\ccKDkYuk.s 			page 145


 7221 03a8 00       		.byte	0
 7222 03a9 00       		.byte	0
 7223 03aa 00       		.byte	0
 7224              		.section	.debug_loc,"",%progbits
 7225              	.Ldebug_loc0:
 7226              	.LLST0:
 7227 0000 00000000 		.4byte	.LVL0
 7228 0004 0A000000 		.4byte	.LVL1
 7229 0008 0100     		.2byte	0x1
 7230 000a 50       		.byte	0x50
 7231 000b 0A000000 		.4byte	.LVL1
 7232 000f 2E000000 		.4byte	.LVL10
 7233 0013 0100     		.2byte	0x1
 7234 0015 56       		.byte	0x56
 7235 0016 2E000000 		.4byte	.LVL10
 7236 001a 34000000 		.4byte	.LFE64
 7237 001e 0400     		.2byte	0x4
 7238 0020 F3       		.byte	0xf3
 7239 0021 01       		.uleb128 0x1
 7240 0022 50       		.byte	0x50
 7241 0023 9F       		.byte	0x9f
 7242 0024 00000000 		.4byte	0
 7243 0028 00000000 		.4byte	0
 7244              	.LLST1:
 7245 002c 00000000 		.4byte	.LVL0
 7246 0030 0C000000 		.4byte	.LVL2
 7247 0034 0100     		.2byte	0x1
 7248 0036 51       		.byte	0x51
 7249 0037 0C000000 		.4byte	.LVL2
 7250 003b 34000000 		.4byte	.LFE64
 7251 003f 0400     		.2byte	0x4
 7252 0041 F3       		.byte	0xf3
 7253 0042 01       		.uleb128 0x1
 7254 0043 51       		.byte	0x51
 7255 0044 9F       		.byte	0x9f
 7256 0045 00000000 		.4byte	0
 7257 0049 00000000 		.4byte	0
 7258              	.LLST2:
 7259 004d 00000000 		.4byte	.LVL0
 7260 0051 14000000 		.4byte	.LVL4
 7261 0055 0300     		.2byte	0x3
 7262 0057 08       		.byte	0x8
 7263 0058 FF       		.byte	0xff
 7264 0059 9F       		.byte	0x9f
 7265 005a 24000000 		.4byte	.LVL7
 7266 005e 26000000 		.4byte	.LVL8
 7267 0062 0100     		.2byte	0x1
 7268 0064 50       		.byte	0x50
 7269 0065 00000000 		.4byte	0
 7270 0069 00000000 		.4byte	0
 7271              	.LLST3:
 7272 006d 10000000 		.4byte	.LVL3
 7273 0071 14000000 		.4byte	.LVL4
 7274 0075 0200     		.2byte	0x2
 7275 0077 30       		.byte	0x30
 7276 0078 9F       		.byte	0x9f
 7277 0079 14000000 		.4byte	.LVL4
ARM GAS  C:\Users\Kiwi\AppData\Local\Temp\ccKDkYuk.s 			page 146


 7278 007d 1E000000 		.4byte	.LVL5
 7279 0081 0600     		.2byte	0x6
 7280 0083 74       		.byte	0x74
 7281 0084 00       		.sleb128 0
 7282 0085 76       		.byte	0x76
 7283 0086 00       		.sleb128 0
 7284 0087 1C       		.byte	0x1c
 7285 0088 9F       		.byte	0x9f
 7286 0089 1E000000 		.4byte	.LVL5
 7287 008d 24000000 		.4byte	.LVL7
 7288 0091 0700     		.2byte	0x7
 7289 0093 76       		.byte	0x76
 7290 0094 00       		.sleb128 0
 7291 0095 20       		.byte	0x20
 7292 0096 74       		.byte	0x74
 7293 0097 00       		.sleb128 0
 7294 0098 22       		.byte	0x22
 7295 0099 9F       		.byte	0x9f
 7296 009a 24000000 		.4byte	.LVL7
 7297 009e 2E000000 		.4byte	.LVL10
 7298 00a2 0600     		.2byte	0x6
 7299 00a4 74       		.byte	0x74
 7300 00a5 00       		.sleb128 0
 7301 00a6 76       		.byte	0x76
 7302 00a7 00       		.sleb128 0
 7303 00a8 1C       		.byte	0x1c
 7304 00a9 9F       		.byte	0x9f
 7305 00aa 00000000 		.4byte	0
 7306 00ae 00000000 		.4byte	0
 7307              	.LLST4:
 7308 00b2 08000000 		.4byte	.LVL12
 7309 00b6 52000000 		.4byte	.LVL15
 7310 00ba 0100     		.2byte	0x1
 7311 00bc 54       		.byte	0x54
 7312 00bd 00000000 		.4byte	0
 7313 00c1 00000000 		.4byte	0
 7314              	.LLST5:
 7315 00c5 28000000 		.4byte	.LVL13
 7316 00c9 42000000 		.4byte	.LVL14
 7317 00cd 0100     		.2byte	0x1
 7318 00cf 51       		.byte	0x51
 7319 00d0 00000000 		.4byte	0
 7320 00d4 00000000 		.4byte	0
 7321              	.LLST6:
 7322 00d8 28000000 		.4byte	.LVL13
 7323 00dc 42000000 		.4byte	.LVL14
 7324 00e0 0100     		.2byte	0x1
 7325 00e2 50       		.byte	0x50
 7326 00e3 00000000 		.4byte	0
 7327 00e7 00000000 		.4byte	0
 7328              	.LLST7:
 7329 00eb 00000000 		.4byte	.LVL18
 7330 00ef 12000000 		.4byte	.LVL19
 7331 00f3 0100     		.2byte	0x1
 7332 00f5 50       		.byte	0x50
 7333 00f6 12000000 		.4byte	.LVL19
 7334 00fa 19000000 		.4byte	.LVL20-1
ARM GAS  C:\Users\Kiwi\AppData\Local\Temp\ccKDkYuk.s 			page 147


 7335 00fe 0200     		.2byte	0x2
 7336 0100 91       		.byte	0x91
 7337 0101 76       		.sleb128 -10
 7338 0102 19000000 		.4byte	.LVL20-1
 7339 0106 20000000 		.4byte	.LFE67
 7340 010a 0400     		.2byte	0x4
 7341 010c F3       		.byte	0xf3
 7342 010d 01       		.uleb128 0x1
 7343 010e 50       		.byte	0x50
 7344 010f 9F       		.byte	0x9f
 7345 0110 00000000 		.4byte	0
 7346 0114 00000000 		.4byte	0
 7347              	.LLST8:
 7348 0118 00000000 		.4byte	.LVL21
 7349 011c 16000000 		.4byte	.LVL22
 7350 0120 0100     		.2byte	0x1
 7351 0122 50       		.byte	0x50
 7352 0123 16000000 		.4byte	.LVL22
 7353 0127 24000000 		.4byte	.LFE68
 7354 012b 0400     		.2byte	0x4
 7355 012d F3       		.byte	0xf3
 7356 012e 01       		.uleb128 0x1
 7357 012f 50       		.byte	0x50
 7358 0130 9F       		.byte	0x9f
 7359 0131 00000000 		.4byte	0
 7360 0135 00000000 		.4byte	0
 7361              	.LLST9:
 7362 0139 00000000 		.4byte	.LVL27
 7363 013d 1C000000 		.4byte	.LVL30
 7364 0141 0100     		.2byte	0x1
 7365 0143 50       		.byte	0x50
 7366 0144 1C000000 		.4byte	.LVL30
 7367 0148 33000000 		.4byte	.LVL31-1
 7368 014c 0200     		.2byte	0x2
 7369 014e 91       		.byte	0x91
 7370 014f 6F       		.sleb128 -17
 7371 0150 33000000 		.4byte	.LVL31-1
 7372 0154 38000000 		.4byte	.LFE72
 7373 0158 0400     		.2byte	0x4
 7374 015a F3       		.byte	0xf3
 7375 015b 01       		.uleb128 0x1
 7376 015c 50       		.byte	0x50
 7377 015d 9F       		.byte	0x9f
 7378 015e 00000000 		.4byte	0
 7379 0162 00000000 		.4byte	0
 7380              	.LLST10:
 7381 0166 00000000 		.4byte	.LVL27
 7382 016a 18000000 		.4byte	.LVL29
 7383 016e 0100     		.2byte	0x1
 7384 0170 51       		.byte	0x51
 7385 0171 18000000 		.4byte	.LVL29
 7386 0175 33000000 		.4byte	.LVL31-1
 7387 0179 0200     		.2byte	0x2
 7388 017b 91       		.byte	0x91
 7389 017c 71       		.sleb128 -15
 7390 017d 33000000 		.4byte	.LVL31-1
 7391 0181 38000000 		.4byte	.LFE72
ARM GAS  C:\Users\Kiwi\AppData\Local\Temp\ccKDkYuk.s 			page 148


 7392 0185 0400     		.2byte	0x4
 7393 0187 F3       		.byte	0xf3
 7394 0188 01       		.uleb128 0x1
 7395 0189 51       		.byte	0x51
 7396 018a 9F       		.byte	0x9f
 7397 018b 00000000 		.4byte	0
 7398 018f 00000000 		.4byte	0
 7399              	.LLST11:
 7400 0193 00000000 		.4byte	.LVL27
 7401 0197 33000000 		.4byte	.LVL31-1
 7402 019b 0100     		.2byte	0x1
 7403 019d 52       		.byte	0x52
 7404 019e 33000000 		.4byte	.LVL31-1
 7405 01a2 38000000 		.4byte	.LFE72
 7406 01a6 0400     		.2byte	0x4
 7407 01a8 F3       		.byte	0xf3
 7408 01a9 01       		.uleb128 0x1
 7409 01aa 52       		.byte	0x52
 7410 01ab 9F       		.byte	0x9f
 7411 01ac 00000000 		.4byte	0
 7412 01b0 00000000 		.4byte	0
 7413              	.LLST12:
 7414 01b4 00000000 		.4byte	.LVL27
 7415 01b8 08000000 		.4byte	.LVL28
 7416 01bc 0100     		.2byte	0x1
 7417 01be 53       		.byte	0x53
 7418 01bf 08000000 		.4byte	.LVL28
 7419 01c3 33000000 		.4byte	.LVL31-1
 7420 01c7 0200     		.2byte	0x2
 7421 01c9 91       		.byte	0x91
 7422 01ca 70       		.sleb128 -16
 7423 01cb 33000000 		.4byte	.LVL31-1
 7424 01cf 38000000 		.4byte	.LFE72
 7425 01d3 0400     		.2byte	0x4
 7426 01d5 F3       		.byte	0xf3
 7427 01d6 01       		.uleb128 0x1
 7428 01d7 53       		.byte	0x53
 7429 01d8 9F       		.byte	0x9f
 7430 01d9 00000000 		.4byte	0
 7431 01dd 00000000 		.4byte	0
 7432              	.LLST13:
 7433 01e1 00000000 		.4byte	.LVL32
 7434 01e5 10000000 		.4byte	.LVL33
 7435 01e9 0100     		.2byte	0x1
 7436 01eb 51       		.byte	0x51
 7437 01ec 10000000 		.4byte	.LVL33
 7438 01f0 40000000 		.4byte	.LFE73
 7439 01f4 0500     		.2byte	0x5
 7440 01f6 03       		.byte	0x3
 7441 01f7 00000000 		.4byte	HEIGHT
 7442 01fb 00000000 		.4byte	0
 7443 01ff 00000000 		.4byte	0
 7444              	.LLST14:
 7445 0203 00000000 		.4byte	.LVL34
 7446 0207 0C000000 		.4byte	.LVL35
 7447 020b 0100     		.2byte	0x1
 7448 020d 50       		.byte	0x50
ARM GAS  C:\Users\Kiwi\AppData\Local\Temp\ccKDkYuk.s 			page 149


 7449 020e 0C000000 		.4byte	.LVL35
 7450 0212 0F000000 		.4byte	.LVL36-1
 7451 0216 0500     		.2byte	0x5
 7452 0218 03       		.byte	0x3
 7453 0219 00000000 		.4byte	_i2caddr
 7454 021d 0F000000 		.4byte	.LVL36-1
 7455 0221 44000000 		.4byte	.LFE63
 7456 0225 0400     		.2byte	0x4
 7457 0227 F3       		.byte	0xf3
 7458 0228 01       		.uleb128 0x1
 7459 0229 50       		.byte	0x50
 7460 022a 9F       		.byte	0x9f
 7461 022b 00000000 		.4byte	0
 7462 022f 00000000 		.4byte	0
 7463              	.LLST15:
 7464 0233 00000000 		.4byte	.LVL39
 7465 0237 06000000 		.4byte	.LVL40
 7466 023b 0100     		.2byte	0x1
 7467 023d 50       		.byte	0x50
 7468 023e 06000000 		.4byte	.LVL40
 7469 0242 10000000 		.4byte	.LFE78
 7470 0246 0400     		.2byte	0x4
 7471 0248 F3       		.byte	0xf3
 7472 0249 01       		.uleb128 0x1
 7473 024a 50       		.byte	0x50
 7474 024b 9F       		.byte	0x9f
 7475 024c 00000000 		.4byte	0
 7476 0250 00000000 		.4byte	0
 7477              	.LLST16:
 7478 0254 00000000 		.4byte	.LVL44
 7479 0258 04000000 		.4byte	.LVL45
 7480 025c 0100     		.2byte	0x1
 7481 025e 50       		.byte	0x50
 7482 025f 04000000 		.4byte	.LVL45
 7483 0263 38000000 		.4byte	.LFE82
 7484 0267 0400     		.2byte	0x4
 7485 0269 F3       		.byte	0xf3
 7486 026a 01       		.uleb128 0x1
 7487 026b 50       		.byte	0x50
 7488 026c 9F       		.byte	0x9f
 7489 026d 00000000 		.4byte	0
 7490 0271 00000000 		.4byte	0
 7491              	.LLST17:
 7492 0275 00000000 		.4byte	.LVL46
 7493 0279 08000000 		.4byte	.LVL47
 7494 027d 0100     		.2byte	0x1
 7495 027f 50       		.byte	0x50
 7496 0280 08000000 		.4byte	.LVL47
 7497 0284 2E000000 		.4byte	.LVL50
 7498 0288 0200     		.2byte	0x2
 7499 028a 91       		.byte	0x91
 7500 028b 76       		.sleb128 -10
 7501 028c 2E000000 		.4byte	.LVL50
 7502 0290 31000000 		.4byte	.LVL51-1
 7503 0294 0200     		.2byte	0x2
 7504 0296 70       		.byte	0x70
 7505 0297 00       		.sleb128 0
ARM GAS  C:\Users\Kiwi\AppData\Local\Temp\ccKDkYuk.s 			page 150


 7506 0298 31000000 		.4byte	.LVL51-1
 7507 029c 9E000000 		.4byte	.LVL62
 7508 02a0 0200     		.2byte	0x2
 7509 02a2 91       		.byte	0x91
 7510 02a3 76       		.sleb128 -10
 7511 02a4 9E000000 		.4byte	.LVL62
 7512 02a8 A8000000 		.4byte	.LFE84
 7513 02ac 0200     		.2byte	0x2
 7514 02ae 7D       		.byte	0x7d
 7515 02af 76       		.sleb128 -10
 7516 02b0 00000000 		.4byte	0
 7517 02b4 00000000 		.4byte	0
 7518              	.LLST18:
 7519 02b8 00000000 		.4byte	.LVL46
 7520 02bc 2A000000 		.4byte	.LVL49
 7521 02c0 0100     		.2byte	0x1
 7522 02c2 51       		.byte	0x51
 7523 02c3 2A000000 		.4byte	.LVL49
 7524 02c7 31000000 		.4byte	.LVL51-1
 7525 02cb 0200     		.2byte	0x2
 7526 02cd 71       		.byte	0x71
 7527 02ce 00       		.sleb128 0
 7528 02cf 31000000 		.4byte	.LVL51-1
 7529 02d3 9E000000 		.4byte	.LVL62
 7530 02d7 0200     		.2byte	0x2
 7531 02d9 91       		.byte	0x91
 7532 02da 74       		.sleb128 -12
 7533 02db 9E000000 		.4byte	.LVL62
 7534 02df A8000000 		.4byte	.LFE84
 7535 02e3 0200     		.2byte	0x2
 7536 02e5 7D       		.byte	0x7d
 7537 02e6 74       		.sleb128 -12
 7538 02e7 00000000 		.4byte	0
 7539 02eb 00000000 		.4byte	0
 7540              	.LLST19:
 7541 02ef 00000000 		.4byte	.LVL46
 7542 02f3 12000000 		.4byte	.LVL48
 7543 02f7 0100     		.2byte	0x1
 7544 02f9 52       		.byte	0x52
 7545 02fa 12000000 		.4byte	.LVL48
 7546 02fe A8000000 		.4byte	.LFE84
 7547 0302 0400     		.2byte	0x4
 7548 0304 F3       		.byte	0xf3
 7549 0305 01       		.uleb128 0x1
 7550 0306 52       		.byte	0x52
 7551 0307 9F       		.byte	0x9f
 7552 0308 00000000 		.4byte	0
 7553 030c 00000000 		.4byte	0
 7554              	.LLST20:
 7555 0310 36000000 		.4byte	.LVL52
 7556 0314 52000000 		.4byte	.LVL53
 7557 0318 0100     		.2byte	0x1
 7558 031a 54       		.byte	0x54
 7559 031b 68000000 		.4byte	.LVL55
 7560 031f 7A000000 		.4byte	.LVL57
 7561 0323 0100     		.2byte	0x1
 7562 0325 54       		.byte	0x54
ARM GAS  C:\Users\Kiwi\AppData\Local\Temp\ccKDkYuk.s 			page 151


 7563 0326 80000000 		.4byte	.LVL58
 7564 032a 82000000 		.4byte	.LVL59
 7565 032e 0100     		.2byte	0x1
 7566 0330 54       		.byte	0x54
 7567 0331 00000000 		.4byte	0
 7568 0335 00000000 		.4byte	0
 7569              	.LLST21:
 7570 0339 36000000 		.4byte	.LVL52
 7571 033d 9A000000 		.4byte	.LVL61
 7572 0341 0200     		.2byte	0x2
 7573 0343 91       		.byte	0x91
 7574 0344 74       		.sleb128 -12
 7575 0345 00000000 		.4byte	0
 7576 0349 00000000 		.4byte	0
 7577              	.LLST22:
 7578 034d 36000000 		.4byte	.LVL52
 7579 0351 5A000000 		.4byte	.LVL54
 7580 0355 0100     		.2byte	0x1
 7581 0357 53       		.byte	0x53
 7582 0358 5A000000 		.4byte	.LVL54
 7583 035c 68000000 		.4byte	.LVL55
 7584 0360 0200     		.2byte	0x2
 7585 0362 91       		.byte	0x91
 7586 0363 76       		.sleb128 -10
 7587 0364 68000000 		.4byte	.LVL55
 7588 0368 70000000 		.4byte	.LVL56
 7589 036c 0100     		.2byte	0x1
 7590 036e 53       		.byte	0x53
 7591 036f 70000000 		.4byte	.LVL56
 7592 0373 80000000 		.4byte	.LVL58
 7593 0377 0200     		.2byte	0x2
 7594 0379 91       		.byte	0x91
 7595 037a 76       		.sleb128 -10
 7596 037b 80000000 		.4byte	.LVL58
 7597 037f 8A000000 		.4byte	.LVL60
 7598 0383 0100     		.2byte	0x1
 7599 0385 53       		.byte	0x53
 7600 0386 8A000000 		.4byte	.LVL60
 7601 038a 9A000000 		.4byte	.LVL61
 7602 038e 0200     		.2byte	0x2
 7603 0390 91       		.byte	0x91
 7604 0391 76       		.sleb128 -10
 7605 0392 00000000 		.4byte	0
 7606 0396 00000000 		.4byte	0
 7607              	.LLST23:
 7608 039a 00000000 		.4byte	.LVL63
 7609 039e BE000000 		.4byte	.LVL71
 7610 03a2 0100     		.2byte	0x1
 7611 03a4 50       		.byte	0x50
 7612 03a5 BE000000 		.4byte	.LVL71
 7613 03a9 28020000 		.4byte	.LVL96
 7614 03ad 0400     		.2byte	0x4
 7615 03af F3       		.byte	0xf3
 7616 03b0 01       		.uleb128 0x1
 7617 03b1 50       		.byte	0x50
 7618 03b2 9F       		.byte	0x9f
 7619 03b3 28020000 		.4byte	.LVL96
ARM GAS  C:\Users\Kiwi\AppData\Local\Temp\ccKDkYuk.s 			page 152


 7620 03b7 52020000 		.4byte	.LVL99
 7621 03bb 0100     		.2byte	0x1
 7622 03bd 50       		.byte	0x50
 7623 03be 52020000 		.4byte	.LVL99
 7624 03c2 60020000 		.4byte	.LVL102
 7625 03c6 0100     		.2byte	0x1
 7626 03c8 54       		.byte	0x54
 7627 03c9 62020000 		.4byte	.LVL103
 7628 03cd C6020000 		.4byte	.LVL113
 7629 03d1 0100     		.2byte	0x1
 7630 03d3 54       		.byte	0x54
 7631 03d4 C8020000 		.4byte	.LVL114
 7632 03d8 CA020000 		.4byte	.LVL115
 7633 03dc 0100     		.2byte	0x1
 7634 03de 54       		.byte	0x54
 7635 03df CA020000 		.4byte	.LVL115
 7636 03e3 DE020000 		.4byte	.LVL116
 7637 03e7 0400     		.2byte	0x4
 7638 03e9 F3       		.byte	0xf3
 7639 03ea 01       		.uleb128 0x1
 7640 03eb 50       		.byte	0x50
 7641 03ec 9F       		.byte	0x9f
 7642 03ed 00000000 		.4byte	0
 7643 03f1 00000000 		.4byte	0
 7644              	.LLST24:
 7645 03f5 00000000 		.4byte	.LVL63
 7646 03f9 BC000000 		.4byte	.LVL70
 7647 03fd 0100     		.2byte	0x1
 7648 03ff 51       		.byte	0x51
 7649 0400 BC000000 		.4byte	.LVL70
 7650 0404 28020000 		.4byte	.LVL96
 7651 0408 0400     		.2byte	0x4
 7652 040a F3       		.byte	0xf3
 7653 040b 01       		.uleb128 0x1
 7654 040c 51       		.byte	0x51
 7655 040d 9F       		.byte	0x9f
 7656 040e 28020000 		.4byte	.LVL96
 7657 0412 52020000 		.4byte	.LVL99
 7658 0416 0100     		.2byte	0x1
 7659 0418 51       		.byte	0x51
 7660 0419 52020000 		.4byte	.LVL99
 7661 041d 5A020000 		.4byte	.LVL100
 7662 0421 0100     		.2byte	0x1
 7663 0423 55       		.byte	0x55
 7664 0424 62020000 		.4byte	.LVL103
 7665 0428 BA020000 		.4byte	.LVL110
 7666 042c 0100     		.2byte	0x1
 7667 042e 55       		.byte	0x55
 7668 042f C0020000 		.4byte	.LVL111
 7669 0433 CA020000 		.4byte	.LVL115
 7670 0437 0100     		.2byte	0x1
 7671 0439 55       		.byte	0x55
 7672 043a CA020000 		.4byte	.LVL115
 7673 043e DE020000 		.4byte	.LVL116
 7674 0442 0400     		.2byte	0x4
 7675 0444 F3       		.byte	0xf3
 7676 0445 01       		.uleb128 0x1
ARM GAS  C:\Users\Kiwi\AppData\Local\Temp\ccKDkYuk.s 			page 153


 7677 0446 51       		.byte	0x51
 7678 0447 9F       		.byte	0x9f
 7679 0448 00000000 		.4byte	0
 7680 044c 00000000 		.4byte	0
 7681              	.LLST25:
 7682 0450 00000000 		.4byte	.LVL63
 7683 0454 10000000 		.4byte	.LVL64
 7684 0458 0100     		.2byte	0x1
 7685 045a 52       		.byte	0x52
 7686 045b 10000000 		.4byte	.LVL64
 7687 045f 52020000 		.4byte	.LVL99
 7688 0463 0400     		.2byte	0x4
 7689 0465 F3       		.byte	0xf3
 7690 0466 01       		.uleb128 0x1
 7691 0467 52       		.byte	0x52
 7692 0468 9F       		.byte	0x9f
 7693 0469 52020000 		.4byte	.LVL99
 7694 046d CA020000 		.4byte	.LVL115
 7695 0471 0100     		.2byte	0x1
 7696 0473 56       		.byte	0x56
 7697 0474 CA020000 		.4byte	.LVL115
 7698 0478 DE020000 		.4byte	.LVL116
 7699 047c 0400     		.2byte	0x4
 7700 047e F3       		.byte	0xf3
 7701 047f 01       		.uleb128 0x1
 7702 0480 52       		.byte	0x52
 7703 0481 9F       		.byte	0x9f
 7704 0482 00000000 		.4byte	0
 7705 0486 00000000 		.4byte	0
 7706              	.LLST26:
 7707 048a 00000000 		.4byte	.LVL63
 7708 048e 38000000 		.4byte	.LVL69
 7709 0492 0100     		.2byte	0x1
 7710 0494 53       		.byte	0x53
 7711 0495 38000000 		.4byte	.LVL69
 7712 0499 28020000 		.4byte	.LVL96
 7713 049d 0400     		.2byte	0x4
 7714 049f F3       		.byte	0xf3
 7715 04a0 01       		.uleb128 0x1
 7716 04a1 53       		.byte	0x53
 7717 04a2 9F       		.byte	0x9f
 7718 04a3 28020000 		.4byte	.LVL96
 7719 04a7 4A020000 		.4byte	.LVL98
 7720 04ab 0100     		.2byte	0x1
 7721 04ad 53       		.byte	0x53
 7722 04ae 4A020000 		.4byte	.LVL98
 7723 04b2 52020000 		.4byte	.LVL99
 7724 04b6 0400     		.2byte	0x4
 7725 04b8 F3       		.byte	0xf3
 7726 04b9 01       		.uleb128 0x1
 7727 04ba 53       		.byte	0x53
 7728 04bb 9F       		.byte	0x9f
 7729 04bc 52020000 		.4byte	.LVL99
 7730 04c0 5C020000 		.4byte	.LVL101
 7731 04c4 0100     		.2byte	0x1
 7732 04c6 52       		.byte	0x52
 7733 04c7 62020000 		.4byte	.LVL103
ARM GAS  C:\Users\Kiwi\AppData\Local\Temp\ccKDkYuk.s 			page 154


 7734 04cb 8E020000 		.4byte	.LVL107
 7735 04cf 0100     		.2byte	0x1
 7736 04d1 52       		.byte	0x52
 7737 04d2 CA020000 		.4byte	.LVL115
 7738 04d6 DE020000 		.4byte	.LVL116
 7739 04da 0400     		.2byte	0x4
 7740 04dc F3       		.byte	0xf3
 7741 04dd 01       		.uleb128 0x1
 7742 04de 53       		.byte	0x53
 7743 04df 9F       		.byte	0x9f
 7744 04e0 00000000 		.4byte	0
 7745 04e4 00000000 		.4byte	0
 7746              	.LLST27:
 7747 04e8 00000000 		.4byte	.LVL63
 7748 04ec E4020000 		.4byte	.LVL117
 7749 04f0 0200     		.2byte	0x2
 7750 04f2 91       		.byte	0x91
 7751 04f3 00       		.sleb128 0
 7752 04f4 E4020000 		.4byte	.LVL117
 7753 04f8 F8020000 		.4byte	.LFE86
 7754 04fc 0200     		.2byte	0x2
 7755 04fe 7D       		.byte	0x7d
 7756 04ff 00       		.sleb128 0
 7757 0500 00000000 		.4byte	0
 7758 0504 00000000 		.4byte	0
 7759              	.LLST28:
 7760 0508 44020000 		.4byte	.LVL97
 7761 050c CA020000 		.4byte	.LVL115
 7762 0510 0900     		.2byte	0x9
 7763 0512 78       		.byte	0x78
 7764 0513 00       		.sleb128 0
 7765 0514 79       		.byte	0x79
 7766 0515 00       		.sleb128 0
 7767 0516 2B       		.byte	0x2b
 7768 0517 08       		.byte	0x8
 7769 0518 FF       		.byte	0xff
 7770 0519 1A       		.byte	0x1a
 7771 051a 9F       		.byte	0x9f
 7772 051b 00000000 		.4byte	0
 7773 051f 00000000 		.4byte	0
 7774              	.LLST29:
 7775 0523 76020000 		.4byte	.LVL104
 7776 0527 CA020000 		.4byte	.LVL115
 7777 052b 0100     		.2byte	0x1
 7778 052d 5A       		.byte	0x5a
 7779 052e 00000000 		.4byte	0
 7780 0532 00000000 		.4byte	0
 7781              	.LLST30:
 7782 0536 78020000 		.4byte	.LVL105
 7783 053a CA020000 		.4byte	.LVL115
 7784 053e 0200     		.2byte	0x2
 7785 0540 91       		.byte	0x91
 7786 0541 4C       		.sleb128 -52
 7787 0542 00000000 		.4byte	0
 7788 0546 00000000 		.4byte	0
 7789              	.LLST31:
 7790 054a 82020000 		.4byte	.LVL106
ARM GAS  C:\Users\Kiwi\AppData\Local\Temp\ccKDkYuk.s 			page 155


 7791 054e CA020000 		.4byte	.LVL115
 7792 0552 0100     		.2byte	0x1
 7793 0554 5B       		.byte	0x5b
 7794 0555 00000000 		.4byte	0
 7795 0559 00000000 		.4byte	0
 7796              	.LLST32:
 7797 055d 2E000000 		.4byte	.LVL68
 7798 0561 28020000 		.4byte	.LVL96
 7799 0565 0100     		.2byte	0x1
 7800 0567 57       		.byte	0x57
 7801 0568 CA020000 		.4byte	.LVL115
 7802 056c DE020000 		.4byte	.LVL116
 7803 0570 0100     		.2byte	0x1
 7804 0572 57       		.byte	0x57
 7805 0573 00000000 		.4byte	0
 7806 0577 00000000 		.4byte	0
 7807              	.LLST33:
 7808 057b 2E000000 		.4byte	.LVL68
 7809 057f C1000000 		.4byte	.LVL72-1
 7810 0583 0100     		.2byte	0x1
 7811 0585 52       		.byte	0x52
 7812 0586 C1000000 		.4byte	.LVL72-1
 7813 058a C6000000 		.4byte	.LVL73
 7814 058e 0200     		.2byte	0x2
 7815 0590 91       		.byte	0x91
 7816 0591 56       		.sleb128 -42
 7817 0592 C6000000 		.4byte	.LVL73
 7818 0596 CB000000 		.4byte	.LVL74-1
 7819 059a 0200     		.2byte	0x2
 7820 059c 71       		.byte	0x71
 7821 059d 00       		.sleb128 0
 7822 059e CB000000 		.4byte	.LVL74-1
 7823 05a2 28020000 		.4byte	.LVL96
 7824 05a6 0200     		.2byte	0x2
 7825 05a8 91       		.byte	0x91
 7826 05a9 56       		.sleb128 -42
 7827 05aa CA020000 		.4byte	.LVL115
 7828 05ae DE020000 		.4byte	.LVL116
 7829 05b2 0200     		.2byte	0x2
 7830 05b4 91       		.byte	0x91
 7831 05b5 56       		.sleb128 -42
 7832 05b6 00000000 		.4byte	0
 7833 05ba 00000000 		.4byte	0
 7834              	.LLST34:
 7835 05be 2A000000 		.4byte	.LVL67
 7836 05c2 46010000 		.4byte	.LVL85
 7837 05c6 0100     		.2byte	0x1
 7838 05c8 56       		.byte	0x56
 7839 05c9 46010000 		.4byte	.LVL85
 7840 05cd 28020000 		.4byte	.LVL96
 7841 05d1 0200     		.2byte	0x2
 7842 05d3 91       		.byte	0x91
 7843 05d4 54       		.sleb128 -44
 7844 05d5 CA020000 		.4byte	.LVL115
 7845 05d9 DE020000 		.4byte	.LVL116
 7846 05dd 0200     		.2byte	0x2
 7847 05df 91       		.byte	0x91
ARM GAS  C:\Users\Kiwi\AppData\Local\Temp\ccKDkYuk.s 			page 156


 7848 05e0 54       		.sleb128 -44
 7849 05e1 00000000 		.4byte	0
 7850 05e5 00000000 		.4byte	0
 7851              	.LLST35:
 7852 05e9 26000000 		.4byte	.LVL66
 7853 05ed 1E010000 		.4byte	.LVL81
 7854 05f1 0100     		.2byte	0x1
 7855 05f3 55       		.byte	0x55
 7856 05f4 1E010000 		.4byte	.LVL81
 7857 05f8 28020000 		.4byte	.LVL96
 7858 05fc 0200     		.2byte	0x2
 7859 05fe 91       		.byte	0x91
 7860 05ff 52       		.sleb128 -46
 7861 0600 CA020000 		.4byte	.LVL115
 7862 0604 DE020000 		.4byte	.LVL116
 7863 0608 0200     		.2byte	0x2
 7864 060a 91       		.byte	0x91
 7865 060b 52       		.sleb128 -46
 7866 060c 00000000 		.4byte	0
 7867 0610 00000000 		.4byte	0
 7868              	.LLST36:
 7869 0614 22000000 		.4byte	.LVL65
 7870 0618 08010000 		.4byte	.LVL78
 7871 061c 0100     		.2byte	0x1
 7872 061e 54       		.byte	0x54
 7873 061f 08010000 		.4byte	.LVL78
 7874 0623 28020000 		.4byte	.LVL96
 7875 0627 0200     		.2byte	0x2
 7876 0629 91       		.byte	0x91
 7877 062a 50       		.sleb128 -48
 7878 062b CA020000 		.4byte	.LVL115
 7879 062f DE020000 		.4byte	.LVL116
 7880 0633 0200     		.2byte	0x2
 7881 0635 91       		.byte	0x91
 7882 0636 50       		.sleb128 -48
 7883 0637 00000000 		.4byte	0
 7884 063b 00000000 		.4byte	0
 7885              	.LLST37:
 7886 063f EC000000 		.4byte	.LVL75
 7887 0643 F0000000 		.4byte	.LVL76
 7888 0647 0100     		.2byte	0x1
 7889 0649 52       		.byte	0x52
 7890 064a F0000000 		.4byte	.LVL76
 7891 064e 00010000 		.4byte	.LVL77
 7892 0652 0100     		.2byte	0x1
 7893 0654 53       		.byte	0x53
 7894 0655 00000000 		.4byte	0
 7895 0659 00000000 		.4byte	0
 7896              	.LLST38:
 7897 065d 0C010000 		.4byte	.LVL79
 7898 0661 28020000 		.4byte	.LVL96
 7899 0665 0100     		.2byte	0x1
 7900 0667 57       		.byte	0x57
 7901 0668 CA020000 		.4byte	.LVL115
 7902 066c DE020000 		.4byte	.LVL116
 7903 0670 0100     		.2byte	0x1
 7904 0672 57       		.byte	0x57
ARM GAS  C:\Users\Kiwi\AppData\Local\Temp\ccKDkYuk.s 			page 157


 7905 0673 00000000 		.4byte	0
 7906 0677 00000000 		.4byte	0
 7907              	.LLST39:
 7908 067b 0C010000 		.4byte	.LVL79
 7909 067f 96010000 		.4byte	.LVL87
 7910 0683 0200     		.2byte	0x2
 7911 0685 91       		.byte	0x91
 7912 0686 56       		.sleb128 -42
 7913 0687 E8010000 		.4byte	.LVL89
 7914 068b 28020000 		.4byte	.LVL96
 7915 068f 0200     		.2byte	0x2
 7916 0691 91       		.byte	0x91
 7917 0692 56       		.sleb128 -42
 7918 0693 00000000 		.4byte	0
 7919 0697 00000000 		.4byte	0
 7920              	.LLST40:
 7921 069b 0C010000 		.4byte	.LVL79
 7922 069f 16010000 		.4byte	.LVL80
 7923 06a3 0100     		.2byte	0x1
 7924 06a5 54       		.byte	0x54
 7925 06a6 16010000 		.4byte	.LVL80
 7926 06aa 34010000 		.4byte	.LVL84
 7927 06ae 0100     		.2byte	0x1
 7928 06b0 50       		.byte	0x50
 7929 06b1 34010000 		.4byte	.LVL84
 7930 06b5 96010000 		.4byte	.LVL87
 7931 06b9 0200     		.2byte	0x2
 7932 06bb 91       		.byte	0x91
 7933 06bc 50       		.sleb128 -48
 7934 06bd E8010000 		.4byte	.LVL89
 7935 06c1 F8010000 		.4byte	.LVL92
 7936 06c5 0100     		.2byte	0x1
 7937 06c7 54       		.byte	0x54
 7938 06c8 F8010000 		.4byte	.LVL92
 7939 06cc 28020000 		.4byte	.LVL96
 7940 06d0 0200     		.2byte	0x2
 7941 06d2 91       		.byte	0x91
 7942 06d3 54       		.sleb128 -44
 7943 06d4 00000000 		.4byte	0
 7944 06d8 00000000 		.4byte	0
 7945              	.LLST41:
 7946 06dc 0C010000 		.4byte	.LVL79
 7947 06e0 7E010000 		.4byte	.LVL86
 7948 06e4 0100     		.2byte	0x1
 7949 06e6 51       		.byte	0x51
 7950 06e7 7E010000 		.4byte	.LVL86
 7951 06eb 96010000 		.4byte	.LVL87
 7952 06ef 0200     		.2byte	0x2
 7953 06f1 91       		.byte	0x91
 7954 06f2 52       		.sleb128 -46
 7955 06f3 E8010000 		.4byte	.LVL89
 7956 06f7 F0010000 		.4byte	.LVL90
 7957 06fb 0100     		.2byte	0x1
 7958 06fd 51       		.byte	0x51
 7959 06fe F0010000 		.4byte	.LVL90
 7960 0702 28020000 		.4byte	.LVL96
 7961 0706 0200     		.2byte	0x2
ARM GAS  C:\Users\Kiwi\AppData\Local\Temp\ccKDkYuk.s 			page 158


 7962 0708 91       		.byte	0x91
 7963 0709 52       		.sleb128 -46
 7964 070a 00000000 		.4byte	0
 7965 070e 00000000 		.4byte	0
 7966              	.LLST42:
 7967 0712 08010000 		.4byte	.LVL78
 7968 0716 34010000 		.4byte	.LVL84
 7969 071a 0100     		.2byte	0x1
 7970 071c 50       		.byte	0x50
 7971 071d 34010000 		.4byte	.LVL84
 7972 0721 96010000 		.4byte	.LVL87
 7973 0725 0200     		.2byte	0x2
 7974 0727 91       		.byte	0x91
 7975 0728 50       		.sleb128 -48
 7976 0729 E8010000 		.4byte	.LVL89
 7977 072d F6010000 		.4byte	.LVL91
 7978 0731 0100     		.2byte	0x1
 7979 0733 50       		.byte	0x50
 7980 0734 F6010000 		.4byte	.LVL91
 7981 0738 28020000 		.4byte	.LVL96
 7982 073c 0200     		.2byte	0x2
 7983 073e 91       		.byte	0x91
 7984 073f 50       		.sleb128 -48
 7985 0740 00000000 		.4byte	0
 7986 0744 00000000 		.4byte	0
 7987              	.LLST43:
 7988 0748 2C010000 		.4byte	.LVL82
 7989 074c E8010000 		.4byte	.LVL89
 7990 0750 0100     		.2byte	0x1
 7991 0752 55       		.byte	0x55
 7992 0753 CA020000 		.4byte	.LVL115
 7993 0757 DE020000 		.4byte	.LVL116
 7994 075b 0100     		.2byte	0x1
 7995 075d 55       		.byte	0x55
 7996 075e 00000000 		.4byte	0
 7997 0762 00000000 		.4byte	0
 7998              	.LLST44:
 7999 0766 2E010000 		.4byte	.LVL83
 8000 076a E8010000 		.4byte	.LVL89
 8001 076e 0100     		.2byte	0x1
 8002 0770 53       		.byte	0x53
 8003 0771 CA020000 		.4byte	.LVL115
 8004 0775 DE020000 		.4byte	.LVL116
 8005 0779 0100     		.2byte	0x1
 8006 077b 53       		.byte	0x53
 8007 077c 00000000 		.4byte	0
 8008 0780 00000000 		.4byte	0
 8009              	.LLST45:
 8010 0784 2E010000 		.4byte	.LVL83
 8011 0788 96010000 		.4byte	.LVL87
 8012 078c 0100     		.2byte	0x1
 8013 078e 55       		.byte	0x55
 8014 078f 96010000 		.4byte	.LVL87
 8015 0793 E8010000 		.4byte	.LVL89
 8016 0797 0100     		.2byte	0x1
 8017 0799 52       		.byte	0x52
 8018 079a CA020000 		.4byte	.LVL115
ARM GAS  C:\Users\Kiwi\AppData\Local\Temp\ccKDkYuk.s 			page 159


 8019 079e DE020000 		.4byte	.LVL116
 8020 07a2 0100     		.2byte	0x1
 8021 07a4 52       		.byte	0x52
 8022 07a5 00000000 		.4byte	0
 8023 07a9 00000000 		.4byte	0
 8024              	.LLST46:
 8025 07ad 02020000 		.4byte	.LVL93
 8026 07b1 04020000 		.4byte	.LVL94
 8027 07b5 0100     		.2byte	0x1
 8028 07b7 53       		.byte	0x53
 8029 07b8 04020000 		.4byte	.LVL94
 8030 07bc 28020000 		.4byte	.LVL96
 8031 07c0 1C00     		.2byte	0x1c
 8032 07c2 91       		.byte	0x91
 8033 07c3 52       		.sleb128 -46
 8034 07c4 94       		.byte	0x94
 8035 07c5 02       		.byte	0x2
 8036 07c6 40       		.byte	0x40
 8037 07c7 24       		.byte	0x24
 8038 07c8 40       		.byte	0x40
 8039 07c9 26       		.byte	0x26
 8040 07ca 38       		.byte	0x38
 8041 07cb 1B       		.byte	0x1b
 8042 07cc 37       		.byte	0x37
 8043 07cd 24       		.byte	0x24
 8044 07ce 91       		.byte	0x91
 8045 07cf 50       		.sleb128 -48
 8046 07d0 94       		.byte	0x94
 8047 07d1 02       		.byte	0x2
 8048 07d2 40       		.byte	0x40
 8049 07d3 24       		.byte	0x24
 8050 07d4 40       		.byte	0x40
 8051 07d5 26       		.byte	0x26
 8052 07d6 22       		.byte	0x22
 8053 07d7 03       		.byte	0x3
 8054 07d8 01000000 		.4byte	.LANCHOR1+1
 8055 07dc 22       		.byte	0x22
 8056 07dd 9F       		.byte	0x9f
 8057 07de 00000000 		.4byte	0
 8058 07e2 00000000 		.4byte	0
 8059              	.LLST47:
 8060 07e6 04020000 		.4byte	.LVL94
 8061 07ea 28020000 		.4byte	.LVL96
 8062 07ee 0100     		.2byte	0x1
 8063 07f0 50       		.byte	0x50
 8064 07f1 00000000 		.4byte	0
 8065 07f5 00000000 		.4byte	0
 8066              	.LLST48:
 8067 07f9 04020000 		.4byte	.LVL94
 8068 07fd 28020000 		.4byte	.LVL96
 8069 0801 0100     		.2byte	0x1
 8070 0803 54       		.byte	0x54
 8071 0804 00000000 		.4byte	0
 8072 0808 00000000 		.4byte	0
 8073              	.LLST49:
 8074 080c 04020000 		.4byte	.LVL94
 8075 0810 28020000 		.4byte	.LVL96
ARM GAS  C:\Users\Kiwi\AppData\Local\Temp\ccKDkYuk.s 			page 160


 8076 0814 0100     		.2byte	0x1
 8077 0816 53       		.byte	0x53
 8078 0817 00000000 		.4byte	0
 8079 081b 00000000 		.4byte	0
 8080              	.LLST50:
 8081 081f 00000000 		.4byte	.LVL118
 8082 0823 23000000 		.4byte	.LVL121-1
 8083 0827 0100     		.2byte	0x1
 8084 0829 50       		.byte	0x50
 8085 082a 23000000 		.4byte	.LVL121-1
 8086 082e 54000000 		.4byte	.LFE87
 8087 0832 0400     		.2byte	0x4
 8088 0834 F3       		.byte	0xf3
 8089 0835 01       		.uleb128 0x1
 8090 0836 50       		.byte	0x50
 8091 0837 9F       		.byte	0x9f
 8092 0838 00000000 		.4byte	0
 8093 083c 00000000 		.4byte	0
 8094              	.LLST51:
 8095 0840 00000000 		.4byte	.LVL118
 8096 0844 23000000 		.4byte	.LVL121-1
 8097 0848 0100     		.2byte	0x1
 8098 084a 51       		.byte	0x51
 8099 084b 23000000 		.4byte	.LVL121-1
 8100 084f 54000000 		.4byte	.LFE87
 8101 0853 0400     		.2byte	0x4
 8102 0855 F3       		.byte	0xf3
 8103 0856 01       		.uleb128 0x1
 8104 0857 51       		.byte	0x51
 8105 0858 9F       		.byte	0x9f
 8106 0859 00000000 		.4byte	0
 8107 085d 00000000 		.4byte	0
 8108              	.LLST52:
 8109 0861 00000000 		.4byte	.LVL118
 8110 0865 0C000000 		.4byte	.LVL119
 8111 0869 0100     		.2byte	0x1
 8112 086b 52       		.byte	0x52
 8113 086c 0C000000 		.4byte	.LVL119
 8114 0870 54000000 		.4byte	.LFE87
 8115 0874 0400     		.2byte	0x4
 8116 0876 F3       		.byte	0xf3
 8117 0877 01       		.uleb128 0x1
 8118 0878 52       		.byte	0x52
 8119 0879 9F       		.byte	0x9f
 8120 087a 00000000 		.4byte	0
 8121 087e 00000000 		.4byte	0
 8122              	.LLST53:
 8123 0882 00000000 		.4byte	.LVL118
 8124 0886 1C000000 		.4byte	.LVL120
 8125 088a 0100     		.2byte	0x1
 8126 088c 53       		.byte	0x53
 8127 088d 1C000000 		.4byte	.LVL120
 8128 0891 54000000 		.4byte	.LFE87
 8129 0895 0400     		.2byte	0x4
 8130 0897 F3       		.byte	0xf3
 8131 0898 01       		.uleb128 0x1
 8132 0899 53       		.byte	0x53
ARM GAS  C:\Users\Kiwi\AppData\Local\Temp\ccKDkYuk.s 			page 161


 8133 089a 9F       		.byte	0x9f
 8134 089b 00000000 		.4byte	0
 8135 089f 00000000 		.4byte	0
 8136              	.LLST54:
 8137 08a3 00000000 		.4byte	.LVL118
 8138 08a7 50000000 		.4byte	.LVL124
 8139 08ab 0200     		.2byte	0x2
 8140 08ad 91       		.byte	0x91
 8141 08ae 00       		.sleb128 0
 8142 08af 50000000 		.4byte	.LVL124
 8143 08b3 54000000 		.4byte	.LFE87
 8144 08b7 0200     		.2byte	0x2
 8145 08b9 7D       		.byte	0x7d
 8146 08ba 00       		.sleb128 0
 8147 08bb 00000000 		.4byte	0
 8148 08bf 00000000 		.4byte	0
 8149              	.LLST55:
 8150 08c3 00000000 		.4byte	.LVL126
 8151 08c7 28000000 		.4byte	.LVL130
 8152 08cb 0100     		.2byte	0x1
 8153 08cd 50       		.byte	0x50
 8154 08ce 28000000 		.4byte	.LVL130
 8155 08d2 68000000 		.4byte	.LFE88
 8156 08d6 0400     		.2byte	0x4
 8157 08d8 F3       		.byte	0xf3
 8158 08d9 01       		.uleb128 0x1
 8159 08da 50       		.byte	0x50
 8160 08db 9F       		.byte	0x9f
 8161 08dc 00000000 		.4byte	0
 8162 08e0 00000000 		.4byte	0
 8163              	.LLST56:
 8164 08e4 00000000 		.4byte	.LVL126
 8165 08e8 28000000 		.4byte	.LVL130
 8166 08ec 0100     		.2byte	0x1
 8167 08ee 51       		.byte	0x51
 8168 08ef 28000000 		.4byte	.LVL130
 8169 08f3 68000000 		.4byte	.LFE88
 8170 08f7 0400     		.2byte	0x4
 8171 08f9 F3       		.byte	0xf3
 8172 08fa 01       		.uleb128 0x1
 8173 08fb 51       		.byte	0x51
 8174 08fc 9F       		.byte	0x9f
 8175 08fd 00000000 		.4byte	0
 8176 0901 00000000 		.4byte	0
 8177              	.LLST57:
 8178 0905 00000000 		.4byte	.LVL126
 8179 0909 28000000 		.4byte	.LVL130
 8180 090d 0100     		.2byte	0x1
 8181 090f 52       		.byte	0x52
 8182 0910 28000000 		.4byte	.LVL130
 8183 0914 68000000 		.4byte	.LFE88
 8184 0918 0400     		.2byte	0x4
 8185 091a F3       		.byte	0xf3
 8186 091b 01       		.uleb128 0x1
 8187 091c 52       		.byte	0x52
 8188 091d 9F       		.byte	0x9f
 8189 091e 00000000 		.4byte	0
ARM GAS  C:\Users\Kiwi\AppData\Local\Temp\ccKDkYuk.s 			page 162


 8190 0922 00000000 		.4byte	0
 8191              	.LLST58:
 8192 0926 00000000 		.4byte	.LVL126
 8193 092a 16000000 		.4byte	.LVL127
 8194 092e 0100     		.2byte	0x1
 8195 0930 53       		.byte	0x53
 8196 0931 16000000 		.4byte	.LVL127
 8197 0935 1E000000 		.4byte	.LVL128
 8198 0939 0400     		.2byte	0x4
 8199 093b F3       		.byte	0xf3
 8200 093c 01       		.uleb128 0x1
 8201 093d 53       		.byte	0x53
 8202 093e 9F       		.byte	0x9f
 8203 093f 1E000000 		.4byte	.LVL128
 8204 0943 22000000 		.4byte	.LVL129
 8205 0947 0100     		.2byte	0x1
 8206 0949 53       		.byte	0x53
 8207 094a 22000000 		.4byte	.LVL129
 8208 094e 68000000 		.4byte	.LFE88
 8209 0952 0400     		.2byte	0x4
 8210 0954 F3       		.byte	0xf3
 8211 0955 01       		.uleb128 0x1
 8212 0956 53       		.byte	0x53
 8213 0957 9F       		.byte	0x9f
 8214 0958 00000000 		.4byte	0
 8215 095c 00000000 		.4byte	0
 8216              	.LLST59:
 8217 0960 00000000 		.4byte	.LVL126
 8218 0964 44000000 		.4byte	.LVL134
 8219 0968 0200     		.2byte	0x2
 8220 096a 30       		.byte	0x30
 8221 096b 9F       		.byte	0x9f
 8222 096c 44000000 		.4byte	.LVL134
 8223 0970 5A000000 		.4byte	.LVL135
 8224 0974 0100     		.2byte	0x1
 8225 0976 54       		.byte	0x54
 8226 0977 60000000 		.4byte	.LVL137
 8227 097b 62000000 		.4byte	.LVL138
 8228 097f 0100     		.2byte	0x1
 8229 0981 54       		.byte	0x54
 8230 0982 00000000 		.4byte	0
 8231 0986 00000000 		.4byte	0
 8232              	.LLST60:
 8233 098a 28000000 		.4byte	.LVL130
 8234 098e 3C000000 		.4byte	.LVL131
 8235 0992 0100     		.2byte	0x1
 8236 0994 54       		.byte	0x54
 8237 0995 42000000 		.4byte	.LVL133
 8238 0999 44000000 		.4byte	.LVL134
 8239 099d 0100     		.2byte	0x1
 8240 099f 54       		.byte	0x54
 8241 09a0 00000000 		.4byte	0
 8242 09a4 00000000 		.4byte	0
 8243              	.LLST61:
 8244 09a8 00000000 		.4byte	.LVL139
 8245 09ac 31000000 		.4byte	.LVL145-1
 8246 09b0 0100     		.2byte	0x1
ARM GAS  C:\Users\Kiwi\AppData\Local\Temp\ccKDkYuk.s 			page 163


 8247 09b2 50       		.byte	0x50
 8248 09b3 31000000 		.4byte	.LVL145-1
 8249 09b7 46010000 		.4byte	.LFE89
 8250 09bb 0400     		.2byte	0x4
 8251 09bd F3       		.byte	0xf3
 8252 09be 01       		.uleb128 0x1
 8253 09bf 50       		.byte	0x50
 8254 09c0 9F       		.byte	0x9f
 8255 09c1 00000000 		.4byte	0
 8256 09c5 00000000 		.4byte	0
 8257              	.LLST62:
 8258 09c9 00000000 		.4byte	.LVL139
 8259 09cd 24000000 		.4byte	.LVL142
 8260 09d1 0100     		.2byte	0x1
 8261 09d3 51       		.byte	0x51
 8262 09d4 24000000 		.4byte	.LVL142
 8263 09d8 46010000 		.4byte	.LFE89
 8264 09dc 0100     		.2byte	0x1
 8265 09de 58       		.byte	0x58
 8266 09df 00000000 		.4byte	0
 8267 09e3 00000000 		.4byte	0
 8268              	.LLST63:
 8269 09e7 00000000 		.4byte	.LVL139
 8270 09eb 2C000000 		.4byte	.LVL143
 8271 09ef 0100     		.2byte	0x1
 8272 09f1 52       		.byte	0x52
 8273 09f2 2C000000 		.4byte	.LVL143
 8274 09f6 6C000000 		.4byte	.LVL149
 8275 09fa 0100     		.2byte	0x1
 8276 09fc 56       		.byte	0x56
 8277 09fd 6C000000 		.4byte	.LVL149
 8278 0a01 46010000 		.4byte	.LFE89
 8279 0a05 0400     		.2byte	0x4
 8280 0a07 F3       		.byte	0xf3
 8281 0a08 01       		.uleb128 0x1
 8282 0a09 52       		.byte	0x52
 8283 0a0a 9F       		.byte	0x9f
 8284 0a0b 00000000 		.4byte	0
 8285 0a0f 00000000 		.4byte	0
 8286              	.LLST64:
 8287 0a13 00000000 		.4byte	.LVL139
 8288 0a17 10000000 		.4byte	.LVL140
 8289 0a1b 0100     		.2byte	0x1
 8290 0a1d 53       		.byte	0x53
 8291 0a1e 10000000 		.4byte	.LVL140
 8292 0a22 46010000 		.4byte	.LFE89
 8293 0a26 0400     		.2byte	0x4
 8294 0a28 F3       		.byte	0xf3
 8295 0a29 01       		.uleb128 0x1
 8296 0a2a 53       		.byte	0x53
 8297 0a2b 9F       		.byte	0x9f
 8298 0a2c 00000000 		.4byte	0
 8299 0a30 00000000 		.4byte	0
 8300              	.LLST65:
 8301 0a34 1A000000 		.4byte	.LVL141
 8302 0a38 6C000000 		.4byte	.LVL149
 8303 0a3c 0200     		.2byte	0x2
ARM GAS  C:\Users\Kiwi\AppData\Local\Temp\ccKDkYuk.s 			page 164


 8304 0a3e 31       		.byte	0x31
 8305 0a3f 9F       		.byte	0x9f
 8306 0a40 6C000000 		.4byte	.LVL149
 8307 0a44 94000000 		.4byte	.LVL154
 8308 0a48 0900     		.2byte	0x9
 8309 0a4a 91       		.byte	0x91
 8310 0a4b 40       		.sleb128 -64
 8311 0a4c 94       		.byte	0x94
 8312 0a4d 02       		.byte	0x2
 8313 0a4e 31       		.byte	0x31
 8314 0a4f 24       		.byte	0x24
 8315 0a50 23       		.byte	0x23
 8316 0a51 01       		.uleb128 0x1
 8317 0a52 9F       		.byte	0x9f
 8318 0a53 94000000 		.4byte	.LVL154
 8319 0a57 3E010000 		.4byte	.LVL164
 8320 0a5b 0900     		.2byte	0x9
 8321 0a5d 91       		.byte	0x91
 8322 0a5e 40       		.sleb128 -64
 8323 0a5f 94       		.byte	0x94
 8324 0a60 02       		.byte	0x2
 8325 0a61 31       		.byte	0x31
 8326 0a62 24       		.byte	0x24
 8327 0a63 23       		.byte	0x23
 8328 0a64 03       		.uleb128 0x3
 8329 0a65 9F       		.byte	0x9f
 8330 0a66 40010000 		.4byte	.LVL165
 8331 0a6a 46010000 		.4byte	.LFE89
 8332 0a6e 0900     		.2byte	0x9
 8333 0a70 91       		.byte	0x91
 8334 0a71 40       		.sleb128 -64
 8335 0a72 94       		.byte	0x94
 8336 0a73 02       		.byte	0x2
 8337 0a74 31       		.byte	0x31
 8338 0a75 24       		.byte	0x24
 8339 0a76 23       		.byte	0x23
 8340 0a77 01       		.uleb128 0x1
 8341 0a78 9F       		.byte	0x9f
 8342 0a79 00000000 		.4byte	0
 8343 0a7d 00000000 		.4byte	0
 8344              	.LLST66:
 8345 0a81 2E000000 		.4byte	.LVL144
 8346 0a85 86000000 		.4byte	.LVL151
 8347 0a89 0200     		.2byte	0x2
 8348 0a8b 91       		.byte	0x91
 8349 0a8c 44       		.sleb128 -60
 8350 0a8d 8A000000 		.4byte	.LVL152
 8351 0a91 46010000 		.4byte	.LFE89
 8352 0a95 0200     		.2byte	0x2
 8353 0a97 91       		.byte	0x91
 8354 0a98 44       		.sleb128 -60
 8355 0a99 00000000 		.4byte	0
 8356 0a9d 00000000 		.4byte	0
 8357              	.LLST67:
 8358 0aa1 2E000000 		.4byte	.LVL144
 8359 0aa5 6C000000 		.4byte	.LVL149
 8360 0aa9 0200     		.2byte	0x2
ARM GAS  C:\Users\Kiwi\AppData\Local\Temp\ccKDkYuk.s 			page 165


 8361 0aab 30       		.byte	0x30
 8362 0aac 9F       		.byte	0x9f
 8363 0aad 6C000000 		.4byte	.LVL149
 8364 0ab1 90000000 		.4byte	.LVL153
 8365 0ab5 0200     		.2byte	0x2
 8366 0ab7 91       		.byte	0x91
 8367 0ab8 40       		.sleb128 -64
 8368 0ab9 90000000 		.4byte	.LVL153
 8369 0abd 3E010000 		.4byte	.LVL164
 8370 0ac1 0700     		.2byte	0x7
 8371 0ac3 91       		.byte	0x91
 8372 0ac4 40       		.sleb128 -64
 8373 0ac5 94       		.byte	0x94
 8374 0ac6 02       		.byte	0x2
 8375 0ac7 23       		.byte	0x23
 8376 0ac8 01       		.uleb128 0x1
 8377 0ac9 9F       		.byte	0x9f
 8378 0aca 40010000 		.4byte	.LVL165
 8379 0ace 46010000 		.4byte	.LFE89
 8380 0ad2 0200     		.2byte	0x2
 8381 0ad4 91       		.byte	0x91
 8382 0ad5 40       		.sleb128 -64
 8383 0ad6 00000000 		.4byte	0
 8384 0ada 00000000 		.4byte	0
 8385              	.LLST68:
 8386 0ade 2E000000 		.4byte	.LVL144
 8387 0ae2 7E000000 		.4byte	.LVL150
 8388 0ae6 0100     		.2byte	0x1
 8389 0ae8 57       		.byte	0x57
 8390 0ae9 8A000000 		.4byte	.LVL152
 8391 0aed 46010000 		.4byte	.LFE89
 8392 0af1 0100     		.2byte	0x1
 8393 0af3 57       		.byte	0x57
 8394 0af4 00000000 		.4byte	0
 8395 0af8 00000000 		.4byte	0
 8396              	.LLST69:
 8397 0afc 00000000 		.4byte	.LVL166
 8398 0b00 1D000000 		.4byte	.LVL167-1
 8399 0b04 0100     		.2byte	0x1
 8400 0b06 50       		.byte	0x50
 8401 0b07 1D000000 		.4byte	.LVL167-1
 8402 0b0b 40000000 		.4byte	.LFE90
 8403 0b0f 0400     		.2byte	0x4
 8404 0b11 F3       		.byte	0xf3
 8405 0b12 01       		.uleb128 0x1
 8406 0b13 50       		.byte	0x50
 8407 0b14 9F       		.byte	0x9f
 8408 0b15 00000000 		.4byte	0
 8409 0b19 00000000 		.4byte	0
 8410              	.LLST70:
 8411 0b1d 00000000 		.4byte	.LVL166
 8412 0b21 1D000000 		.4byte	.LVL167-1
 8413 0b25 0100     		.2byte	0x1
 8414 0b27 51       		.byte	0x51
 8415 0b28 1D000000 		.4byte	.LVL167-1
 8416 0b2c 40000000 		.4byte	.LFE90
 8417 0b30 0400     		.2byte	0x4
ARM GAS  C:\Users\Kiwi\AppData\Local\Temp\ccKDkYuk.s 			page 166


 8418 0b32 F3       		.byte	0xf3
 8419 0b33 01       		.uleb128 0x1
 8420 0b34 51       		.byte	0x51
 8421 0b35 9F       		.byte	0x9f
 8422 0b36 00000000 		.4byte	0
 8423 0b3a 00000000 		.4byte	0
 8424              	.LLST71:
 8425 0b3e 00000000 		.4byte	.LVL166
 8426 0b42 1D000000 		.4byte	.LVL167-1
 8427 0b46 0100     		.2byte	0x1
 8428 0b48 52       		.byte	0x52
 8429 0b49 1D000000 		.4byte	.LVL167-1
 8430 0b4d 40000000 		.4byte	.LFE90
 8431 0b51 0400     		.2byte	0x4
 8432 0b53 F3       		.byte	0xf3
 8433 0b54 01       		.uleb128 0x1
 8434 0b55 52       		.byte	0x52
 8435 0b56 9F       		.byte	0x9f
 8436 0b57 00000000 		.4byte	0
 8437 0b5b 00000000 		.4byte	0
 8438              	.LLST72:
 8439 0b5f 00000000 		.4byte	.LVL166
 8440 0b63 1D000000 		.4byte	.LVL167-1
 8441 0b67 0100     		.2byte	0x1
 8442 0b69 53       		.byte	0x53
 8443 0b6a 1D000000 		.4byte	.LVL167-1
 8444 0b6e 40000000 		.4byte	.LFE90
 8445 0b72 0400     		.2byte	0x4
 8446 0b74 F3       		.byte	0xf3
 8447 0b75 01       		.uleb128 0x1
 8448 0b76 53       		.byte	0x53
 8449 0b77 9F       		.byte	0x9f
 8450 0b78 00000000 		.4byte	0
 8451 0b7c 00000000 		.4byte	0
 8452              	.LLST73:
 8453 0b80 00000000 		.4byte	.LVL166
 8454 0b84 3C000000 		.4byte	.LVL169
 8455 0b88 0200     		.2byte	0x2
 8456 0b8a 91       		.byte	0x91
 8457 0b8b 00       		.sleb128 0
 8458 0b8c 3C000000 		.4byte	.LVL169
 8459 0b90 40000000 		.4byte	.LFE90
 8460 0b94 0200     		.2byte	0x2
 8461 0b96 7D       		.byte	0x7d
 8462 0b97 00       		.sleb128 0
 8463 0b98 00000000 		.4byte	0
 8464 0b9c 00000000 		.4byte	0
 8465              	.LLST74:
 8466 0ba0 00000000 		.4byte	.LVL166
 8467 0ba4 3C000000 		.4byte	.LVL169
 8468 0ba8 0200     		.2byte	0x2
 8469 0baa 91       		.byte	0x91
 8470 0bab 04       		.sleb128 4
 8471 0bac 3C000000 		.4byte	.LVL169
 8472 0bb0 40000000 		.4byte	.LFE90
 8473 0bb4 0200     		.2byte	0x2
 8474 0bb6 7D       		.byte	0x7d
ARM GAS  C:\Users\Kiwi\AppData\Local\Temp\ccKDkYuk.s 			page 167


 8475 0bb7 04       		.sleb128 4
 8476 0bb8 00000000 		.4byte	0
 8477 0bbc 00000000 		.4byte	0
 8478              	.LLST75:
 8479 0bc0 00000000 		.4byte	.LVL166
 8480 0bc4 3C000000 		.4byte	.LVL169
 8481 0bc8 0200     		.2byte	0x2
 8482 0bca 91       		.byte	0x91
 8483 0bcb 08       		.sleb128 8
 8484 0bcc 3C000000 		.4byte	.LVL169
 8485 0bd0 40000000 		.4byte	.LFE90
 8486 0bd4 0200     		.2byte	0x2
 8487 0bd6 7D       		.byte	0x7d
 8488 0bd7 08       		.sleb128 8
 8489 0bd8 00000000 		.4byte	0
 8490 0bdc 00000000 		.4byte	0
 8491              	.LLST76:
 8492 0be0 00000000 		.4byte	.LVL171
 8493 0be4 48000000 		.4byte	.LVL175
 8494 0be8 0100     		.2byte	0x1
 8495 0bea 50       		.byte	0x50
 8496 0beb 48000000 		.4byte	.LVL175
 8497 0bef 04010000 		.4byte	.LFE91
 8498 0bf3 0400     		.2byte	0x4
 8499 0bf5 F3       		.byte	0xf3
 8500 0bf6 01       		.uleb128 0x1
 8501 0bf7 50       		.byte	0x50
 8502 0bf8 9F       		.byte	0x9f
 8503 0bf9 00000000 		.4byte	0
 8504 0bfd 00000000 		.4byte	0
 8505              	.LLST77:
 8506 0c01 00000000 		.4byte	.LVL171
 8507 0c05 18000000 		.4byte	.LVL173
 8508 0c09 0100     		.2byte	0x1
 8509 0c0b 51       		.byte	0x51
 8510 0c0c 18000000 		.4byte	.LVL173
 8511 0c10 04010000 		.4byte	.LFE91
 8512 0c14 0400     		.2byte	0x4
 8513 0c16 F3       		.byte	0xf3
 8514 0c17 01       		.uleb128 0x1
 8515 0c18 51       		.byte	0x51
 8516 0c19 9F       		.byte	0x9f
 8517 0c1a 00000000 		.4byte	0
 8518 0c1e 00000000 		.4byte	0
 8519              	.LLST78:
 8520 0c22 00000000 		.4byte	.LVL171
 8521 0c26 42000000 		.4byte	.LVL174
 8522 0c2a 0100     		.2byte	0x1
 8523 0c2c 52       		.byte	0x52
 8524 0c2d 42000000 		.4byte	.LVL174
 8525 0c31 04010000 		.4byte	.LFE91
 8526 0c35 0400     		.2byte	0x4
 8527 0c37 F3       		.byte	0xf3
 8528 0c38 01       		.uleb128 0x1
 8529 0c39 52       		.byte	0x52
 8530 0c3a 9F       		.byte	0x9f
 8531 0c3b 00000000 		.4byte	0
ARM GAS  C:\Users\Kiwi\AppData\Local\Temp\ccKDkYuk.s 			page 168


 8532 0c3f 00000000 		.4byte	0
 8533              	.LLST79:
 8534 0c43 00000000 		.4byte	.LVL171
 8535 0c47 0C000000 		.4byte	.LVL172
 8536 0c4b 0100     		.2byte	0x1
 8537 0c4d 53       		.byte	0x53
 8538 0c4e 0C000000 		.4byte	.LVL172
 8539 0c52 04010000 		.4byte	.LFE91
 8540 0c56 0400     		.2byte	0x4
 8541 0c58 F3       		.byte	0xf3
 8542 0c59 01       		.uleb128 0x1
 8543 0c5a 53       		.byte	0x53
 8544 0c5b 9F       		.byte	0x9f
 8545 0c5c 00000000 		.4byte	0
 8546 0c60 00000000 		.4byte	0
 8547              	.LLST80:
 8548 0c64 00000000 		.4byte	.LVL171
 8549 0c68 FA000000 		.4byte	.LVL185
 8550 0c6c 0200     		.2byte	0x2
 8551 0c6e 91       		.byte	0x91
 8552 0c6f 00       		.sleb128 0
 8553 0c70 FA000000 		.4byte	.LVL185
 8554 0c74 04010000 		.4byte	.LFE91
 8555 0c78 0200     		.2byte	0x2
 8556 0c7a 7D       		.byte	0x7d
 8557 0c7b 00       		.sleb128 0
 8558 0c7c 00000000 		.4byte	0
 8559 0c80 00000000 		.4byte	0
 8560              	.LLST81:
 8561 0c84 00000000 		.4byte	.LVL171
 8562 0c88 FA000000 		.4byte	.LVL185
 8563 0c8c 0200     		.2byte	0x2
 8564 0c8e 91       		.byte	0x91
 8565 0c8f 04       		.sleb128 4
 8566 0c90 FA000000 		.4byte	.LVL185
 8567 0c94 04010000 		.4byte	.LFE91
 8568 0c98 0200     		.2byte	0x2
 8569 0c9a 7D       		.byte	0x7d
 8570 0c9b 04       		.sleb128 4
 8571 0c9c 00000000 		.4byte	0
 8572 0ca0 00000000 		.4byte	0
 8573              	.LLST82:
 8574 0ca4 48000000 		.4byte	.LVL175
 8575 0ca8 E8000000 		.4byte	.LVL182
 8576 0cac 0100     		.2byte	0x1
 8577 0cae 55       		.byte	0x55
 8578 0caf F0000000 		.4byte	.LVL183
 8579 0cb3 F4000000 		.4byte	.LVL184
 8580 0cb7 0100     		.2byte	0x1
 8581 0cb9 55       		.byte	0x55
 8582 0cba 00000000 		.4byte	0
 8583 0cbe 00000000 		.4byte	0
 8584              	.LLST83:
 8585 0cc2 5E000000 		.4byte	.LVL176
 8586 0cc6 F4000000 		.4byte	.LVL184
 8587 0cca 0100     		.2byte	0x1
 8588 0ccc 59       		.byte	0x59
ARM GAS  C:\Users\Kiwi\AppData\Local\Temp\ccKDkYuk.s 			page 169


 8589 0ccd 00000000 		.4byte	0
 8590 0cd1 00000000 		.4byte	0
 8591              	.LLST84:
 8592 0cd5 7E000000 		.4byte	.LVL177
 8593 0cd9 88000000 		.4byte	.LVL178
 8594 0cdd 0200     		.2byte	0x2
 8595 0cdf 30       		.byte	0x30
 8596 0ce0 9F       		.byte	0x9f
 8597 0ce1 00000000 		.4byte	0
 8598 0ce5 00000000 		.4byte	0
 8599              	.LLST85:
 8600 0ce9 00000000 		.4byte	.LVL186
 8601 0ced 11000000 		.4byte	.LVL187-1
 8602 0cf1 0100     		.2byte	0x1
 8603 0cf3 50       		.byte	0x50
 8604 0cf4 11000000 		.4byte	.LVL187-1
 8605 0cf8 12000000 		.4byte	.LVL187
 8606 0cfc 0400     		.2byte	0x4
 8607 0cfe F3       		.byte	0xf3
 8608 0cff 01       		.uleb128 0x1
 8609 0d00 50       		.byte	0x50
 8610 0d01 9F       		.byte	0x9f
 8611 0d02 12000000 		.4byte	.LVL187
 8612 0d06 2A000000 		.4byte	.LVL188
 8613 0d0a 0100     		.2byte	0x1
 8614 0d0c 50       		.byte	0x50
 8615 0d0d 2A000000 		.4byte	.LVL188
 8616 0d11 6C000000 		.4byte	.LFE92
 8617 0d15 0400     		.2byte	0x4
 8618 0d17 F3       		.byte	0xf3
 8619 0d18 01       		.uleb128 0x1
 8620 0d19 50       		.byte	0x50
 8621 0d1a 9F       		.byte	0x9f
 8622 0d1b 00000000 		.4byte	0
 8623 0d1f 00000000 		.4byte	0
 8624              	.LLST86:
 8625 0d23 00000000 		.4byte	.LVL190
 8626 0d27 07000000 		.4byte	.LVL191-1
 8627 0d2b 0100     		.2byte	0x1
 8628 0d2d 50       		.byte	0x50
 8629 0d2e 07000000 		.4byte	.LVL191-1
 8630 0d32 0A000000 		.4byte	.LVL192
 8631 0d36 0100     		.2byte	0x1
 8632 0d38 54       		.byte	0x54
 8633 0d39 0A000000 		.4byte	.LVL192
 8634 0d3d 1A000000 		.4byte	.LFE93
 8635 0d41 0400     		.2byte	0x4
 8636 0d43 F3       		.byte	0xf3
 8637 0d44 01       		.uleb128 0x1
 8638 0d45 50       		.byte	0x50
 8639 0d46 9F       		.byte	0x9f
 8640 0d47 00000000 		.4byte	0
 8641 0d4b 00000000 		.4byte	0
 8642              	.LLST87:
 8643 0d4f 08000000 		.4byte	.LVL191
 8644 0d53 0A000000 		.4byte	.LVL192
 8645 0d57 0100     		.2byte	0x1
ARM GAS  C:\Users\Kiwi\AppData\Local\Temp\ccKDkYuk.s 			page 170


 8646 0d59 50       		.byte	0x50
 8647 0d5a 00000000 		.4byte	0
 8648 0d5e 00000000 		.4byte	0
 8649              	.LLST88:
 8650 0d62 08000000 		.4byte	.LVL191
 8651 0d66 0A000000 		.4byte	.LVL192
 8652 0d6a 0200     		.2byte	0x2
 8653 0d6c 30       		.byte	0x30
 8654 0d6d 9F       		.byte	0x9f
 8655 0d6e 0A000000 		.4byte	.LVL192
 8656 0d72 12000000 		.4byte	.LVL193
 8657 0d76 0700     		.2byte	0x7
 8658 0d78 74       		.byte	0x74
 8659 0d79 00       		.sleb128 0
 8660 0d7a F3       		.byte	0xf3
 8661 0d7b 01       		.uleb128 0x1
 8662 0d7c 50       		.byte	0x50
 8663 0d7d 1C       		.byte	0x1c
 8664 0d7e 9F       		.byte	0x9f
 8665 0d7f 12000000 		.4byte	.LVL193
 8666 0d83 16000000 		.4byte	.LVL194
 8667 0d87 0800     		.2byte	0x8
 8668 0d89 F3       		.byte	0xf3
 8669 0d8a 01       		.uleb128 0x1
 8670 0d8b 50       		.byte	0x50
 8671 0d8c 20       		.byte	0x20
 8672 0d8d 74       		.byte	0x74
 8673 0d8e 00       		.sleb128 0
 8674 0d8f 22       		.byte	0x22
 8675 0d90 9F       		.byte	0x9f
 8676 0d91 16000000 		.4byte	.LVL194
 8677 0d95 1A000000 		.4byte	.LFE93
 8678 0d99 0700     		.2byte	0x7
 8679 0d9b 74       		.byte	0x74
 8680 0d9c 00       		.sleb128 0
 8681 0d9d F3       		.byte	0xf3
 8682 0d9e 01       		.uleb128 0x1
 8683 0d9f 50       		.byte	0x50
 8684 0da0 1C       		.byte	0x1c
 8685 0da1 9F       		.byte	0x9f
 8686 0da2 00000000 		.4byte	0
 8687 0da6 00000000 		.4byte	0
 8688              	.LLST89:
 8689 0daa 00000000 		.4byte	.LVL195
 8690 0dae 05000000 		.4byte	.LVL196-1
 8691 0db2 0100     		.2byte	0x1
 8692 0db4 50       		.byte	0x50
 8693 0db5 05000000 		.4byte	.LVL196-1
 8694 0db9 0E000000 		.4byte	.LFE94
 8695 0dbd 0400     		.2byte	0x4
 8696 0dbf F3       		.byte	0xf3
 8697 0dc0 01       		.uleb128 0x1
 8698 0dc1 50       		.byte	0x50
 8699 0dc2 9F       		.byte	0x9f
 8700 0dc3 00000000 		.4byte	0
 8701 0dc7 00000000 		.4byte	0
 8702              		.section	.debug_aranges,"",%progbits
ARM GAS  C:\Users\Kiwi\AppData\Local\Temp\ccKDkYuk.s 			page 171


 8703 0000 04010000 		.4byte	0x104
 8704 0004 0200     		.2byte	0x2
 8705 0006 00000000 		.4byte	.Ldebug_info0
 8706 000a 04       		.byte	0x4
 8707 000b 00       		.byte	0
 8708 000c 0000     		.2byte	0
 8709 000e 0000     		.2byte	0
 8710 0010 00000000 		.4byte	.LFB64
 8711 0014 34000000 		.4byte	.LFE64-.LFB64
 8712 0018 00000000 		.4byte	.LFB83
 8713 001c 60000000 		.4byte	.LFE83-.LFB83
 8714 0020 00000000 		.4byte	.LFB98
 8715 0024 18000000 		.4byte	.LFE98-.LFB98
 8716 0028 00000000 		.4byte	.LFB66
 8717 002c 1C000000 		.4byte	.LFE66-.LFB66
 8718 0030 00000000 		.4byte	.LFB67
 8719 0034 20000000 		.4byte	.LFE67-.LFB67
 8720 0038 00000000 		.4byte	.LFB68
 8721 003c 24000000 		.4byte	.LFE68-.LFB68
 8722 0040 00000000 		.4byte	.LFB69
 8723 0044 34000000 		.4byte	.LFE69-.LFB69
 8724 0048 00000000 		.4byte	.LFB71
 8725 004c 1C000000 		.4byte	.LFE71-.LFB71
 8726 0050 00000000 		.4byte	.LFB72
 8727 0054 38000000 		.4byte	.LFE72-.LFB72
 8728 0058 00000000 		.4byte	.LFB73
 8729 005c 40000000 		.4byte	.LFE73-.LFB73
 8730 0060 00000000 		.4byte	.LFB63
 8731 0064 44000000 		.4byte	.LFE63-.LFB63
 8732 0068 00000000 		.4byte	.LFB74
 8733 006c 0C000000 		.4byte	.LFE74-.LFB74
 8734 0070 00000000 		.4byte	.LFB75
 8735 0074 0C000000 		.4byte	.LFE75-.LFB75
 8736 0078 00000000 		.4byte	.LFB76
 8737 007c 0C000000 		.4byte	.LFE76-.LFB76
 8738 0080 00000000 		.4byte	.LFB77
 8739 0084 0C000000 		.4byte	.LFE77-.LFB77
 8740 0088 00000000 		.4byte	.LFB78
 8741 008c 10000000 		.4byte	.LFE78-.LFB78
 8742 0090 00000000 		.4byte	.LFB79
 8743 0094 0C000000 		.4byte	.LFE79-.LFB79
 8744 0098 00000000 		.4byte	.LFB80
 8745 009c 0C000000 		.4byte	.LFE80-.LFB80
 8746 00a0 00000000 		.4byte	.LFB81
 8747 00a4 0C000000 		.4byte	.LFE81-.LFB81
 8748 00a8 00000000 		.4byte	.LFB82
 8749 00ac 38000000 		.4byte	.LFE82-.LFB82
 8750 00b0 00000000 		.4byte	.LFB84
 8751 00b4 A8000000 		.4byte	.LFE84-.LFB84
 8752 00b8 00000000 		.4byte	.LFB86
 8753 00bc F8020000 		.4byte	.LFE86-.LFB86
 8754 00c0 00000000 		.4byte	.LFB87
 8755 00c4 54000000 		.4byte	.LFE87-.LFB87
 8756 00c8 00000000 		.4byte	.LFB88
 8757 00cc 68000000 		.4byte	.LFE88-.LFB88
 8758 00d0 00000000 		.4byte	.LFB89
 8759 00d4 46010000 		.4byte	.LFE89-.LFB89
ARM GAS  C:\Users\Kiwi\AppData\Local\Temp\ccKDkYuk.s 			page 172


 8760 00d8 00000000 		.4byte	.LFB90
 8761 00dc 40000000 		.4byte	.LFE90-.LFB90
 8762 00e0 00000000 		.4byte	.LFB91
 8763 00e4 04010000 		.4byte	.LFE91-.LFB91
 8764 00e8 00000000 		.4byte	.LFB92
 8765 00ec 6C000000 		.4byte	.LFE92-.LFB92
 8766 00f0 00000000 		.4byte	.LFB93
 8767 00f4 1A000000 		.4byte	.LFE93-.LFB93
 8768 00f8 00000000 		.4byte	.LFB94
 8769 00fc 0E000000 		.4byte	.LFE94-.LFB94
 8770 0100 00000000 		.4byte	0
 8771 0104 00000000 		.4byte	0
 8772              		.section	.debug_ranges,"",%progbits
 8773              	.Ldebug_ranges0:
 8774 0000 10000000 		.4byte	.LBB5
 8775 0004 12000000 		.4byte	.LBE5
 8776 0008 14000000 		.4byte	.LBB6
 8777 000c 26000000 		.4byte	.LBE6
 8778 0010 00000000 		.4byte	0
 8779 0014 00000000 		.4byte	0
 8780 0018 36000000 		.4byte	.LBB13
 8781 001c 3C000000 		.4byte	.LBE13
 8782 0020 40000000 		.4byte	.LBB16
 8783 0024 9A000000 		.4byte	.LBE16
 8784 0028 00000000 		.4byte	0
 8785 002c 00000000 		.4byte	0
 8786 0030 1C000000 		.4byte	.LBB26
 8787 0034 28020000 		.4byte	.LBE26
 8788 0038 CA020000 		.4byte	.LBB50
 8789 003c DE020000 		.4byte	.LBE50
 8790 0040 00000000 		.4byte	0
 8791 0044 00000000 		.4byte	0
 8792 0048 0C010000 		.4byte	.LBB29
 8793 004c 16010000 		.4byte	.LBE29
 8794 0050 1A010000 		.4byte	.LBB47
 8795 0054 28020000 		.4byte	.LBE47
 8796 0058 CA020000 		.4byte	.LBB48
 8797 005c DE020000 		.4byte	.LBE48
 8798 0060 00000000 		.4byte	0
 8799 0064 00000000 		.4byte	0
 8800 0068 1A010000 		.4byte	.LBB31
 8801 006c E8010000 		.4byte	.LBE31
 8802 0070 CA020000 		.4byte	.LBB44
 8803 0074 DE020000 		.4byte	.LBE44
 8804 0078 00000000 		.4byte	0
 8805 007c 00000000 		.4byte	0
 8806 0080 2E010000 		.4byte	.LBB32
 8807 0084 7E010000 		.4byte	.LBE32
 8808 0088 80010000 		.4byte	.LBB40
 8809 008c 96010000 		.4byte	.LBE40
 8810 0090 9C010000 		.4byte	.LBB41
 8811 0094 E8010000 		.4byte	.LBE41
 8812 0098 CA020000 		.4byte	.LBB42
 8813 009c DE020000 		.4byte	.LBE42
 8814 00a0 00000000 		.4byte	0
 8815 00a4 00000000 		.4byte	0
 8816 00a8 2E010000 		.4byte	.LBB33
ARM GAS  C:\Users\Kiwi\AppData\Local\Temp\ccKDkYuk.s 			page 173


 8817 00ac 46010000 		.4byte	.LBE33
 8818 00b0 48010000 		.4byte	.LBB34
 8819 00b4 4A010000 		.4byte	.LBE34
 8820 00b8 56010000 		.4byte	.LBB35
 8821 00bc 58010000 		.4byte	.LBE35
 8822 00c0 5E010000 		.4byte	.LBB36
 8823 00c4 60010000 		.4byte	.LBE36
 8824 00c8 64010000 		.4byte	.LBB37
 8825 00cc 70010000 		.4byte	.LBE37
 8826 00d0 80010000 		.4byte	.LBB38
 8827 00d4 8E010000 		.4byte	.LBE38
 8828 00d8 AA010000 		.4byte	.LBB39
 8829 00dc AC010000 		.4byte	.LBE39
 8830 00e0 00000000 		.4byte	0
 8831 00e4 00000000 		.4byte	0
 8832 00e8 00000000 		.4byte	.LFB64
 8833 00ec 34000000 		.4byte	.LFE64
 8834 00f0 00000000 		.4byte	.LFB83
 8835 00f4 60000000 		.4byte	.LFE83
 8836 00f8 00000000 		.4byte	.LFB98
 8837 00fc 18000000 		.4byte	.LFE98
 8838 0100 00000000 		.4byte	.LFB66
 8839 0104 1C000000 		.4byte	.LFE66
 8840 0108 00000000 		.4byte	.LFB67
 8841 010c 20000000 		.4byte	.LFE67
 8842 0110 00000000 		.4byte	.LFB68
 8843 0114 24000000 		.4byte	.LFE68
 8844 0118 00000000 		.4byte	.LFB69
 8845 011c 34000000 		.4byte	.LFE69
 8846 0120 00000000 		.4byte	.LFB71
 8847 0124 1C000000 		.4byte	.LFE71
 8848 0128 00000000 		.4byte	.LFB72
 8849 012c 38000000 		.4byte	.LFE72
 8850 0130 00000000 		.4byte	.LFB73
 8851 0134 40000000 		.4byte	.LFE73
 8852 0138 00000000 		.4byte	.LFB63
 8853 013c 44000000 		.4byte	.LFE63
 8854 0140 00000000 		.4byte	.LFB74
 8855 0144 0C000000 		.4byte	.LFE74
 8856 0148 00000000 		.4byte	.LFB75
 8857 014c 0C000000 		.4byte	.LFE75
 8858 0150 00000000 		.4byte	.LFB76
 8859 0154 0C000000 		.4byte	.LFE76
 8860 0158 00000000 		.4byte	.LFB77
 8861 015c 0C000000 		.4byte	.LFE77
 8862 0160 00000000 		.4byte	.LFB78
 8863 0164 10000000 		.4byte	.LFE78
 8864 0168 00000000 		.4byte	.LFB79
 8865 016c 0C000000 		.4byte	.LFE79
 8866 0170 00000000 		.4byte	.LFB80
 8867 0174 0C000000 		.4byte	.LFE80
 8868 0178 00000000 		.4byte	.LFB81
 8869 017c 0C000000 		.4byte	.LFE81
 8870 0180 00000000 		.4byte	.LFB82
 8871 0184 38000000 		.4byte	.LFE82
 8872 0188 00000000 		.4byte	.LFB84
 8873 018c A8000000 		.4byte	.LFE84
ARM GAS  C:\Users\Kiwi\AppData\Local\Temp\ccKDkYuk.s 			page 174


 8874 0190 00000000 		.4byte	.LFB86
 8875 0194 F8020000 		.4byte	.LFE86
 8876 0198 00000000 		.4byte	.LFB87
 8877 019c 54000000 		.4byte	.LFE87
 8878 01a0 00000000 		.4byte	.LFB88
 8879 01a4 68000000 		.4byte	.LFE88
 8880 01a8 00000000 		.4byte	.LFB89
 8881 01ac 46010000 		.4byte	.LFE89
 8882 01b0 00000000 		.4byte	.LFB90
 8883 01b4 40000000 		.4byte	.LFE90
 8884 01b8 00000000 		.4byte	.LFB91
 8885 01bc 04010000 		.4byte	.LFE91
 8886 01c0 00000000 		.4byte	.LFB92
 8887 01c4 6C000000 		.4byte	.LFE92
 8888 01c8 00000000 		.4byte	.LFB93
 8889 01cc 1A000000 		.4byte	.LFE93
 8890 01d0 00000000 		.4byte	.LFB94
 8891 01d4 0E000000 		.4byte	.LFE94
 8892 01d8 00000000 		.4byte	0
 8893 01dc 00000000 		.4byte	0
 8894              		.section	.debug_line,"",%progbits
 8895              	.Ldebug_line0:
 8896 0000 E2050000 		.section	.debug_str,"MS",%progbits,1
 8896      0200E701 
 8896      00000201 
 8896      FB0E0D00 
 8896      01010101 
 8897              	.LASF81:
 8898 0000 6766785F 		.ascii	"gfx_drawPixel\000"
 8898      64726177 
 8898      50697865 
 8898      6C00
 8899              	.LASF123:
 8900 000e 433A5C55 		.ascii	"C:\\Users\\Kiwi\\Documents\\PSoC Creator\\DTR-1 v2 "
 8900      73657273 
 8900      5C4B6977 
 8900      695C446F 
 8900      63756D65 
 8901 003c 48572E63 		.ascii	"HW.cydsn\000"
 8901      7964736E 
 8901      00
 8902              	.LASF120:
 8903 0045 7374726C 		.ascii	"strlen\000"
 8903      656E00
 8904              	.LASF83:
 8905 004c 64697370 		.ascii	"display_line\000"
 8905      6C61795F 
 8905      6C696E65 
 8905      00
 8906              	.LASF72:
 8907 0059 6766785F 		.ascii	"gfx_rotation\000"
 8907      726F7461 
 8907      74696F6E 
 8907      00
 8908              	.LASF13:
 8909 0066 756E7369 		.ascii	"unsigned int\000"
 8909      676E6564 
ARM GAS  C:\Users\Kiwi\AppData\Local\Temp\ccKDkYuk.s 			page 175


 8909      20696E74 
 8909      00
 8910              	.LASF118:
 8911 0073 4932434F 		.ascii	"I2COLED_MasterSendStart\000"
 8911      4C45445F 
 8911      4D617374 
 8911      65725365 
 8911      6E645374 
 8912              	.LASF8:
 8913 008b 5F5F696E 		.ascii	"__int32_t\000"
 8913      7433325F 
 8913      7400
 8914              	.LASF69:
 8915 0095 69326361 		.ascii	"i2caddr\000"
 8915      64647200 
 8916              	.LASF78:
 8917 009d 6766785F 		.ascii	"gfx_setRotation\000"
 8917      73657452 
 8917      6F746174 
 8917      696F6E00 
 8918              	.LASF82:
 8919 00ad 6766785F 		.ascii	"gfx_hvLine\000"
 8919      68764C69 
 8919      6E6500
 8920              	.LASF28:
 8921 00b8 5343524F 		.ascii	"SCROLL_DIR\000"
 8921      4C4C5F44 
 8921      495200
 8922              	.LASF115:
 8923 00c3 726F7461 		.ascii	"rotation\000"
 8923      74696F6E 
 8923      00
 8924              	.LASF64:
 8925 00cc 73706565 		.ascii	"speed\000"
 8925      6400
 8926              	.LASF68:
 8927 00d2 64697370 		.ascii	"display_init\000"
 8927      6C61795F 
 8927      696E6974 
 8927      00
 8928              	.LASF29:
 8929 00df 5343524F 		.ascii	"SCROLL_SPEED_0\000"
 8929      4C4C5F53 
 8929      50454544 
 8929      5F3000
 8930              	.LASF30:
 8931 00ee 5343524F 		.ascii	"SCROLL_SPEED_1\000"
 8931      4C4C5F53 
 8931      50454544 
 8931      5F3100
 8932              	.LASF31:
 8933 00fd 5343524F 		.ascii	"SCROLL_SPEED_2\000"
 8933      4C4C5F53 
 8933      50454544 
 8933      5F3200
 8934              	.LASF32:
 8935 010c 5343524F 		.ascii	"SCROLL_SPEED_3\000"
ARM GAS  C:\Users\Kiwi\AppData\Local\Temp\ccKDkYuk.s 			page 176


 8935      4C4C5F53 
 8935      50454544 
 8935      5F3300
 8936              	.LASF33:
 8937 011b 5343524F 		.ascii	"SCROLL_SPEED_4\000"
 8937      4C4C5F53 
 8937      50454544 
 8937      5F3400
 8938              	.LASF34:
 8939 012a 5343524F 		.ascii	"SCROLL_SPEED_5\000"
 8939      4C4C5F53 
 8939      50454544 
 8939      5F3500
 8940              	.LASF35:
 8941 0139 5343524F 		.ascii	"SCROLL_SPEED_6\000"
 8941      4C4C5F53 
 8941      50454544 
 8941      5F3600
 8942              	.LASF36:
 8943 0148 5343524F 		.ascii	"SCROLL_SPEED_7\000"
 8943      4C4C5F53 
 8943      50454544 
 8943      5F3700
 8944              	.LASF114:
 8945 0157 48454947 		.ascii	"HEIGHT\000"
 8945      485400
 8946              	.LASF14:
 8947 015e 696E7438 		.ascii	"int8_t\000"
 8947      5F7400
 8948              	.LASF21:
 8949 0165 666C6F61 		.ascii	"float\000"
 8949      7400
 8950              	.LASF84:
 8951 016b 70737461 		.ascii	"pstart\000"
 8951      727400
 8952              	.LASF107:
 8953 0172 63757273 		.ascii	"cursor_x\000"
 8953      6F725F78 
 8953      00
 8954              	.LASF108:
 8955 017b 63757273 		.ascii	"cursor_y\000"
 8955      6F725F79 
 8955      00
 8956              	.LASF97:
 8957 0184 6766785F 		.ascii	"gfx_drawTriangle\000"
 8957      64726177 
 8957      54726961 
 8957      6E676C65 
 8957      00
 8958              	.LASF111:
 8959 0195 74657874 		.ascii	"textsize\000"
 8959      73697A65 
 8959      00
 8960              	.LASF16:
 8961 019e 696E7431 		.ascii	"int16_t\000"
 8961      365F7400 
 8962              	.LASF12:
ARM GAS  C:\Users\Kiwi\AppData\Local\Temp\ccKDkYuk.s 			page 177


 8963 01a6 6C6F6E67 		.ascii	"long long unsigned int\000"
 8963      206C6F6E 
 8963      6720756E 
 8963      7369676E 
 8963      65642069 
 8964              	.LASF6:
 8965 01bd 5F5F7569 		.ascii	"__uint16_t\000"
 8965      6E743136 
 8965      5F7400
 8966              	.LASF49:
 8967 01c8 6766785F 		.ascii	"gfx_drawChar\000"
 8967      64726177 
 8967      43686172 
 8967      00
 8968              	.LASF79:
 8969 01d5 6766785F 		.ascii	"gfx_rotation_adjust\000"
 8969      726F7461 
 8969      74696F6E 
 8969      5F61646A 
 8969      75737400 
 8970              	.LASF113:
 8971 01e9 57494454 		.ascii	"WIDTH\000"
 8971      4800
 8972              	.LASF94:
 8973 01ef 6766785F 		.ascii	"gfx_drawCircle\000"
 8973      64726177 
 8973      43697263 
 8973      6C6500
 8974              	.LASF66:
 8975 01fe 77696474 		.ascii	"width\000"
 8975      6800
 8976              	.LASF80:
 8977 0204 64697370 		.ascii	"display_setPixel\000"
 8977      6C61795F 
 8977      73657450 
 8977      6978656C 
 8977      00
 8978              	.LASF38:
 8979 0215 5343524F 		.ascii	"SCROLL_PAGE_0\000"
 8979      4C4C5F50 
 8979      4147455F 
 8979      3000
 8980              	.LASF39:
 8981 0223 5343524F 		.ascii	"SCROLL_PAGE_1\000"
 8981      4C4C5F50 
 8981      4147455F 
 8981      3100
 8982              	.LASF40:
 8983 0231 5343524F 		.ascii	"SCROLL_PAGE_2\000"
 8983      4C4C5F50 
 8983      4147455F 
 8983      3200
 8984              	.LASF41:
 8985 023f 5343524F 		.ascii	"SCROLL_PAGE_3\000"
 8985      4C4C5F50 
 8985      4147455F 
 8985      3300
ARM GAS  C:\Users\Kiwi\AppData\Local\Temp\ccKDkYuk.s 			page 178


 8986              	.LASF42:
 8987 024d 5343524F 		.ascii	"SCROLL_PAGE_4\000"
 8987      4C4C5F50 
 8987      4147455F 
 8987      3400
 8988              	.LASF43:
 8989 025b 5343524F 		.ascii	"SCROLL_PAGE_5\000"
 8989      4C4C5F50 
 8989      4147455F 
 8989      3500
 8990              	.LASF44:
 8991 0269 5343524F 		.ascii	"SCROLL_PAGE_6\000"
 8991      4C4C5F50 
 8991      4147455F 
 8991      3600
 8992              	.LASF45:
 8993 0277 5343524F 		.ascii	"SCROLL_PAGE_7\000"
 8993      4C4C5F50 
 8993      4147455F 
 8993      3700
 8994              	.LASF102:
 8995 0285 53534431 		.ascii	"SSD1306_buffer\000"
 8995      3330365F 
 8995      62756666 
 8995      657200
 8996              	.LASF117:
 8997 0294 4932434F 		.ascii	"I2COLED_MasterWriteByte\000"
 8997      4C45445F 
 8997      4D617374 
 8997      65725772 
 8997      69746542 
 8998              	.LASF90:
 8999 02ac 6766785F 		.ascii	"gfx_drawLine\000"
 8999      64726177 
 8999      4C696E65 
 8999      00
 9000              	.LASF60:
 9001 02b9 64697370 		.ascii	"display_update\000"
 9001      6C61795F 
 9001      75706461 
 9001      746500
 9002              	.LASF23:
 9003 02c8 63686172 		.ascii	"char\000"
 9003      00
 9004              	.LASF59:
 9005 02cd 696E7665 		.ascii	"invert\000"
 9005      727400
 9006              	.LASF15:
 9007 02d4 75696E74 		.ascii	"uint8_t\000"
 9007      385F7400 
 9008              	.LASF53:
 9009 02dc 73746174 		.ascii	"status\000"
 9009      757300
 9010              	.LASF93:
 9011 02e3 6766785F 		.ascii	"gfx_drawRect\000"
 9011      64726177 
 9011      52656374 
ARM GAS  C:\Users\Kiwi\AppData\Local\Temp\ccKDkYuk.s 			page 179


 9011      00
 9012              	.LASF65:
 9013 02f0 6766785F 		.ascii	"gfx_init\000"
 9013      696E6974 
 9013      00
 9014              	.LASF105:
 9015 02f9 5F776964 		.ascii	"_width\000"
 9015      746800
 9016              	.LASF91:
 9017 0300 73746565 		.ascii	"steep\000"
 9017      7000
 9018              	.LASF11:
 9019 0306 6C6F6E67 		.ascii	"long long int\000"
 9019      206C6F6E 
 9019      6720696E 
 9019      7400
 9020              	.LASF56:
 9021 0314 636F6E74 		.ascii	"contrast\000"
 9021      72617374 
 9021      00
 9022              	.LASF37:
 9023 031d 5343524F 		.ascii	"SCROLL_SPEED\000"
 9023      4C4C5F53 
 9023      50454544 
 9023      00
 9024              	.LASF46:
 9025 032a 5343524F 		.ascii	"SCROLL_AREA\000"
 9025      4C4C5F41 
 9025      52454100 
 9026              	.LASF70:
 9027 0336 6766785F 		.ascii	"gfx_width\000"
 9027      77696474 
 9027      6800
 9028              	.LASF4:
 9029 0340 5F5F696E 		.ascii	"__int16_t\000"
 9029      7431365F 
 9029      7400
 9030              	.LASF106:
 9031 034a 5F686569 		.ascii	"_height\000"
 9031      67687400 
 9032              	.LASF125:
 9033 0352 6D656D73 		.ascii	"memset\000"
 9033      657400
 9034              	.LASF50:
 9035 0359 73697A65 		.ascii	"size\000"
 9035      00
 9036              	.LASF104:
 9037 035e 5F646973 		.ascii	"_displaybuf_size\000"
 9037      706C6179 
 9037      6275665F 
 9037      73697A65 
 9037      00
 9038              	.LASF20:
 9039 036f 75696E74 		.ascii	"uint32\000"
 9039      333200
 9040              	.LASF124:
 9041 0376 64697370 		.ascii	"display_write_buf\000"
ARM GAS  C:\Users\Kiwi\AppData\Local\Temp\ccKDkYuk.s 			page 180


 9041      6C61795F 
 9041      77726974 
 9041      655F6275 
 9041      6600
 9042              	.LASF86:
 9043 0388 6D61736B 		.ascii	"mask\000"
 9043      00
 9044              	.LASF101:
 9045 038d 5F693263 		.ascii	"_i2caddr\000"
 9045      61646472 
 9045      00
 9046              	.LASF67:
 9047 0396 68656967 		.ascii	"height\000"
 9047      687400
 9048              	.LASF75:
 9049 039d 6766785F 		.ascii	"gfx_setTextColor\000"
 9049      73657454 
 9049      65787443 
 9049      6F6C6F72 
 9049      00
 9050              	.LASF0:
 9051 03ae 5F5F696E 		.ascii	"__int8_t\000"
 9051      74385F74 
 9051      00
 9052              	.LASF24:
 9053 03b7 6C6F6E67 		.ascii	"long double\000"
 9053      20646F75 
 9053      626C6500 
 9054              	.LASF71:
 9055 03c3 6766785F 		.ascii	"gfx_height\000"
 9055      68656967 
 9055      687400
 9056              	.LASF17:
 9057 03ce 75696E74 		.ascii	"uint16_t\000"
 9057      31365F74 
 9057      00
 9058              	.LASF122:
 9059 03d7 73736431 		.ascii	"ssd1306.c\000"
 9059      3330362E 
 9059      6300
 9060              	.LASF76:
 9061 03e1 6766785F 		.ascii	"gfx_setTextBg\000"
 9061      73657454 
 9061      65787442 
 9061      6700
 9062              	.LASF48:
 9063 03ef 6766785F 		.ascii	"gfx_fillRect\000"
 9063      66696C6C 
 9063      52656374 
 9063      00
 9064              	.LASF5:
 9065 03fc 73686F72 		.ascii	"short int\000"
 9065      7420696E 
 9065      7400
 9066              	.LASF89:
 9067 0406 7069786D 		.ascii	"pixmask\000"
 9067      61736B00 
ARM GAS  C:\Users\Kiwi\AppData\Local\Temp\ccKDkYuk.s 			page 181


 9068              	.LASF9:
 9069 040e 6C6F6E67 		.ascii	"long int\000"
 9069      20696E74 
 9069      00
 9070              	.LASF99:
 9071 0417 6766785F 		.ascii	"gfx_println\000"
 9071      7072696E 
 9071      746C6E00 
 9072              	.LASF112:
 9073 0423 49544D5F 		.ascii	"ITM_RxBuffer\000"
 9073      52784275 
 9073      66666572 
 9073      00
 9074              	.LASF52:
 9075 0430 6766785F 		.ascii	"gfx_write\000"
 9075      77726974 
 9075      6500
 9076              	.LASF58:
 9077 043a 64697370 		.ascii	"display_invert\000"
 9077      6C61795F 
 9077      696E7665 
 9077      727400
 9078              	.LASF47:
 9079 0449 636F6C6F 		.ascii	"color\000"
 9079      7200
 9080              	.LASF119:
 9081 044f 4932434F 		.ascii	"I2COLED_MasterSendStop\000"
 9081      4C45445F 
 9081      4D617374 
 9081      65725365 
 9081      6E645374 
 9082              	.LASF74:
 9083 0466 6766785F 		.ascii	"gfx_setTextSize\000"
 9083      73657454 
 9083      65787453 
 9083      697A6500 
 9084              	.LASF1:
 9085 0476 5F5F7569 		.ascii	"__uint8_t\000"
 9085      6E74385F 
 9085      7400
 9086              	.LASF87:
 9087 0480 6C626974 		.ascii	"lbit\000"
 9087      00
 9088              	.LASF63:
 9089 0485 73746172 		.ascii	"start\000"
 9089      7400
 9090              	.LASF98:
 9091 048b 6766785F 		.ascii	"gfx_print\000"
 9091      7072696E 
 9091      7400
 9092              	.LASF92:
 9093 0495 79737465 		.ascii	"ystep\000"
 9093      7000
 9094              	.LASF100:
 9095 049b 666F6E74 		.ascii	"font\000"
 9095      00
 9096              	.LASF25:
ARM GAS  C:\Users\Kiwi\AppData\Local\Temp\ccKDkYuk.s 			page 182


 9097 04a0 73697A65 		.ascii	"sizetype\000"
 9097      74797065 
 9097      00
 9098              	.LASF57:
 9099 04a9 636D6462 		.ascii	"cmdbuf\000"
 9099      756600
 9100              	.LASF10:
 9101 04b0 6C6F6E67 		.ascii	"long unsigned int\000"
 9101      20756E73 
 9101      69676E65 
 9101      6420696E 
 9101      7400
 9102              	.LASF27:
 9103 04c2 5343524F 		.ascii	"SCROLL_LEFT\000"
 9103      4C4C5F4C 
 9103      45465400 
 9104              	.LASF54:
 9105 04ce 64697370 		.ascii	"display_clear\000"
 9105      6C61795F 
 9105      636C6561 
 9105      7200
 9106              	.LASF18:
 9107 04dc 696E7433 		.ascii	"int32_t\000"
 9107      325F7400 
 9108              	.LASF116:
 9109 04e4 77726170 		.ascii	"wrap\000"
 9109      00
 9110              	.LASF85:
 9111 04e9 70656E64 		.ascii	"pend\000"
 9111      00
 9112              	.LASF26:
 9113 04ee 5343524F 		.ascii	"SCROLL_RIGHT\000"
 9113      4C4C5F52 
 9113      49474854 
 9113      00
 9114              	.LASF3:
 9115 04fb 756E7369 		.ascii	"unsigned char\000"
 9115      676E6564 
 9115      20636861 
 9115      7200
 9116              	.LASF88:
 9117 0509 75626974 		.ascii	"ubit\000"
 9117      00
 9118              	.LASF51:
 9119 050e 6C696E65 		.ascii	"line\000"
 9119      00
 9120              	.LASF121:
 9121 0513 474E5520 		.ascii	"GNU C11 5.4.1 20160609 (release) [ARM/embedded-5-br"
 9121      43313120 
 9121      352E342E 
 9121      31203230 
 9121      31363036 
 9122 0546 616E6368 		.ascii	"anch revision 237715] -mcpu=cortex-m3 -mthumb -g -O"
 9122      20726576 
 9122      6973696F 
 9122      6E203233 
 9122      37373135 
ARM GAS  C:\Users\Kiwi\AppData\Local\Temp\ccKDkYuk.s 			page 183


 9123 0579 73202D66 		.ascii	"s -ffunction-sections -ffat-lto-objects\000"
 9123      66756E63 
 9123      74696F6E 
 9123      2D736563 
 9123      74696F6E 
 9124              	.LASF62:
 9125 05a1 64697370 		.ascii	"display_scroll\000"
 9125      6C61795F 
 9125      7363726F 
 9125      6C6C00
 9126              	.LASF103:
 9127 05b0 5F646973 		.ascii	"_displaybuf\000"
 9127      706C6179 
 9127      62756600 
 9128              	.LASF55:
 9129 05bc 64697370 		.ascii	"display_contrast\000"
 9129      6C61795F 
 9129      636F6E74 
 9129      72617374 
 9129      00
 9130              	.LASF95:
 9131 05cd 6464465F 		.ascii	"ddF_x\000"
 9131      7800
 9132              	.LASF96:
 9133 05d3 6464465F 		.ascii	"ddF_y\000"
 9133      7900
 9134              	.LASF2:
 9135 05d9 7369676E 		.ascii	"signed char\000"
 9135      65642063 
 9135      68617200 
 9136              	.LASF7:
 9137 05e5 73686F72 		.ascii	"short unsigned int\000"
 9137      7420756E 
 9137      7369676E 
 9137      65642069 
 9137      6E7400
 9138              	.LASF61:
 9139 05f8 64697370 		.ascii	"display_stopscroll\000"
 9139      6C61795F 
 9139      73746F70 
 9139      7363726F 
 9139      6C6C00
 9140              	.LASF19:
 9141 060b 75696E74 		.ascii	"uint8\000"
 9141      3800
 9142              	.LASF22:
 9143 0611 646F7562 		.ascii	"double\000"
 9143      6C6500
 9144              	.LASF109:
 9145 0618 74657874 		.ascii	"textcolor\000"
 9145      636F6C6F 
 9145      7200
 9146              	.LASF110:
 9147 0622 74657874 		.ascii	"textbgcolor\000"
 9147      6267636F 
 9147      6C6F7200 
 9148              	.LASF73:
ARM GAS  C:\Users\Kiwi\AppData\Local\Temp\ccKDkYuk.s 			page 184


 9149 062e 6766785F 		.ascii	"gfx_setCursor\000"
 9149      73657443 
 9149      7572736F 
 9149      7200
 9150              	.LASF77:
 9151 063c 6766785F 		.ascii	"gfx_setTextWrap\000"
 9151      73657454 
 9151      65787457 
 9151      72617000 
 9152              		.ident	"GCC: (GNU Tools for ARM Embedded Processors) 5.4.1 20160609 (release) [ARM/embedded-5-bran
