ARM GAS  C:\Users\Kiwi\AppData\Local\Temp\ccKDkYuk.s 			page 1


   1              		.syntax unified
   2              		.cpu cortex-m3
   3              		.fpu softvfp
   4              		.eabi_attribute 20, 1
   5              		.eabi_attribute 21, 1
   6              		.eabi_attribute 23, 3
   7              		.eabi_attribute 24, 1
   8              		.eabi_attribute 25, 1
   9              		.eabi_attribute 26, 1
  10              		.eabi_attribute 30, 4
  11              		.eabi_attribute 34, 1
  12              		.eabi_attribute 18, 4
  13              		.thumb
  14              		.syntax unified
  15              		.file	"ssd1306.c"
  16              		.text
  17              	.Ltext0:
  18              		.cfi_sections	.debug_frame
  19              		.section	.text.display_write_buf,"ax",%progbits
  20              		.align	1
  21              		.thumb
  22              		.thumb_func
  23              		.type	display_write_buf, %function
  24              	display_write_buf:
  25              	.LFB64:
  26              		.file 1 "ssd1306.c"
   1:ssd1306.c     **** /*
   2:ssd1306.c     **** 
   3:ssd1306.c     **** SSD1306 OLED - I2C driver
   4:ssd1306.c     **** 
   5:ssd1306.c     **** Derk Steggewentz, 3/2015 
   6:ssd1306.c     **** 
   7:ssd1306.c     **** This is a I2C driver for SSD1306 OLED displays including graphics library.
   8:ssd1306.c     **** 
   9:ssd1306.c     **** 
  10:ssd1306.c     **** The graphics library part (gfx_ functions) is based on the Adafruit graphics library.
  11:ssd1306.c     **** 
  12:ssd1306.c     **** 
  13:ssd1306.c     **** No license restrictions on my part, do whatever you want as long as you follow the inherited
  14:ssd1306.c     **** license requirements (applying to the Adafruit graphics library part).
  15:ssd1306.c     **** 
  16:ssd1306.c     **** 
  17:ssd1306.c     **** ===== derived license (for graphics library) ======
  18:ssd1306.c     **** 
  19:ssd1306.c     **** Copyright (c) 2013 Adafruit Industries. All rights reserved.
  20:ssd1306.c     **** 
  21:ssd1306.c     **** Redistribution and use in source and binary forms, with or without
  22:ssd1306.c     **** modification, are permitted provided that the following conditions are met:
  23:ssd1306.c     **** - Redistributions of source code must retain the above copyright notice,
  24:ssd1306.c     **** this list of conditions and the following disclaimer.
  25:ssd1306.c     **** - Redistributions in binary form must reproduce the above copyright notice,
  26:ssd1306.c     **** this list of conditions and the following disclaimer in the documentation
  27:ssd1306.c     **** and/or other materials provided with the distribution.
  28:ssd1306.c     **** THIS SOFTWARE IS PROVIDED BY THE COPYRIGHT HOLDERS AND CONTRIBUTORS "AS IS"
  29:ssd1306.c     **** AND ANY EXPRESS OR IMPLIED WARRANTIES, INCLUDING, BUT NOT LIMITED TO, THE
  30:ssd1306.c     **** IMPLIED WARRANTIES OF MERCHANTABILITY AND FITNESS FOR A PARTICULAR PURPOSE
  31:ssd1306.c     **** ARE DISCLAIMED. IN NO EVENT SHALL THE COPYRIGHT HOLDER OR CONTRIBUTORS BE
ARM GAS  C:\Users\Kiwi\AppData\Local\Temp\ccKDkYuk.s 			page 2


  32:ssd1306.c     **** LIABLE FOR ANY DIRECT, INDIRECT, INCIDENTAL, SPECIAL, EXEMPLARY, OR
  33:ssd1306.c     **** CONSEQUENTIAL DAMAGES (INCLUDING, BUT NOT LIMITED TO, PROCUREMENT OF
  34:ssd1306.c     **** SUBSTITUTE GOODS OR SERVICES; LOSS OF USE, DATA, OR PROFITS; OR BUSINESS
  35:ssd1306.c     **** INTERRUPTION) HOWEVER CAUSED AND ON ANY THEORY OF LIABILITY, WHETHER IN
  36:ssd1306.c     **** CONTRACT, STRICT LIABILITY, OR TORT (INCLUDING NEGLIGENCE OR OTHERWISE)
  37:ssd1306.c     **** ARISING IN ANY WAY OUT OF THE USE OF THIS SOFTWARE, EVEN IF ADVISED OF THE
  38:ssd1306.c     **** POSSIBILITY OF SUCH DAMAGE.
  39:ssd1306.c     **** 
  40:ssd1306.c     **** */
  41:ssd1306.c     **** 
  42:ssd1306.c     **** 
  43:ssd1306.c     **** #include <project.h>
  44:ssd1306.c     **** #include <stdlib.h>
  45:ssd1306.c     **** 
  46:ssd1306.c     **** #include "font.h"
  47:ssd1306.c     **** #include "ssd1306.h"
  48:ssd1306.c     **** 
  49:ssd1306.c     **** 
  50:ssd1306.c     **** #define DISPLAYWIDTH 128
  51:ssd1306.c     **** #define DISPLAYHEIGHT 64
  52:ssd1306.c     ****     
  53:ssd1306.c     **** #define SSD1306_SETCONTRAST 0x81
  54:ssd1306.c     **** #define SSD1306_DISPLAYALLON_RESUME 0xA4
  55:ssd1306.c     **** #define SSD1306_DISPLAYALLON 0xA5
  56:ssd1306.c     **** #define SSD1306_NORMALDISPLAY 0xA6
  57:ssd1306.c     **** #define SSD1306_INVERTDISPLAY 0xA7
  58:ssd1306.c     **** #define SSD1306_DISPLAYOFF 0xAE
  59:ssd1306.c     **** #define SSD1306_DISPLAYON 0xAF
  60:ssd1306.c     **** #define SSD1306_SETDISPLAYOFFSET 0xD3
  61:ssd1306.c     **** #define SSD1306_SETCOMPINS 0xDA
  62:ssd1306.c     **** #define SSD1306_SETVCOMDETECT 0xDB
  63:ssd1306.c     **** #define SSD1306_SETDISPLAYCLOCKDIV 0xD5
  64:ssd1306.c     **** #define SSD1306_SETPRECHARGE 0xD9
  65:ssd1306.c     **** #define SSD1306_SETMULTIPLEX 0xA8
  66:ssd1306.c     **** #define SSD1306_SETLOWCOLUMN 0x00
  67:ssd1306.c     **** #define SSD1306_SETHIGHCOLUMN 0x10
  68:ssd1306.c     **** #define SSD1306_SETSTARTLINE 0x40
  69:ssd1306.c     **** #define SSD1306_MEMORYMODE 0x20
  70:ssd1306.c     **** #define SSD1306_COLUMNADDR 0x21
  71:ssd1306.c     **** #define SSD1306_PAGEADDR 0x22
  72:ssd1306.c     **** #define SSD1306_COMSCANINC 0xC0
  73:ssd1306.c     **** #define SSD1306_COMSCANDEC 0xC8
  74:ssd1306.c     **** #define SSD1306_SEGREMAP 0xA0
  75:ssd1306.c     **** #define SSD1306_CHARGEPUMP 0x8D
  76:ssd1306.c     **** #define SSD1306_EXTERNALVCC 0x1
  77:ssd1306.c     **** #define SSD1306_SWITCHCAPVCC 0x2
  78:ssd1306.c     **** #define SSD1306_ACTIVATE_SCROLL 0x2F
  79:ssd1306.c     **** #define SSD1306_DEACTIVATE_SCROLL 0x2E
  80:ssd1306.c     **** 
  81:ssd1306.c     **** 
  82:ssd1306.c     **** // I2C result status
  83:ssd1306.c     **** #define TRANSFER_CMPLT    (0x00u)
  84:ssd1306.c     **** #define TRANSFER_ERROR    (0xFFu)
  85:ssd1306.c     **** 
  86:ssd1306.c     **** 
  87:ssd1306.c     **** static uint32 display_write_buf( uint8* buf, uint16_t size );
  88:ssd1306.c     **** 
ARM GAS  C:\Users\Kiwi\AppData\Local\Temp\ccKDkYuk.s 			page 3


  89:ssd1306.c     **** void gfx_init( int16_t width, int16_t height );
  90:ssd1306.c     **** 
  91:ssd1306.c     **** static uint8 _i2caddr;
  92:ssd1306.c     **** 
  93:ssd1306.c     **** // display memory buffer ( === MUST INCLUDE === the preceding I2C 0x40 control byte for the display
  94:ssd1306.c     **** static uint8_t SSD1306_buffer[DISPLAYHEIGHT * DISPLAYWIDTH / 8 + 1] = { 0x40 };
  95:ssd1306.c     **** // pointer to actual display memory buffer
  96:ssd1306.c     **** static uint8_t* _displaybuf = SSD1306_buffer+1;
  97:ssd1306.c     **** static uint16_t _displaybuf_size = sizeof(SSD1306_buffer) - 1;
  98:ssd1306.c     **** 
  99:ssd1306.c     **** // see data sheet page 25 for Graphic Display Data RAM organization
 100:ssd1306.c     **** // 8 pages, each page a row of DISPLAYWIDTH bytes
 101:ssd1306.c     **** // start address of of row: y/8*DISPLAYWIDTH
 102:ssd1306.c     **** // x pos in row: == x 
 103:ssd1306.c     **** #define GDDRAM_ADDRESS(X,Y) ((_displaybuf)+((Y)/8)*(DISPLAYWIDTH)+(X))
 104:ssd1306.c     **** 
 105:ssd1306.c     **** // lower 3 bit of y determine vertical pixel position (pos 0...7) in GDDRAM byte
 106:ssd1306.c     **** // (y&0x07) == position of pixel on row (page). LSB is top, MSB bottom
 107:ssd1306.c     **** #define GDDRAM_PIXMASK(Y) (1 << ((Y)&0x07))
 108:ssd1306.c     **** 
 109:ssd1306.c     **** #define PIXEL_ON(X,Y) (*GDDRAM_ADDRESS(x,y) |= GDDRAM_PIXMASK(y))
 110:ssd1306.c     **** #define PIXEL_OFF(X,Y) (*GDDRAM_ADDRESS(x,y) &= ~GDDRAM_PIXMASK(y))
 111:ssd1306.c     **** #define PIXEL_TOGGLE(X,Y) (*GDDRAM_ADDRESS(x,y) ^= GDDRAM_PIXMASK(y)) 
 112:ssd1306.c     **** 
 113:ssd1306.c     **** 
 114:ssd1306.c     **** 
 115:ssd1306.c     **** // call before first use of other functions
 116:ssd1306.c     **** void display_init( uint8 i2caddr ){
 117:ssd1306.c     ****     
 118:ssd1306.c     ****     _i2caddr = i2caddr;
 119:ssd1306.c     ****     gfx_init( DISPLAYWIDTH, DISPLAYHEIGHT );
 120:ssd1306.c     ****     
 121:ssd1306.c     ****     uint8 cmdbuf[] = {
 122:ssd1306.c     ****         0x00,
 123:ssd1306.c     ****         SSD1306_DISPLAYOFF,
 124:ssd1306.c     ****         SSD1306_SETDISPLAYCLOCKDIV,
 125:ssd1306.c     ****         0x80,
 126:ssd1306.c     ****         SSD1306_SETMULTIPLEX,
 127:ssd1306.c     ****         0x3f,
 128:ssd1306.c     ****         SSD1306_SETDISPLAYOFFSET,
 129:ssd1306.c     ****         0x00,
 130:ssd1306.c     ****         SSD1306_SETSTARTLINE | 0x0,
 131:ssd1306.c     ****         SSD1306_CHARGEPUMP,
 132:ssd1306.c     ****         0x14,
 133:ssd1306.c     ****         SSD1306_MEMORYMODE,
 134:ssd1306.c     ****         0x00,
 135:ssd1306.c     ****         SSD1306_SEGREMAP | 0x1,
 136:ssd1306.c     ****         SSD1306_COMSCANDEC,
 137:ssd1306.c     ****         SSD1306_SETCOMPINS,
 138:ssd1306.c     ****         0x12,
 139:ssd1306.c     ****         SSD1306_SETCONTRAST,
 140:ssd1306.c     ****         0xcf,
 141:ssd1306.c     ****         SSD1306_SETPRECHARGE,
 142:ssd1306.c     ****         0xf1,
 143:ssd1306.c     ****         SSD1306_SETVCOMDETECT,
 144:ssd1306.c     ****         0x40,
 145:ssd1306.c     ****         SSD1306_DISPLAYALLON_RESUME,
ARM GAS  C:\Users\Kiwi\AppData\Local\Temp\ccKDkYuk.s 			page 4


 146:ssd1306.c     ****         SSD1306_NORMALDISPLAY,
 147:ssd1306.c     ****         SSD1306_DISPLAYON
 148:ssd1306.c     ****     };
 149:ssd1306.c     ****     
 150:ssd1306.c     ****     display_write_buf( cmdbuf, sizeof(cmdbuf) ); 
 151:ssd1306.c     **** }
 152:ssd1306.c     **** 
 153:ssd1306.c     **** 
 154:ssd1306.c     **** // for submitting command sequences:
 155:ssd1306.c     **** //  buf[0] must be 0x00
 156:ssd1306.c     **** // for submitting bulk data (writing to display RAM):
 157:ssd1306.c     **** //  buf[0] must be 0x40
 158:ssd1306.c     **** static uint32 display_write_buf( uint8* buf, uint16_t size ){
  27              		.loc 1 158 0
  28              		.cfi_startproc
  29              		@ args = 0, pretend = 0, frame = 0
  30              		@ frame_needed = 0, uses_anonymous_args = 0
  31              	.LVL0:
  32 0000 F8B5     		push	{r3, r4, r5, r6, r7, lr}
  33              		.cfi_def_cfa_offset 24
  34              		.cfi_offset 3, -24
  35              		.cfi_offset 4, -20
  36              		.cfi_offset 5, -16
  37              		.cfi_offset 6, -12
  38              		.cfi_offset 7, -8
  39              		.cfi_offset 14, -4
  40              		.loc 1 158 0
  41 0002 0646     		mov	r6, r0
 159:ssd1306.c     **** 
 160:ssd1306.c     ****     uint32 status = TRANSFER_ERROR;
 161:ssd1306.c     ****     I2COLED_MasterSendStart(_i2caddr,I2COLED_WRITE_XFER_MODE);
  42              		.loc 1 161 0
  43 0004 0A4B     		ldr	r3, .L6
 158:ssd1306.c     **** 
  44              		.loc 1 158 0
  45 0006 0F46     		mov	r7, r1
  46              		.loc 1 161 0
  47 0008 1878     		ldrb	r0, [r3]	@ zero_extendqisi2
  48              	.LVL1:
  49 000a 0021     		movs	r1, #0
  50              	.LVL2:
  51 000c FFF7FEFF 		bl	I2COLED_MasterSendStart
  52              	.LVL3:
  53              	.LBB5:
 162:ssd1306.c     ****     
 163:ssd1306.c     ****     for(int i=0; i<size; i++){  
  54              		.loc 1 163 0
  55 0010 3446     		mov	r4, r6
  56              	.LBE5:
 160:ssd1306.c     ****     I2COLED_MasterSendStart(_i2caddr,I2COLED_WRITE_XFER_MODE);
  57              		.loc 1 160 0
  58 0012 FF25     		movs	r5, #255
  59              	.LVL4:
  60              	.L2:
  61              	.LBB6:
  62              		.loc 1 163 0 discriminator 1
  63 0014 A31B     		subs	r3, r4, r6
ARM GAS  C:\Users\Kiwi\AppData\Local\Temp\ccKDkYuk.s 			page 5


  64 0016 9F42     		cmp	r7, r3
  65 0018 05DD     		ble	.L5
 164:ssd1306.c     ****         status=I2COLED_MasterWriteByte(buf[i]);
  66              		.loc 1 164 0 discriminator 3
  67 001a 14F8010B 		ldrb	r0, [r4], #1	@ zero_extendqisi2
  68              	.LVL5:
  69 001e FFF7FEFF 		bl	I2COLED_MasterWriteByte
  70              	.LVL6:
  71 0022 0546     		mov	r5, r0
  72              	.LVL7:
  73 0024 F6E7     		b	.L2
  74              	.LVL8:
  75              	.L5:
  76              	.LBE6:
 165:ssd1306.c     ****     }
 166:ssd1306.c     ****     I2COLED_MasterSendStop();
  77              		.loc 1 166 0
  78 0026 FFF7FEFF 		bl	I2COLED_MasterSendStop
  79              	.LVL9:
 167:ssd1306.c     ****     return status;
 168:ssd1306.c     **** }
  80              		.loc 1 168 0
  81 002a 2846     		mov	r0, r5
  82 002c F8BD     		pop	{r3, r4, r5, r6, r7, pc}
  83              	.LVL10:
  84              	.L7:
  85 002e 00BF     		.align	2
  86              	.L6:
  87 0030 00000000 		.word	.LANCHOR0
  88              		.cfi_endproc
  89              	.LFE64:
  90              		.size	display_write_buf, .-display_write_buf
  91              		.section	.text.gfx_rotation_adjust,"ax",%progbits
  92              		.align	1
  93              		.thumb
  94              		.thumb_func
  95              		.type	gfx_rotation_adjust, %function
  96              	gfx_rotation_adjust:
  97              	.LFB83:
 169:ssd1306.c     **** 
 170:ssd1306.c     **** 
 171:ssd1306.c     **** // used by gfx_ functions. Needs to be implemented by display_
 172:ssd1306.c     **** static void display_setPixel( int16_t x, int16_t y, uint16_t color ){
 173:ssd1306.c     ****     
 174:ssd1306.c     ****     if( (x < 0) || (x >= DISPLAYWIDTH) || (y < 0) || (y >= DISPLAYHEIGHT) )
 175:ssd1306.c     ****         return;
 176:ssd1306.c     **** 
 177:ssd1306.c     ****     switch( color ){
 178:ssd1306.c     ****         case WHITE: 
 179:ssd1306.c     ****             PIXEL_ON(x,y);
 180:ssd1306.c     ****             break;
 181:ssd1306.c     ****         case BLACK:
 182:ssd1306.c     ****             PIXEL_OFF(x,y);
 183:ssd1306.c     ****             break;
 184:ssd1306.c     ****         case INVERSE: 
 185:ssd1306.c     ****             PIXEL_TOGGLE(x,y);
 186:ssd1306.c     ****             break;
ARM GAS  C:\Users\Kiwi\AppData\Local\Temp\ccKDkYuk.s 			page 6


 187:ssd1306.c     ****     }
 188:ssd1306.c     **** }
 189:ssd1306.c     **** 
 190:ssd1306.c     **** 
 191:ssd1306.c     **** void display_clear(void){
 192:ssd1306.c     ****     memset( _displaybuf, 0, _displaybuf_size );
 193:ssd1306.c     ****     SSD1306_buffer[0] = 0x40; // to be sure its there
 194:ssd1306.c     **** }
 195:ssd1306.c     **** 
 196:ssd1306.c     **** 
 197:ssd1306.c     **** // contrast: 0 ...255
 198:ssd1306.c     **** void display_contrast( uint8_t contrast ){
 199:ssd1306.c     ****         
 200:ssd1306.c     ****     uint8 cmdbuf[] = {
 201:ssd1306.c     ****         0x00,  
 202:ssd1306.c     ****         SSD1306_SETCONTRAST,
 203:ssd1306.c     ****         contrast
 204:ssd1306.c     ****     };
 205:ssd1306.c     ****     display_write_buf( cmdbuf, sizeof(cmdbuf) ); 
 206:ssd1306.c     **** }
 207:ssd1306.c     **** 
 208:ssd1306.c     **** 
 209:ssd1306.c     **** // invert <> 0 for inverse display, invert == 0 for normal display
 210:ssd1306.c     **** void display_invert( uint8_t invert ){
 211:ssd1306.c     **** 
 212:ssd1306.c     ****     uint8 cmdbuf[] = {
 213:ssd1306.c     ****         0x00,  
 214:ssd1306.c     ****         0
 215:ssd1306.c     ****     };
 216:ssd1306.c     ****     cmdbuf[1] = invert ? SSD1306_INVERTDISPLAY : SSD1306_NORMALDISPLAY;
 217:ssd1306.c     ****     display_write_buf( cmdbuf, sizeof(cmdbuf) ); 
 218:ssd1306.c     **** }
 219:ssd1306.c     **** 
 220:ssd1306.c     **** 
 221:ssd1306.c     **** void display_update(void) {
 222:ssd1306.c     ****       
 223:ssd1306.c     ****     uint8 cmdbuf[] = {
 224:ssd1306.c     ****         0x00,
 225:ssd1306.c     ****         SSD1306_COLUMNADDR,
 226:ssd1306.c     ****         0,                      // start
 227:ssd1306.c     ****         DISPLAYWIDTH-1, // end
 228:ssd1306.c     ****         SSD1306_PAGEADDR,
 229:ssd1306.c     ****         0,                      // start
 230:ssd1306.c     ****         7                       // end
 231:ssd1306.c     ****     };
 232:ssd1306.c     ****     display_write_buf( cmdbuf, sizeof(cmdbuf) ); 
 233:ssd1306.c     ****     display_write_buf( SSD1306_buffer, sizeof(SSD1306_buffer) );
 234:ssd1306.c     **** }
 235:ssd1306.c     **** 
 236:ssd1306.c     **** 
 237:ssd1306.c     **** // draws horizontal or vertical line
 238:ssd1306.c     **** // Note: no check for valid coords, this needs to be done by caller
 239:ssd1306.c     **** // should only be called from gfx_hvline which is doing all validity checking
 240:ssd1306.c     **** static void display_line( int16_t x1, int16_t y1, int16_t x2, int16_t y2, uint16_t color ){
 241:ssd1306.c     **** 
 242:ssd1306.c     ****     if( x1 == x2 ){
 243:ssd1306.c     ****         // vertical
ARM GAS  C:\Users\Kiwi\AppData\Local\Temp\ccKDkYuk.s 			page 7


 244:ssd1306.c     ****         uint8_t* pstart = GDDRAM_ADDRESS(x1,y1);
 245:ssd1306.c     ****         uint8_t* pend = GDDRAM_ADDRESS(x2,y2);       
 246:ssd1306.c     ****         uint8_t* ptr = pstart;             
 247:ssd1306.c     ****         
 248:ssd1306.c     ****         while( ptr <= pend ){
 249:ssd1306.c     ****             
 250:ssd1306.c     ****             uint8_t mask;
 251:ssd1306.c     ****             if( ptr == pstart ){
 252:ssd1306.c     ****                 // top
 253:ssd1306.c     ****                 uint8_t lbit = y1 % 8;
 254:ssd1306.c     ****                 // bottom (line can be very short, all inside this one byte)
 255:ssd1306.c     ****                 uint8_t ubit = lbit + y2 - y1;
 256:ssd1306.c     ****                 if( ubit >= 7 )
 257:ssd1306.c     ****                     ubit = 7;
 258:ssd1306.c     ****                 mask = ((1 << (ubit-lbit+1)) - 1) << lbit;    
 259:ssd1306.c     ****             }else if( ptr == pend ){
 260:ssd1306.c     ****                 // top is always bit 0, that makes it easy
 261:ssd1306.c     ****                 // bottom
 262:ssd1306.c     ****                 mask = (1 << (y2 % 8)) - 1;    
 263:ssd1306.c     ****             }
 264:ssd1306.c     **** 
 265:ssd1306.c     ****             if( ptr == pstart || ptr == pend ){
 266:ssd1306.c     ****                 switch( color ){
 267:ssd1306.c     ****                     case WHITE:     *ptr |= mask; break;
 268:ssd1306.c     ****                     case BLACK:     *ptr &= ~mask; break;
 269:ssd1306.c     ****                     case INVERSE:   *ptr ^= mask; break;
 270:ssd1306.c     ****                 };  
 271:ssd1306.c     ****             }else{
 272:ssd1306.c     ****                 switch( color ){
 273:ssd1306.c     ****                     case WHITE:     *ptr = 0xff; break;
 274:ssd1306.c     ****                     case BLACK:     *ptr = 0x00; break;
 275:ssd1306.c     ****                     case INVERSE:   *ptr ^= 0xff; break;
 276:ssd1306.c     ****                 };  
 277:ssd1306.c     ****             }
 278:ssd1306.c     ****             
 279:ssd1306.c     ****             ptr += DISPLAYWIDTH;
 280:ssd1306.c     ****         }
 281:ssd1306.c     ****     }else{
 282:ssd1306.c     ****         // horizontal
 283:ssd1306.c     ****         uint8_t* pstart = GDDRAM_ADDRESS(x1,y1);
 284:ssd1306.c     ****         uint8_t* pend = pstart + x2 - x1;
 285:ssd1306.c     ****         uint8_t pixmask = GDDRAM_PIXMASK(y1);    
 286:ssd1306.c     **** 
 287:ssd1306.c     ****         uint8_t* ptr = pstart;
 288:ssd1306.c     ****         while( ptr <= pend ){
 289:ssd1306.c     ****             switch( color ){
 290:ssd1306.c     ****                 case WHITE:     *ptr |= pixmask; break;
 291:ssd1306.c     ****                 case BLACK:     *ptr &= ~pixmask; break;
 292:ssd1306.c     ****                 case INVERSE:   *ptr ^= pixmask; break;
 293:ssd1306.c     ****             };
 294:ssd1306.c     ****             ptr++;
 295:ssd1306.c     ****         }
 296:ssd1306.c     ****     }
 297:ssd1306.c     **** }
 298:ssd1306.c     **** 
 299:ssd1306.c     **** 
 300:ssd1306.c     **** 
ARM GAS  C:\Users\Kiwi\AppData\Local\Temp\ccKDkYuk.s 			page 8


 301:ssd1306.c     **** void display_stopscroll(void){
 302:ssd1306.c     **** 
 303:ssd1306.c     ****     uint8 cmdbuf[] = {
 304:ssd1306.c     ****         0x00,
 305:ssd1306.c     ****         SSD1306_DEACTIVATE_SCROLL
 306:ssd1306.c     ****     };
 307:ssd1306.c     ****     display_write_buf( cmdbuf, sizeof(cmdbuf) ); 
 308:ssd1306.c     **** }
 309:ssd1306.c     **** 
 310:ssd1306.c     **** void display_scroll( SCROLL_AREA start, SCROLL_AREA end, SCROLL_DIR dir, SCROLL_SPEED speed ){
 311:ssd1306.c     ****    
 312:ssd1306.c     ****     uint8 cmdbuf[] = {
 313:ssd1306.c     ****         0x00,
 314:ssd1306.c     ****         dir,                    // 0x26 or 0x2a
 315:ssd1306.c     ****         0x00,                   // dummy byte
 316:ssd1306.c     ****         start,                  // start page
 317:ssd1306.c     ****         speed,                  // scroll step interval in terms of frame frequency 
 318:ssd1306.c     ****         end,                    // end page
 319:ssd1306.c     ****         0x00,                   // dummy byte
 320:ssd1306.c     ****         0xFF,                   // dummy byte
 321:ssd1306.c     ****         SSD1306_ACTIVATE_SCROLL // 0x2F
 322:ssd1306.c     ****     };
 323:ssd1306.c     ****     display_write_buf( cmdbuf, sizeof(cmdbuf) ); 
 324:ssd1306.c     **** }
 325:ssd1306.c     **** 
 326:ssd1306.c     **** 
 327:ssd1306.c     **** 
 328:ssd1306.c     **** // ============================================================
 329:ssd1306.c     **** // graphics library stuff
 330:ssd1306.c     **** 
 331:ssd1306.c     **** int16_t WIDTH, HEIGHT; // This is the 'raw' display w/h - never changes
 332:ssd1306.c     **** static int16_t _width, _height; // Display w/h as modified by current rotation
 333:ssd1306.c     **** static int16_t cursor_x, cursor_y;
 334:ssd1306.c     **** static uint16_t textcolor, textbgcolor;
 335:ssd1306.c     **** static uint8_t textsize;
 336:ssd1306.c     **** uint8_t rotation;
 337:ssd1306.c     **** uint8_t wrap; // If set, 'wrap' text at right edge of display
 338:ssd1306.c     **** 
 339:ssd1306.c     **** 
 340:ssd1306.c     **** 
 341:ssd1306.c     **** void gfx_init( int16_t width, int16_t height ){
 342:ssd1306.c     ****     WIDTH = width;
 343:ssd1306.c     ****     HEIGHT = height;
 344:ssd1306.c     ****     _width = WIDTH;
 345:ssd1306.c     ****     _height = HEIGHT;
 346:ssd1306.c     ****     
 347:ssd1306.c     ****     rotation = 0;
 348:ssd1306.c     ****     cursor_y = cursor_x = 0;
 349:ssd1306.c     ****     textsize = 1;
 350:ssd1306.c     ****     textcolor = textbgcolor = 0xFFFF;
 351:ssd1306.c     ****     wrap = 1;
 352:ssd1306.c     **** }
 353:ssd1306.c     **** 
 354:ssd1306.c     **** // Return the size of the display (per current rotation)
 355:ssd1306.c     **** int16_t gfx_width(void){
 356:ssd1306.c     ****     return _width;
 357:ssd1306.c     **** }
ARM GAS  C:\Users\Kiwi\AppData\Local\Temp\ccKDkYuk.s 			page 9


 358:ssd1306.c     **** 
 359:ssd1306.c     **** int16_t gfx_height(void){
 360:ssd1306.c     ****     return _height;
 361:ssd1306.c     **** }
 362:ssd1306.c     **** 
 363:ssd1306.c     **** uint8_t gfx_rotation(void){
 364:ssd1306.c     ****     return rotation;
 365:ssd1306.c     **** }
 366:ssd1306.c     **** 
 367:ssd1306.c     **** void gfx_setCursor( int16_t x, int16_t y ){
 368:ssd1306.c     ****     cursor_x = x;
 369:ssd1306.c     ****     cursor_y = y;
 370:ssd1306.c     **** }
 371:ssd1306.c     **** 
 372:ssd1306.c     **** void gfx_setTextSize( uint8_t size ){
 373:ssd1306.c     ****     textsize = (size > 0) ? size : 1;
 374:ssd1306.c     **** }
 375:ssd1306.c     **** 
 376:ssd1306.c     **** void gfx_setTextColor( uint16_t color ){
 377:ssd1306.c     ****     // For 'transparent' background, we'll set the bg
 378:ssd1306.c     ****     // to the same as fg instead of using a flag
 379:ssd1306.c     ****     textcolor = textbgcolor = color;
 380:ssd1306.c     **** }
 381:ssd1306.c     **** 
 382:ssd1306.c     **** void gfx_setTextBg( uint16_t color ){
 383:ssd1306.c     ****     textbgcolor = color;
 384:ssd1306.c     **** }
 385:ssd1306.c     **** 
 386:ssd1306.c     **** void gfx_setTextWrap( uint8 w ){
 387:ssd1306.c     ****     wrap = w;
 388:ssd1306.c     **** }
 389:ssd1306.c     **** 
 390:ssd1306.c     **** void gfx_setRotation( uint8_t x ){
 391:ssd1306.c     ****     
 392:ssd1306.c     ****     rotation = (x & 3);
 393:ssd1306.c     ****     switch( rotation ){
 394:ssd1306.c     ****         case 0:
 395:ssd1306.c     ****         case 2:
 396:ssd1306.c     ****             _width = WIDTH;
 397:ssd1306.c     ****             _height = HEIGHT;
 398:ssd1306.c     ****             break;
 399:ssd1306.c     ****         case 1:
 400:ssd1306.c     ****         case 3:
 401:ssd1306.c     ****             _width = HEIGHT;
 402:ssd1306.c     ****             _height = WIDTH;
 403:ssd1306.c     ****         break;
 404:ssd1306.c     ****     }
 405:ssd1306.c     **** }
 406:ssd1306.c     **** 
 407:ssd1306.c     **** static void gfx_rotation_adjust( int16_t* px, int16_t* py ){
  98              		.loc 1 407 0
  99              		.cfi_startproc
 100              		@ args = 0, pretend = 0, frame = 0
 101              		@ frame_needed = 0, uses_anonymous_args = 0
 102              	.LVL11:
 103 0000 10B5     		push	{r4, lr}
 104              		.cfi_def_cfa_offset 8
ARM GAS  C:\Users\Kiwi\AppData\Local\Temp\ccKDkYuk.s 			page 10


 105              		.cfi_offset 4, -8
 106              		.cfi_offset 14, -4
 408:ssd1306.c     **** 
 409:ssd1306.c     ****     int16_t y0 = *py;
 410:ssd1306.c     ****     
 411:ssd1306.c     ****     switch( rotation ){
 107              		.loc 1 411 0
 108 0002 144B     		ldr	r3, .L13
 409:ssd1306.c     ****     
 109              		.loc 1 409 0
 110 0004 B1F90040 		ldrsh	r4, [r1]
 111              	.LVL12:
 112              		.loc 1 411 0
 113 0008 1A78     		ldrb	r2, [r3]	@ zero_extendqisi2
 114 000a 022A     		cmp	r2, #2
 115 000c 0CD0     		beq	.L10
 116 000e 032A     		cmp	r2, #3
 117 0010 17D0     		beq	.L11
 118 0012 012A     		cmp	r2, #1
 119 0014 1CD1     		bne	.L8
 412:ssd1306.c     ****         case 1:
 413:ssd1306.c     ****             *py = *px;
 120              		.loc 1 413 0
 121 0016 B0F90030 		ldrsh	r3, [r0]
 122 001a 0B80     		strh	r3, [r1]	@ movhi
 414:ssd1306.c     ****             *px = WIDTH - y0 - 1;
 123              		.loc 1 414 0
 124 001c 0E4B     		ldr	r3, .L13+4
 125 001e 1B88     		ldrh	r3, [r3]
 126 0020 013B     		subs	r3, r3, #1
 127 0022 1B1B     		subs	r3, r3, r4
 128 0024 0380     		strh	r3, [r0]	@ movhi
 415:ssd1306.c     ****             break;
 129              		.loc 1 415 0
 130 0026 10BD     		pop	{r4, pc}
 131              	.LVL13:
 132              	.L10:
 133              	.LBB9:
 134              	.LBB10:
 416:ssd1306.c     ****         case 2:
 417:ssd1306.c     ****             *px = WIDTH - *px - 1;
 135              		.loc 1 417 0
 136 0028 0B4B     		ldr	r3, .L13+4
 137 002a 0288     		ldrh	r2, [r0]
 138 002c 1B88     		ldrh	r3, [r3]
 139 002e 013B     		subs	r3, r3, #1
 140 0030 9B1A     		subs	r3, r3, r2
 141 0032 0380     		strh	r3, [r0]	@ movhi
 418:ssd1306.c     ****             *py = HEIGHT - *py - 1;
 142              		.loc 1 418 0
 143 0034 094B     		ldr	r3, .L13+8
 144 0036 0A88     		ldrh	r2, [r1]
 145 0038 1B88     		ldrh	r3, [r3]
 146 003a 013B     		subs	r3, r3, #1
 147 003c 9B1A     		subs	r3, r3, r2
 148 003e 0B80     		strh	r3, [r1]	@ movhi
 149 0040 10BD     		pop	{r4, pc}
ARM GAS  C:\Users\Kiwi\AppData\Local\Temp\ccKDkYuk.s 			page 11


 150              	.LVL14:
 151              	.L11:
 152              	.LBE10:
 153              	.LBE9:
 419:ssd1306.c     ****             break;
 420:ssd1306.c     ****         case 3:
 421:ssd1306.c     ****             *py = HEIGHT - *px - 1;
 154              		.loc 1 421 0
 155 0042 064B     		ldr	r3, .L13+8
 156 0044 0288     		ldrh	r2, [r0]
 157 0046 1B88     		ldrh	r3, [r3]
 158 0048 013B     		subs	r3, r3, #1
 159 004a 9B1A     		subs	r3, r3, r2
 160 004c 0B80     		strh	r3, [r1]	@ movhi
 422:ssd1306.c     ****             *px = y0;
 161              		.loc 1 422 0
 162 004e 0480     		strh	r4, [r0]	@ movhi
 163              	.L8:
 164 0050 10BD     		pop	{r4, pc}
 165              	.LVL15:
 166              	.L14:
 167 0052 00BF     		.align	2
 168              	.L13:
 169 0054 00000000 		.word	rotation
 170 0058 00000000 		.word	WIDTH
 171 005c 00000000 		.word	HEIGHT
 172              		.cfi_endproc
 173              	.LFE83:
 174              		.size	gfx_rotation_adjust, .-gfx_rotation_adjust
 175              		.section	.text.gfx_write.part.3,"ax",%progbits
 176              		.align	1
 177              		.thumb
 178              		.thumb_func
 179              		.type	gfx_write.part.3, %function
 180              	gfx_write.part.3:
 181              	.LFB98:
 423:ssd1306.c     ****             break;
 424:ssd1306.c     ****     }
 425:ssd1306.c     **** }
 426:ssd1306.c     **** 
 427:ssd1306.c     **** void gfx_drawPixel( int16_t x, int16_t y, uint16_t color ){
 428:ssd1306.c     ****     
 429:ssd1306.c     ****     if( (x < 0) || (x >= _width) || (y < 0) || (y >= _height) )
 430:ssd1306.c     ****         return;
 431:ssd1306.c     ****     
 432:ssd1306.c     ****     gfx_rotation_adjust( &x, &y );
 433:ssd1306.c     **** 
 434:ssd1306.c     ****     display_setPixel(x,y,color);
 435:ssd1306.c     **** }
 436:ssd1306.c     **** 
 437:ssd1306.c     **** // helper function for gfx_drawLine, handles special cases of horizontal and vertical lines
 438:ssd1306.c     **** static void gfx_hvLine( int16_t x1, int16_t y1, int16_t x2, int16_t y2, uint16_t color ){
 439:ssd1306.c     ****     
 440:ssd1306.c     ****     if( x1 != x2 && y1 != y2 ){
 441:ssd1306.c     ****         // neither vertical nor horizontal
 442:ssd1306.c     ****         return;
 443:ssd1306.c     ****     }    
ARM GAS  C:\Users\Kiwi\AppData\Local\Temp\ccKDkYuk.s 			page 12


 444:ssd1306.c     ****     
 445:ssd1306.c     ****     // bounds check
 446:ssd1306.c     ****     if( rotation == 1 || rotation == 3 ){
 447:ssd1306.c     ****         if( x1 < 0 || x1 >= HEIGHT || x2 < 0 || x2 >= HEIGHT )
 448:ssd1306.c     ****             return;
 449:ssd1306.c     ****         if( y1 < 0 || y1 >= WIDTH || y2 < 0 || y2 >= WIDTH )
 450:ssd1306.c     ****             return;
 451:ssd1306.c     ****     }else{
 452:ssd1306.c     ****         if( y1 < 0 || y1 >= HEIGHT || y2 < 0 || y2 >= HEIGHT )
 453:ssd1306.c     ****             return;
 454:ssd1306.c     ****         if( x1 < 0 || x1 >= WIDTH || x2 < 0 || x2 >= WIDTH )
 455:ssd1306.c     ****             return;
 456:ssd1306.c     ****     }
 457:ssd1306.c     ****     
 458:ssd1306.c     ****     gfx_rotation_adjust( &x1, &y1 );
 459:ssd1306.c     ****     gfx_rotation_adjust( &x2, &y2 );
 460:ssd1306.c     ****     
 461:ssd1306.c     ****     // ensure coords are from left to right and top to bottom
 462:ssd1306.c     ****     if( (x1 == x2 && y2 < y1) || (y1 == y2 && x2 < x1) ){
 463:ssd1306.c     ****         // swap as needed
 464:ssd1306.c     ****         int16_t t = x1; x1 = x2; x2 = t;
 465:ssd1306.c     ****         t = y1; y1 = y2; y2 = t;
 466:ssd1306.c     ****     }
 467:ssd1306.c     ****     
 468:ssd1306.c     ****     display_line( x1, y1, x2, y2, color );
 469:ssd1306.c     **** }
 470:ssd1306.c     **** 
 471:ssd1306.c     **** // always use this function for line drawing
 472:ssd1306.c     **** void gfx_drawLine( int16_t x0, int16_t y0, int16_t x1, int16_t y1, uint16_t color ){
 473:ssd1306.c     ****  
 474:ssd1306.c     ****     if( x0 == x1 || y0 == y1 ){
 475:ssd1306.c     ****         // vertical and horizontal lines can be drawn faster
 476:ssd1306.c     ****         gfx_hvLine( x0, y0, x1, y1, color );
 477:ssd1306.c     ****         return;
 478:ssd1306.c     ****     }
 479:ssd1306.c     ****     
 480:ssd1306.c     ****     int16_t t;
 481:ssd1306.c     ****     
 482:ssd1306.c     ****     int16_t steep = abs(y1 - y0) > abs(x1 - x0);
 483:ssd1306.c     ****     if( steep ){
 484:ssd1306.c     ****         t = x0; x0 = y0; y0 = t;
 485:ssd1306.c     ****         t = x1; x1 = y1; y1 = t;
 486:ssd1306.c     ****     }
 487:ssd1306.c     ****     if( x0 > x1 ){
 488:ssd1306.c     ****         t = x0; x0 = x1; x1 = t;
 489:ssd1306.c     ****         t = y0; y0 = y1; y1 = t;
 490:ssd1306.c     ****     }
 491:ssd1306.c     ****     int16_t dx, dy;
 492:ssd1306.c     ****     dx = x1 - x0;
 493:ssd1306.c     ****     dy = abs(y1 - y0);
 494:ssd1306.c     ****     int16_t err = dx / 2;
 495:ssd1306.c     ****     int16_t ystep;
 496:ssd1306.c     ****     if( y0 < y1 ){
 497:ssd1306.c     ****         ystep = 1;
 498:ssd1306.c     ****     }else{
 499:ssd1306.c     ****         ystep = -1;
 500:ssd1306.c     ****     }
ARM GAS  C:\Users\Kiwi\AppData\Local\Temp\ccKDkYuk.s 			page 13


 501:ssd1306.c     ****     for( ; x0<=x1; x0++ ){
 502:ssd1306.c     ****         if( steep ){
 503:ssd1306.c     ****             gfx_drawPixel( y0, x0, color );
 504:ssd1306.c     ****         }else{
 505:ssd1306.c     ****             gfx_drawPixel( x0, y0, color );
 506:ssd1306.c     ****         }
 507:ssd1306.c     ****         err -= dy;
 508:ssd1306.c     ****         if( err < 0 ){
 509:ssd1306.c     ****             y0 += ystep;
 510:ssd1306.c     ****             err += dx;
 511:ssd1306.c     ****         }
 512:ssd1306.c     ****     }
 513:ssd1306.c     **** }
 514:ssd1306.c     **** 
 515:ssd1306.c     **** void gfx_drawRect( int16_t x, int16_t y, int16_t w, int16_t h, uint16_t color ){
 516:ssd1306.c     ****     
 517:ssd1306.c     ****     gfx_drawLine( x, y, x+w-1, y, color );
 518:ssd1306.c     ****     gfx_drawLine( x, y+h-1, x+w-1, y+h-1, color );
 519:ssd1306.c     ****     gfx_drawLine( x, y, x, y+h-1, color );
 520:ssd1306.c     ****     gfx_drawLine( x+w-1, y, x+w-1, y+h-1, color );
 521:ssd1306.c     **** }
 522:ssd1306.c     **** 
 523:ssd1306.c     **** void gfx_fillRect( int16_t x, int16_t y, int16_t w, int16_t h, uint16_t color ){
 524:ssd1306.c     ****     int16_t i = 0;
 525:ssd1306.c     ****     if( h > w ){
 526:ssd1306.c     ****         for( i = x ; i < x+w ; i++ ){
 527:ssd1306.c     ****             gfx_drawLine( i, y, i, y+h-1, color );
 528:ssd1306.c     ****         }
 529:ssd1306.c     ****     }else{
 530:ssd1306.c     ****         for( i = y ; i < y+h ; i++ ){
 531:ssd1306.c     ****             gfx_drawLine( x, i, x+w-1, i, color );
 532:ssd1306.c     ****         }
 533:ssd1306.c     ****     }
 534:ssd1306.c     **** }
 535:ssd1306.c     **** 
 536:ssd1306.c     **** 
 537:ssd1306.c     **** // circle outline
 538:ssd1306.c     **** void gfx_drawCircle( int16_t x0, int16_t y0, int16_t r,uint16_t color ){
 539:ssd1306.c     **** 
 540:ssd1306.c     ****     int16_t f = 1 - r;
 541:ssd1306.c     ****     int16_t ddF_x = 1;
 542:ssd1306.c     ****     int16_t ddF_y = -2 * r;
 543:ssd1306.c     ****     int16_t x = 0;
 544:ssd1306.c     ****     int16_t y = r;
 545:ssd1306.c     ****     gfx_drawPixel( x0 , y0+r, color );
 546:ssd1306.c     ****     gfx_drawPixel( x0 , y0-r, color );
 547:ssd1306.c     ****     gfx_drawPixel( x0+r, y0 , color );
 548:ssd1306.c     ****     gfx_drawPixel( x0-r, y0 , color );
 549:ssd1306.c     ****     while( x < y ){
 550:ssd1306.c     ****         if( f >= 0 ){
 551:ssd1306.c     ****             y--;
 552:ssd1306.c     ****             ddF_y += 2;
 553:ssd1306.c     ****             f += ddF_y;
 554:ssd1306.c     ****         }
 555:ssd1306.c     ****         x++;
 556:ssd1306.c     ****         ddF_x += 2;
 557:ssd1306.c     ****         f += ddF_x;
ARM GAS  C:\Users\Kiwi\AppData\Local\Temp\ccKDkYuk.s 			page 14


 558:ssd1306.c     ****         gfx_drawPixel( x0 + x, y0 + y, color );
 559:ssd1306.c     ****         gfx_drawPixel( x0 - x, y0 + y, color );
 560:ssd1306.c     ****         gfx_drawPixel( x0 + x, y0 - y, color );
 561:ssd1306.c     ****         gfx_drawPixel( x0 - x, y0 - y, color );
 562:ssd1306.c     ****         gfx_drawPixel( x0 + y, y0 + x, color );
 563:ssd1306.c     ****         gfx_drawPixel( x0 - y, y0 + x, color );
 564:ssd1306.c     ****         gfx_drawPixel( x0 + y, y0 - x, color );
 565:ssd1306.c     ****         gfx_drawPixel( x0 - y, y0 - x, color );
 566:ssd1306.c     ****     }
 567:ssd1306.c     **** }
 568:ssd1306.c     **** 
 569:ssd1306.c     **** void gfx_drawTriangle( int16_t x0, int16_t y0,int16_t x1, int16_t y1, int16_t x2, int16_t y2, uint1
 570:ssd1306.c     ****     
 571:ssd1306.c     ****     gfx_drawLine( x0, y0, x1, y1, color );
 572:ssd1306.c     ****     gfx_drawLine( x1, y1, x2, y2, color );
 573:ssd1306.c     ****     gfx_drawLine( x2, y2, x0, y0, color );
 574:ssd1306.c     **** }
 575:ssd1306.c     **** 
 576:ssd1306.c     **** 
 577:ssd1306.c     **** // Draw a character
 578:ssd1306.c     **** void gfx_drawChar( int16_t x, int16_t y, unsigned char c,uint16_t color, uint16_t bg, uint8_t size)
 579:ssd1306.c     ****     if( (x >= _width) || // Clip right
 580:ssd1306.c     ****         (y >= _height) || // Clip bottom
 581:ssd1306.c     ****         ((x + 6 * size - 1) < 0) || // Clip left
 582:ssd1306.c     ****         ((y + 8 * size - 1) < 0)) // Clip top
 583:ssd1306.c     ****         return;
 584:ssd1306.c     **** 
 585:ssd1306.c     ****     int8_t i = 0;
 586:ssd1306.c     ****     for( i = 0 ; i < 6 ; i++ ){
 587:ssd1306.c     ****         uint8_t line;
 588:ssd1306.c     ****         if( i == 5 )
 589:ssd1306.c     ****             line = 0x0;
 590:ssd1306.c     ****         else
 591:ssd1306.c     ****            line = font[(c*5)+i];
 592:ssd1306.c     ****         int8_t j = 0;
 593:ssd1306.c     ****         for( j = 0; j < 8 ; j++ ){
 594:ssd1306.c     ****             if( line & 0x1 ){
 595:ssd1306.c     ****                 if( size == 1 ) // default size
 596:ssd1306.c     ****                     gfx_drawPixel( x+i, y+j, color );
 597:ssd1306.c     ****                 else { // big size
 598:ssd1306.c     ****                     gfx_fillRect( x+(i*size), y+(j*size), size, size, color );
 599:ssd1306.c     ****                 }
 600:ssd1306.c     ****             } else if( bg != color ){
 601:ssd1306.c     ****                 if( size == 1 ) // default size
 602:ssd1306.c     ****                     gfx_drawPixel( x+i, y+j, bg );
 603:ssd1306.c     ****                 else { // big size
 604:ssd1306.c     ****                     gfx_fillRect( x+i*size, y+j*size, size, size, bg );
 605:ssd1306.c     ****                 }
 606:ssd1306.c     ****             }
 607:ssd1306.c     ****             line >>= 1;
 608:ssd1306.c     ****         }
 609:ssd1306.c     ****     }
 610:ssd1306.c     **** }
 611:ssd1306.c     **** 
 612:ssd1306.c     **** void gfx_write( uint8_t ch ){
 182              		.loc 1 612 0
 183              		.cfi_startproc
ARM GAS  C:\Users\Kiwi\AppData\Local\Temp\ccKDkYuk.s 			page 15


 184              		@ args = 0, pretend = 0, frame = 0
 185              		@ frame_needed = 0, uses_anonymous_args = 0
 186              		@ link register save eliminated.
 187              	.LVL16:
 613:ssd1306.c     ****     if( ch == '\n' ){
 614:ssd1306.c     ****         cursor_y += textsize*8;
 188              		.loc 1 614 0
 189 0000 044B     		ldr	r3, .L16
 190 0002 5A88     		ldrh	r2, [r3, #2]
 191 0004 1979     		ldrb	r1, [r3, #4]	@ zero_extendqisi2
 192 0006 02EBC102 		add	r2, r2, r1, lsl #3
 193 000a 5A80     		strh	r2, [r3, #2]	@ movhi
 615:ssd1306.c     ****         cursor_x = 0;
 194              		.loc 1 615 0
 195 000c 0022     		movs	r2, #0
 196 000e DA80     		strh	r2, [r3, #6]	@ movhi
 197 0010 7047     		bx	lr
 198              	.L17:
 199 0012 00BF     		.align	2
 200              	.L16:
 201 0014 00000000 		.word	.LANCHOR0
 202              		.cfi_endproc
 203              	.LFE98:
 204              		.size	gfx_write.part.3, .-gfx_write.part.3
 205              		.section	.text.display_clear,"ax",%progbits
 206              		.align	1
 207              		.global	display_clear
 208              		.thumb
 209              		.thumb_func
 210              		.type	display_clear, %function
 211              	display_clear:
 212              	.LFB66:
 191:ssd1306.c     ****     memset( _displaybuf, 0, _displaybuf_size );
 213              		.loc 1 191 0
 214              		.cfi_startproc
 215              		@ args = 0, pretend = 0, frame = 0
 216              		@ frame_needed = 0, uses_anonymous_args = 0
 217 0000 10B5     		push	{r4, lr}
 218              		.cfi_def_cfa_offset 8
 219              		.cfi_offset 4, -8
 220              		.cfi_offset 14, -4
 192:ssd1306.c     ****     SSD1306_buffer[0] = 0x40; // to be sure its there
 221              		.loc 1 192 0
 222 0002 054C     		ldr	r4, .L19
 223 0004 4FF48062 		mov	r2, #1024
 224 0008 0021     		movs	r1, #0
 225 000a 601C     		adds	r0, r4, #1
 226 000c FFF7FEFF 		bl	memset
 227              	.LVL17:
 193:ssd1306.c     **** }
 228              		.loc 1 193 0
 229 0010 4023     		movs	r3, #64
 230 0012 2370     		strb	r3, [r4]
 231 0014 10BD     		pop	{r4, pc}
 232              	.L20:
 233 0016 00BF     		.align	2
 234              	.L19:
ARM GAS  C:\Users\Kiwi\AppData\Local\Temp\ccKDkYuk.s 			page 16


 235 0018 00000000 		.word	.LANCHOR1
 236              		.cfi_endproc
 237              	.LFE66:
 238              		.size	display_clear, .-display_clear
 239              		.section	.text.display_contrast,"ax",%progbits
 240              		.align	1
 241              		.global	display_contrast
 242              		.thumb
 243              		.thumb_func
 244              		.type	display_contrast, %function
 245              	display_contrast:
 246              	.LFB67:
 198:ssd1306.c     ****         
 247              		.loc 1 198 0
 248              		.cfi_startproc
 249              		@ args = 0, pretend = 0, frame = 8
 250              		@ frame_needed = 0, uses_anonymous_args = 0
 251              	.LVL18:
 252 0000 07B5     		push	{r0, r1, r2, lr}
 253              		.cfi_def_cfa_offset 16
 254              		.cfi_offset 14, -4
 200:ssd1306.c     ****         0x00,  
 255              		.loc 1 200 0
 256 0002 0023     		movs	r3, #0
 257 0004 8DF80430 		strb	r3, [sp, #4]
 258 0008 8DF80600 		strb	r0, [sp, #6]
 259 000c 8123     		movs	r3, #129
 205:ssd1306.c     **** }
 260              		.loc 1 205 0
 261 000e 0321     		movs	r1, #3
 262 0010 01A8     		add	r0, sp, #4
 263              	.LVL19:
 200:ssd1306.c     ****         0x00,  
 264              		.loc 1 200 0
 265 0012 8DF80530 		strb	r3, [sp, #5]
 205:ssd1306.c     **** }
 266              		.loc 1 205 0
 267 0016 FFF7FEFF 		bl	display_write_buf
 268              	.LVL20:
 206:ssd1306.c     **** 
 269              		.loc 1 206 0
 270 001a 03B0     		add	sp, sp, #12
 271              		.cfi_def_cfa_offset 4
 272              		@ sp needed
 273 001c 5DF804FB 		ldr	pc, [sp], #4
 274              		.cfi_endproc
 275              	.LFE67:
 276              		.size	display_contrast, .-display_contrast
 277              		.section	.text.display_invert,"ax",%progbits
 278              		.align	1
 279              		.global	display_invert
 280              		.thumb
 281              		.thumb_func
 282              		.type	display_invert, %function
 283              	display_invert:
 284              	.LFB68:
 210:ssd1306.c     **** 
ARM GAS  C:\Users\Kiwi\AppData\Local\Temp\ccKDkYuk.s 			page 17


 285              		.loc 1 210 0
 286              		.cfi_startproc
 287              		@ args = 0, pretend = 0, frame = 8
 288              		@ frame_needed = 0, uses_anonymous_args = 0
 289              	.LVL21:
 290 0000 07B5     		push	{r0, r1, r2, lr}
 291              		.cfi_def_cfa_offset 16
 292              		.cfi_offset 14, -4
 212:ssd1306.c     ****         0x00,  
 293              		.loc 1 212 0
 294 0002 0023     		movs	r3, #0
 216:ssd1306.c     ****     display_write_buf( cmdbuf, sizeof(cmdbuf) ); 
 295              		.loc 1 216 0
 296 0004 9842     		cmp	r0, r3
 212:ssd1306.c     ****         0x00,  
 297              		.loc 1 212 0
 298 0006 8DF80430 		strb	r3, [sp, #4]
 217:ssd1306.c     **** }
 299              		.loc 1 217 0
 300 000a 4FF00201 		mov	r1, #2
 216:ssd1306.c     ****     display_write_buf( cmdbuf, sizeof(cmdbuf) ); 
 301              		.loc 1 216 0
 302 000e 14BF     		ite	ne
 303 0010 A723     		movne	r3, #167
 304 0012 A623     		moveq	r3, #166
 217:ssd1306.c     **** }
 305              		.loc 1 217 0
 306 0014 01A8     		add	r0, sp, #4
 307              	.LVL22:
 216:ssd1306.c     ****     display_write_buf( cmdbuf, sizeof(cmdbuf) ); 
 308              		.loc 1 216 0
 309 0016 8DF80530 		strb	r3, [sp, #5]
 217:ssd1306.c     **** }
 310              		.loc 1 217 0
 311 001a FFF7FEFF 		bl	display_write_buf
 312              	.LVL23:
 218:ssd1306.c     **** 
 313              		.loc 1 218 0
 314 001e 03B0     		add	sp, sp, #12
 315              		.cfi_def_cfa_offset 4
 316              		@ sp needed
 317 0020 5DF804FB 		ldr	pc, [sp], #4
 318              		.cfi_endproc
 319              	.LFE68:
 320              		.size	display_invert, .-display_invert
 321              		.section	.text.display_update,"ax",%progbits
 322              		.align	1
 323              		.global	display_update
 324              		.thumb
 325              		.thumb_func
 326              		.type	display_update, %function
 327              	display_update:
 328              	.LFB69:
 221:ssd1306.c     ****       
 329              		.loc 1 221 0
 330              		.cfi_startproc
 331              		@ args = 0, pretend = 0, frame = 8
ARM GAS  C:\Users\Kiwi\AppData\Local\Temp\ccKDkYuk.s 			page 18


 332              		@ frame_needed = 0, uses_anonymous_args = 0
 333 0000 07B5     		push	{r0, r1, r2, lr}
 334              		.cfi_def_cfa_offset 16
 335              		.cfi_offset 14, -4
 223:ssd1306.c     ****         0x00,
 336              		.loc 1 223 0
 337 0002 0A4B     		ldr	r3, .L26
 232:ssd1306.c     ****     display_write_buf( SSD1306_buffer, sizeof(SSD1306_buffer) );
 338              		.loc 1 232 0
 339 0004 0721     		movs	r1, #7
 223:ssd1306.c     ****         0x00,
 340              		.loc 1 223 0
 341 0006 1868     		ldr	r0, [r3]	@ unaligned
 342 0008 9A88     		ldrh	r2, [r3, #4]	@ unaligned
 343 000a 9B79     		ldrb	r3, [r3, #6]	@ zero_extendqisi2
 344 000c 0090     		str	r0, [sp]	@ unaligned
 232:ssd1306.c     ****     display_write_buf( SSD1306_buffer, sizeof(SSD1306_buffer) );
 345              		.loc 1 232 0
 346 000e 6846     		mov	r0, sp
 223:ssd1306.c     ****         0x00,
 347              		.loc 1 223 0
 348 0010 ADF80420 		strh	r2, [sp, #4]	@ unaligned
 349 0014 8DF80630 		strb	r3, [sp, #6]
 232:ssd1306.c     ****     display_write_buf( SSD1306_buffer, sizeof(SSD1306_buffer) );
 350              		.loc 1 232 0
 351 0018 FFF7FEFF 		bl	display_write_buf
 352              	.LVL24:
 233:ssd1306.c     **** }
 353              		.loc 1 233 0
 354 001c 40F20141 		movw	r1, #1025
 355 0020 0348     		ldr	r0, .L26+4
 356 0022 FFF7FEFF 		bl	display_write_buf
 357              	.LVL25:
 234:ssd1306.c     **** 
 358              		.loc 1 234 0
 359 0026 03B0     		add	sp, sp, #12
 360              		.cfi_def_cfa_offset 4
 361              		@ sp needed
 362 0028 5DF804FB 		ldr	pc, [sp], #4
 363              	.L27:
 364              		.align	2
 365              	.L26:
 366 002c 00000000 		.word	.LANCHOR2
 367 0030 00000000 		.word	.LANCHOR1
 368              		.cfi_endproc
 369              	.LFE69:
 370              		.size	display_update, .-display_update
 371              		.section	.text.display_stopscroll,"ax",%progbits
 372              		.align	1
 373              		.global	display_stopscroll
 374              		.thumb
 375              		.thumb_func
 376              		.type	display_stopscroll, %function
 377              	display_stopscroll:
 378              	.LFB71:
 301:ssd1306.c     **** 
 379              		.loc 1 301 0
ARM GAS  C:\Users\Kiwi\AppData\Local\Temp\ccKDkYuk.s 			page 19


 380              		.cfi_startproc
 381              		@ args = 0, pretend = 0, frame = 8
 382              		@ frame_needed = 0, uses_anonymous_args = 0
 383 0000 07B5     		push	{r0, r1, r2, lr}
 384              		.cfi_def_cfa_offset 16
 385              		.cfi_offset 14, -4
 303:ssd1306.c     ****         0x00,
 386              		.loc 1 303 0
 387 0002 0023     		movs	r3, #0
 388 0004 8DF80430 		strb	r3, [sp, #4]
 307:ssd1306.c     **** }
 389              		.loc 1 307 0
 390 0008 0221     		movs	r1, #2
 303:ssd1306.c     ****         0x00,
 391              		.loc 1 303 0
 392 000a 2E23     		movs	r3, #46
 307:ssd1306.c     **** }
 393              		.loc 1 307 0
 394 000c 01A8     		add	r0, sp, #4
 303:ssd1306.c     ****         0x00,
 395              		.loc 1 303 0
 396 000e 8DF80530 		strb	r3, [sp, #5]
 307:ssd1306.c     **** }
 397              		.loc 1 307 0
 398 0012 FFF7FEFF 		bl	display_write_buf
 399              	.LVL26:
 308:ssd1306.c     **** 
 400              		.loc 1 308 0
 401 0016 03B0     		add	sp, sp, #12
 402              		.cfi_def_cfa_offset 4
 403              		@ sp needed
 404 0018 5DF804FB 		ldr	pc, [sp], #4
 405              		.cfi_endproc
 406              	.LFE71:
 407              		.size	display_stopscroll, .-display_stopscroll
 408              		.section	.text.display_scroll,"ax",%progbits
 409              		.align	1
 410              		.global	display_scroll
 411              		.thumb
 412              		.thumb_func
 413              		.type	display_scroll, %function
 414              	display_scroll:
 415              	.LFB72:
 310:ssd1306.c     ****    
 416              		.loc 1 310 0
 417              		.cfi_startproc
 418              		@ args = 0, pretend = 0, frame = 16
 419              		@ frame_needed = 0, uses_anonymous_args = 0
 420              	.LVL27:
 421 0000 1FB5     		push	{r0, r1, r2, r3, r4, lr}
 422              		.cfi_def_cfa_offset 24
 423              		.cfi_offset 4, -8
 424              		.cfi_offset 14, -4
 312:ssd1306.c     ****         0x00,
 425              		.loc 1 312 0
 426 0002 8DF80830 		strb	r3, [sp, #8]
 427 0006 FF23     		movs	r3, #255
ARM GAS  C:\Users\Kiwi\AppData\Local\Temp\ccKDkYuk.s 			page 20


 428              	.LVL28:
 429 0008 0024     		movs	r4, #0
 430 000a 8DF80700 		strb	r0, [sp, #7]
 431 000e 8DF80910 		strb	r1, [sp, #9]
 432 0012 8DF80B30 		strb	r3, [sp, #11]
 323:ssd1306.c     **** }
 433              		.loc 1 323 0
 434 0016 0921     		movs	r1, #9
 435              	.LVL29:
 312:ssd1306.c     ****         0x00,
 436              		.loc 1 312 0
 437 0018 2F23     		movs	r3, #47
 323:ssd1306.c     **** }
 438              		.loc 1 323 0
 439 001a 01A8     		add	r0, sp, #4
 440              	.LVL30:
 312:ssd1306.c     ****         0x00,
 441              		.loc 1 312 0
 442 001c 8DF80440 		strb	r4, [sp, #4]
 443 0020 8DF80520 		strb	r2, [sp, #5]
 444 0024 8DF80640 		strb	r4, [sp, #6]
 445 0028 8DF80A40 		strb	r4, [sp, #10]
 446 002c 8DF80C30 		strb	r3, [sp, #12]
 323:ssd1306.c     **** }
 447              		.loc 1 323 0
 448 0030 FFF7FEFF 		bl	display_write_buf
 449              	.LVL31:
 324:ssd1306.c     **** 
 450              		.loc 1 324 0
 451 0034 04B0     		add	sp, sp, #16
 452              		.cfi_def_cfa_offset 8
 453              		@ sp needed
 454 0036 10BD     		pop	{r4, pc}
 455              		.cfi_endproc
 456              	.LFE72:
 457              		.size	display_scroll, .-display_scroll
 458              		.section	.text.gfx_init,"ax",%progbits
 459              		.align	1
 460              		.global	gfx_init
 461              		.thumb
 462              		.thumb_func
 463              		.type	gfx_init, %function
 464              	gfx_init:
 465              	.LFB73:
 341:ssd1306.c     ****     WIDTH = width;
 466              		.loc 1 341 0
 467              		.cfi_startproc
 468              		@ args = 0, pretend = 0, frame = 0
 469              		@ frame_needed = 0, uses_anonymous_args = 0
 470              		@ link register save eliminated.
 471              	.LVL32:
 342:ssd1306.c     ****     HEIGHT = height;
 472              		.loc 1 342 0
 473 0000 0A4B     		ldr	r3, .L31
 347:ssd1306.c     ****     cursor_y = cursor_x = 0;
 474              		.loc 1 347 0
 475 0002 0022     		movs	r2, #0
ARM GAS  C:\Users\Kiwi\AppData\Local\Temp\ccKDkYuk.s 			page 21


 342:ssd1306.c     ****     HEIGHT = height;
 476              		.loc 1 342 0
 477 0004 1880     		strh	r0, [r3]	@ movhi
 343:ssd1306.c     ****     _width = WIDTH;
 478              		.loc 1 343 0
 479 0006 0A4B     		ldr	r3, .L31+4
 480 0008 1980     		strh	r1, [r3]	@ movhi
 344:ssd1306.c     ****     _height = HEIGHT;
 481              		.loc 1 344 0
 482 000a 0A4B     		ldr	r3, .L31+8
 345:ssd1306.c     ****     
 483              		.loc 1 345 0
 484 000c 5981     		strh	r1, [r3, #10]	@ movhi
 347:ssd1306.c     ****     cursor_y = cursor_x = 0;
 485              		.loc 1 347 0
 486 000e 0A49     		ldr	r1, .L31+12
 487              	.LVL33:
 348:ssd1306.c     ****     textsize = 1;
 488              		.loc 1 348 0
 489 0010 DA80     		strh	r2, [r3, #6]	@ movhi
 347:ssd1306.c     ****     cursor_y = cursor_x = 0;
 490              		.loc 1 347 0
 491 0012 0A70     		strb	r2, [r1]
 350:ssd1306.c     ****     wrap = 1;
 492              		.loc 1 350 0
 493 0014 4FF6FF71 		movw	r1, #65535
 348:ssd1306.c     ****     textsize = 1;
 494              		.loc 1 348 0
 495 0018 5A80     		strh	r2, [r3, #2]	@ movhi
 349:ssd1306.c     ****     textcolor = textbgcolor = 0xFFFF;
 496              		.loc 1 349 0
 497 001a 0122     		movs	r2, #1
 344:ssd1306.c     ****     _height = HEIGHT;
 498              		.loc 1 344 0
 499 001c 1881     		strh	r0, [r3, #8]	@ movhi
 349:ssd1306.c     ****     textcolor = textbgcolor = 0xFFFF;
 500              		.loc 1 349 0
 501 001e 1A71     		strb	r2, [r3, #4]
 350:ssd1306.c     ****     wrap = 1;
 502              		.loc 1 350 0
 503 0020 9981     		strh	r1, [r3, #12]	@ movhi
 504 0022 D981     		strh	r1, [r3, #14]	@ movhi
 351:ssd1306.c     **** }
 505              		.loc 1 351 0
 506 0024 054B     		ldr	r3, .L31+16
 507 0026 1A70     		strb	r2, [r3]
 508 0028 7047     		bx	lr
 509              	.L32:
 510 002a 00BF     		.align	2
 511              	.L31:
 512 002c 00000000 		.word	WIDTH
 513 0030 00000000 		.word	HEIGHT
 514 0034 00000000 		.word	.LANCHOR0
 515 0038 00000000 		.word	rotation
 516 003c 00000000 		.word	wrap
 517              		.cfi_endproc
 518              	.LFE73:
ARM GAS  C:\Users\Kiwi\AppData\Local\Temp\ccKDkYuk.s 			page 22


 519              		.size	gfx_init, .-gfx_init
 520              		.section	.text.display_init,"ax",%progbits
 521              		.align	1
 522              		.global	display_init
 523              		.thumb
 524              		.thumb_func
 525              		.type	display_init, %function
 526              	display_init:
 527              	.LFB63:
 116:ssd1306.c     ****     
 528              		.loc 1 116 0
 529              		.cfi_startproc
 530              		@ args = 0, pretend = 0, frame = 32
 531              		@ frame_needed = 0, uses_anonymous_args = 0
 532              	.LVL34:
 533 0000 70B5     		push	{r4, r5, r6, lr}
 534              		.cfi_def_cfa_offset 16
 535              		.cfi_offset 4, -16
 536              		.cfi_offset 5, -12
 537              		.cfi_offset 6, -8
 538              		.cfi_offset 14, -4
 118:ssd1306.c     ****     gfx_init( DISPLAYWIDTH, DISPLAYHEIGHT );
 539              		.loc 1 118 0
 540 0002 0E4B     		ldr	r3, .L36
 116:ssd1306.c     ****     
 541              		.loc 1 116 0
 542 0004 88B0     		sub	sp, sp, #32
 543              		.cfi_def_cfa_offset 48
 118:ssd1306.c     ****     gfx_init( DISPLAYWIDTH, DISPLAYHEIGHT );
 544              		.loc 1 118 0
 545 0006 1870     		strb	r0, [r3]
 119:ssd1306.c     ****     
 546              		.loc 1 119 0
 547 0008 4021     		movs	r1, #64
 548 000a 8020     		movs	r0, #128
 549              	.LVL35:
 550 000c FFF7FEFF 		bl	gfx_init
 551              	.LVL36:
 121:ssd1306.c     ****         0x00,
 552              		.loc 1 121 0
 553 0010 01AA     		add	r2, sp, #4
 554 0012 1546     		mov	r5, r2
 555 0014 0A4B     		ldr	r3, .L36+4
 556 0016 03F11806 		add	r6, r3, #24
 557              	.L34:
 558 001a 1446     		mov	r4, r2
 559 001c 1868     		ldr	r0, [r3]	@ unaligned
 560 001e 5968     		ldr	r1, [r3, #4]	@ unaligned
 561 0020 0833     		adds	r3, r3, #8
 562 0022 03C4     		stmia	r4!, {r0, r1}
 563 0024 B342     		cmp	r3, r6
 564 0026 2246     		mov	r2, r4
 565 0028 F7D1     		bne	.L34
 566 002a 1B88     		ldrh	r3, [r3]	@ unaligned
 150:ssd1306.c     **** }
 567              		.loc 1 150 0
 568 002c 1A21     		movs	r1, #26
ARM GAS  C:\Users\Kiwi\AppData\Local\Temp\ccKDkYuk.s 			page 23


 121:ssd1306.c     ****         0x00,
 569              		.loc 1 121 0
 570 002e 2380     		strh	r3, [r4]	@ unaligned
 150:ssd1306.c     **** }
 571              		.loc 1 150 0
 572 0030 2846     		mov	r0, r5
 573 0032 FFF7FEFF 		bl	display_write_buf
 574              	.LVL37:
 151:ssd1306.c     **** 
 575              		.loc 1 151 0
 576 0036 08B0     		add	sp, sp, #32
 577              		.cfi_def_cfa_offset 16
 578              		@ sp needed
 579 0038 70BD     		pop	{r4, r5, r6, pc}
 580              	.L37:
 581 003a 00BF     		.align	2
 582              	.L36:
 583 003c 00000000 		.word	.LANCHOR0
 584 0040 07000000 		.word	.LANCHOR2+7
 585              		.cfi_endproc
 586              	.LFE63:
 587              		.size	display_init, .-display_init
 588              		.section	.text.gfx_width,"ax",%progbits
 589              		.align	1
 590              		.global	gfx_width
 591              		.thumb
 592              		.thumb_func
 593              		.type	gfx_width, %function
 594              	gfx_width:
 595              	.LFB74:
 355:ssd1306.c     ****     return _width;
 596              		.loc 1 355 0
 597              		.cfi_startproc
 598              		@ args = 0, pretend = 0, frame = 0
 599              		@ frame_needed = 0, uses_anonymous_args = 0
 600              		@ link register save eliminated.
 357:ssd1306.c     **** 
 601              		.loc 1 357 0
 602 0000 014B     		ldr	r3, .L39
 603 0002 B3F90800 		ldrsh	r0, [r3, #8]
 604 0006 7047     		bx	lr
 605              	.L40:
 606              		.align	2
 607              	.L39:
 608 0008 00000000 		.word	.LANCHOR0
 609              		.cfi_endproc
 610              	.LFE74:
 611              		.size	gfx_width, .-gfx_width
 612              		.section	.text.gfx_height,"ax",%progbits
 613              		.align	1
 614              		.global	gfx_height
 615              		.thumb
 616              		.thumb_func
 617              		.type	gfx_height, %function
 618              	gfx_height:
 619              	.LFB75:
 359:ssd1306.c     ****     return _height;
ARM GAS  C:\Users\Kiwi\AppData\Local\Temp\ccKDkYuk.s 			page 24


 620              		.loc 1 359 0
 621              		.cfi_startproc
 622              		@ args = 0, pretend = 0, frame = 0
 623              		@ frame_needed = 0, uses_anonymous_args = 0
 624              		@ link register save eliminated.
 361:ssd1306.c     **** 
 625              		.loc 1 361 0
 626 0000 014B     		ldr	r3, .L42
 627 0002 B3F90A00 		ldrsh	r0, [r3, #10]
 628 0006 7047     		bx	lr
 629              	.L43:
 630              		.align	2
 631              	.L42:
 632 0008 00000000 		.word	.LANCHOR0
 633              		.cfi_endproc
 634              	.LFE75:
 635              		.size	gfx_height, .-gfx_height
 636              		.section	.text.gfx_rotation,"ax",%progbits
 637              		.align	1
 638              		.global	gfx_rotation
 639              		.thumb
 640              		.thumb_func
 641              		.type	gfx_rotation, %function
 642              	gfx_rotation:
 643              	.LFB76:
 363:ssd1306.c     ****     return rotation;
 644              		.loc 1 363 0
 645              		.cfi_startproc
 646              		@ args = 0, pretend = 0, frame = 0
 647              		@ frame_needed = 0, uses_anonymous_args = 0
 648              		@ link register save eliminated.
 365:ssd1306.c     **** 
 649              		.loc 1 365 0
 650 0000 014B     		ldr	r3, .L45
 651 0002 1878     		ldrb	r0, [r3]	@ zero_extendqisi2
 652 0004 7047     		bx	lr
 653              	.L46:
 654 0006 00BF     		.align	2
 655              	.L45:
 656 0008 00000000 		.word	rotation
 657              		.cfi_endproc
 658              	.LFE76:
 659              		.size	gfx_rotation, .-gfx_rotation
 660              		.section	.text.gfx_setCursor,"ax",%progbits
 661              		.align	1
 662              		.global	gfx_setCursor
 663              		.thumb
 664              		.thumb_func
 665              		.type	gfx_setCursor, %function
 666              	gfx_setCursor:
 667              	.LFB77:
 367:ssd1306.c     ****     cursor_x = x;
 668              		.loc 1 367 0
 669              		.cfi_startproc
 670              		@ args = 0, pretend = 0, frame = 0
 671              		@ frame_needed = 0, uses_anonymous_args = 0
 672              		@ link register save eliminated.
ARM GAS  C:\Users\Kiwi\AppData\Local\Temp\ccKDkYuk.s 			page 25


 673              	.LVL38:
 368:ssd1306.c     ****     cursor_y = y;
 674              		.loc 1 368 0
 675 0000 014B     		ldr	r3, .L48
 676 0002 D880     		strh	r0, [r3, #6]	@ movhi
 369:ssd1306.c     **** }
 677              		.loc 1 369 0
 678 0004 5980     		strh	r1, [r3, #2]	@ movhi
 679 0006 7047     		bx	lr
 680              	.L49:
 681              		.align	2
 682              	.L48:
 683 0008 00000000 		.word	.LANCHOR0
 684              		.cfi_endproc
 685              	.LFE77:
 686              		.size	gfx_setCursor, .-gfx_setCursor
 687              		.section	.text.gfx_setTextSize,"ax",%progbits
 688              		.align	1
 689              		.global	gfx_setTextSize
 690              		.thumb
 691              		.thumb_func
 692              		.type	gfx_setTextSize, %function
 693              	gfx_setTextSize:
 694              	.LFB78:
 372:ssd1306.c     ****     textsize = (size > 0) ? size : 1;
 695              		.loc 1 372 0
 696              		.cfi_startproc
 697              		@ args = 0, pretend = 0, frame = 0
 698              		@ frame_needed = 0, uses_anonymous_args = 0
 699              		@ link register save eliminated.
 700              	.LVL39:
 373:ssd1306.c     **** }
 701              		.loc 1 373 0
 702 0000 0028     		cmp	r0, #0
 703 0002 08BF     		it	eq
 704 0004 0120     		moveq	r0, #1
 705              	.LVL40:
 706 0006 014B     		ldr	r3, .L53
 707 0008 1871     		strb	r0, [r3, #4]
 708 000a 7047     		bx	lr
 709              	.L54:
 710              		.align	2
 711              	.L53:
 712 000c 00000000 		.word	.LANCHOR0
 713              		.cfi_endproc
 714              	.LFE78:
 715              		.size	gfx_setTextSize, .-gfx_setTextSize
 716              		.section	.text.gfx_setTextColor,"ax",%progbits
 717              		.align	1
 718              		.global	gfx_setTextColor
 719              		.thumb
 720              		.thumb_func
 721              		.type	gfx_setTextColor, %function
 722              	gfx_setTextColor:
 723              	.LFB79:
 376:ssd1306.c     ****     // For 'transparent' background, we'll set the bg
 724              		.loc 1 376 0
ARM GAS  C:\Users\Kiwi\AppData\Local\Temp\ccKDkYuk.s 			page 26


 725              		.cfi_startproc
 726              		@ args = 0, pretend = 0, frame = 0
 727              		@ frame_needed = 0, uses_anonymous_args = 0
 728              		@ link register save eliminated.
 729              	.LVL41:
 379:ssd1306.c     **** }
 730              		.loc 1 379 0
 731 0000 014B     		ldr	r3, .L56
 732 0002 9881     		strh	r0, [r3, #12]	@ movhi
 733 0004 D881     		strh	r0, [r3, #14]	@ movhi
 734 0006 7047     		bx	lr
 735              	.L57:
 736              		.align	2
 737              	.L56:
 738 0008 00000000 		.word	.LANCHOR0
 739              		.cfi_endproc
 740              	.LFE79:
 741              		.size	gfx_setTextColor, .-gfx_setTextColor
 742              		.section	.text.gfx_setTextBg,"ax",%progbits
 743              		.align	1
 744              		.global	gfx_setTextBg
 745              		.thumb
 746              		.thumb_func
 747              		.type	gfx_setTextBg, %function
 748              	gfx_setTextBg:
 749              	.LFB80:
 382:ssd1306.c     ****     textbgcolor = color;
 750              		.loc 1 382 0
 751              		.cfi_startproc
 752              		@ args = 0, pretend = 0, frame = 0
 753              		@ frame_needed = 0, uses_anonymous_args = 0
 754              		@ link register save eliminated.
 755              	.LVL42:
 383:ssd1306.c     **** }
 756              		.loc 1 383 0
 757 0000 014B     		ldr	r3, .L59
 758 0002 9881     		strh	r0, [r3, #12]	@ movhi
 759 0004 7047     		bx	lr
 760              	.L60:
 761 0006 00BF     		.align	2
 762              	.L59:
 763 0008 00000000 		.word	.LANCHOR0
 764              		.cfi_endproc
 765              	.LFE80:
 766              		.size	gfx_setTextBg, .-gfx_setTextBg
 767              		.section	.text.gfx_setTextWrap,"ax",%progbits
 768              		.align	1
 769              		.global	gfx_setTextWrap
 770              		.thumb
 771              		.thumb_func
 772              		.type	gfx_setTextWrap, %function
 773              	gfx_setTextWrap:
 774              	.LFB81:
 386:ssd1306.c     ****     wrap = w;
 775              		.loc 1 386 0
 776              		.cfi_startproc
 777              		@ args = 0, pretend = 0, frame = 0
ARM GAS  C:\Users\Kiwi\AppData\Local\Temp\ccKDkYuk.s 			page 27


 778              		@ frame_needed = 0, uses_anonymous_args = 0
 779              		@ link register save eliminated.
 780              	.LVL43:
 387:ssd1306.c     **** }
 781              		.loc 1 387 0
 782 0000 014B     		ldr	r3, .L62
 783 0002 1870     		strb	r0, [r3]
 784 0004 7047     		bx	lr
 785              	.L63:
 786 0006 00BF     		.align	2
 787              	.L62:
 788 0008 00000000 		.word	wrap
 789              		.cfi_endproc
 790              	.LFE81:
 791              		.size	gfx_setTextWrap, .-gfx_setTextWrap
 792              		.section	.text.gfx_setRotation,"ax",%progbits
 793              		.align	1
 794              		.global	gfx_setRotation
 795              		.thumb
 796              		.thumb_func
 797              		.type	gfx_setRotation, %function
 798              	gfx_setRotation:
 799              	.LFB82:
 390:ssd1306.c     ****     
 800              		.loc 1 390 0
 801              		.cfi_startproc
 802              		@ args = 0, pretend = 0, frame = 0
 803              		@ frame_needed = 0, uses_anonymous_args = 0
 804              		@ link register save eliminated.
 805              	.LVL44:
 392:ssd1306.c     ****     switch( rotation ){
 806              		.loc 1 392 0
 807 0000 00F00300 		and	r0, r0, #3
 808              	.LVL45:
 809 0004 084B     		ldr	r3, .L75
 393:ssd1306.c     ****         case 0:
 810              		.loc 1 393 0
 811 0006 0128     		cmp	r0, #1
 392:ssd1306.c     ****     switch( rotation ){
 812              		.loc 1 392 0
 813 0008 1870     		strb	r0, [r3]
 814 000a 084A     		ldr	r2, .L75+4
 815 000c 084B     		ldr	r3, .L75+8
 816 000e 0949     		ldr	r1, .L75+12
 393:ssd1306.c     ****         case 0:
 817              		.loc 1 393 0
 818 0010 05D0     		beq	.L66
 819 0012 0328     		cmp	r0, #3
 820 0014 03D0     		beq	.L66
 396:ssd1306.c     ****             _height = HEIGHT;
 821              		.loc 1 396 0
 822 0016 1288     		ldrh	r2, [r2]
 823 0018 1A81     		strh	r2, [r3, #8]	@ movhi
 397:ssd1306.c     ****             break;
 824              		.loc 1 397 0
 825 001a 0A88     		ldrh	r2, [r1]
 826 001c 02E0     		b	.L74
ARM GAS  C:\Users\Kiwi\AppData\Local\Temp\ccKDkYuk.s 			page 28


 827              	.L66:
 401:ssd1306.c     ****             _height = WIDTH;
 828              		.loc 1 401 0
 829 001e 0988     		ldrh	r1, [r1]
 402:ssd1306.c     ****         break;
 830              		.loc 1 402 0
 831 0020 1288     		ldrh	r2, [r2]
 401:ssd1306.c     ****             _height = WIDTH;
 832              		.loc 1 401 0
 833 0022 1981     		strh	r1, [r3, #8]	@ movhi
 834              	.L74:
 402:ssd1306.c     ****         break;
 835              		.loc 1 402 0
 836 0024 5A81     		strh	r2, [r3, #10]	@ movhi
 837 0026 7047     		bx	lr
 838              	.L76:
 839              		.align	2
 840              	.L75:
 841 0028 00000000 		.word	rotation
 842 002c 00000000 		.word	WIDTH
 843 0030 00000000 		.word	.LANCHOR0
 844 0034 00000000 		.word	HEIGHT
 845              		.cfi_endproc
 846              	.LFE82:
 847              		.size	gfx_setRotation, .-gfx_setRotation
 848              		.section	.text.gfx_drawPixel,"ax",%progbits
 849              		.align	1
 850              		.global	gfx_drawPixel
 851              		.thumb
 852              		.thumb_func
 853              		.type	gfx_drawPixel, %function
 854              	gfx_drawPixel:
 855              	.LFB84:
 427:ssd1306.c     ****     
 856              		.loc 1 427 0
 857              		.cfi_startproc
 858              		@ args = 0, pretend = 0, frame = 8
 859              		@ frame_needed = 0, uses_anonymous_args = 0
 860              	.LVL46:
 861 0000 13B5     		push	{r0, r1, r4, lr}
 862              		.cfi_def_cfa_offset 16
 863              		.cfi_offset 4, -8
 864              		.cfi_offset 14, -4
 427:ssd1306.c     ****     
 865              		.loc 1 427 0
 866 0002 ADF80600 		strh	r0, [sp, #6]	@ movhi
 429:ssd1306.c     ****         return;
 867              		.loc 1 429 0
 868 0006 0028     		cmp	r0, #0
 869              	.LVL47:
 427:ssd1306.c     ****     
 870              		.loc 1 427 0
 871 0008 1446     		mov	r4, r2
 872 000a ADF80410 		strh	r1, [sp, #4]	@ movhi
 429:ssd1306.c     ****         return;
 873              		.loc 1 429 0
 874 000e 44DB     		blt	.L77
ARM GAS  C:\Users\Kiwi\AppData\Local\Temp\ccKDkYuk.s 			page 29


 429:ssd1306.c     ****         return;
 875              		.loc 1 429 0 is_stmt 0 discriminator 1
 876 0010 234A     		ldr	r2, .L85
 877              	.LVL48:
 878 0012 B2F90830 		ldrsh	r3, [r2, #8]
 879 0016 8342     		cmp	r3, r0
 880 0018 3FDD     		ble	.L77
 429:ssd1306.c     ****         return;
 881              		.loc 1 429 0 discriminator 2
 882 001a 0BB2     		sxth	r3, r1
 883 001c 002B     		cmp	r3, #0
 884 001e 3CDB     		blt	.L77
 429:ssd1306.c     ****         return;
 885              		.loc 1 429 0 discriminator 3
 886 0020 B2F90A20 		ldrsh	r2, [r2, #10]
 887 0024 9A42     		cmp	r2, r3
 888 0026 38DD     		ble	.L77
 432:ssd1306.c     **** 
 889              		.loc 1 432 0 is_stmt 1
 890 0028 01A9     		add	r1, sp, #4
 891              	.LVL49:
 892 002a 0DF10600 		add	r0, sp, #6
 893              	.LVL50:
 894 002e FFF7FEFF 		bl	gfx_rotation_adjust
 895              	.LVL51:
 434:ssd1306.c     **** }
 896              		.loc 1 434 0
 897 0032 BDF90630 		ldrsh	r3, [sp, #6]
 898              	.LVL52:
 899              	.LBB13:
 900              	.LBB14:
 174:ssd1306.c     ****         return;
 901              		.loc 1 174 0
 902 0036 9AB2     		uxth	r2, r3
 903 0038 7F2A     		cmp	r2, #127
 904 003a 2ED8     		bhi	.L77
 905              	.LBE14:
 906              	.LBE13:
 434:ssd1306.c     **** }
 907              		.loc 1 434 0
 908 003c BDF90400 		ldrsh	r0, [sp, #4]
 909              	.LBB16:
 910              	.LBB15:
 174:ssd1306.c     ****         return;
 911              		.loc 1 174 0
 912 0040 81B2     		uxth	r1, r0
 913 0042 3F29     		cmp	r1, #63
 914 0044 29D8     		bhi	.L77
 177:ssd1306.c     ****         case WHITE: 
 915              		.loc 1 177 0
 916 0046 012C     		cmp	r4, #1
 917 0048 0ED0     		beq	.L81
 918 004a 19D3     		bcc	.L82
 919 004c 022C     		cmp	r4, #2
 920 004e 24D1     		bne	.L77
 185:ssd1306.c     ****             break;
 921              		.loc 1 185 0
ARM GAS  C:\Users\Kiwi\AppData\Local\Temp\ccKDkYuk.s 			page 30


 922 0050 144C     		ldr	r4, .L85+4
 923              	.LVL53:
 924 0052 C010     		asrs	r0, r0, #3
 925 0054 0122     		movs	r2, #1
 926 0056 03EBC013 		add	r3, r3, r0, lsl #7
 927              	.LVL54:
 928 005a 01F00701 		and	r1, r1, #7
 929 005e 02FA01F1 		lsl	r1, r2, r1
 930 0062 E25C     		ldrb	r2, [r4, r3]	@ zero_extendqisi2
 931 0064 5140     		eors	r1, r1, r2
 932 0066 17E0     		b	.L84
 933              	.LVL55:
 934              	.L81:
 179:ssd1306.c     ****             break;
 935              		.loc 1 179 0
 936 0068 0E4A     		ldr	r2, .L85+4
 937 006a C010     		asrs	r0, r0, #3
 938 006c 03EBC013 		add	r3, r3, r0, lsl #7
 939              	.LVL56:
 940 0070 01F00701 		and	r1, r1, #7
 941 0074 04FA01F1 		lsl	r1, r4, r1
 942 0078 D45C     		ldrb	r4, [r2, r3]	@ zero_extendqisi2
 943              	.LVL57:
 944 007a 2143     		orrs	r1, r1, r4
 945 007c D154     		strb	r1, [r2, r3]
 946 007e 0CE0     		b	.L77
 947              	.LVL58:
 948              	.L82:
 182:ssd1306.c     ****             break;
 949              		.loc 1 182 0
 950 0080 084C     		ldr	r4, .L85+4
 951              	.LVL59:
 952 0082 C010     		asrs	r0, r0, #3
 953 0084 0122     		movs	r2, #1
 954 0086 03EBC013 		add	r3, r3, r0, lsl #7
 955              	.LVL60:
 956 008a 01F00701 		and	r1, r1, #7
 957 008e 02FA01F1 		lsl	r1, r2, r1
 958 0092 E25C     		ldrb	r2, [r4, r3]	@ zero_extendqisi2
 959 0094 22EA0101 		bic	r1, r2, r1
 960              	.L84:
 185:ssd1306.c     ****             break;
 961              		.loc 1 185 0
 962 0098 E154     		strb	r1, [r4, r3]
 963              	.LVL61:
 964              	.L77:
 965              	.LBE15:
 966              	.LBE16:
 435:ssd1306.c     **** 
 967              		.loc 1 435 0
 968 009a 02B0     		add	sp, sp, #8
 969              		.cfi_def_cfa_offset 8
 970              		@ sp needed
 971 009c 10BD     		pop	{r4, pc}
 972              	.LVL62:
 973              	.L86:
 974 009e 00BF     		.align	2
ARM GAS  C:\Users\Kiwi\AppData\Local\Temp\ccKDkYuk.s 			page 31


 975              	.L85:
 976 00a0 00000000 		.word	.LANCHOR0
 977 00a4 01000000 		.word	.LANCHOR1+1
 978              		.cfi_endproc
 979              	.LFE84:
 980              		.size	gfx_drawPixel, .-gfx_drawPixel
 981              		.section	.text.gfx_drawLine,"ax",%progbits
 982              		.align	1
 983              		.global	gfx_drawLine
 984              		.thumb
 985              		.thumb_func
 986              		.type	gfx_drawLine, %function
 987              	gfx_drawLine:
 988              	.LFB86:
 472:ssd1306.c     ****  
 989              		.loc 1 472 0
 990              		.cfi_startproc
 991              		@ args = 4, pretend = 0, frame = 16
 992              		@ frame_needed = 0, uses_anonymous_args = 0
 993              	.LVL63:
 994 0000 2DE9F04F 		push	{r4, r5, r6, r7, r8, r9, r10, fp, lr}
 995              		.cfi_def_cfa_offset 36
 996              		.cfi_offset 4, -36
 997              		.cfi_offset 5, -32
 998              		.cfi_offset 6, -28
 999              		.cfi_offset 7, -24
 1000              		.cfi_offset 8, -20
 1001              		.cfi_offset 9, -16
 1002              		.cfi_offset 10, -12
 1003              		.cfi_offset 11, -8
 1004              		.cfi_offset 14, -4
 1005 0004 1646     		mov	r6, r2
 1006 0006 85B0     		sub	sp, sp, #20
 1007              		.cfi_def_cfa_offset 56
 474:ssd1306.c     ****         // vertical and horizontal lines can be drawn faster
 1008              		.loc 1 474 0
 1009 0008 B042     		cmp	r0, r6
 472:ssd1306.c     ****  
 1010              		.loc 1 472 0
 1011 000a 0446     		mov	r4, r0
 1012 000c 0D46     		mov	r5, r1
 1013 000e 1A46     		mov	r2, r3
 1014              	.LVL64:
 1015 0010 BDF83870 		ldrh	r7, [sp, #56]
 474:ssd1306.c     ****         // vertical and horizontal lines can be drawn faster
 1016              		.loc 1 474 0
 1017 0014 02D0     		beq	.L88
 474:ssd1306.c     ****         // vertical and horizontal lines can be drawn faster
 1018              		.loc 1 474 0 is_stmt 0 discriminator 1
 1019 0016 9942     		cmp	r1, r3
 1020 0018 40F00681 		bne	.L89
 1021              	.L88:
 1022              	.LBB26:
 1023              	.LBB27:
 440:ssd1306.c     ****         // neither vertical nor horizontal
 1024              		.loc 1 440 0 is_stmt 1
 1025 001c B442     		cmp	r4, r6
ARM GAS  C:\Users\Kiwi\AppData\Local\Temp\ccKDkYuk.s 			page 32


 1026 001e ADF80840 		strh	r4, [sp, #8]	@ movhi
 1027              	.LVL65:
 1028 0022 ADF80A50 		strh	r5, [sp, #10]	@ movhi
 1029              	.LVL66:
 1030 0026 ADF80C60 		strh	r6, [sp, #12]	@ movhi
 1031              	.LVL67:
 1032 002a ADF80E20 		strh	r2, [sp, #14]	@ movhi
 1033              	.LVL68:
 1034 002e 02D0     		beq	.L90
 1035 0030 9542     		cmp	r5, r2
 1036 0032 40F05481 		bne	.L87
 1037              	.L90:
 446:ssd1306.c     ****         if( x1 < 0 || x1 >= HEIGHT || x2 < 0 || x2 >= HEIGHT )
 1038              		.loc 1 446 0
 1039 0036 AB4B     		ldr	r3, .L133
 1040              	.LVL69:
 1041 0038 1B78     		ldrb	r3, [r3]	@ zero_extendqisi2
 1042 003a 03F0FD03 		and	r3, r3, #253
 1043 003e 012B     		cmp	r3, #1
 1044 0040 1CD1     		bne	.L91
 447:ssd1306.c     ****             return;
 1045              		.loc 1 447 0
 1046 0042 002C     		cmp	r4, #0
 1047 0044 C0F24B81 		blt	.L87
 1048 0048 A74B     		ldr	r3, .L133+4
 1049 004a B3F90030 		ldrsh	r3, [r3]
 1050 004e 9C42     		cmp	r4, r3
 1051 0050 80F24581 		bge	.L87
 1052 0054 002E     		cmp	r6, #0
 1053 0056 C0F24281 		blt	.L87
 1054 005a 9E42     		cmp	r6, r3
 1055 005c 80F23F81 		bge	.L87
 449:ssd1306.c     ****             return;
 1056              		.loc 1 449 0
 1057 0060 002D     		cmp	r5, #0
 1058 0062 C0F23C81 		blt	.L87
 1059 0066 A14B     		ldr	r3, .L133+8
 1060 0068 B3F90030 		ldrsh	r3, [r3]
 1061 006c 9D42     		cmp	r5, r3
 1062 006e 80F23681 		bge	.L87
 1063 0072 002A     		cmp	r2, #0
 1064 0074 C0F23381 		blt	.L87
 1065 0078 9A42     		cmp	r2, r3
 1066 007a 1BE0     		b	.L127
 1067              	.L91:
 452:ssd1306.c     ****             return;
 1068              		.loc 1 452 0
 1069 007c 002D     		cmp	r5, #0
 1070 007e C0F22E81 		blt	.L87
 1071 0082 994B     		ldr	r3, .L133+4
 1072 0084 B3F90030 		ldrsh	r3, [r3]
 1073 0088 9D42     		cmp	r5, r3
 1074 008a 80F22881 		bge	.L87
 1075 008e 002A     		cmp	r2, #0
 1076 0090 C0F22581 		blt	.L87
 1077 0094 9A42     		cmp	r2, r3
 1078 0096 80F22281 		bge	.L87
ARM GAS  C:\Users\Kiwi\AppData\Local\Temp\ccKDkYuk.s 			page 33


 454:ssd1306.c     ****             return;
 1079              		.loc 1 454 0
 1080 009a 002C     		cmp	r4, #0
 1081 009c C0F21F81 		blt	.L87
 1082 00a0 924B     		ldr	r3, .L133+8
 1083 00a2 B3F90030 		ldrsh	r3, [r3]
 1084 00a6 9C42     		cmp	r4, r3
 1085 00a8 80F21981 		bge	.L87
 1086 00ac 002E     		cmp	r6, #0
 1087 00ae C0F21681 		blt	.L87
 1088 00b2 9E42     		cmp	r6, r3
 1089              	.L127:
 1090 00b4 80F21381 		bge	.L87
 458:ssd1306.c     ****     gfx_rotation_adjust( &x2, &y2 );
 1091              		.loc 1 458 0
 1092 00b8 0DF10A01 		add	r1, sp, #10
 1093              	.LVL70:
 1094 00bc 02A8     		add	r0, sp, #8
 1095              	.LVL71:
 1096 00be FFF7FEFF 		bl	gfx_rotation_adjust
 1097              	.LVL72:
 459:ssd1306.c     ****     
 1098              		.loc 1 459 0
 1099 00c2 0DF10E01 		add	r1, sp, #14
 1100              	.LVL73:
 1101 00c6 03A8     		add	r0, sp, #12
 1102 00c8 FFF7FEFF 		bl	gfx_rotation_adjust
 1103              	.LVL74:
 462:ssd1306.c     ****         // swap as needed
 1104              		.loc 1 462 0
 1105 00cc BDF90820 		ldrsh	r2, [sp, #8]
 1106 00d0 BDF90C10 		ldrsh	r1, [sp, #12]
 1107 00d4 BDF90E00 		ldrsh	r0, [sp, #14]
 1108 00d8 8A42     		cmp	r2, r1
 1109 00da BDF90A30 		ldrsh	r3, [sp, #10]
 1110 00de 01D1     		bne	.L94
 1111 00e0 9842     		cmp	r0, r3
 1112 00e2 03DB     		blt	.L95
 1113              	.L94:
 1114 00e4 8342     		cmp	r3, r0
 1115 00e6 0BD1     		bne	.L96
 1116 00e8 8A42     		cmp	r2, r1
 1117 00ea 09DD     		ble	.L96
 1118              	.L95:
 1119              	.LVL75:
 1120              	.LBB28:
 464:ssd1306.c     ****         t = y1; y1 = y2; y2 = t;
 1121              		.loc 1 464 0
 1122 00ec ADF80C20 		strh	r2, [sp, #12]	@ movhi
 1123              	.LVL76:
 465:ssd1306.c     ****     }
 1124              		.loc 1 465 0
 1125 00f0 BDF80E20 		ldrh	r2, [sp, #14]
 464:ssd1306.c     ****         t = y1; y1 = y2; y2 = t;
 1126              		.loc 1 464 0
 1127 00f4 ADF80810 		strh	r1, [sp, #8]	@ movhi
 465:ssd1306.c     ****     }
ARM GAS  C:\Users\Kiwi\AppData\Local\Temp\ccKDkYuk.s 			page 34


 1128              		.loc 1 465 0
 1129 00f8 ADF80A20 		strh	r2, [sp, #10]	@ movhi
 1130 00fc ADF80E30 		strh	r3, [sp, #14]	@ movhi
 1131              	.LVL77:
 1132              	.L96:
 1133              	.LBE28:
 468:ssd1306.c     **** }
 1134              		.loc 1 468 0
 1135 0100 BDF90800 		ldrsh	r0, [sp, #8]
 1136 0104 BDF90C40 		ldrsh	r4, [sp, #12]
 1137              	.LVL78:
 1138 0108 BDF90A10 		ldrsh	r1, [sp, #10]
 1139              	.LVL79:
 1140              	.LBB29:
 1141              	.LBB30:
 242:ssd1306.c     ****         // vertical
 1142              		.loc 1 242 0
 1143 010c A042     		cmp	r0, r4
 1144 010e 784B     		ldr	r3, .L133+12
 1145 0110 4FF00802 		mov	r2, #8
 1146 0114 68D1     		bne	.L97
 1147              	.LVL80:
 1148              	.LBE30:
 1149              	.LBE29:
 468:ssd1306.c     **** }
 1150              		.loc 1 468 0
 1151 0116 BDF90EE0 		ldrsh	lr, [sp, #14]
 1152              	.LBB47:
 1153              	.LBB45:
 1154              	.LBB31:
 244:ssd1306.c     ****         uint8_t* pend = GDDRAM_ADDRESS(x2,y2);       
 1155              		.loc 1 244 0
 1156 011a 91FBF2F5 		sdiv	r5, r1, r2
 1157              	.LVL81:
 245:ssd1306.c     ****         uint8_t* ptr = pstart;             
 1158              		.loc 1 245 0
 1159 011e 9EFBF2F2 		sdiv	r2, lr, r2
 244:ssd1306.c     ****         uint8_t* pend = GDDRAM_ADDRESS(x2,y2);       
 1160              		.loc 1 244 0
 1161 0122 00EBC515 		add	r5, r0, r5, lsl #7
 245:ssd1306.c     ****         uint8_t* ptr = pstart;             
 1162              		.loc 1 245 0
 1163 0126 00EBC212 		add	r2, r0, r2, lsl #7
 244:ssd1306.c     ****         uint8_t* pend = GDDRAM_ADDRESS(x2,y2);       
 1164              		.loc 1 244 0
 1165 012a 1D44     		add	r5, r5, r3
 1166              	.LVL82:
 245:ssd1306.c     ****         uint8_t* ptr = pstart;             
 1167              		.loc 1 245 0
 1168 012c 1344     		add	r3, r3, r2
 1169              	.LVL83:
 1170              	.LBB32:
 1171              	.LBB33:
 253:ssd1306.c     ****                 // bottom (line can be very short, all inside this one byte)
 1172              		.loc 1 253 0
 1173 012e 714A     		ldr	r2, .L133+16
 1174 0130 05F18000 		add	r0, r5, #128
ARM GAS  C:\Users\Kiwi\AppData\Local\Temp\ccKDkYuk.s 			page 35


 1175              	.LVL84:
 1176 0134 0A40     		ands	r2, r2, r1
 1177 0136 002A     		cmp	r2, #0
 1178 0138 BEBF     		ittt	lt
 1179 013a 02F1FF32 		addlt	r2, r2, #-1
 1180 013e 62F00702 		ornlt	r2, r2, #7
 1181 0142 0132     		addlt	r2, r2, #1
 1182 0144 D6B2     		uxtb	r6, r2
 1183              	.LVL85:
 1184              	.LBE33:
 262:ssd1306.c     ****             }
 1185              		.loc 1 262 0
 1186 0146 6B4A     		ldr	r2, .L133+16
 1187              	.LBB34:
 255:ssd1306.c     ****                 if( ubit >= 7 )
 1188              		.loc 1 255 0
 1189 0148 741A     		subs	r4, r6, r1
 1190              	.LBE34:
 262:ssd1306.c     ****             }
 1191              		.loc 1 262 0
 1192 014a 0EEA0202 		and	r2, lr, r2
 1193 014e 002A     		cmp	r2, #0
 1194 0150 B8BF     		it	lt
 1195 0152 02F1FF32 		addlt	r2, r2, #-1
 1196              	.LBB35:
 255:ssd1306.c     ****                 if( ubit >= 7 )
 1197              		.loc 1 255 0
 1198 0156 7444     		add	r4, r4, lr
 1199              	.LBE35:
 262:ssd1306.c     ****             }
 1200              		.loc 1 262 0
 1201 0158 B8BF     		it	lt
 1202 015a 62F00702 		ornlt	r2, r2, #7
 1203              	.LBB36:
 255:ssd1306.c     ****                 if( ubit >= 7 )
 1204              		.loc 1 255 0
 1205 015e E4B2     		uxtb	r4, r4
 1206              	.LBE36:
 262:ssd1306.c     ****             }
 1207              		.loc 1 262 0
 1208 0160 B8BF     		it	lt
 1209 0162 0132     		addlt	r2, r2, #1
 1210              	.LBB37:
 258:ssd1306.c     ****             }else if( ptr == pend ){
 1211              		.loc 1 258 0
 1212 0164 072C     		cmp	r4, #7
 1213 0166 94BF     		ite	ls
 1214 0168 C6EB0404 		rsbls	r4, r6, r4
 1215 016c C6F10704 		rsbhi	r4, r6, #7
 1216              	.LBE37:
 262:ssd1306.c     ****             }
 1217              		.loc 1 262 0
 1218 0170 4FF0010E 		mov	lr, #1
 1219 0174 12B2     		sxth	r2, r2
 1220 0176 0EFA02F2 		lsl	r2, lr, r2
 1221 017a 013A     		subs	r2, r2, #1
 1222 017c D1B2     		uxtb	r1, r2
ARM GAS  C:\Users\Kiwi\AppData\Local\Temp\ccKDkYuk.s 			page 36


 1223              	.LVL86:
 1224              	.LBE32:
 244:ssd1306.c     ****         uint8_t* pend = GDDRAM_ADDRESS(x2,y2);       
 1225              		.loc 1 244 0
 1226 017e 2A46     		mov	r2, r5
 1227              	.LBB40:
 1228              	.LBB38:
 258:ssd1306.c     ****             }else if( ptr == pend ){
 1229              		.loc 1 258 0
 1230 0180 7444     		add	r4, r4, lr
 1231 0182 0EFA04F4 		lsl	r4, lr, r4
 1232 0186 013C     		subs	r4, r4, #1
 1233 0188 04FA06F6 		lsl	r6, r4, r6
 1234 018c F6B2     		uxtb	r6, r6
 1235              	.LBE38:
 274:ssd1306.c     ****                     case INVERSE:   *ptr ^= 0xff; break;
 1236              		.loc 1 274 0
 1237 018e 4FF0000C 		mov	ip, #0
 273:ssd1306.c     ****                     case BLACK:     *ptr = 0x00; break;
 1238              		.loc 1 273 0
 1239 0192 4FF0FF08 		mov	r8, #255
 1240              	.LVL87:
 1241              	.L100:
 1242              	.LBE40:
 248:ssd1306.c     ****             
 1243              		.loc 1 248 0
 1244 0196 9342     		cmp	r3, r2
 1245 0198 C0F0A180 		bcc	.L87
 1246              	.LBB41:
 251:ssd1306.c     ****                 // top
 1247              		.loc 1 251 0
 1248 019c 9542     		cmp	r5, r2
 1249 019e 04D0     		beq	.L125
 259:ssd1306.c     ****                 // top is always bit 0, that makes it easy
 1250              		.loc 1 259 0
 1251 01a0 9342     		cmp	r3, r2
 1252 01a2 40F09280 		bne	.L102
 262:ssd1306.c     ****             }
 1253              		.loc 1 262 0
 1254 01a6 0C46     		mov	r4, r1
 1255 01a8 00E0     		b	.L101
 1256              	.L125:
 1257              	.LBB39:
 258:ssd1306.c     ****             }else if( ptr == pend ){
 1258              		.loc 1 258 0
 1259 01aa 3446     		mov	r4, r6
 1260              	.L101:
 1261              	.LBE39:
 266:ssd1306.c     ****                     case WHITE:     *ptr |= mask; break;
 1262              		.loc 1 266 0
 1263 01ac 012F     		cmp	r7, #1
 1264 01ae 07D0     		beq	.L104
 1265 01b0 0BD3     		bcc	.L105
 1266 01b2 022F     		cmp	r7, #2
 1267 01b4 15D1     		bne	.L103
 269:ssd1306.c     ****                 };  
 1268              		.loc 1 269 0
ARM GAS  C:\Users\Kiwi\AppData\Local\Temp\ccKDkYuk.s 			page 37


 1269 01b6 10F880EC 		ldrb	lr, [r0, #-128]	@ zero_extendqisi2
 1270 01ba 84EA0E04 		eor	r4, r4, lr
 1271 01be 0EE0     		b	.L128
 1272              	.L104:
 267:ssd1306.c     ****                     case BLACK:     *ptr &= ~mask; break;
 1273              		.loc 1 267 0
 1274 01c0 10F880EC 		ldrb	lr, [r0, #-128]	@ zero_extendqisi2
 1275 01c4 44EA0E04 		orr	r4, r4, lr
 1276 01c8 09E0     		b	.L128
 1277              	.L105:
 268:ssd1306.c     ****                     case INVERSE:   *ptr ^= mask; break;
 1278              		.loc 1 268 0
 1279 01ca 10F880EC 		ldrb	lr, [r0, #-128]	@ zero_extendqisi2
 1280 01ce 2EEA0404 		bic	r4, lr, r4
 1281 01d2 04E0     		b	.L128
 1282              	.L132:
 272:ssd1306.c     ****                     case WHITE:     *ptr = 0xff; break;
 1283              		.loc 1 272 0
 1284 01d4 022F     		cmp	r7, #2
 1285 01d6 04D1     		bne	.L103
 275:ssd1306.c     ****                 };  
 1286              		.loc 1 275 0
 1287 01d8 10F8804C 		ldrb	r4, [r0, #-128]	@ zero_extendqisi2
 1288 01dc E443     		mvns	r4, r4
 1289              	.L128:
 1290 01de 00F8804C 		strb	r4, [r0, #-128]
 1291              	.L103:
 279:ssd1306.c     ****         }
 1292              		.loc 1 279 0
 1293 01e2 8032     		adds	r2, r2, #128
 1294              	.LVL88:
 1295 01e4 8030     		adds	r0, r0, #128
 1296 01e6 D6E7     		b	.L100
 1297              	.LVL89:
 1298              	.L97:
 1299              	.LBE41:
 1300              	.LBE31:
 1301              	.LBB43:
 283:ssd1306.c     ****         uint8_t* pend = pstart + x2 - x1;
 1302              		.loc 1 283 0
 1303 01e8 91FBF2F2 		sdiv	r2, r1, r2
 285:ssd1306.c     **** 
 1304              		.loc 1 285 0
 1305 01ec 01F00701 		and	r1, r1, #7
 1306              	.LVL90:
 283:ssd1306.c     ****         uint8_t* pend = pstart + x2 - x1;
 1307              		.loc 1 283 0
 1308 01f0 00EBC212 		add	r2, r0, r2, lsl #7
 284:ssd1306.c     ****         uint8_t pixmask = GDDRAM_PIXMASK(y1);    
 1309              		.loc 1 284 0
 1310 01f4 201A     		subs	r0, r4, r0
 1311              	.LVL91:
 285:ssd1306.c     **** 
 1312              		.loc 1 285 0
 1313 01f6 0124     		movs	r4, #1
 1314              	.LVL92:
 1315 01f8 04FA01F1 		lsl	r1, r4, r1
ARM GAS  C:\Users\Kiwi\AppData\Local\Temp\ccKDkYuk.s 			page 38


 1316 01fc CCB2     		uxtb	r4, r1
 291:ssd1306.c     ****                 case INVERSE:   *ptr ^= pixmask; break;
 1317              		.loc 1 291 0
 1318 01fe C943     		mvns	r1, r1
 283:ssd1306.c     ****         uint8_t* pend = pstart + x2 - x1;
 1319              		.loc 1 283 0
 1320 0200 1344     		add	r3, r3, r2
 1321              	.LVL93:
 284:ssd1306.c     ****         uint8_t pixmask = GDDRAM_PIXMASK(y1);    
 1322              		.loc 1 284 0
 1323 0202 1844     		add	r0, r0, r3
 1324              	.LVL94:
 1325              	.L111:
 288:ssd1306.c     ****             switch( color ){
 1326              		.loc 1 288 0
 1327 0204 9842     		cmp	r0, r3
 1328 0206 6AD3     		bcc	.L87
 289:ssd1306.c     ****                 case WHITE:     *ptr |= pixmask; break;
 1329              		.loc 1 289 0
 1330 0208 012F     		cmp	r7, #1
 1331 020a 05D0     		beq	.L113
 1332 020c 07D3     		bcc	.L114
 1333 020e 022F     		cmp	r7, #2
 1334 0210 08D1     		bne	.L112
 292:ssd1306.c     ****             };
 1335              		.loc 1 292 0
 1336 0212 1A78     		ldrb	r2, [r3]	@ zero_extendqisi2
 1337 0214 6240     		eors	r2, r2, r4
 1338 0216 04E0     		b	.L129
 1339              	.L113:
 290:ssd1306.c     ****                 case BLACK:     *ptr &= ~pixmask; break;
 1340              		.loc 1 290 0
 1341 0218 1A78     		ldrb	r2, [r3]	@ zero_extendqisi2
 1342 021a 2243     		orrs	r2, r2, r4
 1343 021c 01E0     		b	.L129
 1344              	.L114:
 291:ssd1306.c     ****                 case INVERSE:   *ptr ^= pixmask; break;
 1345              		.loc 1 291 0
 1346 021e 1A78     		ldrb	r2, [r3]	@ zero_extendqisi2
 1347 0220 0A40     		ands	r2, r2, r1
 1348              	.L129:
 292:ssd1306.c     ****             };
 1349              		.loc 1 292 0
 1350 0222 1A70     		strb	r2, [r3]
 1351              	.L112:
 294:ssd1306.c     ****         }
 1352              		.loc 1 294 0
 1353 0224 0133     		adds	r3, r3, #1
 1354              	.LVL95:
 1355 0226 EDE7     		b	.L111
 1356              	.LVL96:
 1357              	.L89:
 1358              	.LBE43:
 1359              	.LBE45:
 1360              	.LBE47:
 1361              	.LBE27:
 1362              	.LBE26:
ARM GAS  C:\Users\Kiwi\AppData\Local\Temp\ccKDkYuk.s 			page 39


 482:ssd1306.c     ****     if( steep ){
 1363              		.loc 1 482 0
 1364 0228 C1EB0308 		rsb	r8, r1, r3
 1365 022c C0EB0609 		rsb	r9, r0, r6
 1366 0230 B8F1000F 		cmp	r8, #0
 1367 0234 B8BF     		it	lt
 1368 0236 C8F10008 		rsblt	r8, r8, #0
 1369 023a B9F1000F 		cmp	r9, #0
 1370 023e B8BF     		it	lt
 1371 0240 C9F10009 		rsblt	r9, r9, #0
 1372              	.LVL97:
 483:ssd1306.c     ****         t = x0; x0 = y0; y0 = t;
 1373              		.loc 1 483 0
 1374 0244 C845     		cmp	r8, r9
 1375 0246 04DD     		ble	.L117
 1376 0248 3346     		mov	r3, r6
 1377              	.LVL98:
 1378 024a 0C46     		mov	r4, r1
 1379 024c 1646     		mov	r6, r2
 1380 024e 0546     		mov	r5, r0
 1381 0250 1A46     		mov	r2, r3
 1382              	.L117:
 1383              	.LVL99:
 487:ssd1306.c     ****         t = x0; x0 = x1; x1 = t;
 1384              		.loc 1 487 0
 1385 0252 B442     		cmp	r4, r6
 1386 0254 05DD     		ble	.L118
 1387 0256 2B46     		mov	r3, r5
 489:ssd1306.c     ****     }
 1388              		.loc 1 489 0
 1389 0258 1546     		mov	r5, r2
 1390              	.LVL100:
 1391 025a 1A46     		mov	r2, r3
 1392              	.LVL101:
 487:ssd1306.c     ****         t = x0; x0 = x1; x1 = t;
 1393              		.loc 1 487 0
 1394 025c 2346     		mov	r3, r4
 1395 025e 3446     		mov	r4, r6
 1396              	.LVL102:
 1397 0260 1E46     		mov	r6, r3
 1398              	.LVL103:
 1399              	.L118:
 493:ssd1306.c     ****     int16_t err = dx / 2;
 1400              		.loc 1 493 0
 1401 0262 C5EB020B 		rsb	fp, r5, r2
 1402 0266 5B46     		mov	r3, fp
 492:ssd1306.c     ****     dy = abs(y1 - y0);
 1403              		.loc 1 492 0
 1404 0268 C4EB060A 		rsb	r10, r4, r6
 493:ssd1306.c     ****     int16_t err = dx / 2;
 1405              		.loc 1 493 0
 1406 026c 002B     		cmp	r3, #0
 1407 026e B8BF     		it	lt
 1408 0270 5B42     		rsblt	r3, r3, #0
 492:ssd1306.c     ****     dy = abs(y1 - y0);
 1409              		.loc 1 492 0
 1410 0272 1FFA8AFA 		uxth	r10, r10
ARM GAS  C:\Users\Kiwi\AppData\Local\Temp\ccKDkYuk.s 			page 40


 1411              	.LVL104:
 493:ssd1306.c     ****     int16_t err = dx / 2;
 1412              		.loc 1 493 0
 1413 0276 0193     		str	r3, [sp, #4]
 1414              	.LVL105:
 494:ssd1306.c     ****     int16_t ystep;
 1415              		.loc 1 494 0
 1416 0278 0FFA8AF1 		sxth	r1, r10
 1417 027c 0223     		movs	r3, #2
 1418 027e 91FBF3FB 		sdiv	fp, r1, r3
 1419              	.LVL106:
 499:ssd1306.c     ****     }
 1420              		.loc 1 499 0
 1421 0282 9542     		cmp	r5, r2
 1422 0284 B4BF     		ite	lt
 1423 0286 0123     		movlt	r3, #1
 1424 0288 4FF0FF33 		movge	r3, #-1
 1425 028c 0093     		str	r3, [sp]
 1426              	.LVL107:
 1427              	.L120:
 501:ssd1306.c     ****         if( steep ){
 1428              		.loc 1 501 0 discriminator 1
 1429 028e B442     		cmp	r4, r6
 1430 0290 25DC     		bgt	.L87
 502:ssd1306.c     ****             gfx_drawPixel( y0, x0, color );
 1431              		.loc 1 502 0
 1432 0292 C845     		cmp	r8, r9
 503:ssd1306.c     ****         }else{
 1433              		.loc 1 503 0
 1434 0294 3A46     		mov	r2, r7
 1435 0296 C7BF     		ittee	gt
 1436 0298 2146     		movgt	r1, r4
 1437 029a 2846     		movgt	r0, r5
 505:ssd1306.c     ****         }
 1438              		.loc 1 505 0
 1439 029c 2946     		movle	r1, r5
 1440 029e 2046     		movle	r0, r4
 1441 02a0 FFF7FEFF 		bl	gfx_drawPixel
 1442              	.LVL108:
 507:ssd1306.c     ****         if( err < 0 ){
 1443              		.loc 1 507 0
 1444 02a4 019B     		ldr	r3, [sp, #4]
 1445 02a6 C3EB0B03 		rsb	r3, r3, fp
 1446 02aa 9AB2     		uxth	r2, r3
 1447 02ac 0FFA82FB 		sxth	fp, r2
 1448              	.LVL109:
 508:ssd1306.c     ****             y0 += ystep;
 1449              		.loc 1 508 0
 1450 02b0 BBF1000F 		cmp	fp, #0
 1451 02b4 06DA     		bge	.L123
 509:ssd1306.c     ****             err += dx;
 1452              		.loc 1 509 0
 1453 02b6 009B     		ldr	r3, [sp]
 1454 02b8 1D44     		add	r5, r5, r3
 1455              	.LVL110:
 510:ssd1306.c     ****         }
 1456              		.loc 1 510 0
ARM GAS  C:\Users\Kiwi\AppData\Local\Temp\ccKDkYuk.s 			page 41


 1457 02ba 0AEB0203 		add	r3, r10, r2
 509:ssd1306.c     ****             err += dx;
 1458              		.loc 1 509 0
 1459 02be 2DB2     		sxth	r5, r5
 1460              	.LVL111:
 510:ssd1306.c     ****         }
 1461              		.loc 1 510 0
 1462 02c0 0FFA83FB 		sxth	fp, r3
 1463              	.LVL112:
 1464              	.L123:
 1465 02c4 0134     		adds	r4, r4, #1
 1466              	.LVL113:
 1467 02c6 24B2     		sxth	r4, r4
 1468              	.LVL114:
 1469 02c8 E1E7     		b	.L120
 1470              	.LVL115:
 1471              	.L102:
 1472              	.LBB50:
 1473              	.LBB49:
 1474              	.LBB48:
 1475              	.LBB46:
 1476              	.LBB44:
 1477              	.LBB42:
 272:ssd1306.c     ****                     case WHITE:     *ptr = 0xff; break;
 1478              		.loc 1 272 0
 1479 02ca 012F     		cmp	r7, #1
 1480 02cc 02D1     		bne	.L131
 273:ssd1306.c     ****                     case BLACK:     *ptr = 0x00; break;
 1481              		.loc 1 273 0
 1482 02ce 00F8808C 		strb	r8, [r0, #-128]
 1483 02d2 86E7     		b	.L103
 1484              	.L131:
 272:ssd1306.c     ****                     case WHITE:     *ptr = 0xff; break;
 1485              		.loc 1 272 0
 1486 02d4 BFF47EAF 		bcs	.L132
 274:ssd1306.c     ****                     case INVERSE:   *ptr ^= 0xff; break;
 1487              		.loc 1 274 0
 1488 02d8 00F880CC 		strb	ip, [r0, #-128]
 1489 02dc 81E7     		b	.L103
 1490              	.LVL116:
 1491              	.L87:
 1492              	.LBE42:
 1493              	.LBE44:
 1494              	.LBE46:
 1495              	.LBE48:
 1496              	.LBE49:
 1497              	.LBE50:
 513:ssd1306.c     **** 
 1498              		.loc 1 513 0
 1499 02de 05B0     		add	sp, sp, #20
 1500              		.cfi_def_cfa_offset 36
 1501              		@ sp needed
 1502 02e0 BDE8F08F 		pop	{r4, r5, r6, r7, r8, r9, r10, fp, pc}
 1503              	.LVL117:
 1504              	.L134:
 1505              		.align	2
 1506              	.L133:
ARM GAS  C:\Users\Kiwi\AppData\Local\Temp\ccKDkYuk.s 			page 42


 1507 02e4 00000000 		.word	rotation
 1508 02e8 00000000 		.word	HEIGHT
 1509 02ec 00000000 		.word	WIDTH
 1510 02f0 01000000 		.word	.LANCHOR1+1
 1511 02f4 07000080 		.word	-2147483641
 1512              		.cfi_endproc
 1513              	.LFE86:
 1514              		.size	gfx_drawLine, .-gfx_drawLine
 1515              		.section	.text.gfx_drawRect,"ax",%progbits
 1516              		.align	1
 1517              		.global	gfx_drawRect
 1518              		.thumb
 1519              		.thumb_func
 1520              		.type	gfx_drawRect, %function
 1521              	gfx_drawRect:
 1522              	.LFB87:
 515:ssd1306.c     ****     
 1523              		.loc 1 515 0
 1524              		.cfi_startproc
 1525              		@ args = 4, pretend = 0, frame = 0
 1526              		@ frame_needed = 0, uses_anonymous_args = 0
 1527              	.LVL118:
 1528 0000 2DE9F341 		push	{r0, r1, r4, r5, r6, r7, r8, lr}
 1529              		.cfi_def_cfa_offset 32
 1530              		.cfi_offset 4, -24
 1531              		.cfi_offset 5, -20
 1532              		.cfi_offset 6, -16
 1533              		.cfi_offset 7, -12
 1534              		.cfi_offset 8, -8
 1535              		.cfi_offset 14, -4
 515:ssd1306.c     ****     
 1536              		.loc 1 515 0
 1537 0004 1C46     		mov	r4, r3
 1538 0006 0E46     		mov	r6, r1
 1539 0008 8046     		mov	r8, r0
 517:ssd1306.c     ****     gfx_drawLine( x, y+h-1, x+w-1, y+h-1, color );
 1540              		.loc 1 517 0
 1541 000a 013A     		subs	r2, r2, #1
 1542              	.LVL119:
 515:ssd1306.c     ****     
 1543              		.loc 1 515 0
 1544 000c BDF82070 		ldrh	r7, [sp, #32]
 517:ssd1306.c     ****     gfx_drawLine( x, y+h-1, x+w-1, y+h-1, color );
 1545              		.loc 1 517 0
 1546 0010 1518     		adds	r5, r2, r0
 518:ssd1306.c     ****     gfx_drawLine( x, y, x, y+h-1, color );
 1547              		.loc 1 518 0
 1548 0012 013C     		subs	r4, r4, #1
 517:ssd1306.c     ****     gfx_drawLine( x, y+h-1, x+w-1, y+h-1, color );
 1549              		.loc 1 517 0
 1550 0014 2DB2     		sxth	r5, r5
 518:ssd1306.c     ****     gfx_drawLine( x, y, x, y+h-1, color );
 1551              		.loc 1 518 0
 1552 0016 3444     		add	r4, r4, r6
 1553 0018 24B2     		sxth	r4, r4
 517:ssd1306.c     ****     gfx_drawLine( x, y+h-1, x+w-1, y+h-1, color );
 1554              		.loc 1 517 0
ARM GAS  C:\Users\Kiwi\AppData\Local\Temp\ccKDkYuk.s 			page 43


 1555 001a 0B46     		mov	r3, r1
 1556              	.LVL120:
 1557 001c 2A46     		mov	r2, r5
 1558 001e 0097     		str	r7, [sp]
 1559 0020 FFF7FEFF 		bl	gfx_drawLine
 1560              	.LVL121:
 518:ssd1306.c     ****     gfx_drawLine( x, y, x, y+h-1, color );
 1561              		.loc 1 518 0
 1562 0024 2346     		mov	r3, r4
 1563 0026 2A46     		mov	r2, r5
 1564 0028 2146     		mov	r1, r4
 1565 002a 4046     		mov	r0, r8
 1566 002c 0097     		str	r7, [sp]
 1567 002e FFF7FEFF 		bl	gfx_drawLine
 1568              	.LVL122:
 519:ssd1306.c     ****     gfx_drawLine( x+w-1, y, x+w-1, y+h-1, color );
 1569              		.loc 1 519 0
 1570 0032 2346     		mov	r3, r4
 1571 0034 4246     		mov	r2, r8
 1572 0036 3146     		mov	r1, r6
 1573 0038 4046     		mov	r0, r8
 1574 003a 0097     		str	r7, [sp]
 1575 003c FFF7FEFF 		bl	gfx_drawLine
 1576              	.LVL123:
 520:ssd1306.c     **** }
 1577              		.loc 1 520 0
 1578 0040 2346     		mov	r3, r4
 1579 0042 2A46     		mov	r2, r5
 1580 0044 3146     		mov	r1, r6
 1581 0046 2846     		mov	r0, r5
 1582 0048 0897     		str	r7, [sp, #32]
 521:ssd1306.c     **** 
 1583              		.loc 1 521 0
 1584 004a 02B0     		add	sp, sp, #8
 1585              		.cfi_def_cfa_offset 24
 1586              		@ sp needed
 1587 004c BDE8F041 		pop	{r4, r5, r6, r7, r8, lr}
 1588              		.cfi_restore 14
 1589              		.cfi_restore 8
 1590              		.cfi_restore 7
 1591              		.cfi_restore 6
 1592              		.cfi_restore 5
 1593              		.cfi_restore 4
 1594              		.cfi_def_cfa_offset 0
 1595              	.LVL124:
 520:ssd1306.c     **** }
 1596              		.loc 1 520 0
 1597 0050 FFF7FEBF 		b	gfx_drawLine
 1598              	.LVL125:
 1599              		.cfi_endproc
 1600              	.LFE87:
 1601              		.size	gfx_drawRect, .-gfx_drawRect
 1602              		.section	.text.gfx_fillRect,"ax",%progbits
 1603              		.align	1
 1604              		.global	gfx_fillRect
 1605              		.thumb
 1606              		.thumb_func
ARM GAS  C:\Users\Kiwi\AppData\Local\Temp\ccKDkYuk.s 			page 44


 1607              		.type	gfx_fillRect, %function
 1608              	gfx_fillRect:
 1609              	.LFB88:
 523:ssd1306.c     ****     int16_t i = 0;
 1610              		.loc 1 523 0
 1611              		.cfi_startproc
 1612              		@ args = 4, pretend = 0, frame = 0
 1613              		@ frame_needed = 0, uses_anonymous_args = 0
 1614              	.LVL126:
 1615 0000 2DE9F743 		push	{r0, r1, r2, r4, r5, r6, r7, r8, r9, lr}
 1616              		.cfi_def_cfa_offset 40
 1617              		.cfi_offset 4, -28
 1618              		.cfi_offset 5, -24
 1619              		.cfi_offset 6, -20
 1620              		.cfi_offset 7, -16
 1621              		.cfi_offset 8, -12
 1622              		.cfi_offset 9, -8
 1623              		.cfi_offset 14, -4
 525:ssd1306.c     ****         for( i = x ; i < x+w ; i++ ){
 1624              		.loc 1 525 0
 1625 0004 9342     		cmp	r3, r2
 523:ssd1306.c     ****     int16_t i = 0;
 1626              		.loc 1 523 0
 1627 0006 0746     		mov	r7, r0
 1628 0008 0E46     		mov	r6, r1
 1629 000a 1546     		mov	r5, r2
 1630 000c 9846     		mov	r8, r3
 1631 000e BDF82890 		ldrh	r9, [sp, #40]
 525:ssd1306.c     ****         for( i = x ; i < x+w ; i++ ){
 1632              		.loc 1 525 0
 1633 0012 04DC     		bgt	.L137
 531:ssd1306.c     ****         }
 1634              		.loc 1 531 0 discriminator 1
 1635 0014 431E     		subs	r3, r0, #1
 1636              	.LVL127:
 1637 0016 1D44     		add	r5, r5, r3
 1638 0018 0C46     		mov	r4, r1
 1639 001a 2DB2     		sxth	r5, r5
 1640 001c 12E0     		b	.L138
 1641              	.LVL128:
 1642              	.L137:
 1643 001e 0446     		mov	r4, r0
 1644              	.LBB53:
 1645              	.LBB54:
 527:ssd1306.c     ****         }
 1646              		.loc 1 527 0
 1647 0020 4B1E     		subs	r3, r1, #1
 1648              	.LVL129:
 1649 0022 9844     		add	r8, r8, r3
 1650 0024 0FFA88F8 		sxth	r8, r8
 1651              	.LVL130:
 1652              	.L139:
 526:ssd1306.c     ****             gfx_drawLine( i, y, i, y+h-1, color );
 1653              		.loc 1 526 0
 1654 0028 7B19     		adds	r3, r7, r5
 1655 002a 9C42     		cmp	r4, r3
 1656 002c 19DA     		bge	.L136
ARM GAS  C:\Users\Kiwi\AppData\Local\Temp\ccKDkYuk.s 			page 45


 527:ssd1306.c     ****         }
 1657              		.loc 1 527 0
 1658 002e 2246     		mov	r2, r4
 1659 0030 2046     		mov	r0, r4
 1660 0032 CDF80090 		str	r9, [sp]
 1661 0036 4346     		mov	r3, r8
 1662 0038 3146     		mov	r1, r6
 1663 003a 0134     		adds	r4, r4, #1
 1664              	.LVL131:
 1665 003c FFF7FEFF 		bl	gfx_drawLine
 1666              	.LVL132:
 1667 0040 24B2     		sxth	r4, r4
 1668              	.LVL133:
 1669 0042 F1E7     		b	.L139
 1670              	.LVL134:
 1671              	.L138:
 1672              	.LBE54:
 1673              	.LBE53:
 530:ssd1306.c     ****             gfx_drawLine( x, i, x+w-1, i, color );
 1674              		.loc 1 530 0 discriminator 1
 1675 0044 06EB0803 		add	r3, r6, r8
 1676 0048 9C42     		cmp	r4, r3
 1677 004a 0ADA     		bge	.L136
 531:ssd1306.c     ****         }
 1678              		.loc 1 531 0 discriminator 3
 1679 004c 2346     		mov	r3, r4
 1680 004e 2146     		mov	r1, r4
 1681 0050 CDF80090 		str	r9, [sp]
 1682 0054 2A46     		mov	r2, r5
 1683 0056 3846     		mov	r0, r7
 1684 0058 0134     		adds	r4, r4, #1
 1685              	.LVL135:
 1686 005a FFF7FEFF 		bl	gfx_drawLine
 1687              	.LVL136:
 1688 005e 24B2     		sxth	r4, r4
 1689              	.LVL137:
 1690 0060 F0E7     		b	.L138
 1691              	.LVL138:
 1692              	.L136:
 534:ssd1306.c     **** 
 1693              		.loc 1 534 0
 1694 0062 03B0     		add	sp, sp, #12
 1695              		.cfi_def_cfa_offset 28
 1696              		@ sp needed
 1697 0064 BDE8F083 		pop	{r4, r5, r6, r7, r8, r9, pc}
 1698              		.cfi_endproc
 1699              	.LFE88:
 1700              		.size	gfx_fillRect, .-gfx_fillRect
 1701              		.section	.text.gfx_drawCircle,"ax",%progbits
 1702              		.align	1
 1703              		.global	gfx_drawCircle
 1704              		.thumb
 1705              		.thumb_func
 1706              		.type	gfx_drawCircle, %function
 1707              	gfx_drawCircle:
 1708              	.LFB89:
 538:ssd1306.c     **** 
ARM GAS  C:\Users\Kiwi\AppData\Local\Temp\ccKDkYuk.s 			page 46


 1709              		.loc 1 538 0
 1710              		.cfi_startproc
 1711              		@ args = 0, pretend = 0, frame = 32
 1712              		@ frame_needed = 0, uses_anonymous_args = 0
 1713              	.LVL139:
 1714 0000 2DE9F04F 		push	{r4, r5, r6, r7, r8, r9, r10, fp, lr}
 1715              		.cfi_def_cfa_offset 36
 1716              		.cfi_offset 4, -36
 1717              		.cfi_offset 5, -32
 1718              		.cfi_offset 6, -28
 1719              		.cfi_offset 7, -24
 1720              		.cfi_offset 8, -20
 1721              		.cfi_offset 9, -16
 1722              		.cfi_offset 10, -12
 1723              		.cfi_offset 11, -8
 1724              		.cfi_offset 14, -4
 1725 0004 1C46     		mov	r4, r3
 1726 0006 0546     		mov	r5, r0
 1727 0008 8946     		mov	r9, r1
 540:ssd1306.c     ****     int16_t ddF_x = 1;
 1728              		.loc 1 540 0
 1729 000a 96B2     		uxth	r6, r2
 1730 000c C6F10103 		rsb	r3, r6, #1
 1731              	.LVL140:
 538:ssd1306.c     **** 
 1732              		.loc 1 538 0
 1733 0010 89B0     		sub	sp, sp, #36
 1734              		.cfi_def_cfa_offset 72
 540:ssd1306.c     ****     int16_t ddF_x = 1;
 1735              		.loc 1 540 0
 1736 0012 1BB2     		sxth	r3, r3
 545:ssd1306.c     ****     gfx_drawPixel( x0 , y0-r, color );
 1737              		.loc 1 545 0
 1738 0014 1FFA81F8 		uxth	r8, r1
 540:ssd1306.c     ****     int16_t ddF_x = 1;
 1739              		.loc 1 540 0
 1740 0018 0193     		str	r3, [sp, #4]
 1741              	.LVL141:
 542:ssd1306.c     ****     int16_t x = 0;
 1742              		.loc 1 542 0
 1743 001a C6EBC633 		rsb	r3, r6, r6, lsl #15
 1744 001e 5B00     		lsls	r3, r3, #1
 545:ssd1306.c     ****     gfx_drawPixel( x0 , y0-r, color );
 1745              		.loc 1 545 0
 1746 0020 06EB0801 		add	r1, r6, r8
 1747              	.LVL142:
 542:ssd1306.c     ****     int16_t x = 0;
 1748              		.loc 1 542 0
 1749 0024 1BB2     		sxth	r3, r3
 545:ssd1306.c     ****     gfx_drawPixel( x0 , y0-r, color );
 1750              		.loc 1 545 0
 1751 0026 09B2     		sxth	r1, r1
 538:ssd1306.c     **** 
 1752              		.loc 1 538 0
 1753 0028 1746     		mov	r7, r2
 545:ssd1306.c     ****     gfx_drawPixel( x0 , y0-r, color );
 1754              		.loc 1 545 0
ARM GAS  C:\Users\Kiwi\AppData\Local\Temp\ccKDkYuk.s 			page 47


 1755 002a 2246     		mov	r2, r4
 1756              	.LVL143:
 542:ssd1306.c     ****     int16_t x = 0;
 1757              		.loc 1 542 0
 1758 002c 0393     		str	r3, [sp, #12]
 1759              	.LVL144:
 545:ssd1306.c     ****     gfx_drawPixel( x0 , y0-r, color );
 1760              		.loc 1 545 0
 1761 002e FFF7FEFF 		bl	gfx_drawPixel
 1762              	.LVL145:
 546:ssd1306.c     ****     gfx_drawPixel( x0+r, y0 , color );
 1763              		.loc 1 546 0
 1764 0032 C6EB0801 		rsb	r1, r6, r8
 1765 0036 2846     		mov	r0, r5
 1766 0038 2246     		mov	r2, r4
 547:ssd1306.c     ****     gfx_drawPixel( x0-r, y0 , color );
 1767              		.loc 1 547 0
 1768 003a ADB2     		uxth	r5, r5
 546:ssd1306.c     ****     gfx_drawPixel( x0+r, y0 , color );
 1769              		.loc 1 546 0
 1770 003c 09B2     		sxth	r1, r1
 1771 003e FFF7FEFF 		bl	gfx_drawPixel
 1772              	.LVL146:
 547:ssd1306.c     ****     gfx_drawPixel( x0-r, y0 , color );
 1773              		.loc 1 547 0
 1774 0042 7019     		adds	r0, r6, r5
 1775 0044 2246     		mov	r2, r4
 1776 0046 4946     		mov	r1, r9
 1777 0048 00B2     		sxth	r0, r0
 1778 004a FFF7FEFF 		bl	gfx_drawPixel
 1779              	.LVL147:
 548:ssd1306.c     ****     while( x < y ){
 1780              		.loc 1 548 0
 1781 004e A81B     		subs	r0, r5, r6
 1782 0050 2246     		mov	r2, r4
 1783 0052 4946     		mov	r1, r9
 1784 0054 00B2     		sxth	r0, r0
 1785 0056 FFF7FEFF 		bl	gfx_drawPixel
 1786              	.LVL148:
 549:ssd1306.c     ****         if( f >= 0 ){
 1787              		.loc 1 549 0
 1788 005a 0023     		movs	r3, #0
 1789 005c 0293     		str	r3, [sp, #8]
 1790 005e 6B1C     		adds	r3, r5, #1
 1791 0060 0493     		str	r3, [sp, #16]
 1792 0062 6B1E     		subs	r3, r5, #1
 1793 0064 0593     		str	r3, [sp, #20]
 1794 0066 08F10103 		add	r3, r8, #1
 1795 006a 0693     		str	r3, [sp, #24]
 1796              	.LVL149:
 1797              	.L144:
 1798 006c BDF90830 		ldrsh	r3, [sp, #8]
 1799 0070 BB42     		cmp	r3, r7
 1800 0072 65DA     		bge	.L147
 550:ssd1306.c     ****             y--;
 1801              		.loc 1 550 0
 1802 0074 019B     		ldr	r3, [sp, #4]
ARM GAS  C:\Users\Kiwi\AppData\Local\Temp\ccKDkYuk.s 			page 48


 1803 0076 002B     		cmp	r3, #0
 1804 0078 0ADB     		blt	.L145
 552:ssd1306.c     ****             f += ddF_y;
 1805              		.loc 1 552 0
 1806 007a 039B     		ldr	r3, [sp, #12]
 551:ssd1306.c     ****             ddF_y += 2;
 1807              		.loc 1 551 0
 1808 007c 013F     		subs	r7, r7, #1
 1809              	.LVL150:
 552:ssd1306.c     ****             f += ddF_y;
 1810              		.loc 1 552 0
 1811 007e 0233     		adds	r3, r3, #2
 1812 0080 9BB2     		uxth	r3, r3
 1813 0082 1AB2     		sxth	r2, r3
 1814 0084 0392     		str	r2, [sp, #12]
 1815              	.LVL151:
 553:ssd1306.c     ****         }
 1816              		.loc 1 553 0
 1817 0086 019A     		ldr	r2, [sp, #4]
 551:ssd1306.c     ****             ddF_y += 2;
 1818              		.loc 1 551 0
 1819 0088 3FB2     		sxth	r7, r7
 1820              	.LVL152:
 553:ssd1306.c     ****         }
 1821              		.loc 1 553 0
 1822 008a 1344     		add	r3, r3, r2
 1823 008c 1BB2     		sxth	r3, r3
 1824 008e 0193     		str	r3, [sp, #4]
 1825              	.LVL153:
 1826              	.L145:
 1827 0090 BDF80890 		ldrh	r9, [sp, #8]
 1828              	.LVL154:
 557:ssd1306.c     ****         gfx_drawPixel( x0 + x, y0 + y, color );
 1829              		.loc 1 557 0
 1830 0094 019B     		ldr	r3, [sp, #4]
 558:ssd1306.c     ****         gfx_drawPixel( x0 - x, y0 + y, color );
 1831              		.loc 1 558 0
 1832 0096 BEB2     		uxth	r6, r7
 557:ssd1306.c     ****         gfx_drawPixel( x0 + x, y0 + y, color );
 1833              		.loc 1 557 0
 1834 0098 03EB4903 		add	r3, r3, r9, lsl #1
 1835 009c 0333     		adds	r3, r3, #3
 1836 009e 1BB2     		sxth	r3, r3
 1837 00a0 0193     		str	r3, [sp, #4]
 1838              	.LVL155:
 1839 00a2 049B     		ldr	r3, [sp, #16]
 558:ssd1306.c     ****         gfx_drawPixel( x0 - x, y0 + y, color );
 1840              		.loc 1 558 0
 1841 00a4 08EB060B 		add	fp, r8, r6
 1842 00a8 4B44     		add	r3, r9, r3
 1843 00aa 1BB2     		sxth	r3, r3
 1844 00ac 0FFA8BFB 		sxth	fp, fp
 1845 00b0 5946     		mov	r1, fp
 1846 00b2 1846     		mov	r0, r3
 1847 00b4 2246     		mov	r2, r4
 1848 00b6 0793     		str	r3, [sp, #28]
 1849 00b8 FFF7FEFF 		bl	gfx_drawPixel
ARM GAS  C:\Users\Kiwi\AppData\Local\Temp\ccKDkYuk.s 			page 49


 1850              	.LVL156:
 1851 00bc 059B     		ldr	r3, [sp, #20]
 559:ssd1306.c     ****         gfx_drawPixel( x0 + x, y0 - y, color );
 1852              		.loc 1 559 0
 1853 00be 5946     		mov	r1, fp
 1854 00c0 C9EB030A 		rsb	r10, r9, r3
 1855 00c4 0FFA8AFA 		sxth	r10, r10
 1856 00c8 5046     		mov	r0, r10
 1857 00ca 2246     		mov	r2, r4
 1858 00cc FFF7FEFF 		bl	gfx_drawPixel
 1859              	.LVL157:
 560:ssd1306.c     ****         gfx_drawPixel( x0 - x, y0 - y, color );
 1860              		.loc 1 560 0
 1861 00d0 C6EB080B 		rsb	fp, r6, r8
 1862 00d4 079B     		ldr	r3, [sp, #28]
 1863 00d6 0FFA8BFB 		sxth	fp, fp
 1864 00da 1846     		mov	r0, r3
 1865 00dc 5946     		mov	r1, fp
 1866 00de 2246     		mov	r2, r4
 1867 00e0 FFF7FEFF 		bl	gfx_drawPixel
 1868              	.LVL158:
 561:ssd1306.c     ****         gfx_drawPixel( x0 + y, y0 + x, color );
 1869              		.loc 1 561 0
 1870 00e4 5946     		mov	r1, fp
 1871 00e6 5046     		mov	r0, r10
 1872 00e8 2246     		mov	r2, r4
 1873 00ea FFF7FEFF 		bl	gfx_drawPixel
 1874              	.LVL159:
 1875 00ee 069B     		ldr	r3, [sp, #24]
 562:ssd1306.c     ****         gfx_drawPixel( x0 - y, y0 + x, color );
 1876              		.loc 1 562 0
 1877 00f0 05EB060A 		add	r10, r5, r6
 1878 00f4 09EB030B 		add	fp, r9, r3
 1879 00f8 0FFA8AFA 		sxth	r10, r10
 1880 00fc 0FFA8BFB 		sxth	fp, fp
 563:ssd1306.c     ****         gfx_drawPixel( x0 + y, y0 - x, color );
 1881              		.loc 1 563 0
 1882 0100 AE1B     		subs	r6, r5, r6
 562:ssd1306.c     ****         gfx_drawPixel( x0 - y, y0 + x, color );
 1883              		.loc 1 562 0
 1884 0102 2246     		mov	r2, r4
 1885 0104 5946     		mov	r1, fp
 1886 0106 5046     		mov	r0, r10
 563:ssd1306.c     ****         gfx_drawPixel( x0 + y, y0 - x, color );
 1887              		.loc 1 563 0
 1888 0108 36B2     		sxth	r6, r6
 562:ssd1306.c     ****         gfx_drawPixel( x0 - y, y0 + x, color );
 1889              		.loc 1 562 0
 1890 010a FFF7FEFF 		bl	gfx_drawPixel
 1891              	.LVL160:
 563:ssd1306.c     ****         gfx_drawPixel( x0 + y, y0 - x, color );
 1892              		.loc 1 563 0
 1893 010e 2246     		mov	r2, r4
 1894 0110 5946     		mov	r1, fp
 1895 0112 3046     		mov	r0, r6
 1896 0114 FFF7FEFF 		bl	gfx_drawPixel
 1897              	.LVL161:
ARM GAS  C:\Users\Kiwi\AppData\Local\Temp\ccKDkYuk.s 			page 50


 1898 0118 08F1FF33 		add	r3, r8, #-1
 1899 011c C9EB0309 		rsb	r9, r9, r3
 1900 0120 0FFA89F9 		sxth	r9, r9
 564:ssd1306.c     ****         gfx_drawPixel( x0 - y, y0 - x, color );
 1901              		.loc 1 564 0
 1902 0124 2246     		mov	r2, r4
 1903 0126 4946     		mov	r1, r9
 1904 0128 5046     		mov	r0, r10
 1905 012a FFF7FEFF 		bl	gfx_drawPixel
 1906              	.LVL162:
 565:ssd1306.c     ****     }
 1907              		.loc 1 565 0
 1908 012e 2246     		mov	r2, r4
 1909 0130 4946     		mov	r1, r9
 1910 0132 3046     		mov	r0, r6
 1911 0134 FFF7FEFF 		bl	gfx_drawPixel
 1912              	.LVL163:
 1913 0138 029B     		ldr	r3, [sp, #8]
 1914 013a 0133     		adds	r3, r3, #1
 1915 013c 0293     		str	r3, [sp, #8]
 1916              	.LVL164:
 1917 013e 95E7     		b	.L144
 1918              	.LVL165:
 1919              	.L147:
 567:ssd1306.c     **** 
 1920              		.loc 1 567 0
 1921 0140 09B0     		add	sp, sp, #36
 1922              		.cfi_def_cfa_offset 36
 1923              		@ sp needed
 1924 0142 BDE8F08F 		pop	{r4, r5, r6, r7, r8, r9, r10, fp, pc}
 1925              		.cfi_endproc
 1926              	.LFE89:
 1927              		.size	gfx_drawCircle, .-gfx_drawCircle
 1928              		.section	.text.gfx_drawTriangle,"ax",%progbits
 1929              		.align	1
 1930              		.global	gfx_drawTriangle
 1931              		.thumb
 1932              		.thumb_func
 1933              		.type	gfx_drawTriangle, %function
 1934              	gfx_drawTriangle:
 1935              	.LFB90:
 569:ssd1306.c     ****     
 1936              		.loc 1 569 0
 1937              		.cfi_startproc
 1938              		@ args = 12, pretend = 0, frame = 0
 1939              		@ frame_needed = 0, uses_anonymous_args = 0
 1940              	.LVL166:
 1941 0000 2DE9F347 		push	{r0, r1, r4, r5, r6, r7, r8, r9, r10, lr}
 1942              		.cfi_def_cfa_offset 40
 1943              		.cfi_offset 4, -32
 1944              		.cfi_offset 5, -28
 1945              		.cfi_offset 6, -24
 1946              		.cfi_offset 7, -20
 1947              		.cfi_offset 8, -16
 1948              		.cfi_offset 9, -12
 1949              		.cfi_offset 10, -8
 1950              		.cfi_offset 14, -4
ARM GAS  C:\Users\Kiwi\AppData\Local\Temp\ccKDkYuk.s 			page 51


 569:ssd1306.c     ****     
 1951              		.loc 1 569 0
 1952 0004 9146     		mov	r9, r2
 1953 0006 9A46     		mov	r10, r3
 1954 0008 0746     		mov	r7, r0
 1955 000a 8846     		mov	r8, r1
 1956 000c BDF83040 		ldrh	r4, [sp, #48]
 1957 0010 BDF92850 		ldrsh	r5, [sp, #40]
 1958 0014 BDF92C60 		ldrsh	r6, [sp, #44]
 571:ssd1306.c     ****     gfx_drawLine( x1, y1, x2, y2, color );
 1959              		.loc 1 571 0
 1960 0018 0094     		str	r4, [sp]
 1961 001a FFF7FEFF 		bl	gfx_drawLine
 1962              	.LVL167:
 572:ssd1306.c     ****     gfx_drawLine( x2, y2, x0, y0, color );
 1963              		.loc 1 572 0
 1964 001e 3346     		mov	r3, r6
 1965 0020 2A46     		mov	r2, r5
 1966 0022 5146     		mov	r1, r10
 1967 0024 4846     		mov	r0, r9
 1968 0026 0094     		str	r4, [sp]
 1969 0028 FFF7FEFF 		bl	gfx_drawLine
 1970              	.LVL168:
 573:ssd1306.c     **** }
 1971              		.loc 1 573 0
 1972 002c 4346     		mov	r3, r8
 1973 002e 3A46     		mov	r2, r7
 1974 0030 3146     		mov	r1, r6
 1975 0032 2846     		mov	r0, r5
 1976 0034 0A94     		str	r4, [sp, #40]
 574:ssd1306.c     **** 
 1977              		.loc 1 574 0
 1978 0036 02B0     		add	sp, sp, #8
 1979              		.cfi_def_cfa_offset 32
 1980              		@ sp needed
 1981 0038 BDE8F047 		pop	{r4, r5, r6, r7, r8, r9, r10, lr}
 1982              		.cfi_restore 14
 1983              		.cfi_restore 10
 1984              		.cfi_restore 9
 1985              		.cfi_restore 8
 1986              		.cfi_restore 7
 1987              		.cfi_restore 6
 1988              		.cfi_restore 5
 1989              		.cfi_restore 4
 1990              		.cfi_def_cfa_offset 0
 1991              	.LVL169:
 573:ssd1306.c     **** }
 1992              		.loc 1 573 0
 1993 003c FFF7FEBF 		b	gfx_drawLine
 1994              	.LVL170:
 1995              		.cfi_endproc
 1996              	.LFE90:
 1997              		.size	gfx_drawTriangle, .-gfx_drawTriangle
 1998              		.section	.text.gfx_drawChar,"ax",%progbits
 1999              		.align	1
 2000              		.global	gfx_drawChar
 2001              		.thumb
ARM GAS  C:\Users\Kiwi\AppData\Local\Temp\ccKDkYuk.s 			page 52


 2002              		.thumb_func
 2003              		.type	gfx_drawChar, %function
 2004              	gfx_drawChar:
 2005              	.LFB91:
 578:ssd1306.c     ****     if( (x >= _width) || // Clip right
 2006              		.loc 1 578 0
 2007              		.cfi_startproc
 2008              		@ args = 8, pretend = 0, frame = 40
 2009              		@ frame_needed = 0, uses_anonymous_args = 0
 2010              	.LVL171:
 2011 0000 2DE9F04F 		push	{r4, r5, r6, r7, r8, r9, r10, fp, lr}
 2012              		.cfi_def_cfa_offset 36
 2013              		.cfi_offset 4, -36
 2014              		.cfi_offset 5, -32
 2015              		.cfi_offset 6, -28
 2016              		.cfi_offset 7, -24
 2017              		.cfi_offset 8, -20
 2018              		.cfi_offset 9, -16
 2019              		.cfi_offset 10, -12
 2020              		.cfi_offset 11, -8
 2021              		.cfi_offset 14, -4
 2022 0004 8DB0     		sub	sp, sp, #52
 2023              		.cfi_def_cfa_offset 88
 578:ssd1306.c     ****     if( (x >= _width) || // Clip right
 2024              		.loc 1 578 0
 2025 0006 0593     		str	r3, [sp, #20]
 2026 0008 BDF85830 		ldrh	r3, [sp, #88]
 2027              	.LVL172:
 2028 000c 8A46     		mov	r10, r1
 2029 000e 0693     		str	r3, [sp, #24]
 579:ssd1306.c     ****         (y >= _height) || // Clip bottom
 2030              		.loc 1 579 0
 2031 0010 3A4B     		ldr	r3, .L164
 578:ssd1306.c     ****     if( (x >= _width) || // Clip right
 2032              		.loc 1 578 0
 2033 0012 0490     		str	r0, [sp, #16]
 579:ssd1306.c     ****         (y >= _height) || // Clip bottom
 2034              		.loc 1 579 0
 2035 0014 B3F90810 		ldrsh	r1, [r3, #8]
 2036              	.LVL173:
 578:ssd1306.c     ****     if( (x >= _width) || // Clip right
 2037              		.loc 1 578 0
 2038 0018 9DF85C70 		ldrb	r7, [sp, #92]	@ zero_extendqisi2
 579:ssd1306.c     ****         (y >= _height) || // Clip bottom
 2039              		.loc 1 579 0
 2040 001c 8142     		cmp	r1, r0
 2041 001e 69DD     		ble	.L149
 579:ssd1306.c     ****         (y >= _height) || // Clip bottom
 2042              		.loc 1 579 0 is_stmt 0 discriminator 1
 2043 0020 B3F90A30 		ldrsh	r3, [r3, #10]
 2044 0024 5345     		cmp	r3, r10
 2045 0026 65DD     		ble	.L149
 580:ssd1306.c     ****         ((x + 6 * size - 1) < 0) || // Clip left
 2046              		.loc 1 580 0 is_stmt 1
 2047 0028 0623     		movs	r3, #6
 2048 002a 03FB0701 		mla	r1, r3, r7, r0
 2049 002e 0029     		cmp	r1, #0
ARM GAS  C:\Users\Kiwi\AppData\Local\Temp\ccKDkYuk.s 			page 53


 2050 0030 60DD     		ble	.L149
 581:ssd1306.c     ****         ((y + 8 * size - 1) < 0)) // Clip top
 2051              		.loc 1 581 0
 2052 0032 0AEBC701 		add	r1, r10, r7, lsl #3
 2053 0036 0029     		cmp	r1, #0
 2054 0038 5CDD     		ble	.L149
 2055              	.LBB58:
 2056              	.LBB59:
 2057              	.LBB60:
 591:ssd1306.c     ****         int8_t j = 0;
 2058              		.loc 1 591 0
 2059 003a 0893     		str	r3, [sp, #32]
 2060 003c 304B     		ldr	r3, .L164+4
 2061 003e 02EB8202 		add	r2, r2, r2, lsl #2
 2062              	.LVL174:
 2063 0042 1344     		add	r3, r3, r2
 2064 0044 0025     		movs	r5, #0
 2065 0046 0B93     		str	r3, [sp, #44]
 2066              	.LVL175:
 2067              	.L158:
 2068 0048 1FFA8AF4 		uxth	r4, r10
 598:ssd1306.c     ****                 }
 2069              		.loc 1 598 0
 2070 004c 2646     		mov	r6, r4
 588:ssd1306.c     ****             line = 0x0;
 2071              		.loc 1 588 0
 2072 004e 052D     		cmp	r5, #5
 591:ssd1306.c     ****         int8_t j = 0;
 2073              		.loc 1 591 0
 2074 0050 18BF     		it	ne
 2075 0052 0B9B     		ldrne	r3, [sp, #44]
 598:ssd1306.c     ****                 }
 2076              		.loc 1 598 0
 2077 0054 AAB2     		uxth	r2, r5
 591:ssd1306.c     ****         int8_t j = 0;
 2078              		.loc 1 591 0
 2079 0056 1CBF     		itt	ne
 2080 0058 5B19     		addne	r3, r3, r5
 2081 005a 93F82190 		ldrbne	r9, [r3, #33]	@ zero_extendqisi2
 2082              	.LVL176:
 598:ssd1306.c     ****                 }
 2083              		.loc 1 598 0
 2084 005e BDF81030 		ldrh	r3, [sp, #16]
 2085 0062 1FFA87FB 		uxth	fp, r7
 2086 0066 0BFB0231 		mla	r1, fp, r2, r3
 2087 006a 09B2     		sxth	r1, r1
 2088 006c 0791     		str	r1, [sp, #28]
 602:ssd1306.c     ****                 else { // big size
 2089              		.loc 1 602 0
 2090 006e 1344     		add	r3, r3, r2
 2091 0070 04F10801 		add	r1, r4, #8
 2092 0074 89B2     		uxth	r1, r1
 2093 0076 1BB2     		sxth	r3, r3
 589:ssd1306.c     ****         else
 2094              		.loc 1 589 0
 2095 0078 08BF     		it	eq
 2096 007a 4FF00009 		moveq	r9, #0
ARM GAS  C:\Users\Kiwi\AppData\Local\Temp\ccKDkYuk.s 			page 54


 2097              	.LVL177:
 2098 007e 0A91     		str	r1, [sp, #40]
 598:ssd1306.c     ****                 }
 2099              		.loc 1 598 0
 2100 0080 0394     		str	r4, [sp, #12]
 604:ssd1306.c     ****                 }
 2101              		.loc 1 604 0
 2102 0082 0FFA87F8 		sxth	r8, r7
 602:ssd1306.c     ****                 else { // big size
 2103              		.loc 1 602 0
 2104 0086 0993     		str	r3, [sp, #36]
 2105              	.LVL178:
 2106              	.L157:
 594:ssd1306.c     ****                 if( size == 1 ) // default size
 2107              		.loc 1 594 0
 2108 0088 19F0010F 		tst	r9, #1
 2109 008c 0AD0     		beq	.L153
 595:ssd1306.c     ****                     gfx_drawPixel( x+i, y+j, color );
 2110              		.loc 1 595 0
 2111 008e 012F     		cmp	r7, #1
 2112 0090 01D1     		bne	.L154
 596:ssd1306.c     ****                 else { // big size
 2113              		.loc 1 596 0
 2114 0092 059A     		ldr	r2, [sp, #20]
 2115 0094 0CE0     		b	.L162
 2116              	.L154:
 598:ssd1306.c     ****                 }
 2117              		.loc 1 598 0
 2118 0096 059B     		ldr	r3, [sp, #20]
 2119 0098 4246     		mov	r2, r8
 2120 009a 0093     		str	r3, [sp]
 2121 009c BDF90C10 		ldrsh	r1, [sp, #12]
 2122 00a0 4346     		mov	r3, r8
 2123 00a2 0FE0     		b	.L163
 2124              	.L153:
 600:ssd1306.c     ****                 if( size == 1 ) // default size
 2125              		.loc 1 600 0
 2126 00a4 059B     		ldr	r3, [sp, #20]
 2127 00a6 069A     		ldr	r2, [sp, #24]
 2128 00a8 9342     		cmp	r3, r2
 2129 00aa 0ED0     		beq	.L155
 601:ssd1306.c     ****                     gfx_drawPixel( x+i, y+j, bg );
 2130              		.loc 1 601 0
 2131 00ac 012F     		cmp	r7, #1
 2132 00ae 04D1     		bne	.L156
 2133              	.L162:
 602:ssd1306.c     ****                 else { // big size
 2134              		.loc 1 602 0
 2135 00b0 31B2     		sxth	r1, r6
 2136 00b2 0998     		ldr	r0, [sp, #36]
 2137 00b4 FFF7FEFF 		bl	gfx_drawPixel
 2138              	.LVL179:
 2139 00b8 07E0     		b	.L155
 2140              	.L156:
 604:ssd1306.c     ****                 }
 2141              		.loc 1 604 0
 2142 00ba 069B     		ldr	r3, [sp, #24]
ARM GAS  C:\Users\Kiwi\AppData\Local\Temp\ccKDkYuk.s 			page 55


 2143 00bc 4246     		mov	r2, r8
 2144 00be 0093     		str	r3, [sp]
 2145 00c0 4346     		mov	r3, r8
 2146 00c2 21B2     		sxth	r1, r4
 2147              	.L163:
 2148 00c4 0798     		ldr	r0, [sp, #28]
 2149 00c6 FFF7FEFF 		bl	gfx_fillRect
 2150              	.LVL180:
 2151              	.L155:
 2152 00ca 039B     		ldr	r3, [sp, #12]
 2153 00cc 0136     		adds	r6, r6, #1
 2154 00ce 5B44     		add	r3, r3, fp
 2155 00d0 9BB2     		uxth	r3, r3
 2156 00d2 0393     		str	r3, [sp, #12]
 593:ssd1306.c     ****             if( line & 0x1 ){
 2157              		.loc 1 593 0
 2158 00d4 0A9B     		ldr	r3, [sp, #40]
 2159 00d6 B6B2     		uxth	r6, r6
 2160 00d8 5C44     		add	r4, r4, fp
 2161 00da 9E42     		cmp	r6, r3
 607:ssd1306.c     ****         }
 2162              		.loc 1 607 0
 2163 00dc 4FEA5909 		lsr	r9, r9, #1
 2164              	.LVL181:
 2165 00e0 A4B2     		uxth	r4, r4
 593:ssd1306.c     ****             if( line & 0x1 ){
 2166              		.loc 1 593 0
 2167 00e2 D1D1     		bne	.L157
 2168 00e4 089B     		ldr	r3, [sp, #32]
 2169              	.LBE60:
 586:ssd1306.c     ****         uint8_t line;
 2170              		.loc 1 586 0
 2171 00e6 0135     		adds	r5, r5, #1
 2172              	.LVL182:
 2173 00e8 013B     		subs	r3, r3, #1
 2174 00ea 13F0FF03 		ands	r3, r3, #255
 2175 00ee 6DB2     		sxtb	r5, r5
 2176              	.LVL183:
 2177 00f0 0893     		str	r3, [sp, #32]
 2178 00f2 A9D1     		bne	.L158
 2179              	.LVL184:
 2180              	.L149:
 2181              	.LBE59:
 2182              	.LBE58:
 610:ssd1306.c     **** 
 2183              		.loc 1 610 0
 2184 00f4 0DB0     		add	sp, sp, #52
 2185              		.cfi_def_cfa_offset 36
 2186              		@ sp needed
 2187 00f6 BDE8F08F 		pop	{r4, r5, r6, r7, r8, r9, r10, fp, pc}
 2188              	.LVL185:
 2189              	.L165:
 2190 00fa 00BF     		.align	2
 2191              	.L164:
 2192 00fc 00000000 		.word	.LANCHOR0
 2193 0100 00000000 		.word	.LANCHOR2
 2194              		.cfi_endproc
ARM GAS  C:\Users\Kiwi\AppData\Local\Temp\ccKDkYuk.s 			page 56


 2195              	.LFE91:
 2196              		.size	gfx_drawChar, .-gfx_drawChar
 2197              		.section	.text.gfx_write,"ax",%progbits
 2198              		.align	1
 2199              		.global	gfx_write
 2200              		.thumb
 2201              		.thumb_func
 2202              		.type	gfx_write, %function
 2203              	gfx_write:
 2204              	.LFB92:
 612:ssd1306.c     ****     if( ch == '\n' ){
 2205              		.loc 1 612 0
 2206              		.cfi_startproc
 2207              		@ args = 0, pretend = 0, frame = 0
 2208              		@ frame_needed = 0, uses_anonymous_args = 0
 2209              	.LVL186:
 613:ssd1306.c     ****         cursor_y += textsize*8;
 2210              		.loc 1 613 0
 2211 0000 0A28     		cmp	r0, #10
 612:ssd1306.c     ****     if( ch == '\n' ){
 2212              		.loc 1 612 0
 2213 0002 F7B5     		push	{r0, r1, r2, r4, r5, r6, r7, lr}
 2214              		.cfi_def_cfa_offset 32
 2215              		.cfi_offset 4, -20
 2216              		.cfi_offset 5, -16
 2217              		.cfi_offset 6, -12
 2218              		.cfi_offset 7, -8
 2219              		.cfi_offset 14, -4
 612:ssd1306.c     ****     if( ch == '\n' ){
 2220              		.loc 1 612 0
 2221 0004 0246     		mov	r2, r0
 613:ssd1306.c     ****         cursor_y += textsize*8;
 2222              		.loc 1 613 0
 2223 0006 04D1     		bne	.L167
 616:ssd1306.c     ****     }else if( ch == '\r' ){
 617:ssd1306.c     ****         // skip em
 618:ssd1306.c     ****     }else{
 619:ssd1306.c     ****         gfx_drawChar(cursor_x, cursor_y, ch, textcolor, textbgcolor, textsize);
 620:ssd1306.c     ****         cursor_x += textsize*6;
 621:ssd1306.c     ****         if( wrap && (cursor_x > (_width - textsize*6)) ){
 622:ssd1306.c     ****             cursor_y += textsize*8;
 623:ssd1306.c     ****             cursor_x = 0;
 624:ssd1306.c     ****         }
 625:ssd1306.c     ****     }
 626:ssd1306.c     **** }
 2224              		.loc 1 626 0
 2225 0008 03B0     		add	sp, sp, #12
 2226              		.cfi_remember_state
 2227              		.cfi_def_cfa_offset 20
 2228              		@ sp needed
 2229 000a BDE8F040 		pop	{r4, r5, r6, r7, lr}
 2230              		.cfi_restore 14
 2231              		.cfi_restore 7
 2232              		.cfi_restore 6
 2233              		.cfi_restore 5
 2234              		.cfi_restore 4
 2235              		.cfi_def_cfa_offset 0
ARM GAS  C:\Users\Kiwi\AppData\Local\Temp\ccKDkYuk.s 			page 57


 2236 000e FFF7FEBF 		b	gfx_write.part.3
 2237              	.LVL187:
 2238              	.L167:
 2239              		.cfi_restore_state
 616:ssd1306.c     ****     }else if( ch == '\r' ){
 2240              		.loc 1 616 0
 2241 0012 0D28     		cmp	r0, #13
 2242 0014 24D0     		beq	.L166
 619:ssd1306.c     ****         cursor_x += textsize*6;
 2243              		.loc 1 619 0
 2244 0016 134C     		ldr	r4, .L174
 2245 0018 B4F90650 		ldrsh	r5, [r4, #6]
 2246 001c 2679     		ldrb	r6, [r4, #4]	@ zero_extendqisi2
 2247 001e A189     		ldrh	r1, [r4, #12]
 2248 0020 B4F90270 		ldrsh	r7, [r4, #2]
 2249 0024 E389     		ldrh	r3, [r4, #14]
 2250 0026 0091     		str	r1, [sp]
 2251 0028 2846     		mov	r0, r5
 2252              	.LVL188:
 2253 002a 0196     		str	r6, [sp, #4]
 2254 002c 3946     		mov	r1, r7
 2255 002e FFF7FEFF 		bl	gfx_drawChar
 2256              	.LVL189:
 620:ssd1306.c     ****         if( wrap && (cursor_x > (_width - textsize*6)) ){
 2257              		.loc 1 620 0
 2258 0032 B3B2     		uxth	r3, r6
 2259 0034 03EB4302 		add	r2, r3, r3, lsl #1
 2260 0038 05EB4205 		add	r5, r5, r2, lsl #1
 621:ssd1306.c     ****             cursor_y += textsize*8;
 2261              		.loc 1 621 0
 2262 003c 0A4A     		ldr	r2, .L174+4
 620:ssd1306.c     ****         if( wrap && (cursor_x > (_width - textsize*6)) ){
 2263              		.loc 1 620 0
 2264 003e 2DB2     		sxth	r5, r5
 621:ssd1306.c     ****             cursor_y += textsize*8;
 2265              		.loc 1 621 0
 2266 0040 1278     		ldrb	r2, [r2]	@ zero_extendqisi2
 620:ssd1306.c     ****         if( wrap && (cursor_x > (_width - textsize*6)) ){
 2267              		.loc 1 620 0
 2268 0042 E580     		strh	r5, [r4, #6]	@ movhi
 621:ssd1306.c     ****             cursor_y += textsize*8;
 2269              		.loc 1 621 0
 2270 0044 62B1     		cbz	r2, .L166
 621:ssd1306.c     ****             cursor_y += textsize*8;
 2271              		.loc 1 621 0 is_stmt 0 discriminator 1
 2272 0046 B4F90820 		ldrsh	r2, [r4, #8]
 2273 004a 6FF00501 		mvn	r1, #5
 2274 004e 01FB0626 		mla	r6, r1, r6, r2
 2275 0052 B542     		cmp	r5, r6
 622:ssd1306.c     ****             cursor_x = 0;
 2276              		.loc 1 622 0 is_stmt 1 discriminator 1
 2277 0054 C1BF     		itttt	gt
 2278 0056 07EBC307 		addgt	r7, r7, r3, lsl #3
 623:ssd1306.c     ****         }
 2279              		.loc 1 623 0 discriminator 1
 2280 005a 0023     		movgt	r3, #0
 622:ssd1306.c     ****             cursor_x = 0;
ARM GAS  C:\Users\Kiwi\AppData\Local\Temp\ccKDkYuk.s 			page 58


 2281              		.loc 1 622 0 discriminator 1
 2282 005c 6780     		strhgt	r7, [r4, #2]	@ movhi
 623:ssd1306.c     ****         }
 2283              		.loc 1 623 0 discriminator 1
 2284 005e E380     		strhgt	r3, [r4, #6]	@ movhi
 2285              	.L166:
 2286              		.loc 1 626 0
 2287 0060 03B0     		add	sp, sp, #12
 2288              		.cfi_def_cfa_offset 20
 2289              		@ sp needed
 2290 0062 F0BD     		pop	{r4, r5, r6, r7, pc}
 2291              	.L175:
 2292              		.align	2
 2293              	.L174:
 2294 0064 00000000 		.word	.LANCHOR0
 2295 0068 00000000 		.word	wrap
 2296              		.cfi_endproc
 2297              	.LFE92:
 2298              		.size	gfx_write, .-gfx_write
 2299              		.section	.text.gfx_print,"ax",%progbits
 2300              		.align	1
 2301              		.global	gfx_print
 2302              		.thumb
 2303              		.thumb_func
 2304              		.type	gfx_print, %function
 2305              	gfx_print:
 2306              	.LFB93:
 627:ssd1306.c     **** 
 628:ssd1306.c     **** void gfx_print( const char* s ){
 2307              		.loc 1 628 0
 2308              		.cfi_startproc
 2309              		@ args = 0, pretend = 0, frame = 0
 2310              		@ frame_needed = 0, uses_anonymous_args = 0
 2311              	.LVL190:
 2312 0000 38B5     		push	{r3, r4, r5, lr}
 2313              		.cfi_def_cfa_offset 16
 2314              		.cfi_offset 3, -16
 2315              		.cfi_offset 4, -12
 2316              		.cfi_offset 5, -8
 2317              		.cfi_offset 14, -4
 2318              		.loc 1 628 0
 2319 0002 0446     		mov	r4, r0
 629:ssd1306.c     ****     
 630:ssd1306.c     ****     unsigned int len = strlen( s );
 2320              		.loc 1 630 0
 2321 0004 FFF7FEFF 		bl	strlen
 2322              	.LVL191:
 2323 0008 2518     		adds	r5, r4, r0
 2324              	.LVL192:
 2325              	.L177:
 631:ssd1306.c     ****     unsigned int i = 0; 
 632:ssd1306.c     ****     for( i = 0 ; i < len ; i++ ){
 2326              		.loc 1 632 0 discriminator 1
 2327 000a AC42     		cmp	r4, r5
 2328 000c 04D0     		beq	.L179
 633:ssd1306.c     ****         gfx_write( s[i] );
 2329              		.loc 1 633 0 discriminator 3
ARM GAS  C:\Users\Kiwi\AppData\Local\Temp\ccKDkYuk.s 			page 59


 2330 000e 14F8010B 		ldrb	r0, [r4], #1	@ zero_extendqisi2
 2331              	.LVL193:
 2332 0012 FFF7FEFF 		bl	gfx_write
 2333              	.LVL194:
 2334 0016 F8E7     		b	.L177
 2335              	.L179:
 634:ssd1306.c     ****     }
 635:ssd1306.c     **** }
 2336              		.loc 1 635 0
 2337 0018 38BD     		pop	{r3, r4, r5, pc}
 2338              		.cfi_endproc
 2339              	.LFE93:
 2340              		.size	gfx_print, .-gfx_print
 2341              		.section	.text.gfx_println,"ax",%progbits
 2342              		.align	1
 2343              		.global	gfx_println
 2344              		.thumb
 2345              		.thumb_func
 2346              		.type	gfx_println, %function
 2347              	gfx_println:
 2348              	.LFB94:
 636:ssd1306.c     **** 
 637:ssd1306.c     **** void gfx_println( const char* s ){ 
 2349              		.loc 1 637 0
 2350              		.cfi_startproc
 2351              		@ args = 0, pretend = 0, frame = 0
 2352              		@ frame_needed = 0, uses_anonymous_args = 0
 2353              	.LVL195:
 2354 0000 08B5     		push	{r3, lr}
 2355              		.cfi_def_cfa_offset 8
 2356              		.cfi_offset 3, -8
 2357              		.cfi_offset 14, -4
 638:ssd1306.c     ****     gfx_print( s ); 
 2358              		.loc 1 638 0
 2359 0002 FFF7FEFF 		bl	gfx_print
 2360              	.LVL196:
 639:ssd1306.c     ****     gfx_write( '\n' );
 640:ssd1306.c     **** }
 2361              		.loc 1 640 0
 2362 0006 BDE80840 		pop	{r3, lr}
 2363              		.cfi_restore 14
 2364              		.cfi_restore 3
 2365              		.cfi_def_cfa_offset 0
 2366              	.LBB61:
 2367              	.LBB62:
 2368 000a FFF7FEBF 		b	gfx_write.part.3
 2369              	.LVL197:
 2370              	.LBE62:
 2371              	.LBE61:
 2372              		.cfi_endproc
 2373              	.LFE94:
 2374              		.size	gfx_println, .-gfx_println
 2375              		.comm	wrap,1,1
 2376              		.comm	rotation,1,1
 2377              		.comm	HEIGHT,2,2
 2378              		.comm	WIDTH,2,2
 2379              		.section	.rodata
ARM GAS  C:\Users\Kiwi\AppData\Local\Temp\ccKDkYuk.s 			page 60


 2380              		.set	.LANCHOR2,. + 0
 2381              	.LC1:
 2382 0000 00       		.byte	0
 2383 0001 21       		.byte	33
 2384 0002 00       		.byte	0
 2385 0003 7F       		.byte	127
 2386 0004 22       		.byte	34
 2387 0005 00       		.byte	0
 2388 0006 07       		.byte	7
 2389              	.LC0:
 2390 0007 00       		.byte	0
 2391 0008 AE       		.byte	-82
 2392 0009 D5       		.byte	-43
 2393 000a 80       		.byte	-128
 2394 000b A8       		.byte	-88
 2395 000c 3F       		.byte	63
 2396 000d D3       		.byte	-45
 2397 000e 00       		.byte	0
 2398 000f 40       		.byte	64
 2399 0010 8D       		.byte	-115
 2400 0011 14       		.byte	20
 2401 0012 20       		.byte	32
 2402 0013 00       		.byte	0
 2403 0014 A1       		.byte	-95
 2404 0015 C8       		.byte	-56
 2405 0016 DA       		.byte	-38
 2406 0017 12       		.byte	18
 2407 0018 81       		.byte	-127
 2408 0019 CF       		.byte	-49
 2409 001a D9       		.byte	-39
 2410 001b F1       		.byte	-15
 2411 001c DB       		.byte	-37
 2412 001d 40       		.byte	64
 2413 001e A4       		.byte	-92
 2414 001f A6       		.byte	-90
 2415 0020 AF       		.byte	-81
 2416              		.type	font, %object
 2417              		.size	font, 1275
 2418              	font:
 2419 0021 00       		.byte	0
 2420 0022 00       		.byte	0
 2421 0023 00       		.byte	0
 2422 0024 00       		.byte	0
 2423 0025 00       		.byte	0
 2424 0026 3E       		.byte	62
 2425 0027 5B       		.byte	91
 2426 0028 4F       		.byte	79
 2427 0029 5B       		.byte	91
 2428 002a 3E       		.byte	62
 2429 002b 3E       		.byte	62
 2430 002c 6B       		.byte	107
 2431 002d 4F       		.byte	79
 2432 002e 6B       		.byte	107
 2433 002f 3E       		.byte	62
 2434 0030 1C       		.byte	28
 2435 0031 3E       		.byte	62
 2436 0032 7C       		.byte	124
ARM GAS  C:\Users\Kiwi\AppData\Local\Temp\ccKDkYuk.s 			page 61


 2437 0033 3E       		.byte	62
 2438 0034 1C       		.byte	28
 2439 0035 18       		.byte	24
 2440 0036 3C       		.byte	60
 2441 0037 7E       		.byte	126
 2442 0038 3C       		.byte	60
 2443 0039 18       		.byte	24
 2444 003a 1C       		.byte	28
 2445 003b 57       		.byte	87
 2446 003c 7D       		.byte	125
 2447 003d 57       		.byte	87
 2448 003e 1C       		.byte	28
 2449 003f 1C       		.byte	28
 2450 0040 5E       		.byte	94
 2451 0041 7F       		.byte	127
 2452 0042 5E       		.byte	94
 2453 0043 1C       		.byte	28
 2454 0044 00       		.byte	0
 2455 0045 18       		.byte	24
 2456 0046 3C       		.byte	60
 2457 0047 18       		.byte	24
 2458 0048 00       		.byte	0
 2459 0049 FF       		.byte	-1
 2460 004a E7       		.byte	-25
 2461 004b C3       		.byte	-61
 2462 004c E7       		.byte	-25
 2463 004d FF       		.byte	-1
 2464 004e 00       		.byte	0
 2465 004f 18       		.byte	24
 2466 0050 24       		.byte	36
 2467 0051 18       		.byte	24
 2468 0052 00       		.byte	0
 2469 0053 FF       		.byte	-1
 2470 0054 E7       		.byte	-25
 2471 0055 DB       		.byte	-37
 2472 0056 E7       		.byte	-25
 2473 0057 FF       		.byte	-1
 2474 0058 30       		.byte	48
 2475 0059 48       		.byte	72
 2476 005a 3A       		.byte	58
 2477 005b 06       		.byte	6
 2478 005c 0E       		.byte	14
 2479 005d 26       		.byte	38
 2480 005e 29       		.byte	41
 2481 005f 79       		.byte	121
 2482 0060 29       		.byte	41
 2483 0061 26       		.byte	38
 2484 0062 40       		.byte	64
 2485 0063 7F       		.byte	127
 2486 0064 05       		.byte	5
 2487 0065 05       		.byte	5
 2488 0066 07       		.byte	7
 2489 0067 40       		.byte	64
 2490 0068 7F       		.byte	127
 2491 0069 05       		.byte	5
 2492 006a 25       		.byte	37
 2493 006b 3F       		.byte	63
ARM GAS  C:\Users\Kiwi\AppData\Local\Temp\ccKDkYuk.s 			page 62


 2494 006c 5A       		.byte	90
 2495 006d 3C       		.byte	60
 2496 006e E7       		.byte	-25
 2497 006f 3C       		.byte	60
 2498 0070 5A       		.byte	90
 2499 0071 7F       		.byte	127
 2500 0072 3E       		.byte	62
 2501 0073 1C       		.byte	28
 2502 0074 1C       		.byte	28
 2503 0075 08       		.byte	8
 2504 0076 08       		.byte	8
 2505 0077 1C       		.byte	28
 2506 0078 1C       		.byte	28
 2507 0079 3E       		.byte	62
 2508 007a 7F       		.byte	127
 2509 007b 14       		.byte	20
 2510 007c 22       		.byte	34
 2511 007d 7F       		.byte	127
 2512 007e 22       		.byte	34
 2513 007f 14       		.byte	20
 2514 0080 5F       		.byte	95
 2515 0081 5F       		.byte	95
 2516 0082 00       		.byte	0
 2517 0083 5F       		.byte	95
 2518 0084 5F       		.byte	95
 2519 0085 06       		.byte	6
 2520 0086 09       		.byte	9
 2521 0087 7F       		.byte	127
 2522 0088 01       		.byte	1
 2523 0089 7F       		.byte	127
 2524 008a 00       		.byte	0
 2525 008b 66       		.byte	102
 2526 008c 89       		.byte	-119
 2527 008d 95       		.byte	-107
 2528 008e 6A       		.byte	106
 2529 008f 60       		.byte	96
 2530 0090 60       		.byte	96
 2531 0091 60       		.byte	96
 2532 0092 60       		.byte	96
 2533 0093 60       		.byte	96
 2534 0094 94       		.byte	-108
 2535 0095 A2       		.byte	-94
 2536 0096 FF       		.byte	-1
 2537 0097 A2       		.byte	-94
 2538 0098 94       		.byte	-108
 2539 0099 08       		.byte	8
 2540 009a 04       		.byte	4
 2541 009b 7E       		.byte	126
 2542 009c 04       		.byte	4
 2543 009d 08       		.byte	8
 2544 009e 10       		.byte	16
 2545 009f 20       		.byte	32
 2546 00a0 7E       		.byte	126
 2547 00a1 20       		.byte	32
 2548 00a2 10       		.byte	16
 2549 00a3 08       		.byte	8
 2550 00a4 08       		.byte	8
ARM GAS  C:\Users\Kiwi\AppData\Local\Temp\ccKDkYuk.s 			page 63


 2551 00a5 2A       		.byte	42
 2552 00a6 1C       		.byte	28
 2553 00a7 08       		.byte	8
 2554 00a8 08       		.byte	8
 2555 00a9 1C       		.byte	28
 2556 00aa 2A       		.byte	42
 2557 00ab 08       		.byte	8
 2558 00ac 08       		.byte	8
 2559 00ad 1E       		.byte	30
 2560 00ae 10       		.byte	16
 2561 00af 10       		.byte	16
 2562 00b0 10       		.byte	16
 2563 00b1 10       		.byte	16
 2564 00b2 0C       		.byte	12
 2565 00b3 1E       		.byte	30
 2566 00b4 0C       		.byte	12
 2567 00b5 1E       		.byte	30
 2568 00b6 0C       		.byte	12
 2569 00b7 30       		.byte	48
 2570 00b8 38       		.byte	56
 2571 00b9 3E       		.byte	62
 2572 00ba 38       		.byte	56
 2573 00bb 30       		.byte	48
 2574 00bc 06       		.byte	6
 2575 00bd 0E       		.byte	14
 2576 00be 3E       		.byte	62
 2577 00bf 0E       		.byte	14
 2578 00c0 06       		.byte	6
 2579 00c1 00       		.byte	0
 2580 00c2 00       		.byte	0
 2581 00c3 00       		.byte	0
 2582 00c4 00       		.byte	0
 2583 00c5 00       		.byte	0
 2584 00c6 00       		.byte	0
 2585 00c7 00       		.byte	0
 2586 00c8 5F       		.byte	95
 2587 00c9 00       		.byte	0
 2588 00ca 00       		.byte	0
 2589 00cb 00       		.byte	0
 2590 00cc 07       		.byte	7
 2591 00cd 00       		.byte	0
 2592 00ce 07       		.byte	7
 2593 00cf 00       		.byte	0
 2594 00d0 14       		.byte	20
 2595 00d1 7F       		.byte	127
 2596 00d2 14       		.byte	20
 2597 00d3 7F       		.byte	127
 2598 00d4 14       		.byte	20
 2599 00d5 24       		.byte	36
 2600 00d6 2A       		.byte	42
 2601 00d7 7F       		.byte	127
 2602 00d8 2A       		.byte	42
 2603 00d9 12       		.byte	18
 2604 00da 23       		.byte	35
 2605 00db 13       		.byte	19
 2606 00dc 08       		.byte	8
 2607 00dd 64       		.byte	100
ARM GAS  C:\Users\Kiwi\AppData\Local\Temp\ccKDkYuk.s 			page 64


 2608 00de 62       		.byte	98
 2609 00df 36       		.byte	54
 2610 00e0 49       		.byte	73
 2611 00e1 56       		.byte	86
 2612 00e2 20       		.byte	32
 2613 00e3 50       		.byte	80
 2614 00e4 00       		.byte	0
 2615 00e5 08       		.byte	8
 2616 00e6 07       		.byte	7
 2617 00e7 03       		.byte	3
 2618 00e8 00       		.byte	0
 2619 00e9 00       		.byte	0
 2620 00ea 1C       		.byte	28
 2621 00eb 22       		.byte	34
 2622 00ec 41       		.byte	65
 2623 00ed 00       		.byte	0
 2624 00ee 00       		.byte	0
 2625 00ef 41       		.byte	65
 2626 00f0 22       		.byte	34
 2627 00f1 1C       		.byte	28
 2628 00f2 00       		.byte	0
 2629 00f3 2A       		.byte	42
 2630 00f4 1C       		.byte	28
 2631 00f5 7F       		.byte	127
 2632 00f6 1C       		.byte	28
 2633 00f7 2A       		.byte	42
 2634 00f8 08       		.byte	8
 2635 00f9 08       		.byte	8
 2636 00fa 3E       		.byte	62
 2637 00fb 08       		.byte	8
 2638 00fc 08       		.byte	8
 2639 00fd 00       		.byte	0
 2640 00fe 80       		.byte	-128
 2641 00ff 70       		.byte	112
 2642 0100 30       		.byte	48
 2643 0101 00       		.byte	0
 2644 0102 08       		.byte	8
 2645 0103 08       		.byte	8
 2646 0104 08       		.byte	8
 2647 0105 08       		.byte	8
 2648 0106 08       		.byte	8
 2649 0107 00       		.byte	0
 2650 0108 00       		.byte	0
 2651 0109 60       		.byte	96
 2652 010a 60       		.byte	96
 2653 010b 00       		.byte	0
 2654 010c 20       		.byte	32
 2655 010d 10       		.byte	16
 2656 010e 08       		.byte	8
 2657 010f 04       		.byte	4
 2658 0110 02       		.byte	2
 2659 0111 3E       		.byte	62
 2660 0112 51       		.byte	81
 2661 0113 49       		.byte	73
 2662 0114 45       		.byte	69
 2663 0115 3E       		.byte	62
 2664 0116 00       		.byte	0
ARM GAS  C:\Users\Kiwi\AppData\Local\Temp\ccKDkYuk.s 			page 65


 2665 0117 42       		.byte	66
 2666 0118 7F       		.byte	127
 2667 0119 40       		.byte	64
 2668 011a 00       		.byte	0
 2669 011b 72       		.byte	114
 2670 011c 49       		.byte	73
 2671 011d 49       		.byte	73
 2672 011e 49       		.byte	73
 2673 011f 46       		.byte	70
 2674 0120 21       		.byte	33
 2675 0121 41       		.byte	65
 2676 0122 49       		.byte	73
 2677 0123 4D       		.byte	77
 2678 0124 33       		.byte	51
 2679 0125 18       		.byte	24
 2680 0126 14       		.byte	20
 2681 0127 12       		.byte	18
 2682 0128 7F       		.byte	127
 2683 0129 10       		.byte	16
 2684 012a 27       		.byte	39
 2685 012b 45       		.byte	69
 2686 012c 45       		.byte	69
 2687 012d 45       		.byte	69
 2688 012e 39       		.byte	57
 2689 012f 3C       		.byte	60
 2690 0130 4A       		.byte	74
 2691 0131 49       		.byte	73
 2692 0132 49       		.byte	73
 2693 0133 31       		.byte	49
 2694 0134 41       		.byte	65
 2695 0135 21       		.byte	33
 2696 0136 11       		.byte	17
 2697 0137 09       		.byte	9
 2698 0138 07       		.byte	7
 2699 0139 36       		.byte	54
 2700 013a 49       		.byte	73
 2701 013b 49       		.byte	73
 2702 013c 49       		.byte	73
 2703 013d 36       		.byte	54
 2704 013e 46       		.byte	70
 2705 013f 49       		.byte	73
 2706 0140 49       		.byte	73
 2707 0141 29       		.byte	41
 2708 0142 1E       		.byte	30
 2709 0143 00       		.byte	0
 2710 0144 00       		.byte	0
 2711 0145 14       		.byte	20
 2712 0146 00       		.byte	0
 2713 0147 00       		.byte	0
 2714 0148 00       		.byte	0
 2715 0149 40       		.byte	64
 2716 014a 34       		.byte	52
 2717 014b 00       		.byte	0
 2718 014c 00       		.byte	0
 2719 014d 00       		.byte	0
 2720 014e 08       		.byte	8
 2721 014f 14       		.byte	20
ARM GAS  C:\Users\Kiwi\AppData\Local\Temp\ccKDkYuk.s 			page 66


 2722 0150 22       		.byte	34
 2723 0151 41       		.byte	65
 2724 0152 14       		.byte	20
 2725 0153 14       		.byte	20
 2726 0154 14       		.byte	20
 2727 0155 14       		.byte	20
 2728 0156 14       		.byte	20
 2729 0157 00       		.byte	0
 2730 0158 41       		.byte	65
 2731 0159 22       		.byte	34
 2732 015a 14       		.byte	20
 2733 015b 08       		.byte	8
 2734 015c 02       		.byte	2
 2735 015d 01       		.byte	1
 2736 015e 59       		.byte	89
 2737 015f 09       		.byte	9
 2738 0160 06       		.byte	6
 2739 0161 3E       		.byte	62
 2740 0162 41       		.byte	65
 2741 0163 5D       		.byte	93
 2742 0164 59       		.byte	89
 2743 0165 4E       		.byte	78
 2744 0166 7C       		.byte	124
 2745 0167 12       		.byte	18
 2746 0168 11       		.byte	17
 2747 0169 12       		.byte	18
 2748 016a 7C       		.byte	124
 2749 016b 7F       		.byte	127
 2750 016c 49       		.byte	73
 2751 016d 49       		.byte	73
 2752 016e 49       		.byte	73
 2753 016f 36       		.byte	54
 2754 0170 3E       		.byte	62
 2755 0171 41       		.byte	65
 2756 0172 41       		.byte	65
 2757 0173 41       		.byte	65
 2758 0174 22       		.byte	34
 2759 0175 7F       		.byte	127
 2760 0176 41       		.byte	65
 2761 0177 41       		.byte	65
 2762 0178 41       		.byte	65
 2763 0179 3E       		.byte	62
 2764 017a 7F       		.byte	127
 2765 017b 49       		.byte	73
 2766 017c 49       		.byte	73
 2767 017d 49       		.byte	73
 2768 017e 41       		.byte	65
 2769 017f 7F       		.byte	127
 2770 0180 09       		.byte	9
 2771 0181 09       		.byte	9
 2772 0182 09       		.byte	9
 2773 0183 01       		.byte	1
 2774 0184 3E       		.byte	62
 2775 0185 41       		.byte	65
 2776 0186 41       		.byte	65
 2777 0187 51       		.byte	81
 2778 0188 73       		.byte	115
ARM GAS  C:\Users\Kiwi\AppData\Local\Temp\ccKDkYuk.s 			page 67


 2779 0189 7F       		.byte	127
 2780 018a 08       		.byte	8
 2781 018b 08       		.byte	8
 2782 018c 08       		.byte	8
 2783 018d 7F       		.byte	127
 2784 018e 00       		.byte	0
 2785 018f 41       		.byte	65
 2786 0190 7F       		.byte	127
 2787 0191 41       		.byte	65
 2788 0192 00       		.byte	0
 2789 0193 20       		.byte	32
 2790 0194 40       		.byte	64
 2791 0195 41       		.byte	65
 2792 0196 3F       		.byte	63
 2793 0197 01       		.byte	1
 2794 0198 7F       		.byte	127
 2795 0199 08       		.byte	8
 2796 019a 14       		.byte	20
 2797 019b 22       		.byte	34
 2798 019c 41       		.byte	65
 2799 019d 7F       		.byte	127
 2800 019e 40       		.byte	64
 2801 019f 40       		.byte	64
 2802 01a0 40       		.byte	64
 2803 01a1 40       		.byte	64
 2804 01a2 7F       		.byte	127
 2805 01a3 02       		.byte	2
 2806 01a4 1C       		.byte	28
 2807 01a5 02       		.byte	2
 2808 01a6 7F       		.byte	127
 2809 01a7 7F       		.byte	127
 2810 01a8 04       		.byte	4
 2811 01a9 08       		.byte	8
 2812 01aa 10       		.byte	16
 2813 01ab 7F       		.byte	127
 2814 01ac 3E       		.byte	62
 2815 01ad 41       		.byte	65
 2816 01ae 41       		.byte	65
 2817 01af 41       		.byte	65
 2818 01b0 3E       		.byte	62
 2819 01b1 7F       		.byte	127
 2820 01b2 09       		.byte	9
 2821 01b3 09       		.byte	9
 2822 01b4 09       		.byte	9
 2823 01b5 06       		.byte	6
 2824 01b6 3E       		.byte	62
 2825 01b7 41       		.byte	65
 2826 01b8 51       		.byte	81
 2827 01b9 21       		.byte	33
 2828 01ba 5E       		.byte	94
 2829 01bb 7F       		.byte	127
 2830 01bc 09       		.byte	9
 2831 01bd 19       		.byte	25
 2832 01be 29       		.byte	41
 2833 01bf 46       		.byte	70
 2834 01c0 26       		.byte	38
 2835 01c1 49       		.byte	73
ARM GAS  C:\Users\Kiwi\AppData\Local\Temp\ccKDkYuk.s 			page 68


 2836 01c2 49       		.byte	73
 2837 01c3 49       		.byte	73
 2838 01c4 32       		.byte	50
 2839 01c5 03       		.byte	3
 2840 01c6 01       		.byte	1
 2841 01c7 7F       		.byte	127
 2842 01c8 01       		.byte	1
 2843 01c9 03       		.byte	3
 2844 01ca 3F       		.byte	63
 2845 01cb 40       		.byte	64
 2846 01cc 40       		.byte	64
 2847 01cd 40       		.byte	64
 2848 01ce 3F       		.byte	63
 2849 01cf 1F       		.byte	31
 2850 01d0 20       		.byte	32
 2851 01d1 40       		.byte	64
 2852 01d2 20       		.byte	32
 2853 01d3 1F       		.byte	31
 2854 01d4 3F       		.byte	63
 2855 01d5 40       		.byte	64
 2856 01d6 38       		.byte	56
 2857 01d7 40       		.byte	64
 2858 01d8 3F       		.byte	63
 2859 01d9 63       		.byte	99
 2860 01da 14       		.byte	20
 2861 01db 08       		.byte	8
 2862 01dc 14       		.byte	20
 2863 01dd 63       		.byte	99
 2864 01de 03       		.byte	3
 2865 01df 04       		.byte	4
 2866 01e0 78       		.byte	120
 2867 01e1 04       		.byte	4
 2868 01e2 03       		.byte	3
 2869 01e3 61       		.byte	97
 2870 01e4 59       		.byte	89
 2871 01e5 49       		.byte	73
 2872 01e6 4D       		.byte	77
 2873 01e7 43       		.byte	67
 2874 01e8 00       		.byte	0
 2875 01e9 7F       		.byte	127
 2876 01ea 41       		.byte	65
 2877 01eb 41       		.byte	65
 2878 01ec 41       		.byte	65
 2879 01ed 02       		.byte	2
 2880 01ee 04       		.byte	4
 2881 01ef 08       		.byte	8
 2882 01f0 10       		.byte	16
 2883 01f1 20       		.byte	32
 2884 01f2 00       		.byte	0
 2885 01f3 41       		.byte	65
 2886 01f4 41       		.byte	65
 2887 01f5 41       		.byte	65
 2888 01f6 7F       		.byte	127
 2889 01f7 04       		.byte	4
 2890 01f8 02       		.byte	2
 2891 01f9 01       		.byte	1
 2892 01fa 02       		.byte	2
ARM GAS  C:\Users\Kiwi\AppData\Local\Temp\ccKDkYuk.s 			page 69


 2893 01fb 04       		.byte	4
 2894 01fc 40       		.byte	64
 2895 01fd 40       		.byte	64
 2896 01fe 40       		.byte	64
 2897 01ff 40       		.byte	64
 2898 0200 40       		.byte	64
 2899 0201 00       		.byte	0
 2900 0202 03       		.byte	3
 2901 0203 07       		.byte	7
 2902 0204 08       		.byte	8
 2903 0205 00       		.byte	0
 2904 0206 20       		.byte	32
 2905 0207 54       		.byte	84
 2906 0208 54       		.byte	84
 2907 0209 78       		.byte	120
 2908 020a 40       		.byte	64
 2909 020b 7F       		.byte	127
 2910 020c 28       		.byte	40
 2911 020d 44       		.byte	68
 2912 020e 44       		.byte	68
 2913 020f 38       		.byte	56
 2914 0210 38       		.byte	56
 2915 0211 44       		.byte	68
 2916 0212 44       		.byte	68
 2917 0213 44       		.byte	68
 2918 0214 28       		.byte	40
 2919 0215 38       		.byte	56
 2920 0216 44       		.byte	68
 2921 0217 44       		.byte	68
 2922 0218 28       		.byte	40
 2923 0219 7F       		.byte	127
 2924 021a 38       		.byte	56
 2925 021b 54       		.byte	84
 2926 021c 54       		.byte	84
 2927 021d 54       		.byte	84
 2928 021e 18       		.byte	24
 2929 021f 00       		.byte	0
 2930 0220 08       		.byte	8
 2931 0221 7E       		.byte	126
 2932 0222 09       		.byte	9
 2933 0223 02       		.byte	2
 2934 0224 18       		.byte	24
 2935 0225 A4       		.byte	-92
 2936 0226 A4       		.byte	-92
 2937 0227 9C       		.byte	-100
 2938 0228 78       		.byte	120
 2939 0229 7F       		.byte	127
 2940 022a 08       		.byte	8
 2941 022b 04       		.byte	4
 2942 022c 04       		.byte	4
 2943 022d 78       		.byte	120
 2944 022e 00       		.byte	0
 2945 022f 44       		.byte	68
 2946 0230 7D       		.byte	125
 2947 0231 40       		.byte	64
 2948 0232 00       		.byte	0
 2949 0233 20       		.byte	32
ARM GAS  C:\Users\Kiwi\AppData\Local\Temp\ccKDkYuk.s 			page 70


 2950 0234 40       		.byte	64
 2951 0235 40       		.byte	64
 2952 0236 3D       		.byte	61
 2953 0237 00       		.byte	0
 2954 0238 7F       		.byte	127
 2955 0239 10       		.byte	16
 2956 023a 28       		.byte	40
 2957 023b 44       		.byte	68
 2958 023c 00       		.byte	0
 2959 023d 00       		.byte	0
 2960 023e 41       		.byte	65
 2961 023f 7F       		.byte	127
 2962 0240 40       		.byte	64
 2963 0241 00       		.byte	0
 2964 0242 7C       		.byte	124
 2965 0243 04       		.byte	4
 2966 0244 78       		.byte	120
 2967 0245 04       		.byte	4
 2968 0246 78       		.byte	120
 2969 0247 7C       		.byte	124
 2970 0248 08       		.byte	8
 2971 0249 04       		.byte	4
 2972 024a 04       		.byte	4
 2973 024b 78       		.byte	120
 2974 024c 38       		.byte	56
 2975 024d 44       		.byte	68
 2976 024e 44       		.byte	68
 2977 024f 44       		.byte	68
 2978 0250 38       		.byte	56
 2979 0251 FC       		.byte	-4
 2980 0252 18       		.byte	24
 2981 0253 24       		.byte	36
 2982 0254 24       		.byte	36
 2983 0255 18       		.byte	24
 2984 0256 18       		.byte	24
 2985 0257 24       		.byte	36
 2986 0258 24       		.byte	36
 2987 0259 18       		.byte	24
 2988 025a FC       		.byte	-4
 2989 025b 7C       		.byte	124
 2990 025c 08       		.byte	8
 2991 025d 04       		.byte	4
 2992 025e 04       		.byte	4
 2993 025f 08       		.byte	8
 2994 0260 48       		.byte	72
 2995 0261 54       		.byte	84
 2996 0262 54       		.byte	84
 2997 0263 54       		.byte	84
 2998 0264 24       		.byte	36
 2999 0265 04       		.byte	4
 3000 0266 04       		.byte	4
 3001 0267 3F       		.byte	63
 3002 0268 44       		.byte	68
 3003 0269 24       		.byte	36
 3004 026a 3C       		.byte	60
 3005 026b 40       		.byte	64
 3006 026c 40       		.byte	64
ARM GAS  C:\Users\Kiwi\AppData\Local\Temp\ccKDkYuk.s 			page 71


 3007 026d 20       		.byte	32
 3008 026e 7C       		.byte	124
 3009 026f 1C       		.byte	28
 3010 0270 20       		.byte	32
 3011 0271 40       		.byte	64
 3012 0272 20       		.byte	32
 3013 0273 1C       		.byte	28
 3014 0274 3C       		.byte	60
 3015 0275 40       		.byte	64
 3016 0276 30       		.byte	48
 3017 0277 40       		.byte	64
 3018 0278 3C       		.byte	60
 3019 0279 44       		.byte	68
 3020 027a 28       		.byte	40
 3021 027b 10       		.byte	16
 3022 027c 28       		.byte	40
 3023 027d 44       		.byte	68
 3024 027e 4C       		.byte	76
 3025 027f 90       		.byte	-112
 3026 0280 90       		.byte	-112
 3027 0281 90       		.byte	-112
 3028 0282 7C       		.byte	124
 3029 0283 44       		.byte	68
 3030 0284 64       		.byte	100
 3031 0285 54       		.byte	84
 3032 0286 4C       		.byte	76
 3033 0287 44       		.byte	68
 3034 0288 00       		.byte	0
 3035 0289 08       		.byte	8
 3036 028a 36       		.byte	54
 3037 028b 41       		.byte	65
 3038 028c 00       		.byte	0
 3039 028d 00       		.byte	0
 3040 028e 00       		.byte	0
 3041 028f 77       		.byte	119
 3042 0290 00       		.byte	0
 3043 0291 00       		.byte	0
 3044 0292 00       		.byte	0
 3045 0293 41       		.byte	65
 3046 0294 36       		.byte	54
 3047 0295 08       		.byte	8
 3048 0296 00       		.byte	0
 3049 0297 02       		.byte	2
 3050 0298 01       		.byte	1
 3051 0299 02       		.byte	2
 3052 029a 04       		.byte	4
 3053 029b 02       		.byte	2
 3054 029c 3C       		.byte	60
 3055 029d 26       		.byte	38
 3056 029e 23       		.byte	35
 3057 029f 26       		.byte	38
 3058 02a0 3C       		.byte	60
 3059 02a1 1E       		.byte	30
 3060 02a2 A1       		.byte	-95
 3061 02a3 A1       		.byte	-95
 3062 02a4 61       		.byte	97
 3063 02a5 12       		.byte	18
ARM GAS  C:\Users\Kiwi\AppData\Local\Temp\ccKDkYuk.s 			page 72


 3064 02a6 3A       		.byte	58
 3065 02a7 40       		.byte	64
 3066 02a8 40       		.byte	64
 3067 02a9 20       		.byte	32
 3068 02aa 7A       		.byte	122
 3069 02ab 38       		.byte	56
 3070 02ac 54       		.byte	84
 3071 02ad 54       		.byte	84
 3072 02ae 55       		.byte	85
 3073 02af 59       		.byte	89
 3074 02b0 21       		.byte	33
 3075 02b1 55       		.byte	85
 3076 02b2 55       		.byte	85
 3077 02b3 79       		.byte	121
 3078 02b4 41       		.byte	65
 3079 02b5 22       		.byte	34
 3080 02b6 54       		.byte	84
 3081 02b7 54       		.byte	84
 3082 02b8 78       		.byte	120
 3083 02b9 42       		.byte	66
 3084 02ba 21       		.byte	33
 3085 02bb 55       		.byte	85
 3086 02bc 54       		.byte	84
 3087 02bd 78       		.byte	120
 3088 02be 40       		.byte	64
 3089 02bf 20       		.byte	32
 3090 02c0 54       		.byte	84
 3091 02c1 55       		.byte	85
 3092 02c2 79       		.byte	121
 3093 02c3 40       		.byte	64
 3094 02c4 0C       		.byte	12
 3095 02c5 1E       		.byte	30
 3096 02c6 52       		.byte	82
 3097 02c7 72       		.byte	114
 3098 02c8 12       		.byte	18
 3099 02c9 39       		.byte	57
 3100 02ca 55       		.byte	85
 3101 02cb 55       		.byte	85
 3102 02cc 55       		.byte	85
 3103 02cd 59       		.byte	89
 3104 02ce 39       		.byte	57
 3105 02cf 54       		.byte	84
 3106 02d0 54       		.byte	84
 3107 02d1 54       		.byte	84
 3108 02d2 59       		.byte	89
 3109 02d3 39       		.byte	57
 3110 02d4 55       		.byte	85
 3111 02d5 54       		.byte	84
 3112 02d6 54       		.byte	84
 3113 02d7 58       		.byte	88
 3114 02d8 00       		.byte	0
 3115 02d9 00       		.byte	0
 3116 02da 45       		.byte	69
 3117 02db 7C       		.byte	124
 3118 02dc 41       		.byte	65
 3119 02dd 00       		.byte	0
 3120 02de 02       		.byte	2
ARM GAS  C:\Users\Kiwi\AppData\Local\Temp\ccKDkYuk.s 			page 73


 3121 02df 45       		.byte	69
 3122 02e0 7D       		.byte	125
 3123 02e1 42       		.byte	66
 3124 02e2 00       		.byte	0
 3125 02e3 01       		.byte	1
 3126 02e4 45       		.byte	69
 3127 02e5 7C       		.byte	124
 3128 02e6 40       		.byte	64
 3129 02e7 7D       		.byte	125
 3130 02e8 12       		.byte	18
 3131 02e9 11       		.byte	17
 3132 02ea 12       		.byte	18
 3133 02eb 7D       		.byte	125
 3134 02ec F0       		.byte	-16
 3135 02ed 28       		.byte	40
 3136 02ee 25       		.byte	37
 3137 02ef 28       		.byte	40
 3138 02f0 F0       		.byte	-16
 3139 02f1 7C       		.byte	124
 3140 02f2 54       		.byte	84
 3141 02f3 55       		.byte	85
 3142 02f4 45       		.byte	69
 3143 02f5 00       		.byte	0
 3144 02f6 20       		.byte	32
 3145 02f7 54       		.byte	84
 3146 02f8 54       		.byte	84
 3147 02f9 7C       		.byte	124
 3148 02fa 54       		.byte	84
 3149 02fb 7C       		.byte	124
 3150 02fc 0A       		.byte	10
 3151 02fd 09       		.byte	9
 3152 02fe 7F       		.byte	127
 3153 02ff 49       		.byte	73
 3154 0300 32       		.byte	50
 3155 0301 49       		.byte	73
 3156 0302 49       		.byte	73
 3157 0303 49       		.byte	73
 3158 0304 32       		.byte	50
 3159 0305 3A       		.byte	58
 3160 0306 44       		.byte	68
 3161 0307 44       		.byte	68
 3162 0308 44       		.byte	68
 3163 0309 3A       		.byte	58
 3164 030a 32       		.byte	50
 3165 030b 4A       		.byte	74
 3166 030c 48       		.byte	72
 3167 030d 48       		.byte	72
 3168 030e 30       		.byte	48
 3169 030f 3A       		.byte	58
 3170 0310 41       		.byte	65
 3171 0311 41       		.byte	65
 3172 0312 21       		.byte	33
 3173 0313 7A       		.byte	122
 3174 0314 3A       		.byte	58
 3175 0315 42       		.byte	66
 3176 0316 40       		.byte	64
 3177 0317 20       		.byte	32
ARM GAS  C:\Users\Kiwi\AppData\Local\Temp\ccKDkYuk.s 			page 74


 3178 0318 78       		.byte	120
 3179 0319 00       		.byte	0
 3180 031a 9D       		.byte	-99
 3181 031b A0       		.byte	-96
 3182 031c A0       		.byte	-96
 3183 031d 7D       		.byte	125
 3184 031e 3D       		.byte	61
 3185 031f 42       		.byte	66
 3186 0320 42       		.byte	66
 3187 0321 42       		.byte	66
 3188 0322 3D       		.byte	61
 3189 0323 3D       		.byte	61
 3190 0324 40       		.byte	64
 3191 0325 40       		.byte	64
 3192 0326 40       		.byte	64
 3193 0327 3D       		.byte	61
 3194 0328 3C       		.byte	60
 3195 0329 24       		.byte	36
 3196 032a FF       		.byte	-1
 3197 032b 24       		.byte	36
 3198 032c 24       		.byte	36
 3199 032d 48       		.byte	72
 3200 032e 7E       		.byte	126
 3201 032f 49       		.byte	73
 3202 0330 43       		.byte	67
 3203 0331 66       		.byte	102
 3204 0332 2B       		.byte	43
 3205 0333 2F       		.byte	47
 3206 0334 FC       		.byte	-4
 3207 0335 2F       		.byte	47
 3208 0336 2B       		.byte	43
 3209 0337 FF       		.byte	-1
 3210 0338 09       		.byte	9
 3211 0339 29       		.byte	41
 3212 033a F6       		.byte	-10
 3213 033b 20       		.byte	32
 3214 033c C0       		.byte	-64
 3215 033d 88       		.byte	-120
 3216 033e 7E       		.byte	126
 3217 033f 09       		.byte	9
 3218 0340 03       		.byte	3
 3219 0341 20       		.byte	32
 3220 0342 54       		.byte	84
 3221 0343 54       		.byte	84
 3222 0344 79       		.byte	121
 3223 0345 41       		.byte	65
 3224 0346 00       		.byte	0
 3225 0347 00       		.byte	0
 3226 0348 44       		.byte	68
 3227 0349 7D       		.byte	125
 3228 034a 41       		.byte	65
 3229 034b 30       		.byte	48
 3230 034c 48       		.byte	72
 3231 034d 48       		.byte	72
 3232 034e 4A       		.byte	74
 3233 034f 32       		.byte	50
 3234 0350 38       		.byte	56
ARM GAS  C:\Users\Kiwi\AppData\Local\Temp\ccKDkYuk.s 			page 75


 3235 0351 40       		.byte	64
 3236 0352 40       		.byte	64
 3237 0353 22       		.byte	34
 3238 0354 7A       		.byte	122
 3239 0355 00       		.byte	0
 3240 0356 7A       		.byte	122
 3241 0357 0A       		.byte	10
 3242 0358 0A       		.byte	10
 3243 0359 72       		.byte	114
 3244 035a 7D       		.byte	125
 3245 035b 0D       		.byte	13
 3246 035c 19       		.byte	25
 3247 035d 31       		.byte	49
 3248 035e 7D       		.byte	125
 3249 035f 26       		.byte	38
 3250 0360 29       		.byte	41
 3251 0361 29       		.byte	41
 3252 0362 2F       		.byte	47
 3253 0363 28       		.byte	40
 3254 0364 26       		.byte	38
 3255 0365 29       		.byte	41
 3256 0366 29       		.byte	41
 3257 0367 29       		.byte	41
 3258 0368 26       		.byte	38
 3259 0369 30       		.byte	48
 3260 036a 48       		.byte	72
 3261 036b 4D       		.byte	77
 3262 036c 40       		.byte	64
 3263 036d 20       		.byte	32
 3264 036e 38       		.byte	56
 3265 036f 08       		.byte	8
 3266 0370 08       		.byte	8
 3267 0371 08       		.byte	8
 3268 0372 08       		.byte	8
 3269 0373 08       		.byte	8
 3270 0374 08       		.byte	8
 3271 0375 08       		.byte	8
 3272 0376 08       		.byte	8
 3273 0377 38       		.byte	56
 3274 0378 2F       		.byte	47
 3275 0379 10       		.byte	16
 3276 037a C8       		.byte	-56
 3277 037b AC       		.byte	-84
 3278 037c BA       		.byte	-70
 3279 037d 2F       		.byte	47
 3280 037e 10       		.byte	16
 3281 037f 28       		.byte	40
 3282 0380 34       		.byte	52
 3283 0381 FA       		.byte	-6
 3284 0382 00       		.byte	0
 3285 0383 00       		.byte	0
 3286 0384 7B       		.byte	123
 3287 0385 00       		.byte	0
 3288 0386 00       		.byte	0
 3289 0387 08       		.byte	8
 3290 0388 14       		.byte	20
 3291 0389 2A       		.byte	42
ARM GAS  C:\Users\Kiwi\AppData\Local\Temp\ccKDkYuk.s 			page 76


 3292 038a 14       		.byte	20
 3293 038b 22       		.byte	34
 3294 038c 22       		.byte	34
 3295 038d 14       		.byte	20
 3296 038e 2A       		.byte	42
 3297 038f 14       		.byte	20
 3298 0390 08       		.byte	8
 3299 0391 AA       		.byte	-86
 3300 0392 00       		.byte	0
 3301 0393 55       		.byte	85
 3302 0394 00       		.byte	0
 3303 0395 AA       		.byte	-86
 3304 0396 AA       		.byte	-86
 3305 0397 55       		.byte	85
 3306 0398 AA       		.byte	-86
 3307 0399 55       		.byte	85
 3308 039a AA       		.byte	-86
 3309 039b 00       		.byte	0
 3310 039c 00       		.byte	0
 3311 039d 00       		.byte	0
 3312 039e FF       		.byte	-1
 3313 039f 00       		.byte	0
 3314 03a0 10       		.byte	16
 3315 03a1 10       		.byte	16
 3316 03a2 10       		.byte	16
 3317 03a3 FF       		.byte	-1
 3318 03a4 00       		.byte	0
 3319 03a5 14       		.byte	20
 3320 03a6 14       		.byte	20
 3321 03a7 14       		.byte	20
 3322 03a8 FF       		.byte	-1
 3323 03a9 00       		.byte	0
 3324 03aa 10       		.byte	16
 3325 03ab 10       		.byte	16
 3326 03ac FF       		.byte	-1
 3327 03ad 00       		.byte	0
 3328 03ae FF       		.byte	-1
 3329 03af 10       		.byte	16
 3330 03b0 10       		.byte	16
 3331 03b1 F0       		.byte	-16
 3332 03b2 10       		.byte	16
 3333 03b3 F0       		.byte	-16
 3334 03b4 14       		.byte	20
 3335 03b5 14       		.byte	20
 3336 03b6 14       		.byte	20
 3337 03b7 FC       		.byte	-4
 3338 03b8 00       		.byte	0
 3339 03b9 14       		.byte	20
 3340 03ba 14       		.byte	20
 3341 03bb F7       		.byte	-9
 3342 03bc 00       		.byte	0
 3343 03bd FF       		.byte	-1
 3344 03be 00       		.byte	0
 3345 03bf 00       		.byte	0
 3346 03c0 FF       		.byte	-1
 3347 03c1 00       		.byte	0
 3348 03c2 FF       		.byte	-1
ARM GAS  C:\Users\Kiwi\AppData\Local\Temp\ccKDkYuk.s 			page 77


 3349 03c3 14       		.byte	20
 3350 03c4 14       		.byte	20
 3351 03c5 F4       		.byte	-12
 3352 03c6 04       		.byte	4
 3353 03c7 FC       		.byte	-4
 3354 03c8 14       		.byte	20
 3355 03c9 14       		.byte	20
 3356 03ca 17       		.byte	23
 3357 03cb 10       		.byte	16
 3358 03cc 1F       		.byte	31
 3359 03cd 10       		.byte	16
 3360 03ce 10       		.byte	16
 3361 03cf 1F       		.byte	31
 3362 03d0 10       		.byte	16
 3363 03d1 1F       		.byte	31
 3364 03d2 14       		.byte	20
 3365 03d3 14       		.byte	20
 3366 03d4 14       		.byte	20
 3367 03d5 1F       		.byte	31
 3368 03d6 00       		.byte	0
 3369 03d7 10       		.byte	16
 3370 03d8 10       		.byte	16
 3371 03d9 10       		.byte	16
 3372 03da F0       		.byte	-16
 3373 03db 00       		.byte	0
 3374 03dc 00       		.byte	0
 3375 03dd 00       		.byte	0
 3376 03de 00       		.byte	0
 3377 03df 1F       		.byte	31
 3378 03e0 10       		.byte	16
 3379 03e1 10       		.byte	16
 3380 03e2 10       		.byte	16
 3381 03e3 10       		.byte	16
 3382 03e4 1F       		.byte	31
 3383 03e5 10       		.byte	16
 3384 03e6 10       		.byte	16
 3385 03e7 10       		.byte	16
 3386 03e8 10       		.byte	16
 3387 03e9 F0       		.byte	-16
 3388 03ea 10       		.byte	16
 3389 03eb 00       		.byte	0
 3390 03ec 00       		.byte	0
 3391 03ed 00       		.byte	0
 3392 03ee FF       		.byte	-1
 3393 03ef 10       		.byte	16
 3394 03f0 10       		.byte	16
 3395 03f1 10       		.byte	16
 3396 03f2 10       		.byte	16
 3397 03f3 10       		.byte	16
 3398 03f4 10       		.byte	16
 3399 03f5 10       		.byte	16
 3400 03f6 10       		.byte	16
 3401 03f7 10       		.byte	16
 3402 03f8 FF       		.byte	-1
 3403 03f9 10       		.byte	16
 3404 03fa 00       		.byte	0
 3405 03fb 00       		.byte	0
ARM GAS  C:\Users\Kiwi\AppData\Local\Temp\ccKDkYuk.s 			page 78


 3406 03fc 00       		.byte	0
 3407 03fd FF       		.byte	-1
 3408 03fe 14       		.byte	20
 3409 03ff 00       		.byte	0
 3410 0400 00       		.byte	0
 3411 0401 FF       		.byte	-1
 3412 0402 00       		.byte	0
 3413 0403 FF       		.byte	-1
 3414 0404 00       		.byte	0
 3415 0405 00       		.byte	0
 3416 0406 1F       		.byte	31
 3417 0407 10       		.byte	16
 3418 0408 17       		.byte	23
 3419 0409 00       		.byte	0
 3420 040a 00       		.byte	0
 3421 040b FC       		.byte	-4
 3422 040c 04       		.byte	4
 3423 040d F4       		.byte	-12
 3424 040e 14       		.byte	20
 3425 040f 14       		.byte	20
 3426 0410 17       		.byte	23
 3427 0411 10       		.byte	16
 3428 0412 17       		.byte	23
 3429 0413 14       		.byte	20
 3430 0414 14       		.byte	20
 3431 0415 F4       		.byte	-12
 3432 0416 04       		.byte	4
 3433 0417 F4       		.byte	-12
 3434 0418 00       		.byte	0
 3435 0419 00       		.byte	0
 3436 041a FF       		.byte	-1
 3437 041b 00       		.byte	0
 3438 041c F7       		.byte	-9
 3439 041d 14       		.byte	20
 3440 041e 14       		.byte	20
 3441 041f 14       		.byte	20
 3442 0420 14       		.byte	20
 3443 0421 14       		.byte	20
 3444 0422 14       		.byte	20
 3445 0423 14       		.byte	20
 3446 0424 F7       		.byte	-9
 3447 0425 00       		.byte	0
 3448 0426 F7       		.byte	-9
 3449 0427 14       		.byte	20
 3450 0428 14       		.byte	20
 3451 0429 14       		.byte	20
 3452 042a 17       		.byte	23
 3453 042b 14       		.byte	20
 3454 042c 10       		.byte	16
 3455 042d 10       		.byte	16
 3456 042e 1F       		.byte	31
 3457 042f 10       		.byte	16
 3458 0430 1F       		.byte	31
 3459 0431 14       		.byte	20
 3460 0432 14       		.byte	20
 3461 0433 14       		.byte	20
 3462 0434 F4       		.byte	-12
ARM GAS  C:\Users\Kiwi\AppData\Local\Temp\ccKDkYuk.s 			page 79


 3463 0435 14       		.byte	20
 3464 0436 10       		.byte	16
 3465 0437 10       		.byte	16
 3466 0438 F0       		.byte	-16
 3467 0439 10       		.byte	16
 3468 043a F0       		.byte	-16
 3469 043b 00       		.byte	0
 3470 043c 00       		.byte	0
 3471 043d 1F       		.byte	31
 3472 043e 10       		.byte	16
 3473 043f 1F       		.byte	31
 3474 0440 00       		.byte	0
 3475 0441 00       		.byte	0
 3476 0442 00       		.byte	0
 3477 0443 1F       		.byte	31
 3478 0444 14       		.byte	20
 3479 0445 00       		.byte	0
 3480 0446 00       		.byte	0
 3481 0447 00       		.byte	0
 3482 0448 FC       		.byte	-4
 3483 0449 14       		.byte	20
 3484 044a 00       		.byte	0
 3485 044b 00       		.byte	0
 3486 044c F0       		.byte	-16
 3487 044d 10       		.byte	16
 3488 044e F0       		.byte	-16
 3489 044f 10       		.byte	16
 3490 0450 10       		.byte	16
 3491 0451 FF       		.byte	-1
 3492 0452 10       		.byte	16
 3493 0453 FF       		.byte	-1
 3494 0454 14       		.byte	20
 3495 0455 14       		.byte	20
 3496 0456 14       		.byte	20
 3497 0457 FF       		.byte	-1
 3498 0458 14       		.byte	20
 3499 0459 10       		.byte	16
 3500 045a 10       		.byte	16
 3501 045b 10       		.byte	16
 3502 045c 1F       		.byte	31
 3503 045d 00       		.byte	0
 3504 045e 00       		.byte	0
 3505 045f 00       		.byte	0
 3506 0460 00       		.byte	0
 3507 0461 F0       		.byte	-16
 3508 0462 10       		.byte	16
 3509 0463 FF       		.byte	-1
 3510 0464 FF       		.byte	-1
 3511 0465 FF       		.byte	-1
 3512 0466 FF       		.byte	-1
 3513 0467 FF       		.byte	-1
 3514 0468 F0       		.byte	-16
 3515 0469 F0       		.byte	-16
 3516 046a F0       		.byte	-16
 3517 046b F0       		.byte	-16
 3518 046c F0       		.byte	-16
 3519 046d FF       		.byte	-1
ARM GAS  C:\Users\Kiwi\AppData\Local\Temp\ccKDkYuk.s 			page 80


 3520 046e FF       		.byte	-1
 3521 046f FF       		.byte	-1
 3522 0470 00       		.byte	0
 3523 0471 00       		.byte	0
 3524 0472 00       		.byte	0
 3525 0473 00       		.byte	0
 3526 0474 00       		.byte	0
 3527 0475 FF       		.byte	-1
 3528 0476 FF       		.byte	-1
 3529 0477 0F       		.byte	15
 3530 0478 0F       		.byte	15
 3531 0479 0F       		.byte	15
 3532 047a 0F       		.byte	15
 3533 047b 0F       		.byte	15
 3534 047c 38       		.byte	56
 3535 047d 44       		.byte	68
 3536 047e 44       		.byte	68
 3537 047f 38       		.byte	56
 3538 0480 44       		.byte	68
 3539 0481 FC       		.byte	-4
 3540 0482 4A       		.byte	74
 3541 0483 4A       		.byte	74
 3542 0484 4A       		.byte	74
 3543 0485 34       		.byte	52
 3544 0486 7E       		.byte	126
 3545 0487 02       		.byte	2
 3546 0488 02       		.byte	2
 3547 0489 06       		.byte	6
 3548 048a 06       		.byte	6
 3549 048b 02       		.byte	2
 3550 048c 7E       		.byte	126
 3551 048d 02       		.byte	2
 3552 048e 7E       		.byte	126
 3553 048f 02       		.byte	2
 3554 0490 63       		.byte	99
 3555 0491 55       		.byte	85
 3556 0492 49       		.byte	73
 3557 0493 41       		.byte	65
 3558 0494 63       		.byte	99
 3559 0495 38       		.byte	56
 3560 0496 44       		.byte	68
 3561 0497 44       		.byte	68
 3562 0498 3C       		.byte	60
 3563 0499 04       		.byte	4
 3564 049a 40       		.byte	64
 3565 049b 7E       		.byte	126
 3566 049c 20       		.byte	32
 3567 049d 1E       		.byte	30
 3568 049e 20       		.byte	32
 3569 049f 06       		.byte	6
 3570 04a0 02       		.byte	2
 3571 04a1 7E       		.byte	126
 3572 04a2 02       		.byte	2
 3573 04a3 02       		.byte	2
 3574 04a4 99       		.byte	-103
 3575 04a5 A5       		.byte	-91
 3576 04a6 E7       		.byte	-25
ARM GAS  C:\Users\Kiwi\AppData\Local\Temp\ccKDkYuk.s 			page 81


 3577 04a7 A5       		.byte	-91
 3578 04a8 99       		.byte	-103
 3579 04a9 1C       		.byte	28
 3580 04aa 2A       		.byte	42
 3581 04ab 49       		.byte	73
 3582 04ac 2A       		.byte	42
 3583 04ad 1C       		.byte	28
 3584 04ae 4C       		.byte	76
 3585 04af 72       		.byte	114
 3586 04b0 01       		.byte	1
 3587 04b1 72       		.byte	114
 3588 04b2 4C       		.byte	76
 3589 04b3 30       		.byte	48
 3590 04b4 4A       		.byte	74
 3591 04b5 4D       		.byte	77
 3592 04b6 4D       		.byte	77
 3593 04b7 30       		.byte	48
 3594 04b8 30       		.byte	48
 3595 04b9 48       		.byte	72
 3596 04ba 78       		.byte	120
 3597 04bb 48       		.byte	72
 3598 04bc 30       		.byte	48
 3599 04bd BC       		.byte	-68
 3600 04be 62       		.byte	98
 3601 04bf 5A       		.byte	90
 3602 04c0 46       		.byte	70
 3603 04c1 3D       		.byte	61
 3604 04c2 3E       		.byte	62
 3605 04c3 49       		.byte	73
 3606 04c4 49       		.byte	73
 3607 04c5 49       		.byte	73
 3608 04c6 00       		.byte	0
 3609 04c7 7E       		.byte	126
 3610 04c8 01       		.byte	1
 3611 04c9 01       		.byte	1
 3612 04ca 01       		.byte	1
 3613 04cb 7E       		.byte	126
 3614 04cc 2A       		.byte	42
 3615 04cd 2A       		.byte	42
 3616 04ce 2A       		.byte	42
 3617 04cf 2A       		.byte	42
 3618 04d0 2A       		.byte	42
 3619 04d1 44       		.byte	68
 3620 04d2 44       		.byte	68
 3621 04d3 5F       		.byte	95
 3622 04d4 44       		.byte	68
 3623 04d5 44       		.byte	68
 3624 04d6 40       		.byte	64
 3625 04d7 51       		.byte	81
 3626 04d8 4A       		.byte	74
 3627 04d9 44       		.byte	68
 3628 04da 40       		.byte	64
 3629 04db 40       		.byte	64
 3630 04dc 44       		.byte	68
 3631 04dd 4A       		.byte	74
 3632 04de 51       		.byte	81
 3633 04df 40       		.byte	64
ARM GAS  C:\Users\Kiwi\AppData\Local\Temp\ccKDkYuk.s 			page 82


 3634 04e0 00       		.byte	0
 3635 04e1 00       		.byte	0
 3636 04e2 FF       		.byte	-1
 3637 04e3 01       		.byte	1
 3638 04e4 03       		.byte	3
 3639 04e5 E0       		.byte	-32
 3640 04e6 80       		.byte	-128
 3641 04e7 FF       		.byte	-1
 3642 04e8 00       		.byte	0
 3643 04e9 00       		.byte	0
 3644 04ea 08       		.byte	8
 3645 04eb 08       		.byte	8
 3646 04ec 6B       		.byte	107
 3647 04ed 6B       		.byte	107
 3648 04ee 08       		.byte	8
 3649 04ef 36       		.byte	54
 3650 04f0 12       		.byte	18
 3651 04f1 36       		.byte	54
 3652 04f2 24       		.byte	36
 3653 04f3 36       		.byte	54
 3654 04f4 06       		.byte	6
 3655 04f5 0F       		.byte	15
 3656 04f6 09       		.byte	9
 3657 04f7 0F       		.byte	15
 3658 04f8 06       		.byte	6
 3659 04f9 00       		.byte	0
 3660 04fa 00       		.byte	0
 3661 04fb 18       		.byte	24
 3662 04fc 18       		.byte	24
 3663 04fd 00       		.byte	0
 3664 04fe 00       		.byte	0
 3665 04ff 00       		.byte	0
 3666 0500 10       		.byte	16
 3667 0501 10       		.byte	16
 3668 0502 00       		.byte	0
 3669 0503 30       		.byte	48
 3670 0504 40       		.byte	64
 3671 0505 FF       		.byte	-1
 3672 0506 01       		.byte	1
 3673 0507 01       		.byte	1
 3674 0508 00       		.byte	0
 3675 0509 1F       		.byte	31
 3676 050a 01       		.byte	1
 3677 050b 01       		.byte	1
 3678 050c 1E       		.byte	30
 3679 050d 00       		.byte	0
 3680 050e 19       		.byte	25
 3681 050f 1D       		.byte	29
 3682 0510 17       		.byte	23
 3683 0511 12       		.byte	18
 3684 0512 00       		.byte	0
 3685 0513 3C       		.byte	60
 3686 0514 3C       		.byte	60
 3687 0515 3C       		.byte	60
 3688 0516 3C       		.byte	60
 3689 0517 00       		.byte	0
 3690 0518 00       		.byte	0
ARM GAS  C:\Users\Kiwi\AppData\Local\Temp\ccKDkYuk.s 			page 83


 3691 0519 00       		.byte	0
 3692 051a 00       		.byte	0
 3693 051b 00       		.byte	0
 3694              		.data
 3695              		.set	.LANCHOR1,. + 0
 3696              		.type	SSD1306_buffer, %object
 3697              		.size	SSD1306_buffer, 1025
 3698              	SSD1306_buffer:
 3699 0000 40       		.byte	64
 3700 0001 00000000 		.space	1024
 3700      00000000 
 3700      00000000 
 3700      00000000 
 3700      00000000 
 3701              		.bss
 3702              		.align	1
 3703              		.set	.LANCHOR0,. + 0
 3704              		.type	_i2caddr, %object
 3705              		.size	_i2caddr, 1
 3706              	_i2caddr:
 3707 0000 00       		.space	1
 3708 0001 00       		.space	1
 3709              		.type	cursor_y, %object
 3710              		.size	cursor_y, 2
 3711              	cursor_y:
 3712 0002 0000     		.space	2
 3713              		.type	textsize, %object
 3714              		.size	textsize, 1
 3715              	textsize:
 3716 0004 00       		.space	1
 3717 0005 00       		.space	1
 3718              		.type	cursor_x, %object
 3719              		.size	cursor_x, 2
 3720              	cursor_x:
 3721 0006 0000     		.space	2
 3722              		.type	_width, %object
 3723              		.size	_width, 2
 3724              	_width:
 3725 0008 0000     		.space	2
 3726              		.type	_height, %object
 3727              		.size	_height, 2
 3728              	_height:
 3729 000a 0000     		.space	2
 3730              		.type	textbgcolor, %object
 3731              		.size	textbgcolor, 2
 3732              	textbgcolor:
 3733 000c 0000     		.space	2
 3734              		.type	textcolor, %object
 3735              		.size	textcolor, 2
 3736              	textcolor:
 3737 000e 0000     		.space	2
 3738              		.text
 3739              	.Letext0:
 3740              		.file 2 "c:\\program files (x86)\\cypress\\psoc creator\\4.4\\psoc creator\\import\\gnu\\arm\\5.4.
 3741              		.file 3 "c:\\program files (x86)\\cypress\\psoc creator\\4.4\\psoc creator\\import\\gnu\\arm\\5.4.
 3742              		.file 4 "Generated_Source\\PSoC5/cytypes.h"
 3743              		.file 5 "ssd1306.h"
ARM GAS  C:\Users\Kiwi\AppData\Local\Temp\ccKDkYuk.s 			page 84


 3744              		.file 6 "font.h"
 3745              		.file 7 "Generated_Source\\PSoC5/core_cm3.h"
 3746              		.file 8 "Generated_Source\\PSoC5/I2COLED.h"
 3747              		.file 9 "c:\\program files (x86)\\cypress\\psoc creator\\4.4\\psoc creator\\import\\gnu\\arm\\5.4.